
BicMeter.elf:     file format elf32-avr

Sections:
Idx Name          Size      VMA       LMA       File off  Algn
  0 .text         0000128c  00000000  00000000  00000094  2**1
                  CONTENTS, ALLOC, LOAD, READONLY, CODE
  1 .data         00000044  00800060  0000128c  00001320  2**0
                  CONTENTS, ALLOC, LOAD, DATA
  2 .bss          0000008e  008000a4  008000a4  00001364  2**0
                  ALLOC
  3 .stab         000006cc  00000000  00000000  00001364  2**2
                  CONTENTS, READONLY, DEBUGGING
  4 .stabstr      00000085  00000000  00000000  00001a30  2**0
                  CONTENTS, READONLY, DEBUGGING
  5 .debug_aranges 000000c0  00000000  00000000  00001ab8  2**3
                  CONTENTS, READONLY, DEBUGGING
  6 .debug_info   0000052e  00000000  00000000  00001b78  2**0
                  CONTENTS, READONLY, DEBUGGING
  7 .debug_abbrev 00000078  00000000  00000000  000020a6  2**0
                  CONTENTS, READONLY, DEBUGGING
  8 .debug_line   0000038e  00000000  00000000  0000211e  2**0
                  CONTENTS, READONLY, DEBUGGING

Disassembly of section .text:

00000000 <__vectors>:
       0:	12 c0       	rjmp	.+36     	; 0x26 <__ctors_end>
       2:	7e c8       	rjmp	.-3844   	; 0xfffff100 <__eeprom_end+0xff7ef100>
       4:	a3 c8       	rjmp	.-3770   	; 0xfffff14c <__eeprom_end+0xff7ef14c>
       6:	2a c0       	rjmp	.+84     	; 0x5c <__bad_interrupt>
       8:	29 c0       	rjmp	.+82     	; 0x5c <__bad_interrupt>
       a:	28 c0       	rjmp	.+80     	; 0x5c <__bad_interrupt>
       c:	27 c0       	rjmp	.+78     	; 0x5c <__bad_interrupt>
       e:	26 c0       	rjmp	.+76     	; 0x5c <__bad_interrupt>
      10:	50 c8       	rjmp	.-3936   	; 0xfffff0b2 <__eeprom_end+0xff7ef0b2>
      12:	2a c8       	rjmp	.-4012   	; 0xfffff068 <__eeprom_end+0xff7ef068>
      14:	23 c0       	rjmp	.+70     	; 0x5c <__bad_interrupt>
      16:	22 c0       	rjmp	.+68     	; 0x5c <__bad_interrupt>
      18:	21 c0       	rjmp	.+66     	; 0x5c <__bad_interrupt>
      1a:	20 c0       	rjmp	.+64     	; 0x5c <__bad_interrupt>
      1c:	1f c0       	rjmp	.+62     	; 0x5c <__bad_interrupt>
      1e:	1e c0       	rjmp	.+60     	; 0x5c <__bad_interrupt>
      20:	1d c0       	rjmp	.+58     	; 0x5c <__bad_interrupt>
      22:	1c c0       	rjmp	.+56     	; 0x5c <__bad_interrupt>
      24:	1b c0       	rjmp	.+54     	; 0x5c <__bad_interrupt>

00000026 <__ctors_end>:
      26:	11 24       	eor	r1, r1
      28:	1f be       	out	0x3f, r1	; 63
      2a:	cf e5       	ldi	r28, 0x5F	; 95
      2c:	d4 e0       	ldi	r29, 0x04	; 4
      2e:	de bf       	out	0x3e, r29	; 62
      30:	cd bf       	out	0x3d, r28	; 61

00000032 <__do_copy_data>:
      32:	10 e0       	ldi	r17, 0x00	; 0
      34:	a0 e6       	ldi	r26, 0x60	; 96
      36:	b0 e0       	ldi	r27, 0x00	; 0
      38:	ec e8       	ldi	r30, 0x8C	; 140
      3a:	f2 e1       	ldi	r31, 0x12	; 18
      3c:	02 c0       	rjmp	.+4      	; 0x42 <__SREG__+0x3>
      3e:	05 90       	lpm	r0, Z+
      40:	0d 92       	st	X+, r0
      42:	a4 3a       	cpi	r26, 0xA4	; 164
      44:	b1 07       	cpc	r27, r17
      46:	d9 f7       	brne	.-10     	; 0x3e <__SP_H__>

00000048 <__do_clear_bss>:
      48:	11 e0       	ldi	r17, 0x01	; 1
      4a:	a4 ea       	ldi	r26, 0xA4	; 164
      4c:	b0 e0       	ldi	r27, 0x00	; 0
      4e:	01 c0       	rjmp	.+2      	; 0x52 <.do_clear_bss_start>

00000050 <.do_clear_bss_loop>:
      50:	1d 92       	st	X+, r1

00000052 <.do_clear_bss_start>:
      52:	a2 33       	cpi	r26, 0x32	; 50
      54:	b1 07       	cpc	r27, r17
      56:	e1 f7       	brne	.-8      	; 0x50 <.do_clear_bss_loop>
      58:	be d8       	rcall	.-3716   	; 0xfffff1d6 <__eeprom_end+0xff7ef1d6>
      5a:	16 c9       	rjmp	.-3540   	; 0xfffff288 <__eeprom_end+0xff7ef288>

0000005c <__bad_interrupt>:
      5c:	d1 cf       	rjmp	.-94     	; 0x0 <__vectors>

0000005e <IncrementDecrementSingleDigit>:
      5e:	cf 92       	push	r12
      60:	df 92       	push	r13
      62:	ef 92       	push	r14
      64:	ff 92       	push	r15
      66:	0f 93       	push	r16
      68:	1f 93       	push	r17
      6a:	cf 93       	push	r28
      6c:	df 93       	push	r29
      6e:	00 d0       	rcall	.+0      	; 0x70 <IncrementDecrementSingleDigit+0x12>
      70:	00 d0       	rcall	.+0      	; 0x72 <IncrementDecrementSingleDigit+0x14>
      72:	cd b7       	in	r28, 0x3d	; 61
      74:	de b7       	in	r29, 0x3e	; 62
      76:	9c 01       	movw	r18, r24
      78:	16 2f       	mov	r17, r22
      7a:	04 2f       	mov	r16, r20
      7c:	6e 01       	movw	r12, r28
      7e:	08 94       	sec
      80:	c1 1c       	adc	r12, r1
      82:	d1 1c       	adc	r13, r1
      84:	f6 01       	movw	r30, r12
      86:	44 e0       	ldi	r20, 0x04	; 4
      88:	aa e0       	ldi	r26, 0x0A	; 10
      8a:	ea 2e       	mov	r14, r26
      8c:	f1 2c       	mov	r15, r1
      8e:	21 15       	cp	r18, r1
      90:	31 05       	cpc	r19, r1
      92:	69 f0       	breq	.+26     	; 0xae <IncrementDecrementSingleDigit+0x50>
      94:	c9 01       	movw	r24, r18
      96:	b7 01       	movw	r22, r14
      98:	c1 d8       	rcall	.-3710   	; 0xfffff21c <__eeprom_end+0xff7ef21c>
      9a:	96 2f       	mov	r25, r22
      9c:	99 0f       	add	r25, r25
      9e:	89 2f       	mov	r24, r25
      a0:	88 0f       	add	r24, r24
      a2:	88 0f       	add	r24, r24
      a4:	89 0f       	add	r24, r25
      a6:	28 1b       	sub	r18, r24
      a8:	20 83       	st	Z, r18
      aa:	9b 01       	movw	r18, r22
      ac:	01 c0       	rjmp	.+2      	; 0xb0 <IncrementDecrementSingleDigit+0x52>
      ae:	10 82       	st	Z, r1
      b0:	41 50       	subi	r20, 0x01	; 1
      b2:	31 96       	adiw	r30, 0x01	; 1
      b4:	44 23       	and	r20, r20
      b6:	59 f7       	brne	.-42     	; 0x8e <IncrementDecrementSingleDigit+0x30>
      b8:	e1 2f       	mov	r30, r17
      ba:	f0 e0       	ldi	r31, 0x00	; 0
      bc:	00 23       	and	r16, r16
      be:	69 f4       	brne	.+26     	; 0xda <IncrementDecrementSingleDigit+0x7c>
      c0:	81 e0       	ldi	r24, 0x01	; 1
      c2:	90 e0       	ldi	r25, 0x00	; 0
      c4:	8c 0f       	add	r24, r28
      c6:	9d 1f       	adc	r25, r29
      c8:	e8 0f       	add	r30, r24
      ca:	f9 1f       	adc	r31, r25
      cc:	80 81       	ld	r24, Z
      ce:	88 23       	and	r24, r24
      d0:	11 f4       	brne	.+4      	; 0xd6 <IncrementDecrementSingleDigit+0x78>
      d2:	89 e0       	ldi	r24, 0x09	; 9
      d4:	0e c0       	rjmp	.+28     	; 0xf2 <IncrementDecrementSingleDigit+0x94>
      d6:	81 50       	subi	r24, 0x01	; 1
      d8:	0c c0       	rjmp	.+24     	; 0xf2 <IncrementDecrementSingleDigit+0x94>
      da:	a1 e0       	ldi	r26, 0x01	; 1
      dc:	b0 e0       	ldi	r27, 0x00	; 0
      de:	ac 0f       	add	r26, r28
      e0:	bd 1f       	adc	r27, r29
      e2:	ea 0f       	add	r30, r26
      e4:	fb 1f       	adc	r31, r27
      e6:	80 81       	ld	r24, Z
      e8:	89 30       	cpi	r24, 0x09	; 9
      ea:	11 f4       	brne	.+4      	; 0xf0 <IncrementDecrementSingleDigit+0x92>
      ec:	10 82       	st	Z, r1
      ee:	02 c0       	rjmp	.+4      	; 0xf4 <IncrementDecrementSingleDigit+0x96>
      f0:	8f 5f       	subi	r24, 0xFF	; 255
      f2:	80 83       	st	Z, r24
      f4:	20 e0       	ldi	r18, 0x00	; 0
      f6:	60 e0       	ldi	r22, 0x00	; 0
      f8:	70 e0       	ldi	r23, 0x00	; 0
      fa:	1e c0       	rjmp	.+60     	; 0x138 <IncrementDecrementSingleDigit+0xda>
      fc:	ca 01       	movw	r24, r20
      fe:	88 0f       	add	r24, r24
     100:	99 1f       	adc	r25, r25
     102:	f3 e0       	ldi	r31, 0x03	; 3
     104:	44 0f       	add	r20, r20
     106:	55 1f       	adc	r21, r21
     108:	fa 95       	dec	r31
     10a:	e1 f7       	brne	.-8      	; 0x104 <IncrementDecrementSingleDigit+0xa6>
     10c:	48 0f       	add	r20, r24
     10e:	59 1f       	adc	r21, r25
     110:	ef 5f       	subi	r30, 0xFF	; 255
     112:	e2 17       	cp	r30, r18
     114:	99 f7       	brne	.-26     	; 0xfc <IncrementDecrementSingleDigit+0x9e>
     116:	d6 01       	movw	r26, r12
     118:	8d 91       	ld	r24, X+
     11a:	6d 01       	movw	r12, r26
     11c:	90 e0       	ldi	r25, 0x00	; 0
     11e:	48 9f       	mul	r20, r24
     120:	90 01       	movw	r18, r0
     122:	49 9f       	mul	r20, r25
     124:	30 0d       	add	r19, r0
     126:	58 9f       	mul	r21, r24
     128:	30 0d       	add	r19, r0
     12a:	11 24       	eor	r1, r1
     12c:	62 0f       	add	r22, r18
     12e:	73 1f       	adc	r23, r19
     130:	2e 2f       	mov	r18, r30
     132:	2f 5f       	subi	r18, 0xFF	; 255
     134:	24 30       	cpi	r18, 0x04	; 4
     136:	21 f0       	breq	.+8      	; 0x140 <IncrementDecrementSingleDigit+0xe2>
     138:	41 e0       	ldi	r20, 0x01	; 1
     13a:	50 e0       	ldi	r21, 0x00	; 0
     13c:	e0 e0       	ldi	r30, 0x00	; 0
     13e:	e9 cf       	rjmp	.-46     	; 0x112 <IncrementDecrementSingleDigit+0xb4>
     140:	cb 01       	movw	r24, r22
     142:	0f 90       	pop	r0
     144:	0f 90       	pop	r0
     146:	0f 90       	pop	r0
     148:	0f 90       	pop	r0
     14a:	df 91       	pop	r29
     14c:	cf 91       	pop	r28
     14e:	1f 91       	pop	r17
     150:	0f 91       	pop	r16
     152:	ff 90       	pop	r15
     154:	ef 90       	pop	r14
     156:	df 90       	pop	r13
     158:	cf 90       	pop	r12
     15a:	08 95       	ret

0000015c <APP_INITIALIZE>:
     15c:	81 e0       	ldi	r24, 0x01	; 1
     15e:	64 ea       	ldi	r22, 0xA4	; 164
     160:	70 e0       	ldi	r23, 0x00	; 0
     162:	4f e0       	ldi	r20, 0x0F	; 15
     164:	39 d4       	rcall	.+2162   	; 0x9d8 <Eeprom_Read_Block>
     166:	80 91 a4 00 	lds	r24, 0x00A4
     16a:	90 91 a5 00 	lds	r25, 0x00A5
     16e:	27 e2       	ldi	r18, 0x27	; 39
     170:	80 31       	cpi	r24, 0x10	; 16
     172:	92 07       	cpc	r25, r18
     174:	30 f0       	brcs	.+12     	; 0x182 <APP_INITIALIZE+0x26>
     176:	80 ed       	ldi	r24, 0xD0	; 208
     178:	97 e0       	ldi	r25, 0x07	; 7
     17a:	90 93 a5 00 	sts	0x00A5, r25
     17e:	80 93 a4 00 	sts	0x00A4, r24
     182:	80 91 a9 00 	lds	r24, 0x00A9
     186:	90 91 aa 00 	lds	r25, 0x00AA
     18a:	a0 91 ab 00 	lds	r26, 0x00AB
     18e:	b0 91 ac 00 	lds	r27, 0x00AC
     192:	80 31       	cpi	r24, 0x10	; 16
     194:	27 e2       	ldi	r18, 0x27	; 39
     196:	92 07       	cpc	r25, r18
     198:	20 e0       	ldi	r18, 0x00	; 0
     19a:	a2 07       	cpc	r26, r18
     19c:	20 e0       	ldi	r18, 0x00	; 0
     19e:	b2 07       	cpc	r27, r18
     1a0:	40 f0       	brcs	.+16     	; 0x1b2 <APP_INITIALIZE+0x56>
     1a2:	10 92 a9 00 	sts	0x00A9, r1
     1a6:	10 92 aa 00 	sts	0x00AA, r1
     1aa:	10 92 ab 00 	sts	0x00AB, r1
     1ae:	10 92 ac 00 	sts	0x00AC, r1
     1b2:	80 91 a9 00 	lds	r24, 0x00A9
     1b6:	90 91 aa 00 	lds	r25, 0x00AA
     1ba:	a0 91 ab 00 	lds	r26, 0x00AB
     1be:	b0 91 ac 00 	lds	r27, 0x00AC
     1c2:	80 31       	cpi	r24, 0x10	; 16
     1c4:	27 e2       	ldi	r18, 0x27	; 39
     1c6:	92 07       	cpc	r25, r18
     1c8:	20 e0       	ldi	r18, 0x00	; 0
     1ca:	a2 07       	cpc	r26, r18
     1cc:	20 e0       	ldi	r18, 0x00	; 0
     1ce:	b2 07       	cpc	r27, r18
     1d0:	40 f0       	brcs	.+16     	; 0x1e2 <APP_INITIALIZE+0x86>
     1d2:	10 92 ad 00 	sts	0x00AD, r1
     1d6:	10 92 ae 00 	sts	0x00AE, r1
     1da:	10 92 af 00 	sts	0x00AF, r1
     1de:	10 92 b0 00 	sts	0x00B0, r1
     1e2:	80 91 b1 00 	lds	r24, 0x00B1
     1e6:	90 91 b2 00 	lds	r25, 0x00B2
     1ea:	27 e2       	ldi	r18, 0x27	; 39
     1ec:	80 31       	cpi	r24, 0x10	; 16
     1ee:	92 07       	cpc	r25, r18
     1f0:	20 f0       	brcs	.+8      	; 0x1fa <APP_INITIALIZE+0x9e>
     1f2:	10 92 b2 00 	sts	0x00B2, r1
     1f6:	10 92 b1 00 	sts	0x00B1, r1
     1fa:	80 91 a6 00 	lds	r24, 0x00A6
     1fe:	84 30       	cpi	r24, 0x04	; 4
     200:	10 f0       	brcs	.+4      	; 0x206 <APP_INITIALIZE+0xaa>
     202:	10 92 a6 00 	sts	0x00A6, r1
     206:	80 91 a4 00 	lds	r24, 0x00A4
     20a:	90 91 a5 00 	lds	r25, 0x00A5
     20e:	ad d5       	rcall	.+2906   	; 0xd6a <SetCircumfirunce>
     210:	60 91 a9 00 	lds	r22, 0x00A9
     214:	70 91 aa 00 	lds	r23, 0x00AA
     218:	80 91 ab 00 	lds	r24, 0x00AB
     21c:	90 91 ac 00 	lds	r25, 0x00AC
     220:	8c d5       	rcall	.+2840   	; 0xd3a <SetDistance>
     222:	60 91 ad 00 	lds	r22, 0x00AD
     226:	70 91 ae 00 	lds	r23, 0x00AE
     22a:	80 91 af 00 	lds	r24, 0x00AF
     22e:	90 91 b0 00 	lds	r25, 0x00B0
     232:	79 d1       	rcall	.+754    	; 0x526 <APP_CALC_TIMEsetTravelTime>
     234:	80 91 b1 00 	lds	r24, 0x00B1
     238:	90 91 b2 00 	lds	r25, 0x00B2
     23c:	5f d1       	rcall	.+702    	; 0x4fc <APP_CALC_MAXSPDmanage_Set>
     23e:	08 95       	ret

00000240 <APP_MANAGE>:
     240:	cf 92       	push	r12
     242:	df 92       	push	r13
     244:	ef 92       	push	r14
     246:	ff 92       	push	r15
     248:	0f 93       	push	r16
     24a:	1f 93       	push	r17
     24c:	cf 93       	push	r28
     24e:	df 93       	push	r29
     250:	00 d0       	rcall	.+0      	; 0x252 <APP_MANAGE+0x12>
     252:	cd b7       	in	r28, 0x3d	; 61
     254:	de b7       	in	r29, 0x3e	; 62
     256:	80 91 a7 00 	lds	r24, 0x00A7
     25a:	90 91 a8 00 	lds	r25, 0x00A8
     25e:	9a 83       	std	Y+2, r25	; 0x02
     260:	89 83       	std	Y+1, r24	; 0x01
     262:	7a d5       	rcall	.+2804   	; 0xd58 <GetDistance>
     264:	dc 01       	movw	r26, r24
     266:	cb 01       	movw	r24, r22
     268:	80 93 a9 00 	sts	0x00A9, r24
     26c:	90 93 aa 00 	sts	0x00AA, r25
     270:	a0 93 ab 00 	sts	0x00AB, r26
     274:	b0 93 ac 00 	sts	0x00AC, r27
     278:	ce 01       	movw	r24, r28
     27a:	01 96       	adiw	r24, 0x01	; 1
     27c:	a8 d1       	rcall	.+848    	; 0x5ce <APP_HMImanage>
     27e:	ce 01       	movw	r24, r28
     280:	01 96       	adiw	r24, 0x01	; 1
     282:	60 d1       	rcall	.+704    	; 0x544 <APP_CALC_TIMEmanage>
     284:	ab 01       	movw	r20, r22
     286:	bc 01       	movw	r22, r24
     288:	40 93 ad 00 	sts	0x00AD, r20
     28c:	50 93 ae 00 	sts	0x00AE, r21
     290:	60 93 af 00 	sts	0x00AF, r22
     294:	70 93 b0 00 	sts	0x00B0, r23
     298:	00 91 a9 00 	lds	r16, 0x00A9
     29c:	10 91 aa 00 	lds	r17, 0x00AA
     2a0:	20 91 ab 00 	lds	r18, 0x00AB
     2a4:	30 91 ac 00 	lds	r19, 0x00AC
     2a8:	ce 01       	movw	r24, r28
     2aa:	01 96       	adiw	r24, 0x01	; 1
     2ac:	24 d1       	rcall	.+584    	; 0x4f6 <APP_CALC_AVGSPDmanage>
     2ae:	6c 01       	movw	r12, r24
     2b0:	ce 01       	movw	r24, r28
     2b2:	01 96       	adiw	r24, 0x01	; 1
     2b4:	15 d2       	rcall	.+1066   	; 0x6e0 <APP_SLEEPmanage>
     2b6:	81 e0       	ldi	r24, 0x01	; 1
     2b8:	5d d5       	rcall	.+2746   	; 0xd74 <GetAvgSpeed>
     2ba:	7c 01       	movw	r14, r24
     2bc:	24 d1       	rcall	.+584    	; 0x506 <APP_CALC_MAXSPDmanage>
     2be:	8c 01       	movw	r16, r24
     2c0:	90 93 b2 00 	sts	0x00B2, r25
     2c4:	80 93 b1 00 	sts	0x00B1, r24
     2c8:	8a 81       	ldd	r24, Y+2	; 0x02
     2ca:	82 95       	swap	r24
     2cc:	81 70       	andi	r24, 0x01	; 1
     2ce:	32 d5       	rcall	.+2660   	; 0xd34 <DisableDistanceCntr>
     2d0:	8a 81       	ldd	r24, Y+2	; 0x02
     2d2:	82 fd       	sbrc	r24, 2
     2d4:	37 c0       	rjmp	.+110    	; 0x344 <APP_MANAGE+0x104>
     2d6:	c8 01       	movw	r24, r16
     2d8:	88 0f       	add	r24, r24
     2da:	99 1f       	adc	r25, r25
     2dc:	23 e0       	ldi	r18, 0x03	; 3
     2de:	00 0f       	add	r16, r16
     2e0:	11 1f       	adc	r17, r17
     2e2:	2a 95       	dec	r18
     2e4:	e1 f7       	brne	.-8      	; 0x2de <APP_MANAGE+0x9e>
     2e6:	08 0f       	add	r16, r24
     2e8:	19 1f       	adc	r17, r25
     2ea:	08 5f       	subi	r16, 0xF8	; 248
     2ec:	1f 4f       	sbci	r17, 0xFF	; 255
     2ee:	34 e0       	ldi	r19, 0x04	; 4
     2f0:	16 95       	lsr	r17
     2f2:	07 95       	ror	r16
     2f4:	3a 95       	dec	r19
     2f6:	e1 f7       	brne	.-8      	; 0x2f0 <APP_MANAGE+0xb0>
     2f8:	c7 01       	movw	r24, r14
     2fa:	88 0f       	add	r24, r24
     2fc:	99 1f       	adc	r25, r25
     2fe:	53 e0       	ldi	r21, 0x03	; 3
     300:	ee 0c       	add	r14, r14
     302:	ff 1c       	adc	r15, r15
     304:	5a 95       	dec	r21
     306:	e1 f7       	brne	.-8      	; 0x300 <APP_MANAGE+0xc0>
     308:	e8 0e       	add	r14, r24
     30a:	f9 1e       	adc	r15, r25
     30c:	88 e0       	ldi	r24, 0x08	; 8
     30e:	90 e0       	ldi	r25, 0x00	; 0
     310:	e8 0e       	add	r14, r24
     312:	f9 1e       	adc	r15, r25
     314:	64 e0       	ldi	r22, 0x04	; 4
     316:	f6 94       	lsr	r15
     318:	e7 94       	ror	r14
     31a:	6a 95       	dec	r22
     31c:	e1 f7       	brne	.-8      	; 0x316 <APP_MANAGE+0xd6>
     31e:	c6 01       	movw	r24, r12
     320:	88 0f       	add	r24, r24
     322:	99 1f       	adc	r25, r25
     324:	e3 e0       	ldi	r30, 0x03	; 3
     326:	cc 0c       	add	r12, r12
     328:	dd 1c       	adc	r13, r13
     32a:	ea 95       	dec	r30
     32c:	e1 f7       	brne	.-8      	; 0x326 <APP_MANAGE+0xe6>
     32e:	c8 0e       	add	r12, r24
     330:	d9 1e       	adc	r13, r25
     332:	88 e0       	ldi	r24, 0x08	; 8
     334:	90 e0       	ldi	r25, 0x00	; 0
     336:	c8 0e       	add	r12, r24
     338:	d9 1e       	adc	r13, r25
     33a:	f4 e0       	ldi	r31, 0x04	; 4
     33c:	d6 94       	lsr	r13
     33e:	c7 94       	ror	r12
     340:	fa 95       	dec	r31
     342:	e1 f7       	brne	.-8      	; 0x33c <APP_MANAGE+0xfc>
     344:	69 81       	ldd	r22, Y+1	; 0x01
     346:	67 70       	andi	r22, 0x07	; 7
     348:	81 e0       	ldi	r24, 0x01	; 1
     34a:	44 d4       	rcall	.+2184   	; 0xbd4 <ExclusiveSwitchLedOnOff>
     34c:	8a 81       	ldd	r24, Y+2	; 0x02
     34e:	86 95       	lsr	r24
     350:	86 95       	lsr	r24
     352:	81 70       	andi	r24, 0x01	; 1
     354:	66 e0       	ldi	r22, 0x06	; 6
     356:	35 d4       	rcall	.+2154   	; 0xbc2 <SwitchLedOnOff>
     358:	8a 81       	ldd	r24, Y+2	; 0x02
     35a:	86 95       	lsr	r24
     35c:	86 95       	lsr	r24
     35e:	80 95       	com	r24
     360:	81 70       	andi	r24, 0x01	; 1
     362:	65 e0       	ldi	r22, 0x05	; 5
     364:	2e d4       	rcall	.+2140   	; 0xbc2 <SwitchLedOnOff>
     366:	29 81       	ldd	r18, Y+1	; 0x01
     368:	82 2f       	mov	r24, r18
     36a:	87 70       	andi	r24, 0x07	; 7
     36c:	90 e0       	ldi	r25, 0x00	; 0
     36e:	82 30       	cpi	r24, 0x02	; 2
     370:	91 05       	cpc	r25, r1
     372:	e1 f1       	breq	.+120    	; 0x3ec <APP_MANAGE+0x1ac>
     374:	83 30       	cpi	r24, 0x03	; 3
     376:	91 05       	cpc	r25, r1
     378:	3c f4       	brge	.+14     	; 0x388 <APP_MANAGE+0x148>
     37a:	00 97       	sbiw	r24, 0x00	; 0
     37c:	69 f0       	breq	.+26     	; 0x398 <APP_MANAGE+0x158>
     37e:	81 30       	cpi	r24, 0x01	; 1
     380:	91 05       	cpc	r25, r1
     382:	09 f0       	breq	.+2      	; 0x386 <APP_MANAGE+0x146>
     384:	8d c0       	rjmp	.+282    	; 0x4a0 <__stack+0x41>
     386:	19 c0       	rjmp	.+50     	; 0x3ba <APP_MANAGE+0x17a>
     388:	83 30       	cpi	r24, 0x03	; 3
     38a:	91 05       	cpc	r25, r1
     38c:	89 f1       	breq	.+98     	; 0x3f0 <APP_MANAGE+0x1b0>
     38e:	84 30       	cpi	r24, 0x04	; 4
     390:	91 05       	cpc	r25, r1
     392:	09 f0       	breq	.+2      	; 0x396 <APP_MANAGE+0x156>
     394:	85 c0       	rjmp	.+266    	; 0x4a0 <__stack+0x41>
     396:	32 c0       	rjmp	.+100    	; 0x3fc <APP_MANAGE+0x1bc>
     398:	b7 01       	movw	r22, r14
     39a:	80 e0       	ldi	r24, 0x00	; 0
     39c:	90 e0       	ldi	r25, 0x00	; 0
     39e:	40 e0       	ldi	r20, 0x00	; 0
     3a0:	21 e0       	ldi	r18, 0x01	; 1
     3a2:	01 e0       	ldi	r16, 0x01	; 1
     3a4:	a1 d1       	rcall	.+834    	; 0x6e8 <BCDsendNumber>
     3a6:	60 91 a9 00 	lds	r22, 0x00A9
     3aa:	70 91 aa 00 	lds	r23, 0x00AA
     3ae:	80 91 ab 00 	lds	r24, 0x00AB
     3b2:	90 91 ac 00 	lds	r25, 0x00AC
     3b6:	41 e0       	ldi	r20, 0x01	; 1
     3b8:	16 c0       	rjmp	.+44     	; 0x3e6 <APP_MANAGE+0x1a6>
     3ba:	26 ff       	sbrs	r18, 6
     3bc:	04 c0       	rjmp	.+8      	; 0x3c6 <APP_MANAGE+0x186>
     3be:	60 e0       	ldi	r22, 0x00	; 0
     3c0:	70 e0       	ldi	r23, 0x00	; 0
     3c2:	cb 01       	movw	r24, r22
     3c4:	b0 d0       	rcall	.+352    	; 0x526 <APP_CALC_TIMEsetTravelTime>
     3c6:	60 91 ad 00 	lds	r22, 0x00AD
     3ca:	70 91 ae 00 	lds	r23, 0x00AE
     3ce:	80 91 af 00 	lds	r24, 0x00AF
     3d2:	90 91 b0 00 	lds	r25, 0x00B0
     3d6:	41 e0       	ldi	r20, 0x01	; 1
     3d8:	20 e0       	ldi	r18, 0x00	; 0
     3da:	01 e0       	ldi	r16, 0x01	; 1
     3dc:	85 d1       	rcall	.+778    	; 0x6e8 <BCDsendNumber>
     3de:	b7 01       	movw	r22, r14
     3e0:	80 e0       	ldi	r24, 0x00	; 0
     3e2:	90 e0       	ldi	r25, 0x00	; 0
     3e4:	40 e0       	ldi	r20, 0x00	; 0
     3e6:	21 e0       	ldi	r18, 0x01	; 1
     3e8:	7f d1       	rcall	.+766    	; 0x6e8 <BCDsendNumber>
     3ea:	63 c0       	rjmp	.+198    	; 0x4b2 <__stack+0x53>
     3ec:	b6 01       	movw	r22, r12
     3ee:	01 c0       	rjmp	.+2      	; 0x3f2 <APP_MANAGE+0x1b2>
     3f0:	b8 01       	movw	r22, r16
     3f2:	80 e0       	ldi	r24, 0x00	; 0
     3f4:	90 e0       	ldi	r25, 0x00	; 0
     3f6:	41 e0       	ldi	r20, 0x01	; 1
     3f8:	21 e0       	ldi	r18, 0x01	; 1
     3fa:	ef cf       	rjmp	.-34     	; 0x3da <APP_MANAGE+0x19a>
     3fc:	8a 81       	ldd	r24, Y+2	; 0x02
     3fe:	83 ff       	sbrs	r24, 3
     400:	34 c0       	rjmp	.+104    	; 0x46a <__stack+0xb>
     402:	26 ff       	sbrs	r18, 6
     404:	09 c0       	rjmp	.+18     	; 0x418 <APP_MANAGE+0x1d8>
     406:	80 91 a6 00 	lds	r24, 0x00A6
     40a:	83 30       	cpi	r24, 0x03	; 3
     40c:	19 f4       	brne	.+6      	; 0x414 <APP_MANAGE+0x1d4>
     40e:	10 92 a6 00 	sts	0x00A6, r1
     412:	26 c0       	rjmp	.+76     	; 0x460 <__stack+0x1>
     414:	8f 5f       	subi	r24, 0xFF	; 255
     416:	09 c0       	rjmp	.+18     	; 0x42a <APP_MANAGE+0x1ea>
     418:	27 ff       	sbrs	r18, 7
     41a:	0a c0       	rjmp	.+20     	; 0x430 <APP_MANAGE+0x1f0>
     41c:	80 91 a6 00 	lds	r24, 0x00A6
     420:	88 23       	and	r24, r24
     422:	11 f4       	brne	.+4      	; 0x428 <APP_MANAGE+0x1e8>
     424:	83 e0       	ldi	r24, 0x03	; 3
     426:	01 c0       	rjmp	.+2      	; 0x42a <APP_MANAGE+0x1ea>
     428:	81 50       	subi	r24, 0x01	; 1
     42a:	80 93 a6 00 	sts	0x00A6, r24
     42e:	18 c0       	rjmp	.+48     	; 0x460 <__stack+0x1>
     430:	24 ff       	sbrs	r18, 4
     432:	08 c0       	rjmp	.+16     	; 0x444 <APP_MANAGE+0x204>
     434:	80 91 a4 00 	lds	r24, 0x00A4
     438:	90 91 a5 00 	lds	r25, 0x00A5
     43c:	60 91 a6 00 	lds	r22, 0x00A6
     440:	40 e0       	ldi	r20, 0x00	; 0
     442:	09 c0       	rjmp	.+18     	; 0x456 <APP_MANAGE+0x216>
     444:	25 ff       	sbrs	r18, 5
     446:	0c c0       	rjmp	.+24     	; 0x460 <__stack+0x1>
     448:	80 91 a4 00 	lds	r24, 0x00A4
     44c:	90 91 a5 00 	lds	r25, 0x00A5
     450:	60 91 a6 00 	lds	r22, 0x00A6
     454:	41 e0       	ldi	r20, 0x01	; 1
     456:	03 de       	rcall	.-1018   	; 0x5e <IncrementDecrementSingleDigit>
     458:	90 93 a5 00 	sts	0x00A5, r25
     45c:	80 93 a4 00 	sts	0x00A4, r24
     460:	80 91 a6 00 	lds	r24, 0x00A6
     464:	61 e0       	ldi	r22, 0x01	; 1
     466:	44 e6       	ldi	r20, 0x64	; 100
     468:	04 c0       	rjmp	.+8      	; 0x472 <__stack+0x13>
     46a:	80 91 a6 00 	lds	r24, 0x00A6
     46e:	61 e0       	ldi	r22, 0x01	; 1
     470:	40 e0       	ldi	r20, 0x00	; 0
     472:	34 d2       	rcall	.+1128   	; 0x8dc <BlinkDigit>
     474:	60 91 a4 00 	lds	r22, 0x00A4
     478:	70 91 a5 00 	lds	r23, 0x00A5
     47c:	80 e0       	ldi	r24, 0x00	; 0
     47e:	90 e0       	ldi	r25, 0x00	; 0
     480:	41 e0       	ldi	r20, 0x01	; 1
     482:	20 e0       	ldi	r18, 0x00	; 0
     484:	00 e0       	ldi	r16, 0x00	; 0
     486:	30 d1       	rcall	.+608    	; 0x6e8 <BCDsendNumber>
     488:	80 91 a4 00 	lds	r24, 0x00A4
     48c:	90 91 a5 00 	lds	r25, 0x00A5
     490:	6c d4       	rcall	.+2264   	; 0xd6a <SetCircumfirunce>
     492:	80 e0       	ldi	r24, 0x00	; 0
     494:	60 e0       	ldi	r22, 0x00	; 0
     496:	40 e6       	ldi	r20, 0x60	; 96
     498:	50 e0       	ldi	r21, 0x00	; 0
     49a:	24 e0       	ldi	r18, 0x04	; 4
     49c:	4c d2       	rcall	.+1176   	; 0x936 <DisplaySendString>
     49e:	09 c0       	rjmp	.+18     	; 0x4b2 <__stack+0x53>
     4a0:	b7 01       	movw	r22, r14
     4a2:	80 e0       	ldi	r24, 0x00	; 0
     4a4:	90 e0       	ldi	r25, 0x00	; 0
     4a6:	40 e0       	ldi	r20, 0x00	; 0
     4a8:	21 e0       	ldi	r18, 0x01	; 1
     4aa:	01 e0       	ldi	r16, 0x01	; 1
     4ac:	1d d1       	rcall	.+570    	; 0x6e8 <BCDsendNumber>
     4ae:	1a 82       	std	Y+2, r1	; 0x02
     4b0:	19 82       	std	Y+1, r1	; 0x01
     4b2:	89 81       	ldd	r24, Y+1	; 0x01
     4b4:	9a 81       	ldd	r25, Y+2	; 0x02
     4b6:	90 93 a8 00 	sts	0x00A8, r25
     4ba:	80 93 a7 00 	sts	0x00A7, r24
     4be:	89 81       	ldd	r24, Y+1	; 0x01
     4c0:	83 ff       	sbrs	r24, 3
     4c2:	0e c0       	rjmp	.+28     	; 0x4e0 <__stack+0x81>
     4c4:	81 e0       	ldi	r24, 0x01	; 1
     4c6:	64 ea       	ldi	r22, 0xA4	; 164
     4c8:	70 e0       	ldi	r23, 0x00	; 0
     4ca:	4f e0       	ldi	r20, 0x0F	; 15
     4cc:	20 e0       	ldi	r18, 0x00	; 0
     4ce:	30 e0       	ldi	r19, 0x00	; 0
     4d0:	62 d2       	rcall	.+1220   	; 0x996 <Eeprom_Write_Block>
     4d2:	81 30       	cpi	r24, 0x01	; 1
     4d4:	29 f4       	brne	.+10     	; 0x4e0 <__stack+0x81>
     4d6:	80 91 a7 00 	lds	r24, 0x00A7
     4da:	87 7f       	andi	r24, 0xF7	; 247
     4dc:	80 93 a7 00 	sts	0x00A7, r24
     4e0:	0f 90       	pop	r0
     4e2:	0f 90       	pop	r0
     4e4:	df 91       	pop	r29
     4e6:	cf 91       	pop	r28
     4e8:	1f 91       	pop	r17
     4ea:	0f 91       	pop	r16
     4ec:	ff 90       	pop	r15
     4ee:	ef 90       	pop	r14
     4f0:	df 90       	pop	r13
     4f2:	cf 90       	pop	r12
     4f4:	08 95       	ret

000004f6 <APP_CALC_AVGSPDmanage>:
     4f6:	81 ee       	ldi	r24, 0xE1	; 225
     4f8:	90 e1       	ldi	r25, 0x10	; 16
     4fa:	08 95       	ret

000004fc <APP_CALC_MAXSPDmanage_Set>:
     4fc:	90 93 b4 00 	sts	0x00B4, r25
     500:	80 93 b3 00 	sts	0x00B3, r24
     504:	08 95       	ret

00000506 <APP_CALC_MAXSPDmanage>:
     506:	20 91 b3 00 	lds	r18, 0x00B3
     50a:	30 91 b4 00 	lds	r19, 0x00B4
     50e:	28 17       	cp	r18, r24
     510:	39 07       	cpc	r19, r25
     512:	20 f4       	brcc	.+8      	; 0x51c <APP_CALC_MAXSPDmanage+0x16>
     514:	90 93 b4 00 	sts	0x00B4, r25
     518:	80 93 b3 00 	sts	0x00B3, r24
     51c:	80 91 b3 00 	lds	r24, 0x00B3
     520:	90 91 b4 00 	lds	r25, 0x00B4
     524:	08 95       	ret

00000526 <APP_CALC_TIMEsetTravelTime>:
     526:	dc 01       	movw	r26, r24
     528:	cb 01       	movw	r24, r22
     52a:	80 93 b5 00 	sts	0x00B5, r24
     52e:	90 93 b6 00 	sts	0x00B6, r25
     532:	a0 93 b7 00 	sts	0x00B7, r26
     536:	b0 93 b8 00 	sts	0x00B8, r27
     53a:	10 92 ba 00 	sts	0x00BA, r1
     53e:	10 92 b9 00 	sts	0x00B9, r1
     542:	08 95       	ret

00000544 <APP_CALC_TIMEmanage>:
     544:	fc 01       	movw	r30, r24
     546:	21 81       	ldd	r18, Z+1	; 0x01
     548:	20 ff       	sbrs	r18, 0
     54a:	0d c0       	rjmp	.+26     	; 0x566 <APP_CALC_TIMEmanage+0x22>
     54c:	10 92 ba 00 	sts	0x00BA, r1
     550:	10 92 b9 00 	sts	0x00B9, r1
     554:	10 92 b5 00 	sts	0x00B5, r1
     558:	10 92 b6 00 	sts	0x00B6, r1
     55c:	10 92 b7 00 	sts	0x00B7, r1
     560:	10 92 b8 00 	sts	0x00B8, r1
     564:	2b c0       	rjmp	.+86     	; 0x5bc <APP_CALC_TIMEmanage+0x78>
     566:	80 91 b9 00 	lds	r24, 0x00B9
     56a:	90 91 ba 00 	lds	r25, 0x00BA
     56e:	34 e0       	ldi	r19, 0x04	; 4
     570:	80 3b       	cpi	r24, 0xB0	; 176
     572:	93 07       	cpc	r25, r19
     574:	e0 f0       	brcs	.+56     	; 0x5ae <APP_CALC_TIMEmanage+0x6a>
     576:	10 92 ba 00 	sts	0x00BA, r1
     57a:	10 92 b9 00 	sts	0x00B9, r1
     57e:	40 91 b5 00 	lds	r20, 0x00B5
     582:	50 91 b6 00 	lds	r21, 0x00B6
     586:	60 91 b7 00 	lds	r22, 0x00B7
     58a:	70 91 b8 00 	lds	r23, 0x00B8
     58e:	4f 5f       	subi	r20, 0xFF	; 255
     590:	5f 4f       	sbci	r21, 0xFF	; 255
     592:	6f 4f       	sbci	r22, 0xFF	; 255
     594:	7f 4f       	sbci	r23, 0xFF	; 255
     596:	40 93 b5 00 	sts	0x00B5, r20
     59a:	50 93 b6 00 	sts	0x00B6, r21
     59e:	60 93 b7 00 	sts	0x00B7, r22
     5a2:	70 93 b8 00 	sts	0x00B8, r23
     5a6:	80 81       	ld	r24, Z
     5a8:	88 60       	ori	r24, 0x08	; 8
     5aa:	80 83       	st	Z, r24
     5ac:	07 c0       	rjmp	.+14     	; 0x5bc <APP_CALC_TIMEmanage+0x78>
     5ae:	24 fd       	sbrc	r18, 4
     5b0:	05 c0       	rjmp	.+10     	; 0x5bc <APP_CALC_TIMEmanage+0x78>
     5b2:	01 96       	adiw	r24, 0x01	; 1
     5b4:	90 93 ba 00 	sts	0x00BA, r25
     5b8:	80 93 b9 00 	sts	0x00B9, r24
     5bc:	60 91 b5 00 	lds	r22, 0x00B5
     5c0:	70 91 b6 00 	lds	r23, 0x00B6
     5c4:	80 91 b7 00 	lds	r24, 0x00B7
     5c8:	90 91 b8 00 	lds	r25, 0x00B8
     5cc:	08 95       	ret

000005ce <APP_HMImanage>:
     5ce:	1f 93       	push	r17
     5d0:	cf 93       	push	r28
     5d2:	df 93       	push	r29
     5d4:	ec 01       	movw	r28, r24
     5d6:	80 e0       	ldi	r24, 0x00	; 0
     5d8:	57 d2       	rcall	.+1198   	; 0xa88 <GetKeyStatus>
     5da:	18 2f       	mov	r17, r24
     5dc:	81 e0       	ldi	r24, 0x01	; 1
     5de:	54 d2       	rcall	.+1192   	; 0xa88 <GetKeyStatus>
     5e0:	90 91 bb 00 	lds	r25, 0x00BB
     5e4:	91 30       	cpi	r25, 0x01	; 1
     5e6:	d9 f1       	breq	.+118    	; 0x65e <APP_HMImanage+0x90>
     5e8:	91 30       	cpi	r25, 0x01	; 1
     5ea:	38 f0       	brcs	.+14     	; 0x5fa <APP_HMImanage+0x2c>
     5ec:	92 30       	cpi	r25, 0x02	; 2
     5ee:	09 f4       	brne	.+2      	; 0x5f2 <APP_HMImanage+0x24>
     5f0:	5a c0       	rjmp	.+180    	; 0x6a6 <APP_HMImanage+0xd8>
     5f2:	93 30       	cpi	r25, 0x03	; 3
     5f4:	09 f0       	breq	.+2      	; 0x5f8 <APP_HMImanage+0x2a>
     5f6:	64 c0       	rjmp	.+200    	; 0x6c0 <APP_HMImanage+0xf2>
     5f8:	5b c0       	rjmp	.+182    	; 0x6b0 <APP_HMImanage+0xe2>
     5fa:	11 30       	cpi	r17, 0x01	; 1
     5fc:	21 f4       	brne	.+8      	; 0x606 <APP_HMImanage+0x38>
     5fe:	81 30       	cpi	r24, 0x01	; 1
     600:	71 f4       	brne	.+28     	; 0x61e <APP_HMImanage+0x50>
     602:	83 e0       	ldi	r24, 0x03	; 3
     604:	5a c0       	rjmp	.+180    	; 0x6ba <APP_HMImanage+0xec>
     606:	10 34       	cpi	r17, 0x40	; 64
     608:	51 f4       	brne	.+20     	; 0x61e <APP_HMImanage+0x50>
     60a:	98 81       	ld	r25, Y
     60c:	89 2f       	mov	r24, r25
     60e:	87 70       	andi	r24, 0x07	; 7
     610:	98 7f       	andi	r25, 0xF8	; 248
     612:	88 23       	and	r24, r24
     614:	11 f4       	brne	.+4      	; 0x61a <APP_HMImanage+0x4c>
     616:	94 60       	ori	r25, 0x04	; 4
     618:	0a c0       	rjmp	.+20     	; 0x62e <APP_HMImanage+0x60>
     61a:	81 50       	subi	r24, 0x01	; 1
     61c:	0b c0       	rjmp	.+22     	; 0x634 <APP_HMImanage+0x66>
     61e:	80 34       	cpi	r24, 0x40	; 64
     620:	69 f4       	brne	.+26     	; 0x63c <APP_HMImanage+0x6e>
     622:	98 81       	ld	r25, Y
     624:	89 2f       	mov	r24, r25
     626:	87 70       	andi	r24, 0x07	; 7
     628:	98 7f       	andi	r25, 0xF8	; 248
     62a:	84 30       	cpi	r24, 0x04	; 4
     62c:	11 f4       	brne	.+4      	; 0x632 <APP_HMImanage+0x64>
     62e:	98 83       	st	Y, r25
     630:	49 c0       	rjmp	.+146    	; 0x6c4 <APP_HMImanage+0xf6>
     632:	8f 5f       	subi	r24, 0xFF	; 255
     634:	87 70       	andi	r24, 0x07	; 7
     636:	89 2b       	or	r24, r25
     638:	88 83       	st	Y, r24
     63a:	44 c0       	rjmp	.+136    	; 0x6c4 <APP_HMImanage+0xf6>
     63c:	99 81       	ldd	r25, Y+1	; 0x01
     63e:	12 38       	cpi	r17, 0x82	; 130
     640:	29 f4       	brne	.+10     	; 0x64c <APP_HMImanage+0x7e>
     642:	89 2f       	mov	r24, r25
     644:	80 95       	com	r24
     646:	84 70       	andi	r24, 0x04	; 4
     648:	9b 7f       	andi	r25, 0xFB	; 251
     64a:	06 c0       	rjmp	.+12     	; 0x658 <APP_HMImanage+0x8a>
     64c:	82 38       	cpi	r24, 0x82	; 130
     64e:	d1 f5       	brne	.+116    	; 0x6c4 <APP_HMImanage+0xf6>
     650:	89 2f       	mov	r24, r25
     652:	80 95       	com	r24
     654:	80 71       	andi	r24, 0x10	; 16
     656:	9f 7e       	andi	r25, 0xEF	; 239
     658:	98 2b       	or	r25, r24
     65a:	99 83       	std	Y+1, r25	; 0x01
     65c:	33 c0       	rjmp	.+102    	; 0x6c4 <APP_HMImanage+0xf6>
     65e:	98 81       	ld	r25, Y
     660:	97 70       	andi	r25, 0x07	; 7
     662:	19 82       	std	Y+1, r1	; 0x01
     664:	18 82       	st	Y, r1
     666:	11 30       	cpi	r17, 0x01	; 1
     668:	41 f4       	brne	.+16     	; 0x67a <APP_HMImanage+0xac>
     66a:	81 30       	cpi	r24, 0x01	; 1
     66c:	61 f4       	brne	.+24     	; 0x686 <APP_HMImanage+0xb8>
     66e:	82 e0       	ldi	r24, 0x02	; 2
     670:	80 93 bb 00 	sts	0x00BB, r24
     674:	88 81       	ld	r24, Y
     676:	88 60       	ori	r24, 0x08	; 8
     678:	04 c0       	rjmp	.+8      	; 0x682 <APP_HMImanage+0xb4>
     67a:	10 34       	cpi	r17, 0x40	; 64
     67c:	21 f4       	brne	.+8      	; 0x686 <APP_HMImanage+0xb8>
     67e:	88 81       	ld	r24, Y
     680:	80 62       	ori	r24, 0x20	; 32
     682:	88 83       	st	Y, r24
     684:	0d c0       	rjmp	.+26     	; 0x6a0 <APP_HMImanage+0xd2>
     686:	28 81       	ld	r18, Y
     688:	80 34       	cpi	r24, 0x40	; 64
     68a:	11 f4       	brne	.+4      	; 0x690 <APP_HMImanage+0xc2>
     68c:	20 61       	ori	r18, 0x10	; 16
     68e:	07 c0       	rjmp	.+14     	; 0x69e <APP_HMImanage+0xd0>
     690:	12 38       	cpi	r17, 0x82	; 130
     692:	11 f4       	brne	.+4      	; 0x698 <APP_HMImanage+0xca>
     694:	20 68       	ori	r18, 0x80	; 128
     696:	03 c0       	rjmp	.+6      	; 0x69e <APP_HMImanage+0xd0>
     698:	82 38       	cpi	r24, 0x82	; 130
     69a:	11 f4       	brne	.+4      	; 0x6a0 <APP_HMImanage+0xd2>
     69c:	20 64       	ori	r18, 0x40	; 64
     69e:	28 83       	st	Y, r18
     6a0:	88 81       	ld	r24, Y
     6a2:	88 7f       	andi	r24, 0xF8	; 248
     6a4:	c8 cf       	rjmp	.-112    	; 0x636 <APP_HMImanage+0x68>
     6a6:	11 23       	and	r17, r17
     6a8:	69 f4       	brne	.+26     	; 0x6c4 <APP_HMImanage+0xf6>
     6aa:	88 23       	and	r24, r24
     6ac:	59 f4       	brne	.+22     	; 0x6c4 <APP_HMImanage+0xf6>
     6ae:	08 c0       	rjmp	.+16     	; 0x6c0 <APP_HMImanage+0xf2>
     6b0:	11 23       	and	r17, r17
     6b2:	41 f4       	brne	.+16     	; 0x6c4 <APP_HMImanage+0xf6>
     6b4:	88 23       	and	r24, r24
     6b6:	31 f4       	brne	.+12     	; 0x6c4 <APP_HMImanage+0xf6>
     6b8:	81 e0       	ldi	r24, 0x01	; 1
     6ba:	80 93 bb 00 	sts	0x00BB, r24
     6be:	02 c0       	rjmp	.+4      	; 0x6c4 <APP_HMImanage+0xf6>
     6c0:	10 92 bb 00 	sts	0x00BB, r1
     6c4:	90 91 bb 00 	lds	r25, 0x00BB
     6c8:	91 70       	andi	r25, 0x01	; 1
     6ca:	99 0f       	add	r25, r25
     6cc:	99 0f       	add	r25, r25
     6ce:	99 0f       	add	r25, r25
     6d0:	89 81       	ldd	r24, Y+1	; 0x01
     6d2:	87 7f       	andi	r24, 0xF7	; 247
     6d4:	89 2b       	or	r24, r25
     6d6:	89 83       	std	Y+1, r24	; 0x01
     6d8:	df 91       	pop	r29
     6da:	cf 91       	pop	r28
     6dc:	1f 91       	pop	r17
     6de:	08 95       	ret

000006e0 <APP_SLEEPmanage>:
     6e0:	08 95       	ret

000006e2 <BCDInitialize>:
     6e2:	80 93 bc 00 	sts	0x00BC, r24
     6e6:	08 95       	ret

000006e8 <BCDsendNumber>:
     6e8:	2f 92       	push	r2
     6ea:	3f 92       	push	r3
     6ec:	4f 92       	push	r4
     6ee:	5f 92       	push	r5
     6f0:	7f 92       	push	r7
     6f2:	8f 92       	push	r8
     6f4:	9f 92       	push	r9
     6f6:	af 92       	push	r10
     6f8:	bf 92       	push	r11
     6fa:	cf 92       	push	r12
     6fc:	df 92       	push	r13
     6fe:	ef 92       	push	r14
     700:	ff 92       	push	r15
     702:	0f 93       	push	r16
     704:	1f 93       	push	r17
     706:	cf 93       	push	r28
     708:	df 93       	push	r29
     70a:	00 d0       	rcall	.+0      	; 0x70c <BCDsendNumber+0x24>
     70c:	00 d0       	rcall	.+0      	; 0x70e <BCDsendNumber+0x26>
     70e:	cd b7       	in	r28, 0x3d	; 61
     710:	de b7       	in	r29, 0x3e	; 62
     712:	12 2f       	mov	r17, r18
     714:	70 2e       	mov	r7, r16
     716:	24 2f       	mov	r18, r20
     718:	30 e0       	ldi	r19, 0x00	; 0
     71a:	3a 83       	std	Y+2, r19	; 0x02
     71c:	29 83       	std	Y+1, r18	; 0x01
     71e:	43 e0       	ldi	r20, 0x03	; 3
     720:	22 0f       	add	r18, r18
     722:	33 1f       	adc	r19, r19
     724:	4a 95       	dec	r20
     726:	e1 f7       	brne	.-8      	; 0x720 <BCDsendNumber+0x38>
     728:	23 54       	subi	r18, 0x43	; 67
     72a:	3f 4f       	sbci	r19, 0xFF	; 255
     72c:	6b 01       	movw	r12, r22
     72e:	7c 01       	movw	r14, r24
     730:	88 24       	eor	r8, r8
     732:	5a e0       	ldi	r21, 0x0A	; 10
     734:	25 2e       	mov	r2, r21
     736:	31 2c       	mov	r3, r1
     738:	41 2c       	mov	r4, r1
     73a:	51 2c       	mov	r5, r1
     73c:	3c 83       	std	Y+4, r19	; 0x04
     73e:	2b 83       	std	Y+3, r18	; 0x03
     740:	91 2e       	mov	r9, r17
     742:	c1 14       	cp	r12, r1
     744:	d1 04       	cpc	r13, r1
     746:	e1 04       	cpc	r14, r1
     748:	f1 04       	cpc	r15, r1
     74a:	11 f4       	brne	.+4      	; 0x750 <BCDsendNumber+0x68>
     74c:	98 14       	cp	r9, r8
     74e:	38 f1       	brcs	.+78     	; 0x79e <BCDsendNumber+0xb6>
     750:	c7 01       	movw	r24, r14
     752:	b6 01       	movw	r22, r12
     754:	a2 01       	movw	r20, r4
     756:	91 01       	movw	r18, r2
     758:	75 d5       	rcall	.+2794   	; 0x1244 <__udivmodsi4>
     75a:	12 2f       	mov	r17, r18
     75c:	03 2f       	mov	r16, r19
     75e:	b4 2e       	mov	r11, r20
     760:	a5 2e       	mov	r10, r21
     762:	62 2f       	mov	r22, r18
     764:	73 2f       	mov	r23, r19
     766:	84 2f       	mov	r24, r20
     768:	95 2f       	mov	r25, r21
     76a:	2a e0       	ldi	r18, 0x0A	; 10
     76c:	30 e0       	ldi	r19, 0x00	; 0
     76e:	40 e0       	ldi	r20, 0x00	; 0
     770:	50 e0       	ldi	r21, 0x00	; 0
     772:	35 d5       	rcall	.+2666   	; 0x11de <__mulsi3>
     774:	dc 01       	movw	r26, r24
     776:	cb 01       	movw	r24, r22
     778:	c8 1a       	sub	r12, r24
     77a:	d9 0a       	sbc	r13, r25
     77c:	ea 0a       	sbc	r14, r26
     77e:	fb 0a       	sbc	r15, r27
     780:	f6 01       	movw	r30, r12
     782:	eb 59       	subi	r30, 0x9B	; 155
     784:	ff 4f       	sbci	r31, 0xFF	; 255
     786:	80 81       	ld	r24, Z
     788:	ab 81       	ldd	r26, Y+3	; 0x03
     78a:	bc 81       	ldd	r27, Y+4	; 0x04
     78c:	8c 93       	st	X, r24
     78e:	11 96       	adiw	r26, 0x01	; 1
     790:	1c 92       	st	X, r1
     792:	11 97       	sbiw	r26, 0x01	; 1
     794:	c1 2e       	mov	r12, r17
     796:	d0 2e       	mov	r13, r16
     798:	eb 2c       	mov	r14, r11
     79a:	fa 2c       	mov	r15, r10
     79c:	0e c0       	rjmp	.+28     	; 0x7ba <BCDsendNumber+0xd2>
     79e:	77 20       	and	r7, r7
     7a0:	39 f4       	brne	.+14     	; 0x7b0 <BCDsendNumber+0xc8>
     7a2:	2c ef       	ldi	r18, 0xFC	; 252
     7a4:	30 e0       	ldi	r19, 0x00	; 0
     7a6:	eb 81       	ldd	r30, Y+3	; 0x03
     7a8:	fc 81       	ldd	r31, Y+4	; 0x04
     7aa:	31 83       	std	Z+1, r19	; 0x01
     7ac:	20 83       	st	Z, r18
     7ae:	05 c0       	rjmp	.+10     	; 0x7ba <BCDsendNumber+0xd2>
     7b0:	ab 81       	ldd	r26, Y+3	; 0x03
     7b2:	bc 81       	ldd	r27, Y+4	; 0x04
     7b4:	11 96       	adiw	r26, 0x01	; 1
     7b6:	1c 92       	st	X, r1
     7b8:	1e 92       	st	-X, r1
     7ba:	83 94       	inc	r8
     7bc:	eb 81       	ldd	r30, Y+3	; 0x03
     7be:	fc 81       	ldd	r31, Y+4	; 0x04
     7c0:	32 96       	adiw	r30, 0x02	; 2
     7c2:	fc 83       	std	Y+4, r31	; 0x04
     7c4:	eb 83       	std	Y+3, r30	; 0x03
     7c6:	f4 e0       	ldi	r31, 0x04	; 4
     7c8:	8f 16       	cp	r8, r31
     7ca:	09 f0       	breq	.+2      	; 0x7ce <BCDsendNumber+0xe6>
     7cc:	ba cf       	rjmp	.-140    	; 0x742 <BCDsendNumber+0x5a>
     7ce:	99 20       	and	r9, r9
     7d0:	89 f0       	breq	.+34     	; 0x7f4 <BCDsendNumber+0x10c>
     7d2:	e9 81       	ldd	r30, Y+1	; 0x01
     7d4:	fa 81       	ldd	r31, Y+2	; 0x02
     7d6:	ee 0f       	add	r30, r30
     7d8:	ff 1f       	adc	r31, r31
     7da:	ee 0f       	add	r30, r30
     7dc:	ff 1f       	adc	r31, r31
     7de:	e9 0d       	add	r30, r9
     7e0:	f1 1d       	adc	r31, r1
     7e2:	ee 0f       	add	r30, r30
     7e4:	ff 1f       	adc	r31, r31
     7e6:	e3 54       	subi	r30, 0x43	; 67
     7e8:	ff 4f       	sbci	r31, 0xFF	; 255
     7ea:	80 81       	ld	r24, Z
     7ec:	91 81       	ldd	r25, Z+1	; 0x01
     7ee:	81 60       	ori	r24, 0x01	; 1
     7f0:	91 83       	std	Z+1, r25	; 0x01
     7f2:	80 83       	st	Z, r24
     7f4:	0f 90       	pop	r0
     7f6:	0f 90       	pop	r0
     7f8:	0f 90       	pop	r0
     7fa:	0f 90       	pop	r0
     7fc:	df 91       	pop	r29
     7fe:	cf 91       	pop	r28
     800:	1f 91       	pop	r17
     802:	0f 91       	pop	r16
     804:	ff 90       	pop	r15
     806:	ef 90       	pop	r14
     808:	df 90       	pop	r13
     80a:	cf 90       	pop	r12
     80c:	bf 90       	pop	r11
     80e:	af 90       	pop	r10
     810:	9f 90       	pop	r9
     812:	8f 90       	pop	r8
     814:	7f 90       	pop	r7
     816:	5f 90       	pop	r5
     818:	4f 90       	pop	r4
     81a:	3f 90       	pop	r3
     81c:	2f 90       	pop	r2
     81e:	08 95       	ret

00000820 <BCDManage7segment>:
     820:	cf 93       	push	r28
     822:	90 91 cd 00 	lds	r25, 0x00CD
     826:	99 23       	and	r25, r25
     828:	81 f0       	breq	.+32     	; 0x84a <BCDManage7segment+0x2a>
     82a:	80 91 ce 00 	lds	r24, 0x00CE
     82e:	8f 5f       	subi	r24, 0xFF	; 255
     830:	80 93 ce 00 	sts	0x00CE, r24
     834:	89 17       	cp	r24, r25
     836:	59 f4       	brne	.+22     	; 0x84e <BCDManage7segment+0x2e>
     838:	80 91 cf 00 	lds	r24, 0x00CF
     83c:	91 e0       	ldi	r25, 0x01	; 1
     83e:	89 27       	eor	r24, r25
     840:	80 93 cf 00 	sts	0x00CF, r24
     844:	10 92 ce 00 	sts	0x00CE, r1
     848:	02 c0       	rjmp	.+4      	; 0x84e <BCDManage7segment+0x2e>
     84a:	10 92 cf 00 	sts	0x00CF, r1
     84e:	80 91 cf 00 	lds	r24, 0x00CF
     852:	81 30       	cpi	r24, 0x01	; 1
     854:	61 f4       	brne	.+24     	; 0x86e <BCDManage7segment+0x4e>
     856:	90 91 d0 00 	lds	r25, 0x00D0
     85a:	80 91 d1 00 	lds	r24, 0x00D1
     85e:	98 17       	cp	r25, r24
     860:	31 f4       	brne	.+12     	; 0x86e <BCDManage7segment+0x4e>
     862:	90 91 d2 00 	lds	r25, 0x00D2
     866:	80 91 d3 00 	lds	r24, 0x00D3
     86a:	98 17       	cp	r25, r24
     86c:	89 f0       	breq	.+34     	; 0x890 <BCDManage7segment+0x70>
     86e:	80 91 d0 00 	lds	r24, 0x00D0
     872:	e0 91 d3 00 	lds	r30, 0x00D3
     876:	f0 e0       	ldi	r31, 0x00	; 0
     878:	ee 0f       	add	r30, r30
     87a:	ff 1f       	adc	r31, r31
     87c:	ee 0f       	add	r30, r30
     87e:	ff 1f       	adc	r31, r31
     880:	e8 0f       	add	r30, r24
     882:	f1 1d       	adc	r31, r1
     884:	ee 0f       	add	r30, r30
     886:	ff 1f       	adc	r31, r31
     888:	e3 54       	subi	r30, 0x43	; 67
     88a:	ff 4f       	sbci	r31, 0xFF	; 255
     88c:	c0 81       	ld	r28, Z
     88e:	01 c0       	rjmp	.+2      	; 0x892 <BCDManage7segment+0x72>
     890:	c0 e0       	ldi	r28, 0x00	; 0
     892:	80 91 bc 00 	lds	r24, 0x00BC
     896:	81 30       	cpi	r24, 0x01	; 1
     898:	09 f4       	brne	.+2      	; 0x89c <BCDManage7segment+0x7c>
     89a:	c0 95       	com	r28
     89c:	60 91 d3 00 	lds	r22, 0x00D3
     8a0:	66 0f       	add	r22, r22
     8a2:	66 0f       	add	r22, r22
     8a4:	80 91 d0 00 	lds	r24, 0x00D0
     8a8:	68 0f       	add	r22, r24
     8aa:	80 e0       	ldi	r24, 0x00	; 0
     8ac:	85 d3       	rcall	.+1802   	; 0xfb8 <HWI_4Digit_WRITE>
     8ae:	81 e0       	ldi	r24, 0x01	; 1
     8b0:	6c 2f       	mov	r22, r28
     8b2:	9b d3       	rcall	.+1846   	; 0xfea <HWI_8Digit_WRITE>
     8b4:	80 91 d0 00 	lds	r24, 0x00D0
     8b8:	8f 5f       	subi	r24, 0xFF	; 255
     8ba:	80 93 d0 00 	sts	0x00D0, r24
     8be:	84 30       	cpi	r24, 0x04	; 4
     8c0:	59 f4       	brne	.+22     	; 0x8d8 <BCDManage7segment+0xb8>
     8c2:	10 92 d0 00 	sts	0x00D0, r1
     8c6:	80 91 d3 00 	lds	r24, 0x00D3
     8ca:	8f 5f       	subi	r24, 0xFF	; 255
     8cc:	80 93 d3 00 	sts	0x00D3, r24
     8d0:	82 30       	cpi	r24, 0x02	; 2
     8d2:	11 f4       	brne	.+4      	; 0x8d8 <BCDManage7segment+0xb8>
     8d4:	10 92 d3 00 	sts	0x00D3, r1
     8d8:	cf 91       	pop	r28
     8da:	08 95       	ret

000008dc <BlinkDigit>:
     8dc:	80 93 d1 00 	sts	0x00D1, r24
     8e0:	40 93 cd 00 	sts	0x00CD, r20
     8e4:	60 93 d2 00 	sts	0x00D2, r22
     8e8:	08 95       	ret

000008ea <Segment7SendString>:
     8ea:	cf 93       	push	r28
     8ec:	df 93       	push	r29
     8ee:	da 01       	movw	r26, r20
     8f0:	42 2f       	mov	r20, r18
     8f2:	50 e0       	ldi	r21, 0x00	; 0
     8f4:	48 0f       	add	r20, r24
     8f6:	51 1d       	adc	r21, r1
     8f8:	45 30       	cpi	r20, 0x05	; 5
     8fa:	51 05       	cpc	r21, r1
     8fc:	cc f4       	brge	.+50     	; 0x930 <Segment7SendString+0x46>
     8fe:	70 e0       	ldi	r23, 0x00	; 0
     900:	66 0f       	add	r22, r22
     902:	77 1f       	adc	r23, r23
     904:	66 0f       	add	r22, r22
     906:	77 1f       	adc	r23, r23
     908:	0e c0       	rjmp	.+28     	; 0x926 <Segment7SendString+0x3c>
     90a:	fb 01       	movw	r30, r22
     90c:	e2 0f       	add	r30, r18
     90e:	f3 1f       	adc	r31, r19
     910:	ee 0f       	add	r30, r30
     912:	ff 1f       	adc	r31, r31
     914:	e3 54       	subi	r30, 0x43	; 67
     916:	ff 4f       	sbci	r31, 0xFF	; 255
     918:	2a 0f       	add	r18, r26
     91a:	3b 1f       	adc	r19, r27
     91c:	e9 01       	movw	r28, r18
     91e:	98 81       	ld	r25, Y
     920:	90 83       	st	Z, r25
     922:	11 82       	std	Z+1, r1	; 0x01
     924:	8f 5f       	subi	r24, 0xFF	; 255
     926:	28 2f       	mov	r18, r24
     928:	30 e0       	ldi	r19, 0x00	; 0
     92a:	24 17       	cp	r18, r20
     92c:	35 07       	cpc	r19, r21
     92e:	6c f3       	brlt	.-38     	; 0x90a <Segment7SendString+0x20>
     930:	df 91       	pop	r29
     932:	cf 91       	pop	r28
     934:	08 95       	ret

00000936 <DisplaySendString>:
     936:	ef 92       	push	r14
     938:	ff 92       	push	r15
     93a:	0f 93       	push	r16
     93c:	1f 93       	push	r17
     93e:	cf 93       	push	r28
     940:	df 93       	push	r29
     942:	00 d0       	rcall	.+0      	; 0x944 <DisplaySendString+0xe>
     944:	00 d0       	rcall	.+0      	; 0x946 <DisplaySendString+0x10>
     946:	cd b7       	in	r28, 0x3d	; 61
     948:	de b7       	in	r29, 0x3e	; 62
     94a:	de 01       	movw	r26, r28
     94c:	a2 0f       	add	r26, r18
     94e:	b1 1d       	adc	r27, r1
     950:	7a 01       	movw	r14, r20
     952:	0e c0       	rjmp	.+28     	; 0x970 <DisplaySendString+0x3a>
     954:	f7 01       	movw	r30, r14
     956:	91 91       	ld	r25, Z+
     958:	7f 01       	movw	r14, r30
     95a:	09 2f       	mov	r16, r25
     95c:	01 54       	subi	r16, 0x41	; 65
     95e:	06 32       	cpi	r16, 0x26	; 38
     960:	28 f4       	brcc	.+10     	; 0x96c <DisplaySendString+0x36>
     962:	10 e0       	ldi	r17, 0x00	; 0
     964:	00 59       	subi	r16, 0x90	; 144
     966:	1f 4f       	sbci	r17, 0xFF	; 255
     968:	f8 01       	movw	r30, r16
     96a:	90 81       	ld	r25, Z
     96c:	9c 93       	st	X, r25
     96e:	11 97       	sbiw	r26, 0x01	; 1
     970:	9e 2d       	mov	r25, r14
     972:	94 1b       	sub	r25, r20
     974:	92 17       	cp	r25, r18
     976:	70 f3       	brcs	.-36     	; 0x954 <DisplaySendString+0x1e>
     978:	ae 01       	movw	r20, r28
     97a:	4f 5f       	subi	r20, 0xFF	; 255
     97c:	5f 4f       	sbci	r21, 0xFF	; 255
     97e:	b5 df       	rcall	.-150    	; 0x8ea <Segment7SendString>
     980:	0f 90       	pop	r0
     982:	0f 90       	pop	r0
     984:	0f 90       	pop	r0
     986:	0f 90       	pop	r0
     988:	df 91       	pop	r29
     98a:	cf 91       	pop	r28
     98c:	1f 91       	pop	r17
     98e:	0f 91       	pop	r16
     990:	ff 90       	pop	r15
     992:	ef 90       	pop	r14
     994:	08 95       	ret

00000996 <Eeprom_Write_Block>:
     996:	90 91 d4 00 	lds	r25, 0x00D4
     99a:	99 23       	and	r25, r25
     99c:	c9 f4       	brne	.+50     	; 0x9d0 <Eeprom_Write_Block+0x3a>
     99e:	43 33       	cpi	r20, 0x33	; 51
     9a0:	c8 f4       	brcc	.+50     	; 0x9d4 <Eeprom_Write_Block+0x3e>
     9a2:	91 e0       	ldi	r25, 0x01	; 1
     9a4:	90 93 d4 00 	sts	0x00D4, r25
     9a8:	a5 ed       	ldi	r26, 0xD5	; 213
     9aa:	b0 e0       	ldi	r27, 0x00	; 0
     9ac:	fb 01       	movw	r30, r22
     9ae:	02 c0       	rjmp	.+4      	; 0x9b4 <Eeprom_Write_Block+0x1e>
     9b0:	91 91       	ld	r25, Z+
     9b2:	9d 93       	st	X+, r25
     9b4:	9e 2f       	mov	r25, r30
     9b6:	96 1b       	sub	r25, r22
     9b8:	94 17       	cp	r25, r20
     9ba:	d0 f3       	brcs	.-12     	; 0x9b0 <Eeprom_Write_Block+0x1a>
     9bc:	40 93 07 01 	sts	0x0107, r20
     9c0:	80 93 08 01 	sts	0x0108, r24
     9c4:	30 93 0a 01 	sts	0x010A, r19
     9c8:	20 93 09 01 	sts	0x0109, r18
     9cc:	81 e0       	ldi	r24, 0x01	; 1
     9ce:	08 95       	ret
     9d0:	80 e0       	ldi	r24, 0x00	; 0
     9d2:	08 95       	ret
     9d4:	80 e0       	ldi	r24, 0x00	; 0
     9d6:	08 95       	ret

000009d8 <Eeprom_Read_Block>:
     9d8:	ef 92       	push	r14
     9da:	ff 92       	push	r15
     9dc:	0f 93       	push	r16
     9de:	1f 93       	push	r17
     9e0:	cf 93       	push	r28
     9e2:	df 93       	push	r29
     9e4:	0f 92       	push	r0
     9e6:	cd b7       	in	r28, 0x3d	; 61
     9e8:	de b7       	in	r29, 0x3e	; 62
     9ea:	18 2f       	mov	r17, r24
     9ec:	7b 01       	movw	r14, r22
     9ee:	80 91 d4 00 	lds	r24, 0x00D4
     9f2:	88 23       	and	r24, r24
     9f4:	71 f0       	breq	.+28     	; 0xa12 <Eeprom_Read_Block+0x3a>
     9f6:	80 e0       	ldi	r24, 0x00	; 0
     9f8:	10 c0       	rjmp	.+32     	; 0xa1a <Eeprom_Read_Block+0x42>
     9fa:	b7 01       	movw	r22, r14
     9fc:	60 0f       	add	r22, r16
     9fe:	71 1d       	adc	r23, r1
     a00:	80 2f       	mov	r24, r16
     a02:	81 0f       	add	r24, r17
     a04:	49 83       	std	Y+1, r20	; 0x01
     a06:	66 d2       	rcall	.+1228   	; 0xed4 <HWIeeprom_Read>
     a08:	49 81       	ldd	r20, Y+1	; 0x01
     a0a:	81 30       	cpi	r24, 0x01	; 1
     a0c:	19 f4       	brne	.+6      	; 0xa14 <Eeprom_Read_Block+0x3c>
     a0e:	0f 5f       	subi	r16, 0xFF	; 255
     a10:	01 c0       	rjmp	.+2      	; 0xa14 <Eeprom_Read_Block+0x3c>
     a12:	00 e0       	ldi	r16, 0x00	; 0
     a14:	04 17       	cp	r16, r20
     a16:	88 f3       	brcs	.-30     	; 0x9fa <Eeprom_Read_Block+0x22>
     a18:	81 e0       	ldi	r24, 0x01	; 1
     a1a:	0f 90       	pop	r0
     a1c:	df 91       	pop	r29
     a1e:	cf 91       	pop	r28
     a20:	1f 91       	pop	r17
     a22:	0f 91       	pop	r16
     a24:	ff 90       	pop	r15
     a26:	ef 90       	pop	r14
     a28:	08 95       	ret

00000a2a <EepromManage>:
     a2a:	80 91 d4 00 	lds	r24, 0x00D4
     a2e:	81 30       	cpi	r24, 0x01	; 1
     a30:	11 f5       	brne	.+68     	; 0xa76 <EepromManage+0x4c>
     a32:	80 91 0b 01 	lds	r24, 0x010B
     a36:	90 91 07 01 	lds	r25, 0x0107
     a3a:	89 17       	cp	r24, r25
     a3c:	61 f4       	brne	.+24     	; 0xa56 <EepromManage+0x2c>
     a3e:	10 92 0b 01 	sts	0x010B, r1
     a42:	10 92 d4 00 	sts	0x00D4, r1
     a46:	e0 91 09 01 	lds	r30, 0x0109
     a4a:	f0 91 0a 01 	lds	r31, 0x010A
     a4e:	30 97       	sbiw	r30, 0x00	; 0
     a50:	91 f0       	breq	.+36     	; 0xa76 <EepromManage+0x4c>
     a52:	09 95       	icall
     a54:	08 95       	ret
     a56:	90 91 08 01 	lds	r25, 0x0108
     a5a:	e8 2f       	mov	r30, r24
     a5c:	f0 e0       	ldi	r31, 0x00	; 0
     a5e:	eb 52       	subi	r30, 0x2B	; 43
     a60:	ff 4f       	sbci	r31, 0xFF	; 255
     a62:	89 0f       	add	r24, r25
     a64:	60 81       	ld	r22, Z
     a66:	2a d2       	rcall	.+1108   	; 0xebc <HWIeeprom_Write>
     a68:	81 30       	cpi	r24, 0x01	; 1
     a6a:	29 f4       	brne	.+10     	; 0xa76 <EepromManage+0x4c>
     a6c:	80 91 0b 01 	lds	r24, 0x010B
     a70:	8f 5f       	subi	r24, 0xFF	; 255
     a72:	80 93 0b 01 	sts	0x010B, r24
     a76:	08 95       	ret

00000a78 <KeyInitialize>:
     a78:	86 e0       	ldi	r24, 0x06	; 6
     a7a:	ec e0       	ldi	r30, 0x0C	; 12
     a7c:	f1 e0       	ldi	r31, 0x01	; 1
     a7e:	df 01       	movw	r26, r30
     a80:	1d 92       	st	X+, r1
     a82:	8a 95       	dec	r24
     a84:	e9 f7       	brne	.-6      	; 0xa80 <KeyInitialize+0x8>
     a86:	08 95       	ret

00000a88 <GetKeyStatus>:
     a88:	90 e0       	ldi	r25, 0x00	; 0
     a8a:	fc 01       	movw	r30, r24
     a8c:	ee 0f       	add	r30, r30
     a8e:	ff 1f       	adc	r31, r31
     a90:	e8 0f       	add	r30, r24
     a92:	f9 1f       	adc	r31, r25
     a94:	e4 5f       	subi	r30, 0xF4	; 244
     a96:	fe 4f       	sbci	r31, 0xFE	; 254
     a98:	80 81       	ld	r24, Z
     a9a:	98 2f       	mov	r25, r24
     a9c:	9f 73       	andi	r25, 0x3F	; 63
     a9e:	90 83       	st	Z, r25
     aa0:	08 95       	ret

00000aa2 <MangeKeys>:
     aa2:	ef 92       	push	r14
     aa4:	ff 92       	push	r15
     aa6:	0f 93       	push	r16
     aa8:	1f 93       	push	r17
     aaa:	cf 93       	push	r28
     aac:	df 93       	push	r29
     aae:	0f 92       	push	r0
     ab0:	cd b7       	in	r28, 0x3d	; 61
     ab2:	de b7       	in	r29, 0x3e	; 62
     ab4:	90 e0       	ldi	r25, 0x00	; 0
     ab6:	7c 01       	movw	r14, r24
     ab8:	ee 0c       	add	r14, r14
     aba:	ff 1c       	adc	r15, r15
     abc:	e8 0e       	add	r14, r24
     abe:	f9 1e       	adc	r15, r25
     ac0:	2c e0       	ldi	r18, 0x0C	; 12
     ac2:	31 e0       	ldi	r19, 0x01	; 1
     ac4:	e2 0e       	add	r14, r18
     ac6:	f3 1e       	adc	r15, r19
     ac8:	f7 01       	movw	r30, r14
     aca:	20 81       	ld	r18, Z
     acc:	2f 73       	andi	r18, 0x3F	; 63
     ace:	8c 01       	movw	r16, r24
     ad0:	43 e0       	ldi	r20, 0x03	; 3
     ad2:	00 0f       	add	r16, r16
     ad4:	11 1f       	adc	r17, r17
     ad6:	4a 95       	dec	r20
     ad8:	e1 f7       	brne	.-8      	; 0xad2 <MangeKeys+0x30>
     ada:	06 57       	subi	r16, 0x76	; 118
     adc:	1f 4f       	sbci	r17, 0xFF	; 255
     ade:	f8 01       	movw	r30, r16
     ae0:	80 81       	ld	r24, Z
     ae2:	29 83       	std	Y+1, r18	; 0x01
     ae4:	0c d2       	rcall	.+1048   	; 0xefe <HWI_DIGI_READ>
     ae6:	29 81       	ldd	r18, Y+1	; 0x01
     ae8:	21 30       	cpi	r18, 0x01	; 1
     aea:	f9 f0       	breq	.+62     	; 0xb2a <MangeKeys+0x88>
     aec:	21 30       	cpi	r18, 0x01	; 1
     aee:	20 f0       	brcs	.+8      	; 0xaf8 <MangeKeys+0x56>
     af0:	22 30       	cpi	r18, 0x02	; 2
     af2:	09 f0       	breq	.+2      	; 0xaf6 <MangeKeys+0x54>
     af4:	5c c0       	rjmp	.+184    	; 0xbae <MangeKeys+0x10c>
     af6:	46 c0       	rjmp	.+140    	; 0xb84 <MangeKeys+0xe2>
     af8:	f8 01       	movw	r30, r16
     afa:	91 81       	ldd	r25, Z+1	; 0x01
     afc:	f7 01       	movw	r30, r14
     afe:	98 17       	cp	r25, r24
     b00:	89 f4       	brne	.+34     	; 0xb24 <MangeKeys+0x82>
     b02:	81 81       	ldd	r24, Z+1	; 0x01
     b04:	92 81       	ldd	r25, Z+2	; 0x02
     b06:	01 96       	adiw	r24, 0x01	; 1
     b08:	92 83       	std	Z+2, r25	; 0x02
     b0a:	81 83       	std	Z+1, r24	; 0x01
     b0c:	f8 01       	movw	r30, r16
     b0e:	24 81       	ldd	r18, Z+4	; 0x04
     b10:	35 81       	ldd	r19, Z+5	; 0x05
     b12:	28 17       	cp	r18, r24
     b14:	39 07       	cpc	r19, r25
     b16:	09 f0       	breq	.+2      	; 0xb1a <MangeKeys+0x78>
     b18:	4c c0       	rjmp	.+152    	; 0xbb2 <MangeKeys+0x110>
     b1a:	81 e8       	ldi	r24, 0x81	; 129
     b1c:	f7 01       	movw	r30, r14
     b1e:	80 83       	st	Z, r24
     b20:	f8 01       	movw	r30, r16
     b22:	34 c0       	rjmp	.+104    	; 0xb8c <MangeKeys+0xea>
     b24:	12 82       	std	Z+2, r1	; 0x02
     b26:	11 82       	std	Z+1, r1	; 0x01
     b28:	44 c0       	rjmp	.+136    	; 0xbb2 <MangeKeys+0x110>
     b2a:	f8 01       	movw	r30, r16
     b2c:	91 81       	ldd	r25, Z+1	; 0x01
     b2e:	f7 01       	movw	r30, r14
     b30:	21 81       	ldd	r18, Z+1	; 0x01
     b32:	32 81       	ldd	r19, Z+2	; 0x02
     b34:	f8 01       	movw	r30, r16
     b36:	42 81       	ldd	r20, Z+2	; 0x02
     b38:	53 81       	ldd	r21, Z+3	; 0x03
     b3a:	98 17       	cp	r25, r24
     b3c:	b1 f4       	brne	.+44     	; 0xb6a <MangeKeys+0xc8>
     b3e:	24 17       	cp	r18, r20
     b40:	35 07       	cpc	r19, r21
     b42:	78 f0       	brcs	.+30     	; 0xb62 <MangeKeys+0xc0>
     b44:	2f 5f       	subi	r18, 0xFF	; 255
     b46:	3f 4f       	sbci	r19, 0xFF	; 255
     b48:	f7 01       	movw	r30, r14
     b4a:	32 83       	std	Z+2, r19	; 0x02
     b4c:	21 83       	std	Z+1, r18	; 0x01
     b4e:	f8 01       	movw	r30, r16
     b50:	86 81       	ldd	r24, Z+6	; 0x06
     b52:	97 81       	ldd	r25, Z+7	; 0x07
     b54:	82 17       	cp	r24, r18
     b56:	93 07       	cpc	r25, r19
     b58:	61 f5       	brne	.+88     	; 0xbb2 <MangeKeys+0x110>
     b5a:	82 e8       	ldi	r24, 0x82	; 130
     b5c:	f7 01       	movw	r30, r14
     b5e:	80 83       	st	Z, r24
     b60:	01 c0       	rjmp	.+2      	; 0xb64 <MangeKeys+0xc2>
     b62:	f7 01       	movw	r30, r14
     b64:	52 83       	std	Z+2, r21	; 0x02
     b66:	41 83       	std	Z+1, r20	; 0x01
     b68:	24 c0       	rjmp	.+72     	; 0xbb2 <MangeKeys+0x110>
     b6a:	42 17       	cp	r20, r18
     b6c:	53 07       	cpc	r21, r19
     b6e:	c8 f3       	brcs	.-14     	; 0xb62 <MangeKeys+0xc0>
     b70:	21 50       	subi	r18, 0x01	; 1
     b72:	30 40       	sbci	r19, 0x00	; 0
     b74:	f7 01       	movw	r30, r14
     b76:	32 83       	std	Z+2, r19	; 0x02
     b78:	21 83       	std	Z+1, r18	; 0x01
     b7a:	21 15       	cp	r18, r1
     b7c:	31 05       	cpc	r19, r1
     b7e:	c9 f4       	brne	.+50     	; 0xbb2 <MangeKeys+0x110>
     b80:	80 e4       	ldi	r24, 0x40	; 64
     b82:	13 c0       	rjmp	.+38     	; 0xbaa <MangeKeys+0x108>
     b84:	f8 01       	movw	r30, r16
     b86:	91 81       	ldd	r25, Z+1	; 0x01
     b88:	98 17       	cp	r25, r24
     b8a:	31 f4       	brne	.+12     	; 0xb98 <MangeKeys+0xf6>
     b8c:	82 81       	ldd	r24, Z+2	; 0x02
     b8e:	93 81       	ldd	r25, Z+3	; 0x03
     b90:	f7 01       	movw	r30, r14
     b92:	92 83       	std	Z+2, r25	; 0x02
     b94:	81 83       	std	Z+1, r24	; 0x01
     b96:	0d c0       	rjmp	.+26     	; 0xbb2 <MangeKeys+0x110>
     b98:	f7 01       	movw	r30, r14
     b9a:	81 81       	ldd	r24, Z+1	; 0x01
     b9c:	92 81       	ldd	r25, Z+2	; 0x02
     b9e:	01 97       	sbiw	r24, 0x01	; 1
     ba0:	92 83       	std	Z+2, r25	; 0x02
     ba2:	81 83       	std	Z+1, r24	; 0x01
     ba4:	00 97       	sbiw	r24, 0x00	; 0
     ba6:	29 f4       	brne	.+10     	; 0xbb2 <MangeKeys+0x110>
     ba8:	80 e8       	ldi	r24, 0x80	; 128
     baa:	80 83       	st	Z, r24
     bac:	02 c0       	rjmp	.+4      	; 0xbb2 <MangeKeys+0x110>
     bae:	f7 01       	movw	r30, r14
     bb0:	10 82       	st	Z, r1
     bb2:	0f 90       	pop	r0
     bb4:	df 91       	pop	r29
     bb6:	cf 91       	pop	r28
     bb8:	1f 91       	pop	r17
     bba:	0f 91       	pop	r16
     bbc:	ff 90       	pop	r15
     bbe:	ef 90       	pop	r14
     bc0:	08 95       	ret

00000bc2 <SwitchLedOnOff>:
     bc2:	98 2f       	mov	r25, r24
     bc4:	ea e9       	ldi	r30, 0x9A	; 154
     bc6:	f0 e0       	ldi	r31, 0x00	; 0
     bc8:	e6 0f       	add	r30, r22
     bca:	f1 1d       	adc	r31, r1
     bcc:	80 81       	ld	r24, Z
     bce:	69 2f       	mov	r22, r25
     bd0:	a7 d1       	rcall	.+846    	; 0xf20 <HWI_DIGI_WRITE>
     bd2:	08 95       	ret

00000bd4 <ExclusiveSwitchLedOnOff>:
     bd4:	ff 92       	push	r15
     bd6:	0f 93       	push	r16
     bd8:	1f 93       	push	r17
     bda:	cf 93       	push	r28
     bdc:	df 93       	push	r29
     bde:	98 2f       	mov	r25, r24
     be0:	f6 2e       	mov	r15, r22
     be2:	08 2f       	mov	r16, r24
     be4:	00 95       	com	r16
     be6:	01 70       	andi	r16, 0x01	; 1
     be8:	e6 2f       	mov	r30, r22
     bea:	f0 e0       	ldi	r31, 0x00	; 0
     bec:	e6 56       	subi	r30, 0x66	; 102
     bee:	ff 4f       	sbci	r31, 0xFF	; 255
     bf0:	80 81       	ld	r24, Z
     bf2:	69 2f       	mov	r22, r25
     bf4:	95 d1       	rcall	.+810    	; 0xf20 <HWI_DIGI_WRITE>
     bf6:	ca e9       	ldi	r28, 0x9A	; 154
     bf8:	d0 e0       	ldi	r29, 0x00	; 0
     bfa:	10 e0       	ldi	r17, 0x00	; 0
     bfc:	1f 15       	cp	r17, r15
     bfe:	19 f0       	breq	.+6      	; 0xc06 <ExclusiveSwitchLedOnOff+0x32>
     c00:	88 81       	ld	r24, Y
     c02:	60 2f       	mov	r22, r16
     c04:	8d d1       	rcall	.+794    	; 0xf20 <HWI_DIGI_WRITE>
     c06:	1f 5f       	subi	r17, 0xFF	; 255
     c08:	21 96       	adiw	r28, 0x01	; 1
     c0a:	17 30       	cpi	r17, 0x07	; 7
     c0c:	b9 f7       	brne	.-18     	; 0xbfc <ExclusiveSwitchLedOnOff+0x28>
     c0e:	df 91       	pop	r29
     c10:	cf 91       	pop	r28
     c12:	1f 91       	pop	r17
     c14:	0f 91       	pop	r16
     c16:	ff 90       	pop	r15
     c18:	08 95       	ret

00000c1a <SpeedCalcNotifyInitialize>:
     c1a:	08 95       	ret

00000c1c <SensorOneNotify>:
     c1c:	80 91 16 01 	lds	r24, 0x0116
     c20:	81 30       	cpi	r24, 0x01	; 1
     c22:	19 f4       	brne	.+6      	; 0xc2a <SensorOneNotify+0xe>
     c24:	10 92 16 01 	sts	0x0116, r1
     c28:	08 95       	ret
     c2a:	80 91 15 01 	lds	r24, 0x0115
     c2e:	88 23       	and	r24, r24
     c30:	29 f0       	breq	.+10     	; 0xc3c <SensorOneNotify+0x20>
     c32:	80 91 15 01 	lds	r24, 0x0115
     c36:	81 50       	subi	r24, 0x01	; 1
     c38:	80 93 15 01 	sts	0x0115, r24
     c3c:	08 95       	ret

00000c3e <SensorTwoNotify>:
     c3e:	80 91 16 01 	lds	r24, 0x0116
     c42:	88 23       	and	r24, r24
     c44:	a9 f4       	brne	.+42     	; 0xc70 <SensorTwoNotify+0x32>
     c46:	81 e0       	ldi	r24, 0x01	; 1
     c48:	80 93 16 01 	sts	0x0116, r24
     c4c:	80 91 15 01 	lds	r24, 0x0115
     c50:	8f 5f       	subi	r24, 0xFF	; 255
     c52:	80 93 15 01 	sts	0x0115, r24
     c56:	81 e0       	ldi	r24, 0x01	; 1
     c58:	f7 d1       	rcall	.+1006   	; 0x1048 <ReloadHWtimer>
     c5a:	90 93 14 01 	sts	0x0114, r25
     c5e:	80 93 13 01 	sts	0x0113, r24
     c62:	80 91 12 01 	lds	r24, 0x0112
     c66:	80 93 17 01 	sts	0x0117, r24
     c6a:	10 92 12 01 	sts	0x0112, r1
     c6e:	08 95       	ret
     c70:	80 91 15 01 	lds	r24, 0x0115
     c74:	88 23       	and	r24, r24
     c76:	29 f0       	breq	.+10     	; 0xc82 <SensorTwoNotify+0x44>
     c78:	80 91 15 01 	lds	r24, 0x0115
     c7c:	81 50       	subi	r24, 0x01	; 1
     c7e:	80 93 15 01 	sts	0x0115, r24
     c82:	08 95       	ret

00000c84 <SpeedCalcManage>:
     c84:	cf 93       	push	r28
     c86:	df 93       	push	r29
     c88:	40 91 13 01 	lds	r20, 0x0113
     c8c:	50 91 14 01 	lds	r21, 0x0114
     c90:	20 91 17 01 	lds	r18, 0x0117
     c94:	30 e0       	ldi	r19, 0x00	; 0
     c96:	8f e8       	ldi	r24, 0x8F	; 143
     c98:	92 e0       	ldi	r25, 0x02	; 2
     c9a:	28 9f       	mul	r18, r24
     c9c:	f0 01       	movw	r30, r0
     c9e:	29 9f       	mul	r18, r25
     ca0:	f0 0d       	add	r31, r0
     ca2:	38 9f       	mul	r19, r24
     ca4:	f0 0d       	add	r31, r0
     ca6:	11 24       	eor	r1, r1
     ca8:	ca 01       	movw	r24, r20
     caa:	64 e6       	ldi	r22, 0x64	; 100
     cac:	70 e0       	ldi	r23, 0x00	; 0
     cae:	b6 d2       	rcall	.+1388   	; 0x121c <__udivmodhi4>
     cb0:	e6 0f       	add	r30, r22
     cb2:	f7 1f       	adc	r31, r23
     cb4:	f0 93 19 01 	sts	0x0119, r31
     cb8:	e0 93 18 01 	sts	0x0118, r30
     cbc:	80 91 15 01 	lds	r24, 0x0115
     cc0:	c0 91 1a 01 	lds	r28, 0x011A
     cc4:	d0 91 1b 01 	lds	r29, 0x011B
     cc8:	c8 0f       	add	r28, r24
     cca:	d1 1d       	adc	r29, r1
     ccc:	d0 93 1b 01 	sts	0x011B, r29
     cd0:	c0 93 1a 01 	sts	0x011A, r28
     cd4:	10 92 15 01 	sts	0x0115, r1
     cd8:	20 91 a1 00 	lds	r18, 0x00A1
     cdc:	30 91 a2 00 	lds	r19, 0x00A2
     ce0:	80 91 1c 01 	lds	r24, 0x011C
     ce4:	88 23       	and	r24, r24
     ce6:	19 f5       	brne	.+70     	; 0xd2e <SpeedCalcManage+0xaa>
     ce8:	40 e0       	ldi	r20, 0x00	; 0
     cea:	50 e0       	ldi	r21, 0x00	; 0
     cec:	60 ea       	ldi	r22, 0xA0	; 160
     cee:	76 e8       	ldi	r23, 0x86	; 134
     cf0:	81 e0       	ldi	r24, 0x01	; 1
     cf2:	90 e0       	ldi	r25, 0x00	; 0
     cf4:	a7 d2       	rcall	.+1358   	; 0x1244 <__udivmodsi4>
     cf6:	c2 17       	cp	r28, r18
     cf8:	d3 07       	cpc	r29, r19
     cfa:	c8 f0       	brcs	.+50     	; 0xd2e <SpeedCalcManage+0xaa>
     cfc:	80 91 1d 01 	lds	r24, 0x011D
     d00:	90 91 1e 01 	lds	r25, 0x011E
     d04:	a0 91 1f 01 	lds	r26, 0x011F
     d08:	b0 91 20 01 	lds	r27, 0x0120
     d0c:	01 96       	adiw	r24, 0x01	; 1
     d0e:	a1 1d       	adc	r26, r1
     d10:	b1 1d       	adc	r27, r1
     d12:	80 93 1d 01 	sts	0x011D, r24
     d16:	90 93 1e 01 	sts	0x011E, r25
     d1a:	a0 93 1f 01 	sts	0x011F, r26
     d1e:	b0 93 20 01 	sts	0x0120, r27
     d22:	c2 1b       	sub	r28, r18
     d24:	d3 0b       	sbc	r29, r19
     d26:	d0 93 1b 01 	sts	0x011B, r29
     d2a:	c0 93 1a 01 	sts	0x011A, r28
     d2e:	df 91       	pop	r29
     d30:	cf 91       	pop	r28
     d32:	08 95       	ret

00000d34 <DisableDistanceCntr>:
     d34:	80 93 1c 01 	sts	0x011C, r24
     d38:	08 95       	ret

00000d3a <SetDistance>:
     d3a:	dc 01       	movw	r26, r24
     d3c:	cb 01       	movw	r24, r22
     d3e:	80 93 1d 01 	sts	0x011D, r24
     d42:	90 93 1e 01 	sts	0x011E, r25
     d46:	a0 93 1f 01 	sts	0x011F, r26
     d4a:	b0 93 20 01 	sts	0x0120, r27
     d4e:	10 92 1b 01 	sts	0x011B, r1
     d52:	10 92 1a 01 	sts	0x011A, r1
     d56:	08 95       	ret

00000d58 <GetDistance>:
     d58:	60 91 1d 01 	lds	r22, 0x011D
     d5c:	70 91 1e 01 	lds	r23, 0x011E
     d60:	80 91 1f 01 	lds	r24, 0x011F
     d64:	90 91 20 01 	lds	r25, 0x0120
     d68:	08 95       	ret

00000d6a <SetCircumfirunce>:
     d6a:	90 93 a2 00 	sts	0x00A2, r25
     d6e:	80 93 a1 00 	sts	0x00A1, r24
     d72:	08 95       	ret

00000d74 <GetAvgSpeed>:
     d74:	cf 93       	push	r28
     d76:	df 93       	push	r29
     d78:	81 30       	cpi	r24, 0x01	; 1
     d7a:	29 f4       	brne	.+10     	; 0xd86 <GetAvgSpeed+0x12>
     d7c:	68 e6       	ldi	r22, 0x68	; 104
     d7e:	71 e0       	ldi	r23, 0x01	; 1
     d80:	80 e0       	ldi	r24, 0x00	; 0
     d82:	90 e0       	ldi	r25, 0x00	; 0
     d84:	04 c0       	rjmp	.+8      	; 0xd8e <GetAvgSpeed+0x1a>
     d86:	61 ee       	ldi	r22, 0xE1	; 225
     d88:	70 e0       	ldi	r23, 0x00	; 0
     d8a:	80 e0       	ldi	r24, 0x00	; 0
     d8c:	90 e0       	ldi	r25, 0x00	; 0
     d8e:	c0 91 18 01 	lds	r28, 0x0118
     d92:	d0 91 19 01 	lds	r29, 0x0119
     d96:	20 97       	sbiw	r28, 0x00	; 0
     d98:	69 f0       	breq	.+26     	; 0xdb4 <GetAvgSpeed+0x40>
     d9a:	20 91 a1 00 	lds	r18, 0x00A1
     d9e:	30 91 a2 00 	lds	r19, 0x00A2
     da2:	40 e0       	ldi	r20, 0x00	; 0
     da4:	50 e0       	ldi	r21, 0x00	; 0
     da6:	1b d2       	rcall	.+1078   	; 0x11de <__mulsi3>
     da8:	9e 01       	movw	r18, r28
     daa:	40 e0       	ldi	r20, 0x00	; 0
     dac:	50 e0       	ldi	r21, 0x00	; 0
     dae:	4a d2       	rcall	.+1172   	; 0x1244 <__udivmodsi4>
     db0:	c9 01       	movw	r24, r18
     db2:	02 c0       	rjmp	.+4      	; 0xdb8 <GetAvgSpeed+0x44>
     db4:	80 e0       	ldi	r24, 0x00	; 0
     db6:	90 e0       	ldi	r25, 0x00	; 0
     db8:	20 91 12 01 	lds	r18, 0x0112
     dbc:	20 34       	cpi	r18, 0x40	; 64
     dbe:	11 f4       	brne	.+4      	; 0xdc4 <GetAvgSpeed+0x50>
     dc0:	80 e0       	ldi	r24, 0x00	; 0
     dc2:	90 e0       	ldi	r25, 0x00	; 0
     dc4:	df 91       	pop	r29
     dc6:	cf 91       	pop	r28
     dc8:	08 95       	ret

00000dca <HWtimerCallback>:
     dca:	80 91 12 01 	lds	r24, 0x0112
     dce:	80 34       	cpi	r24, 0x40	; 64
     dd0:	28 f4       	brcc	.+10     	; 0xddc <HWtimerCallback+0x12>
     dd2:	80 91 12 01 	lds	r24, 0x0112
     dd6:	8f 5f       	subi	r24, 0xFF	; 255
     dd8:	80 93 12 01 	sts	0x0112, r24
     ddc:	08 95       	ret

00000dde <APP_ISR1>:
     dde:	1e df       	rcall	.-452    	; 0xc1c <SensorOneNotify>
     de0:	08 95       	ret

00000de2 <APP_ISR2>:
     de2:	2d df       	rcall	.-422    	; 0xc3e <SensorTwoNotify>
     de4:	08 95       	ret

00000de6 <APP_ISR3>:
     de6:	f1 df       	rcall	.-30     	; 0xdca <HWtimerCallback>
     de8:	08 95       	ret

00000dea <ManageDrivers>:
     dea:	80 e0       	ldi	r24, 0x00	; 0
     dec:	5a de       	rcall	.-844    	; 0xaa2 <MangeKeys>
     dee:	81 e0       	ldi	r24, 0x01	; 1
     df0:	58 de       	rcall	.-848    	; 0xaa2 <MangeKeys>
     df2:	1b de       	rcall	.-970    	; 0xa2a <EepromManage>
     df4:	08 95       	ret

00000df6 <ManageSpeedCalc>:
     df6:	46 df       	rcall	.-372    	; 0xc84 <SpeedCalcManage>
     df8:	08 95       	ret

00000dfa <ManageApplication>:
     dfa:	22 da       	rcall	.-3004   	; 0x240 <APP_MANAGE>
     dfc:	08 95       	ret

00000dfe <DisplayAlphaNumeric>:
     dfe:	10 dd       	rcall	.-1504   	; 0x820 <BCDManage7segment>
     e00:	08 95       	ret

00000e02 <Start_App>:
     e02:	d7 d1       	rcall	.+942    	; 0x11b2 <HWI_InitOscilatorCalib>
     e04:	fe d0       	rcall	.+508    	; 0x1002 <HWI_INTERRUPTS_INTITALIZE>
     e06:	73 d0       	rcall	.+230    	; 0xeee <HWI_DIGITAL_INITIALIZE>
     e08:	08 df       	rcall	.-496    	; 0xc1a <SpeedCalcNotifyInitialize>
     e0a:	a8 d9       	rcall	.-3248   	; 0x15c <APP_INITIALIZE>
     e0c:	81 e0       	ldi	r24, 0x01	; 1
     e0e:	69 dc       	rcall	.-1838   	; 0x6e2 <BCDInitialize>
     e10:	8b ef       	ldi	r24, 0xFB	; 251
     e12:	96 e0       	ldi	r25, 0x06	; 6
     e14:	60 e0       	ldi	r22, 0x00	; 0
     e16:	44 e1       	ldi	r20, 0x14	; 20
     e18:	11 d0       	rcall	.+34     	; 0xe3c <CreateTask>
     e1a:	8d ef       	ldi	r24, 0xFD	; 253
     e1c:	96 e0       	ldi	r25, 0x06	; 6
     e1e:	62 e0       	ldi	r22, 0x02	; 2
     e20:	42 e3       	ldi	r20, 0x32	; 50
     e22:	0c d0       	rcall	.+24     	; 0xe3c <CreateTask>
     e24:	8f ef       	ldi	r24, 0xFF	; 255
     e26:	96 e0       	ldi	r25, 0x06	; 6
     e28:	61 e0       	ldi	r22, 0x01	; 1
     e2a:	42 e0       	ldi	r20, 0x02	; 2
     e2c:	07 d0       	rcall	.+14     	; 0xe3c <CreateTask>
     e2e:	85 ef       	ldi	r24, 0xF5	; 245
     e30:	96 e0       	ldi	r25, 0x06	; 6
     e32:	63 e0       	ldi	r22, 0x03	; 3
     e34:	4a e0       	ldi	r20, 0x0A	; 10
     e36:	02 d0       	rcall	.+4      	; 0xe3c <CreateTask>
     e38:	1b d0       	rcall	.+54     	; 0xe70 <RunScheduler>
     e3a:	08 95       	ret

00000e3c <CreateTask>:
     e3c:	64 30       	cpi	r22, 0x04	; 4
     e3e:	60 f4       	brcc	.+24     	; 0xe58 <CreateTask+0x1c>
     e40:	e6 2f       	mov	r30, r22
     e42:	f0 e0       	ldi	r31, 0x00	; 0
     e44:	ee 0f       	add	r30, r30
     e46:	ff 1f       	adc	r31, r31
     e48:	ee 0f       	add	r30, r30
     e4a:	ff 1f       	adc	r31, r31
     e4c:	ef 5d       	subi	r30, 0xDF	; 223
     e4e:	fe 4f       	sbci	r31, 0xFE	; 254
     e50:	91 83       	std	Z+1, r25	; 0x01
     e52:	80 83       	st	Z, r24
     e54:	42 83       	std	Z+2, r20	; 0x02
     e56:	13 82       	std	Z+3, r1	; 0x03
     e58:	08 95       	ret

00000e5a <SchedulerTick>:
     e5a:	e4 e2       	ldi	r30, 0x24	; 36
     e5c:	f1 e0       	ldi	r31, 0x01	; 1
     e5e:	84 e0       	ldi	r24, 0x04	; 4
     e60:	90 81       	ld	r25, Z
     e62:	9f 5f       	subi	r25, 0xFF	; 255
     e64:	90 83       	st	Z, r25
     e66:	81 50       	subi	r24, 0x01	; 1
     e68:	34 96       	adiw	r30, 0x04	; 4
     e6a:	88 23       	and	r24, r24
     e6c:	c9 f7       	brne	.-14     	; 0xe60 <SchedulerTick+0x6>
     e6e:	08 95       	ret

00000e70 <RunScheduler>:
     e70:	10 92 31 01 	sts	0x0131, r1
     e74:	1e c0       	rjmp	.+60     	; 0xeb2 <RunScheduler+0x42>
     e76:	f0 e0       	ldi	r31, 0x00	; 0
     e78:	ee 0f       	add	r30, r30
     e7a:	ff 1f       	adc	r31, r31
     e7c:	ee 0f       	add	r30, r30
     e7e:	ff 1f       	adc	r31, r31
     e80:	ef 5d       	subi	r30, 0xDF	; 223
     e82:	fe 4f       	sbci	r31, 0xFE	; 254
     e84:	92 81       	ldd	r25, Z+2	; 0x02
     e86:	83 81       	ldd	r24, Z+3	; 0x03
     e88:	89 17       	cp	r24, r25
     e8a:	70 f0       	brcs	.+28     	; 0xea8 <RunScheduler+0x38>
     e8c:	01 90       	ld	r0, Z+
     e8e:	f0 81       	ld	r31, Z
     e90:	e0 2d       	mov	r30, r0
     e92:	09 95       	icall
     e94:	e0 91 31 01 	lds	r30, 0x0131
     e98:	f0 e0       	ldi	r31, 0x00	; 0
     e9a:	ee 0f       	add	r30, r30
     e9c:	ff 1f       	adc	r31, r31
     e9e:	ee 0f       	add	r30, r30
     ea0:	ff 1f       	adc	r31, r31
     ea2:	ef 5d       	subi	r30, 0xDF	; 223
     ea4:	fe 4f       	sbci	r31, 0xFE	; 254
     ea6:	13 82       	std	Z+3, r1	; 0x03
     ea8:	80 91 31 01 	lds	r24, 0x0131
     eac:	8f 5f       	subi	r24, 0xFF	; 255
     eae:	80 93 31 01 	sts	0x0131, r24
     eb2:	e0 91 31 01 	lds	r30, 0x0131
     eb6:	e4 30       	cpi	r30, 0x04	; 4
     eb8:	d8 f6       	brcc	.-74     	; 0xe70 <RunScheduler>
     eba:	dd cf       	rjmp	.-70     	; 0xe76 <RunScheduler+0x6>

00000ebc <HWIeeprom_Write>:
     ebc:	e1 99       	sbic	0x1c, 1	; 28
     ebe:	08 c0       	rjmp	.+16     	; 0xed0 <HWIeeprom_Write+0x14>
     ec0:	90 e0       	ldi	r25, 0x00	; 0
     ec2:	9f bb       	out	0x1f, r25	; 31
     ec4:	8e bb       	out	0x1e, r24	; 30
     ec6:	6d bb       	out	0x1d, r22	; 29
     ec8:	e2 9a       	sbi	0x1c, 2	; 28
     eca:	e1 9a       	sbi	0x1c, 1	; 28
     ecc:	81 e0       	ldi	r24, 0x01	; 1
     ece:	08 95       	ret
     ed0:	80 e0       	ldi	r24, 0x00	; 0
     ed2:	08 95       	ret

00000ed4 <HWIeeprom_Read>:
     ed4:	e1 99       	sbic	0x1c, 1	; 28
     ed6:	09 c0       	rjmp	.+18     	; 0xeea <HWIeeprom_Read+0x16>
     ed8:	90 e0       	ldi	r25, 0x00	; 0
     eda:	9f bb       	out	0x1f, r25	; 31
     edc:	8e bb       	out	0x1e, r24	; 30
     ede:	e0 9a       	sbi	0x1c, 0	; 28
     ee0:	8d b3       	in	r24, 0x1d	; 29
     ee2:	fb 01       	movw	r30, r22
     ee4:	80 83       	st	Z, r24
     ee6:	81 e0       	ldi	r24, 0x01	; 1
     ee8:	08 95       	ret
     eea:	80 e0       	ldi	r24, 0x00	; 0
     eec:	08 95       	ret

00000eee <HWI_DIGITAL_INITIALIZE>:
     eee:	8f ef       	ldi	r24, 0xFF	; 255
     ef0:	87 bb       	out	0x17, r24	; 23
     ef2:	84 bb       	out	0x14, r24	; 20
     ef4:	83 e8       	ldi	r24, 0x83	; 131
     ef6:	81 bb       	out	0x11, r24	; 17
     ef8:	8c e7       	ldi	r24, 0x7C	; 124
     efa:	82 bb       	out	0x12, r24	; 18
     efc:	08 95       	ret

00000efe <HWI_DIGI_READ>:
     efe:	80 31       	cpi	r24, 0x10	; 16
     f00:	39 f0       	breq	.+14     	; 0xf10 <HWI_DIGI_READ+0x12>
     f02:	81 31       	cpi	r24, 0x11	; 17
     f04:	41 f0       	breq	.+16     	; 0xf16 <HWI_DIGI_READ+0x18>
     f06:	8f 30       	cpi	r24, 0x0F	; 15
     f08:	49 f4       	brne	.+18     	; 0xf1c <HWI_DIGI_READ+0x1e>
     f0a:	80 b3       	in	r24, 0x10	; 16
     f0c:	80 71       	andi	r24, 0x10	; 16
     f0e:	08 95       	ret
     f10:	80 b3       	in	r24, 0x10	; 16
     f12:	80 72       	andi	r24, 0x20	; 32
     f14:	08 95       	ret
     f16:	80 b3       	in	r24, 0x10	; 16
     f18:	80 74       	andi	r24, 0x40	; 64
     f1a:	08 95       	ret
     f1c:	80 e0       	ldi	r24, 0x00	; 0
     f1e:	08 95       	ret

00000f20 <HWI_DIGI_WRITE>:
     f20:	82 30       	cpi	r24, 0x02	; 2
     f22:	e9 f0       	breq	.+58     	; 0xf5e <HWI_DIGI_WRITE+0x3e>
     f24:	83 30       	cpi	r24, 0x03	; 3
     f26:	30 f4       	brcc	.+12     	; 0xf34 <HWI_DIGI_WRITE+0x14>
     f28:	88 23       	and	r24, r24
     f2a:	59 f0       	breq	.+22     	; 0xf42 <HWI_DIGI_WRITE+0x22>
     f2c:	81 30       	cpi	r24, 0x01	; 1
     f2e:	09 f0       	breq	.+2      	; 0xf32 <HWI_DIGI_WRITE+0x12>
     f30:	42 c0       	rjmp	.+132    	; 0xfb6 <HWI_DIGI_WRITE+0x96>
     f32:	0b c0       	rjmp	.+22     	; 0xf4a <HWI_DIGI_WRITE+0x2a>
     f34:	85 30       	cpi	r24, 0x05	; 5
     f36:	31 f1       	breq	.+76     	; 0xf84 <HWI_DIGI_WRITE+0x64>
     f38:	86 30       	cpi	r24, 0x06	; 6
     f3a:	89 f1       	breq	.+98     	; 0xf9e <HWI_DIGI_WRITE+0x7e>
     f3c:	83 30       	cpi	r24, 0x03	; 3
     f3e:	d9 f5       	brne	.+118    	; 0xfb6 <HWI_DIGI_WRITE+0x96>
     f40:	16 c0       	rjmp	.+44     	; 0xf6e <HWI_DIGI_WRITE+0x4e>
     f42:	82 b3       	in	r24, 0x12	; 18
     f44:	61 70       	andi	r22, 0x01	; 1
     f46:	8e 7f       	andi	r24, 0xFE	; 254
     f48:	0f c0       	rjmp	.+30     	; 0xf68 <HWI_DIGI_WRITE+0x48>
     f4a:	82 b3       	in	r24, 0x12	; 18
     f4c:	70 e0       	ldi	r23, 0x00	; 0
     f4e:	61 70       	andi	r22, 0x01	; 1
     f50:	70 70       	andi	r23, 0x00	; 0
     f52:	66 0f       	add	r22, r22
     f54:	77 1f       	adc	r23, r23
     f56:	8d 7f       	andi	r24, 0xFD	; 253
     f58:	86 2b       	or	r24, r22
     f5a:	82 bb       	out	0x12, r24	; 18
     f5c:	08 95       	ret
     f5e:	82 b3       	in	r24, 0x12	; 18
     f60:	67 95       	ror	r22
     f62:	66 27       	eor	r22, r22
     f64:	67 95       	ror	r22
     f66:	8f 77       	andi	r24, 0x7F	; 127
     f68:	68 2b       	or	r22, r24
     f6a:	62 bb       	out	0x12, r22	; 18
     f6c:	08 95       	ret
     f6e:	85 b3       	in	r24, 0x15	; 21
     f70:	70 e0       	ldi	r23, 0x00	; 0
     f72:	61 70       	andi	r22, 0x01	; 1
     f74:	70 70       	andi	r23, 0x00	; 0
     f76:	35 e0       	ldi	r19, 0x05	; 5
     f78:	66 0f       	add	r22, r22
     f7a:	77 1f       	adc	r23, r23
     f7c:	3a 95       	dec	r19
     f7e:	e1 f7       	brne	.-8      	; 0xf78 <HWI_DIGI_WRITE+0x58>
     f80:	8f 7d       	andi	r24, 0xDF	; 223
     f82:	0a c0       	rjmp	.+20     	; 0xf98 <HWI_DIGI_WRITE+0x78>
     f84:	85 b3       	in	r24, 0x15	; 21
     f86:	70 e0       	ldi	r23, 0x00	; 0
     f88:	61 70       	andi	r22, 0x01	; 1
     f8a:	70 70       	andi	r23, 0x00	; 0
     f8c:	24 e0       	ldi	r18, 0x04	; 4
     f8e:	66 0f       	add	r22, r22
     f90:	77 1f       	adc	r23, r23
     f92:	2a 95       	dec	r18
     f94:	e1 f7       	brne	.-8      	; 0xf8e <HWI_DIGI_WRITE+0x6e>
     f96:	8f 7e       	andi	r24, 0xEF	; 239
     f98:	86 2b       	or	r24, r22
     f9a:	85 bb       	out	0x15, r24	; 21
     f9c:	08 95       	ret
     f9e:	85 b3       	in	r24, 0x15	; 21
     fa0:	70 e0       	ldi	r23, 0x00	; 0
     fa2:	61 70       	andi	r22, 0x01	; 1
     fa4:	70 70       	andi	r23, 0x00	; 0
     fa6:	93 e0       	ldi	r25, 0x03	; 3
     fa8:	66 0f       	add	r22, r22
     faa:	77 1f       	adc	r23, r23
     fac:	9a 95       	dec	r25
     fae:	e1 f7       	brne	.-8      	; 0xfa8 <HWI_DIGI_WRITE+0x88>
     fb0:	87 7f       	andi	r24, 0xF7	; 247
     fb2:	86 2b       	or	r24, r22
     fb4:	85 bb       	out	0x15, r24	; 21
     fb6:	08 95       	ret

00000fb8 <HWI_4Digit_WRITE>:
     fb8:	88 23       	and	r24, r24
     fba:	29 f4       	brne	.+10     	; 0xfc6 <HWI_4Digit_WRITE+0xe>
     fbc:	85 b3       	in	r24, 0x15	; 21
     fbe:	88 7f       	andi	r24, 0xF8	; 248
     fc0:	86 2b       	or	r24, r22
     fc2:	85 bb       	out	0x15, r24	; 21
     fc4:	08 95       	ret
     fc6:	88 b3       	in	r24, 0x18	; 24
     fc8:	80 7f       	andi	r24, 0xF0	; 240
     fca:	86 2b       	or	r24, r22
     fcc:	88 bb       	out	0x18, r24	; 24
     fce:	08 95       	ret

00000fd0 <HWI_4Digit_READ>:
     fd0:	88 23       	and	r24, r24
     fd2:	19 f0       	breq	.+6      	; 0xfda <HWI_4Digit_READ+0xa>
     fd4:	81 30       	cpi	r24, 0x01	; 1
     fd6:	31 f4       	brne	.+12     	; 0xfe4 <HWI_4Digit_READ+0x14>
     fd8:	02 c0       	rjmp	.+4      	; 0xfde <HWI_4Digit_READ+0xe>
     fda:	83 b3       	in	r24, 0x13	; 19
     fdc:	01 c0       	rjmp	.+2      	; 0xfe0 <HWI_4Digit_READ+0x10>
     fde:	86 b3       	in	r24, 0x16	; 22
     fe0:	8f 70       	andi	r24, 0x0F	; 15
     fe2:	08 95       	ret
     fe4:	86 b3       	in	r24, 0x16	; 22
     fe6:	8f 70       	andi	r24, 0x0F	; 15
     fe8:	08 95       	ret

00000fea <HWI_8Digit_WRITE>:
     fea:	88 23       	and	r24, r24
     fec:	11 f4       	brne	.+4      	; 0xff2 <HWI_8Digit_WRITE+0x8>
     fee:	65 bb       	out	0x15, r22	; 21
     ff0:	08 95       	ret
     ff2:	68 bb       	out	0x18, r22	; 24
     ff4:	08 95       	ret

00000ff6 <HWI8Digit_READ>:
     ff6:	88 23       	and	r24, r24
     ff8:	11 f0       	breq	.+4      	; 0xffe <HWI8Digit_READ+0x8>
     ffa:	86 b3       	in	r24, 0x16	; 22
     ffc:	08 95       	ret
     ffe:	83 b3       	in	r24, 0x13	; 19
    1000:	08 95       	ret

00001002 <HWI_INTERRUPTS_INTITALIZE>:
    1002:	8e b5       	in	r24, 0x2e	; 46
    1004:	82 60       	ori	r24, 0x02	; 2
    1006:	8e bd       	out	0x2e, r24	; 46
    1008:	8f ef       	ldi	r24, 0xFF	; 255
    100a:	9f e7       	ldi	r25, 0x7F	; 127
    100c:	9d bd       	out	0x2d, r25	; 45
    100e:	8c bd       	out	0x2c, r24	; 44
    1010:	83 b7       	in	r24, 0x33	; 51
    1012:	83 60       	ori	r24, 0x03	; 3
    1014:	83 bf       	out	0x33, r24	; 51
    1016:	82 ec       	ldi	r24, 0xC2	; 194
    1018:	82 bf       	out	0x32, r24	; 50
    101a:	89 b7       	in	r24, 0x39	; 57
    101c:	81 60       	ori	r24, 0x01	; 1
    101e:	89 bf       	out	0x39, r24	; 57
    1020:	89 b7       	in	r24, 0x39	; 57
    1022:	84 60       	ori	r24, 0x04	; 4
    1024:	89 bf       	out	0x39, r24	; 57
    1026:	8b b7       	in	r24, 0x3b	; 59
    1028:	80 64       	ori	r24, 0x40	; 64
    102a:	8b bf       	out	0x3b, r24	; 59
    102c:	85 b7       	in	r24, 0x35	; 53
    102e:	83 60       	ori	r24, 0x03	; 3
    1030:	85 bf       	out	0x35, r24	; 53
    1032:	8b b7       	in	r24, 0x3b	; 59
    1034:	80 68       	ori	r24, 0x80	; 128
    1036:	8b bf       	out	0x3b, r24	; 59
    1038:	85 b7       	in	r24, 0x35	; 53
    103a:	8c 60       	ori	r24, 0x0C	; 12
    103c:	85 bf       	out	0x35, r24	; 53
    103e:	81 b3       	in	r24, 0x11	; 17
    1040:	8c 60       	ori	r24, 0x0C	; 12
    1042:	81 bb       	out	0x11, r24	; 17
    1044:	78 94       	sei
    1046:	08 95       	ret

00001048 <ReloadHWtimer>:
    1048:	83 30       	cpi	r24, 0x03	; 3
    104a:	58 f4       	brcc	.+22     	; 0x1062 <ReloadHWtimer+0x1a>
    104c:	8c b5       	in	r24, 0x2c	; 44
    104e:	9d b5       	in	r25, 0x2d	; 45
    1050:	8f 5f       	subi	r24, 0xFF	; 255
    1052:	9f 47       	sbci	r25, 0x7F	; 127
    1054:	88 0f       	add	r24, r24
    1056:	99 1f       	adc	r25, r25
    1058:	2f ef       	ldi	r18, 0xFF	; 255
    105a:	3f e7       	ldi	r19, 0x7F	; 127
    105c:	3d bd       	out	0x2d, r19	; 45
    105e:	2c bd       	out	0x2c, r18	; 44
    1060:	08 95       	ret
    1062:	80 e0       	ldi	r24, 0x00	; 0
    1064:	90 e0       	ldi	r25, 0x00	; 0
    1066:	08 95       	ret

00001068 <__vector_9>:
    1068:	1f 92       	push	r1
    106a:	0f 92       	push	r0
    106c:	0f b6       	in	r0, 0x3f	; 63
    106e:	0f 92       	push	r0
    1070:	11 24       	eor	r1, r1
    1072:	2f 93       	push	r18
    1074:	3f 93       	push	r19
    1076:	4f 93       	push	r20
    1078:	5f 93       	push	r21
    107a:	6f 93       	push	r22
    107c:	7f 93       	push	r23
    107e:	8f 93       	push	r24
    1080:	9f 93       	push	r25
    1082:	af 93       	push	r26
    1084:	bf 93       	push	r27
    1086:	ef 93       	push	r30
    1088:	ff 93       	push	r31
    108a:	82 ec       	ldi	r24, 0xC2	; 194
    108c:	82 bf       	out	0x32, r24	; 50
    108e:	e5 de       	rcall	.-566    	; 0xe5a <SchedulerTick>
    1090:	ff 91       	pop	r31
    1092:	ef 91       	pop	r30
    1094:	bf 91       	pop	r27
    1096:	af 91       	pop	r26
    1098:	9f 91       	pop	r25
    109a:	8f 91       	pop	r24
    109c:	7f 91       	pop	r23
    109e:	6f 91       	pop	r22
    10a0:	5f 91       	pop	r21
    10a2:	4f 91       	pop	r20
    10a4:	3f 91       	pop	r19
    10a6:	2f 91       	pop	r18
    10a8:	0f 90       	pop	r0
    10aa:	0f be       	out	0x3f, r0	; 63
    10ac:	0f 90       	pop	r0
    10ae:	1f 90       	pop	r1
    10b0:	18 95       	reti

000010b2 <__vector_8>:
    10b2:	1f 92       	push	r1
    10b4:	0f 92       	push	r0
    10b6:	0f b6       	in	r0, 0x3f	; 63
    10b8:	0f 92       	push	r0
    10ba:	11 24       	eor	r1, r1
    10bc:	2f 93       	push	r18
    10be:	3f 93       	push	r19
    10c0:	4f 93       	push	r20
    10c2:	5f 93       	push	r21
    10c4:	6f 93       	push	r22
    10c6:	7f 93       	push	r23
    10c8:	8f 93       	push	r24
    10ca:	9f 93       	push	r25
    10cc:	af 93       	push	r26
    10ce:	bf 93       	push	r27
    10d0:	ef 93       	push	r30
    10d2:	ff 93       	push	r31
    10d4:	8f ef       	ldi	r24, 0xFF	; 255
    10d6:	9f e7       	ldi	r25, 0x7F	; 127
    10d8:	9d bd       	out	0x2d, r25	; 45
    10da:	8c bd       	out	0x2c, r24	; 44
    10dc:	84 de       	rcall	.-760    	; 0xde6 <APP_ISR3>
    10de:	ff 91       	pop	r31
    10e0:	ef 91       	pop	r30
    10e2:	bf 91       	pop	r27
    10e4:	af 91       	pop	r26
    10e6:	9f 91       	pop	r25
    10e8:	8f 91       	pop	r24
    10ea:	7f 91       	pop	r23
    10ec:	6f 91       	pop	r22
    10ee:	5f 91       	pop	r21
    10f0:	4f 91       	pop	r20
    10f2:	3f 91       	pop	r19
    10f4:	2f 91       	pop	r18
    10f6:	0f 90       	pop	r0
    10f8:	0f be       	out	0x3f, r0	; 63
    10fa:	0f 90       	pop	r0
    10fc:	1f 90       	pop	r1
    10fe:	18 95       	reti

00001100 <__vector_1>:
    1100:	1f 92       	push	r1
    1102:	0f 92       	push	r0
    1104:	0f b6       	in	r0, 0x3f	; 63
    1106:	0f 92       	push	r0
    1108:	11 24       	eor	r1, r1
    110a:	2f 93       	push	r18
    110c:	3f 93       	push	r19
    110e:	4f 93       	push	r20
    1110:	5f 93       	push	r21
    1112:	6f 93       	push	r22
    1114:	7f 93       	push	r23
    1116:	8f 93       	push	r24
    1118:	9f 93       	push	r25
    111a:	af 93       	push	r26
    111c:	bf 93       	push	r27
    111e:	ef 93       	push	r30
    1120:	ff 93       	push	r31
    1122:	5d de       	rcall	.-838    	; 0xdde <APP_ISR1>
    1124:	85 b7       	in	r24, 0x35	; 53
    1126:	83 60       	ori	r24, 0x03	; 3
    1128:	85 bf       	out	0x35, r24	; 53
    112a:	ff 91       	pop	r31
    112c:	ef 91       	pop	r30
    112e:	bf 91       	pop	r27
    1130:	af 91       	pop	r26
    1132:	9f 91       	pop	r25
    1134:	8f 91       	pop	r24
    1136:	7f 91       	pop	r23
    1138:	6f 91       	pop	r22
    113a:	5f 91       	pop	r21
    113c:	4f 91       	pop	r20
    113e:	3f 91       	pop	r19
    1140:	2f 91       	pop	r18
    1142:	0f 90       	pop	r0
    1144:	0f be       	out	0x3f, r0	; 63
    1146:	0f 90       	pop	r0
    1148:	1f 90       	pop	r1
    114a:	18 95       	reti

0000114c <__vector_2>:
    114c:	1f 92       	push	r1
    114e:	0f 92       	push	r0
    1150:	0f b6       	in	r0, 0x3f	; 63
    1152:	0f 92       	push	r0
    1154:	11 24       	eor	r1, r1
    1156:	2f 93       	push	r18
    1158:	3f 93       	push	r19
    115a:	4f 93       	push	r20
    115c:	5f 93       	push	r21
    115e:	6f 93       	push	r22
    1160:	7f 93       	push	r23
    1162:	8f 93       	push	r24
    1164:	9f 93       	push	r25
    1166:	af 93       	push	r26
    1168:	bf 93       	push	r27
    116a:	ef 93       	push	r30
    116c:	ff 93       	push	r31
    116e:	39 de       	rcall	.-910    	; 0xde2 <APP_ISR2>
    1170:	ff 91       	pop	r31
    1172:	ef 91       	pop	r30
    1174:	bf 91       	pop	r27
    1176:	af 91       	pop	r26
    1178:	9f 91       	pop	r25
    117a:	8f 91       	pop	r24
    117c:	7f 91       	pop	r23
    117e:	6f 91       	pop	r22
    1180:	5f 91       	pop	r21
    1182:	4f 91       	pop	r20
    1184:	3f 91       	pop	r19
    1186:	2f 91       	pop	r18
    1188:	0f 90       	pop	r0
    118a:	0f be       	out	0x3f, r0	; 63
    118c:	0f 90       	pop	r0
    118e:	1f 90       	pop	r1
    1190:	18 95       	reti

00001192 <SendMCUtoSleep>:
    1192:	85 b7       	in	r24, 0x35	; 53
    1194:	8c 7f       	andi	r24, 0xFC	; 252
    1196:	85 bf       	out	0x35, r24	; 53
    1198:	85 b7       	in	r24, 0x35	; 53
    119a:	80 62       	ori	r24, 0x20	; 32
    119c:	85 bf       	out	0x35, r24	; 53
    119e:	f8 94       	cli
    11a0:	85 b7       	in	r24, 0x35	; 53
    11a2:	80 68       	ori	r24, 0x80	; 128
    11a4:	85 bf       	out	0x35, r24	; 53
    11a6:	78 94       	sei
    11a8:	88 95       	sleep
    11aa:	85 b7       	in	r24, 0x35	; 53
    11ac:	8f 77       	andi	r24, 0x7F	; 127
    11ae:	85 bf       	out	0x35, r24	; 53
    11b0:	08 95       	ret

000011b2 <HWI_InitOscilatorCalib>:
    11b2:	cf 93       	push	r28
    11b4:	df 93       	push	r29
    11b6:	0f 92       	push	r0
    11b8:	cd b7       	in	r28, 0x3d	; 61
    11ba:	de b7       	in	r29, 0x3e	; 62
    11bc:	80 e0       	ldi	r24, 0x00	; 0
    11be:	be 01       	movw	r22, r28
    11c0:	6f 5f       	subi	r22, 0xFF	; 255
    11c2:	7f 4f       	sbci	r23, 0xFF	; 255
    11c4:	87 de       	rcall	.-754    	; 0xed4 <HWIeeprom_Read>
    11c6:	88 23       	and	r24, r24
    11c8:	c9 f3       	breq	.-14     	; 0x11bc <HWI_InitOscilatorCalib+0xa>
    11ca:	89 81       	ldd	r24, Y+1	; 0x01
    11cc:	81 bf       	out	0x31, r24	; 49
    11ce:	0f 90       	pop	r0
    11d0:	df 91       	pop	r29
    11d2:	cf 91       	pop	r28
    11d4:	08 95       	ret

000011d6 <main>:
    11d6:	15 de       	rcall	.-982    	; 0xe02 <Start_App>
    11d8:	80 e0       	ldi	r24, 0x00	; 0
    11da:	90 e0       	ldi	r25, 0x00	; 0
    11dc:	08 95       	ret

000011de <__mulsi3>:
    11de:	62 9f       	mul	r22, r18
    11e0:	d0 01       	movw	r26, r0
    11e2:	73 9f       	mul	r23, r19
    11e4:	f0 01       	movw	r30, r0
    11e6:	82 9f       	mul	r24, r18
    11e8:	e0 0d       	add	r30, r0
    11ea:	f1 1d       	adc	r31, r1
    11ec:	64 9f       	mul	r22, r20
    11ee:	e0 0d       	add	r30, r0
    11f0:	f1 1d       	adc	r31, r1
    11f2:	92 9f       	mul	r25, r18
    11f4:	f0 0d       	add	r31, r0
    11f6:	83 9f       	mul	r24, r19
    11f8:	f0 0d       	add	r31, r0
    11fa:	74 9f       	mul	r23, r20
    11fc:	f0 0d       	add	r31, r0
    11fe:	65 9f       	mul	r22, r21
    1200:	f0 0d       	add	r31, r0
    1202:	99 27       	eor	r25, r25
    1204:	72 9f       	mul	r23, r18
    1206:	b0 0d       	add	r27, r0
    1208:	e1 1d       	adc	r30, r1
    120a:	f9 1f       	adc	r31, r25
    120c:	63 9f       	mul	r22, r19
    120e:	b0 0d       	add	r27, r0
    1210:	e1 1d       	adc	r30, r1
    1212:	f9 1f       	adc	r31, r25
    1214:	bd 01       	movw	r22, r26
    1216:	cf 01       	movw	r24, r30
    1218:	11 24       	eor	r1, r1
    121a:	08 95       	ret

0000121c <__udivmodhi4>:
    121c:	aa 1b       	sub	r26, r26
    121e:	bb 1b       	sub	r27, r27
    1220:	51 e1       	ldi	r21, 0x11	; 17
    1222:	07 c0       	rjmp	.+14     	; 0x1232 <__udivmodhi4_ep>

00001224 <__udivmodhi4_loop>:
    1224:	aa 1f       	adc	r26, r26
    1226:	bb 1f       	adc	r27, r27
    1228:	a6 17       	cp	r26, r22
    122a:	b7 07       	cpc	r27, r23
    122c:	10 f0       	brcs	.+4      	; 0x1232 <__udivmodhi4_ep>
    122e:	a6 1b       	sub	r26, r22
    1230:	b7 0b       	sbc	r27, r23

00001232 <__udivmodhi4_ep>:
    1232:	88 1f       	adc	r24, r24
    1234:	99 1f       	adc	r25, r25
    1236:	5a 95       	dec	r21
    1238:	a9 f7       	brne	.-22     	; 0x1224 <__udivmodhi4_loop>
    123a:	80 95       	com	r24
    123c:	90 95       	com	r25
    123e:	bc 01       	movw	r22, r24
    1240:	cd 01       	movw	r24, r26
    1242:	08 95       	ret

00001244 <__udivmodsi4>:
    1244:	a1 e2       	ldi	r26, 0x21	; 33
    1246:	1a 2e       	mov	r1, r26
    1248:	aa 1b       	sub	r26, r26
    124a:	bb 1b       	sub	r27, r27
    124c:	fd 01       	movw	r30, r26
    124e:	0d c0       	rjmp	.+26     	; 0x126a <__udivmodsi4_ep>

00001250 <__udivmodsi4_loop>:
    1250:	aa 1f       	adc	r26, r26
    1252:	bb 1f       	adc	r27, r27
    1254:	ee 1f       	adc	r30, r30
    1256:	ff 1f       	adc	r31, r31
    1258:	a2 17       	cp	r26, r18
    125a:	b3 07       	cpc	r27, r19
    125c:	e4 07       	cpc	r30, r20
    125e:	f5 07       	cpc	r31, r21
    1260:	20 f0       	brcs	.+8      	; 0x126a <__udivmodsi4_ep>
    1262:	a2 1b       	sub	r26, r18
    1264:	b3 0b       	sbc	r27, r19
    1266:	e4 0b       	sbc	r30, r20
    1268:	f5 0b       	sbc	r31, r21

0000126a <__udivmodsi4_ep>:
    126a:	66 1f       	adc	r22, r22
    126c:	77 1f       	adc	r23, r23
    126e:	88 1f       	adc	r24, r24
    1270:	99 1f       	adc	r25, r25
    1272:	1a 94       	dec	r1
    1274:	69 f7       	brne	.-38     	; 0x1250 <__udivmodsi4_loop>
    1276:	60 95       	com	r22
    1278:	70 95       	com	r23
    127a:	80 95       	com	r24
    127c:	90 95       	com	r25
    127e:	9b 01       	movw	r18, r22
    1280:	ac 01       	movw	r20, r24
    1282:	bd 01       	movw	r22, r26
    1284:	cf 01       	movw	r24, r30
    1286:	08 95       	ret

00001288 <_exit>:
    1288:	f8 94       	cli

0000128a <__stop_program>:
    128a:	ff cf       	rjmp	.-2      	; 0x128a <__stop_program>
