
BicMeter.elf:     file format elf32-avr

Sections:
Idx Name          Size      VMA       LMA       File off  Algn
  0 .text         000009e4  00000000  00000000  00000094  2**1
                  CONTENTS, ALLOC, LOAD, READONLY, CODE
  1 .data         0000003a  00800060  000009e4  00000a78  2**0
                  CONTENTS, ALLOC, LOAD, DATA
  2 .bss          0000006d  0080009a  0080009a  00000ab2  2**0
                  ALLOC
  3 .stab         000006cc  00000000  00000000  00000ab4  2**2
                  CONTENTS, READONLY, DEBUGGING
  4 .stabstr      00000085  00000000  00000000  00001180  2**0
                  CONTENTS, READONLY, DEBUGGING
  5 .debug_aranges 000000c0  00000000  00000000  00001208  2**3
                  CONTENTS, READONLY, DEBUGGING
  6 .debug_info   0000052e  00000000  00000000  000012c8  2**0
                  CONTENTS, READONLY, DEBUGGING
  7 .debug_abbrev 00000078  00000000  00000000  000017f6  2**0
                  CONTENTS, READONLY, DEBUGGING
  8 .debug_line   0000038e  00000000  00000000  0000186e  2**0
                  CONTENTS, READONLY, DEBUGGING

Disassembly of section .text:

00000000 <__vectors>:
   0:	12 c0       	rjmp	.+36     	; 0x26 <__ctors_end>
   2:	4f c4       	rjmp	.+2206   	; 0x8a2 <__vector_1>
   4:	71 c4       	rjmp	.+2274   	; 0x8e8 <__vector_2>
   6:	2a c0       	rjmp	.+84     	; 0x5c <__bad_interrupt>
   8:	29 c0       	rjmp	.+82     	; 0x5c <__bad_interrupt>
   a:	28 c0       	rjmp	.+80     	; 0x5c <__bad_interrupt>
   c:	27 c0       	rjmp	.+78     	; 0x5c <__bad_interrupt>
   e:	26 c0       	rjmp	.+76     	; 0x5c <__bad_interrupt>
  10:	21 c4       	rjmp	.+2114   	; 0x854 <__vector_8>
  12:	fb c3       	rjmp	.+2038   	; 0x80a <__vector_9>
  14:	23 c0       	rjmp	.+70     	; 0x5c <__bad_interrupt>
  16:	22 c0       	rjmp	.+68     	; 0x5c <__bad_interrupt>
  18:	21 c0       	rjmp	.+66     	; 0x5c <__bad_interrupt>
  1a:	20 c0       	rjmp	.+64     	; 0x5c <__bad_interrupt>
  1c:	1f c0       	rjmp	.+62     	; 0x5c <__bad_interrupt>
  1e:	1e c0       	rjmp	.+60     	; 0x5c <__bad_interrupt>
  20:	1d c0       	rjmp	.+58     	; 0x5c <__bad_interrupt>
  22:	1c c0       	rjmp	.+56     	; 0x5c <__bad_interrupt>
  24:	1b c0       	rjmp	.+54     	; 0x5c <__bad_interrupt>

00000026 <__ctors_end>:
  26:	11 24       	eor	r1, r1
  28:	1f be       	out	0x3f, r1	; 63
  2a:	cf e5       	ldi	r28, 0x5F	; 95
  2c:	d4 e0       	ldi	r29, 0x04	; 4
  2e:	de bf       	out	0x3e, r29	; 62
  30:	cd bf       	out	0x3d, r28	; 61

00000032 <__do_copy_data>:
  32:	10 e0       	ldi	r17, 0x00	; 0
  34:	a0 e6       	ldi	r26, 0x60	; 96
  36:	b0 e0       	ldi	r27, 0x00	; 0
  38:	e4 ee       	ldi	r30, 0xE4	; 228
  3a:	f9 e0       	ldi	r31, 0x09	; 9
  3c:	02 c0       	rjmp	.+4      	; 0x42 <__SREG__+0x3>
  3e:	05 90       	lpm	r0, Z+
  40:	0d 92       	st	X+, r0
  42:	aa 39       	cpi	r26, 0x9A	; 154
  44:	b1 07       	cpc	r27, r17
  46:	d9 f7       	brne	.-10     	; 0x3e <__SP_H__>

00000048 <__do_clear_bss>:
  48:	11 e0       	ldi	r17, 0x01	; 1
  4a:	aa e9       	ldi	r26, 0x9A	; 154
  4c:	b0 e0       	ldi	r27, 0x00	; 0
  4e:	01 c0       	rjmp	.+2      	; 0x52 <.do_clear_bss_start>

00000050 <.do_clear_bss_loop>:
  50:	1d 92       	st	X+, r1

00000052 <.do_clear_bss_start>:
  52:	a7 30       	cpi	r26, 0x07	; 7
  54:	b1 07       	cpc	r27, r17
  56:	e1 f7       	brne	.-8      	; 0x50 <.do_clear_bss_loop>
  58:	6a d4       	rcall	.+2260   	; 0x92e <main>
  5a:	c2 c4       	rjmp	.+2436   	; 0x9e0 <_exit>

0000005c <__bad_interrupt>:
  5c:	d1 cf       	rjmp	.-94     	; 0x0 <__vectors>

0000005e <APP_INITIALIZE>:
  5e:	cf 93       	push	r28
  60:	df 93       	push	r29
  62:	cd b7       	in	r28, 0x3d	; 61
  64:	de b7       	in	r29, 0x3e	; 62
  66:	6d 97       	sbiw	r28, 0x1d	; 29
  68:	0f b6       	in	r0, 0x3f	; 63
  6a:	f8 94       	cli
  6c:	de bf       	out	0x3e, r29	; 62
  6e:	0f be       	out	0x3f, r0	; 63
  70:	cd bf       	out	0x3d, r28	; 61
  72:	de 01       	movw	r26, r28
  74:	11 96       	adiw	r26, 0x01	; 1
  76:	e0 e6       	ldi	r30, 0x60	; 96
  78:	f0 e0       	ldi	r31, 0x00	; 0
  7a:	8d e1       	ldi	r24, 0x1D	; 29
  7c:	01 90       	ld	r0, Z+
  7e:	0d 92       	st	X+, r0
  80:	81 50       	subi	r24, 0x01	; 1
  82:	e1 f7       	brne	.-8      	; 0x7c <APP_INITIALIZE+0x1e>
  84:	88 e0       	ldi	r24, 0x08	; 8
  86:	be 01       	movw	r22, r28
  88:	6f 5f       	subi	r22, 0xFF	; 255
  8a:	7f 4f       	sbci	r23, 0xFF	; 255
  8c:	4d e1       	ldi	r20, 0x1D	; 29
  8e:	f4 d0       	rcall	.+488    	; 0x278 <Eeprom_Write_Block>
  90:	6d 96       	adiw	r28, 0x1d	; 29
  92:	0f b6       	in	r0, 0x3f	; 63
  94:	f8 94       	cli
  96:	de bf       	out	0x3e, r29	; 62
  98:	0f be       	out	0x3f, r0	; 63
  9a:	cd bf       	out	0x3d, r28	; 61
  9c:	df 91       	pop	r29
  9e:	cf 91       	pop	r28
  a0:	08 95       	ret

000000a2 <APP_MANAGE>:
  a2:	cf 93       	push	r28
  a4:	df 93       	push	r29
  a6:	00 d0       	rcall	.+0      	; 0xa8 <APP_MANAGE+0x6>
  a8:	cd b7       	in	r28, 0x3d	; 61
  aa:	de b7       	in	r29, 0x3e	; 62
  ac:	88 e0       	ldi	r24, 0x08	; 8
  ae:	98 e0       	ldi	r25, 0x08	; 8
  b0:	7f d2       	rcall	.+1278   	; 0x5b0 <SetCircumfirunce>
  b2:	81 e0       	ldi	r24, 0x01	; 1
  b4:	82 d2       	rcall	.+1284   	; 0x5ba <GetAvgSpeed>
  b6:	9a 83       	std	Y+2, r25	; 0x02
  b8:	89 83       	std	Y+1, r24	; 0x01
  ba:	71 d2       	rcall	.+1250   	; 0x59e <GetDistance>
  bc:	81 e0       	ldi	r24, 0x01	; 1
  be:	be 01       	movw	r22, r28
  c0:	6f 5f       	subi	r22, 0xFF	; 255
  c2:	7f 4f       	sbci	r23, 0xFF	; 255
  c4:	42 e0       	ldi	r20, 0x02	; 2
  c6:	d8 d0       	rcall	.+432    	; 0x278 <Eeprom_Write_Block>
  c8:	81 e0       	ldi	r24, 0x01	; 1
  ca:	be 01       	movw	r22, r28
  cc:	6f 5f       	subi	r22, 0xFF	; 255
  ce:	7f 4f       	sbci	r23, 0xFF	; 255
  d0:	42 e0       	ldi	r20, 0x02	; 2
  d2:	eb d0       	rcall	.+470    	; 0x2aa <Eeprom_Read_Block>
  d4:	89 81       	ldd	r24, Y+1	; 0x01
  d6:	9a 81       	ldd	r25, Y+2	; 0x02
  d8:	61 e0       	ldi	r22, 0x01	; 1
  da:	3d d0       	rcall	.+122    	; 0x156 <BCDsendNumber>
  dc:	80 91 9a 00 	lds	r24, 0x009A
  e0:	90 91 9b 00 	lds	r25, 0x009B
  e4:	00 97       	sbiw	r24, 0x00	; 0
  e6:	59 f4       	brne	.+22     	; 0xfe <APP_MANAGE+0x5c>
  e8:	80 e0       	ldi	r24, 0x00	; 0
  ea:	29 d1       	rcall	.+594    	; 0x33e <GetKeyStatus>
  ec:	82 38       	cpi	r24, 0x82	; 130
  ee:	59 f5       	brne	.+86     	; 0x146 <APP_MANAGE+0xa4>
  f0:	81 e0       	ldi	r24, 0x01	; 1
  f2:	90 e0       	ldi	r25, 0x00	; 0
  f4:	90 93 9b 00 	sts	0x009B, r25
  f8:	80 93 9a 00 	sts	0x009A, r24
  fc:	24 c0       	rjmp	.+72     	; 0x146 <APP_MANAGE+0xa4>
  fe:	80 91 9c 00 	lds	r24, 0x009C
 102:	64 e6       	ldi	r22, 0x64	; 100
 104:	b4 d0       	rcall	.+360    	; 0x26e <BlinkDigit>
 106:	80 e0       	ldi	r24, 0x00	; 0
 108:	1a d1       	rcall	.+564    	; 0x33e <GetKeyStatus>
 10a:	81 38       	cpi	r24, 0x81	; 129
 10c:	89 f4       	brne	.+34     	; 0x130 <APP_MANAGE+0x8e>
 10e:	80 91 9c 00 	lds	r24, 0x009C
 112:	90 91 9d 00 	lds	r25, 0x009D
 116:	01 96       	adiw	r24, 0x01	; 1
 118:	90 93 9d 00 	sts	0x009D, r25
 11c:	80 93 9c 00 	sts	0x009C, r24
 120:	84 30       	cpi	r24, 0x04	; 4
 122:	91 05       	cpc	r25, r1
 124:	81 f4       	brne	.+32     	; 0x146 <APP_MANAGE+0xa4>
 126:	10 92 9d 00 	sts	0x009D, r1
 12a:	10 92 9c 00 	sts	0x009C, r1
 12e:	0b c0       	rjmp	.+22     	; 0x146 <APP_MANAGE+0xa4>
 130:	81 e0       	ldi	r24, 0x01	; 1
 132:	05 d1       	rcall	.+522    	; 0x33e <GetKeyStatus>
 134:	82 38       	cpi	r24, 0x82	; 130
 136:	39 f4       	brne	.+14     	; 0x146 <APP_MANAGE+0xa4>
 138:	81 e0       	ldi	r24, 0x01	; 1
 13a:	60 e0       	ldi	r22, 0x00	; 0
 13c:	98 d0       	rcall	.+304    	; 0x26e <BlinkDigit>
 13e:	10 92 9b 00 	sts	0x009B, r1
 142:	10 92 9a 00 	sts	0x009A, r1
 146:	0f 90       	pop	r0
 148:	0f 90       	pop	r0
 14a:	df 91       	pop	r29
 14c:	cf 91       	pop	r28
 14e:	08 95       	ret

00000150 <BCDInitialize>:
 150:	80 93 9e 00 	sts	0x009E, r24
 154:	08 95       	ret

00000156 <BCDsendNumber>:
 156:	0f 93       	push	r16
 158:	1f 93       	push	r17
 15a:	cf 93       	push	r28
 15c:	df 93       	push	r29
 15e:	26 2f       	mov	r18, r22
 160:	cf e9       	ldi	r28, 0x9F	; 159
 162:	d0 e0       	ldi	r29, 0x00	; 0
 164:	fc 01       	movw	r30, r24
 166:	30 e0       	ldi	r19, 0x00	; 0
 168:	0a e0       	ldi	r16, 0x0A	; 10
 16a:	10 e0       	ldi	r17, 0x00	; 0
 16c:	30 97       	sbiw	r30, 0x00	; 0
 16e:	11 f4       	brne	.+4      	; 0x174 <BCDsendNumber+0x1e>
 170:	23 17       	cp	r18, r19
 172:	b8 f0       	brcs	.+46     	; 0x1a2 <BCDsendNumber+0x4c>
 174:	cf 01       	movw	r24, r30
 176:	b8 01       	movw	r22, r16
 178:	fd d3       	rcall	.+2042   	; 0x974 <__udivmodhi4>
 17a:	cb 01       	movw	r24, r22
 17c:	ab 01       	movw	r20, r22
 17e:	44 0f       	add	r20, r20
 180:	55 1f       	adc	r21, r21
 182:	b3 e0       	ldi	r27, 0x03	; 3
 184:	88 0f       	add	r24, r24
 186:	99 1f       	adc	r25, r25
 188:	ba 95       	dec	r27
 18a:	e1 f7       	brne	.-8      	; 0x184 <BCDsendNumber+0x2e>
 18c:	48 0f       	add	r20, r24
 18e:	59 1f       	adc	r21, r25
 190:	e4 1b       	sub	r30, r20
 192:	f5 0b       	sbc	r31, r21
 194:	e3 58       	subi	r30, 0x83	; 131
 196:	ff 4f       	sbci	r31, 0xFF	; 255
 198:	80 81       	ld	r24, Z
 19a:	88 83       	st	Y, r24
 19c:	19 82       	std	Y+1, r1	; 0x01
 19e:	fb 01       	movw	r30, r22
 1a0:	02 c0       	rjmp	.+4      	; 0x1a6 <BCDsendNumber+0x50>
 1a2:	19 82       	std	Y+1, r1	; 0x01
 1a4:	18 82       	st	Y, r1
 1a6:	3f 5f       	subi	r19, 0xFF	; 255
 1a8:	22 96       	adiw	r28, 0x02	; 2
 1aa:	34 30       	cpi	r19, 0x04	; 4
 1ac:	f9 f6       	brne	.-66     	; 0x16c <BCDsendNumber+0x16>
 1ae:	22 23       	and	r18, r18
 1b0:	59 f0       	breq	.+22     	; 0x1c8 <BCDsendNumber+0x72>
 1b2:	e2 2f       	mov	r30, r18
 1b4:	f0 e0       	ldi	r31, 0x00	; 0
 1b6:	ee 0f       	add	r30, r30
 1b8:	ff 1f       	adc	r31, r31
 1ba:	e1 56       	subi	r30, 0x61	; 97
 1bc:	ff 4f       	sbci	r31, 0xFF	; 255
 1be:	80 81       	ld	r24, Z
 1c0:	91 81       	ldd	r25, Z+1	; 0x01
 1c2:	81 60       	ori	r24, 0x01	; 1
 1c4:	91 83       	std	Z+1, r25	; 0x01
 1c6:	80 83       	st	Z, r24
 1c8:	df 91       	pop	r29
 1ca:	cf 91       	pop	r28
 1cc:	1f 91       	pop	r17
 1ce:	0f 91       	pop	r16
 1d0:	08 95       	ret

000001d2 <BCDManage7segment>:
 1d2:	cf 93       	push	r28
 1d4:	90 91 a7 00 	lds	r25, 0x00A7
 1d8:	99 23       	and	r25, r25
 1da:	81 f0       	breq	.+32     	; 0x1fc <BCDManage7segment+0x2a>
 1dc:	80 91 a8 00 	lds	r24, 0x00A8
 1e0:	8f 5f       	subi	r24, 0xFF	; 255
 1e2:	80 93 a8 00 	sts	0x00A8, r24
 1e6:	89 17       	cp	r24, r25
 1e8:	59 f4       	brne	.+22     	; 0x200 <BCDManage7segment+0x2e>
 1ea:	80 91 a9 00 	lds	r24, 0x00A9
 1ee:	91 e0       	ldi	r25, 0x01	; 1
 1f0:	89 27       	eor	r24, r25
 1f2:	80 93 a9 00 	sts	0x00A9, r24
 1f6:	10 92 a8 00 	sts	0x00A8, r1
 1fa:	02 c0       	rjmp	.+4      	; 0x200 <BCDManage7segment+0x2e>
 1fc:	10 92 a9 00 	sts	0x00A9, r1
 200:	80 91 a9 00 	lds	r24, 0x00A9
 204:	81 30       	cpi	r24, 0x01	; 1
 206:	31 f4       	brne	.+12     	; 0x214 <BCDManage7segment+0x42>
 208:	90 91 aa 00 	lds	r25, 0x00AA
 20c:	80 91 ab 00 	lds	r24, 0x00AB
 210:	98 17       	cp	r25, r24
 212:	a9 f0       	breq	.+42     	; 0x23e <BCDManage7segment+0x6c>
 214:	e0 91 aa 00 	lds	r30, 0x00AA
 218:	f0 e0       	ldi	r31, 0x00	; 0
 21a:	83 e0       	ldi	r24, 0x03	; 3
 21c:	90 e0       	ldi	r25, 0x00	; 0
 21e:	8e 1b       	sub	r24, r30
 220:	9f 0b       	sbc	r25, r31
 222:	61 e0       	ldi	r22, 0x01	; 1
 224:	70 e0       	ldi	r23, 0x00	; 0
 226:	02 c0       	rjmp	.+4      	; 0x22c <BCDManage7segment+0x5a>
 228:	66 0f       	add	r22, r22
 22a:	77 1f       	adc	r23, r23
 22c:	8a 95       	dec	r24
 22e:	e2 f7       	brpl	.-8      	; 0x228 <BCDManage7segment+0x56>
 230:	60 95       	com	r22
 232:	ee 0f       	add	r30, r30
 234:	ff 1f       	adc	r31, r31
 236:	e1 56       	subi	r30, 0x61	; 97
 238:	ff 4f       	sbci	r31, 0xFF	; 255
 23a:	c0 81       	ld	r28, Z
 23c:	02 c0       	rjmp	.+4      	; 0x242 <BCDManage7segment+0x70>
 23e:	c0 e0       	ldi	r28, 0x00	; 0
 240:	6f e0       	ldi	r22, 0x0F	; 15
 242:	80 91 9e 00 	lds	r24, 0x009E
 246:	81 30       	cpi	r24, 0x01	; 1
 248:	11 f4       	brne	.+4      	; 0x24e <BCDManage7segment+0x7c>
 24a:	60 95       	com	r22
 24c:	c0 95       	com	r28
 24e:	80 e0       	ldi	r24, 0x00	; 0
 250:	84 d2       	rcall	.+1288   	; 0x75a <HWI_4Digit_WRITE>
 252:	81 e0       	ldi	r24, 0x01	; 1
 254:	6c 2f       	mov	r22, r28
 256:	9a d2       	rcall	.+1332   	; 0x78c <HWI_8Digit_WRITE>
 258:	80 91 aa 00 	lds	r24, 0x00AA
 25c:	8f 5f       	subi	r24, 0xFF	; 255
 25e:	80 93 aa 00 	sts	0x00AA, r24
 262:	84 30       	cpi	r24, 0x04	; 4
 264:	11 f4       	brne	.+4      	; 0x26a <BCDManage7segment+0x98>
 266:	10 92 aa 00 	sts	0x00AA, r1
 26a:	cf 91       	pop	r28
 26c:	08 95       	ret

0000026e <BlinkDigit>:
 26e:	80 93 ab 00 	sts	0x00AB, r24
 272:	60 93 a7 00 	sts	0x00A7, r22
 276:	08 95       	ret

00000278 <Eeprom_Write_Block>:
 278:	90 91 ac 00 	lds	r25, 0x00AC
 27c:	99 23       	and	r25, r25
 27e:	99 f4       	brne	.+38     	; 0x2a6 <Eeprom_Write_Block+0x2e>
 280:	91 e0       	ldi	r25, 0x01	; 1
 282:	90 93 ac 00 	sts	0x00AC, r25
 286:	ad ea       	ldi	r26, 0xAD	; 173
 288:	b0 e0       	ldi	r27, 0x00	; 0
 28a:	fb 01       	movw	r30, r22
 28c:	02 c0       	rjmp	.+4      	; 0x292 <Eeprom_Write_Block+0x1a>
 28e:	91 91       	ld	r25, Z+
 290:	9d 93       	st	X+, r25
 292:	9e 2f       	mov	r25, r30
 294:	96 1b       	sub	r25, r22
 296:	94 17       	cp	r25, r20
 298:	d0 f3       	brcs	.-12     	; 0x28e <Eeprom_Write_Block+0x16>
 29a:	40 93 df 00 	sts	0x00DF, r20
 29e:	80 93 e0 00 	sts	0x00E0, r24
 2a2:	81 e0       	ldi	r24, 0x01	; 1
 2a4:	08 95       	ret
 2a6:	80 e0       	ldi	r24, 0x00	; 0
 2a8:	08 95       	ret

000002aa <Eeprom_Read_Block>:
 2aa:	ef 92       	push	r14
 2ac:	ff 92       	push	r15
 2ae:	0f 93       	push	r16
 2b0:	1f 93       	push	r17
 2b2:	cf 93       	push	r28
 2b4:	df 93       	push	r29
 2b6:	0f 92       	push	r0
 2b8:	cd b7       	in	r28, 0x3d	; 61
 2ba:	de b7       	in	r29, 0x3e	; 62
 2bc:	18 2f       	mov	r17, r24
 2be:	7b 01       	movw	r14, r22
 2c0:	00 e0       	ldi	r16, 0x00	; 0
 2c2:	0b c0       	rjmp	.+22     	; 0x2da <Eeprom_Read_Block+0x30>
 2c4:	b7 01       	movw	r22, r14
 2c6:	60 0f       	add	r22, r16
 2c8:	71 1d       	adc	r23, r1
 2ca:	80 2f       	mov	r24, r16
 2cc:	81 0f       	add	r24, r17
 2ce:	49 83       	std	Y+1, r20	; 0x01
 2d0:	23 d2       	rcall	.+1094   	; 0x718 <HWIeeprom_Read>
 2d2:	49 81       	ldd	r20, Y+1	; 0x01
 2d4:	81 30       	cpi	r24, 0x01	; 1
 2d6:	09 f4       	brne	.+2      	; 0x2da <Eeprom_Read_Block+0x30>
 2d8:	0f 5f       	subi	r16, 0xFF	; 255
 2da:	04 17       	cp	r16, r20
 2dc:	98 f3       	brcs	.-26     	; 0x2c4 <Eeprom_Read_Block+0x1a>
 2de:	0f 90       	pop	r0
 2e0:	df 91       	pop	r29
 2e2:	cf 91       	pop	r28
 2e4:	1f 91       	pop	r17
 2e6:	0f 91       	pop	r16
 2e8:	ff 90       	pop	r15
 2ea:	ef 90       	pop	r14
 2ec:	08 95       	ret

000002ee <EepromManage>:
 2ee:	80 91 ac 00 	lds	r24, 0x00AC
 2f2:	81 30       	cpi	r24, 0x01	; 1
 2f4:	d9 f4       	brne	.+54     	; 0x32c <EepromManage+0x3e>
 2f6:	80 91 e1 00 	lds	r24, 0x00E1
 2fa:	90 91 df 00 	lds	r25, 0x00DF
 2fe:	89 17       	cp	r24, r25
 300:	29 f4       	brne	.+10     	; 0x30c <EepromManage+0x1e>
 302:	10 92 e1 00 	sts	0x00E1, r1
 306:	10 92 ac 00 	sts	0x00AC, r1
 30a:	08 95       	ret
 30c:	90 91 e0 00 	lds	r25, 0x00E0
 310:	e8 2f       	mov	r30, r24
 312:	f0 e0       	ldi	r31, 0x00	; 0
 314:	e3 55       	subi	r30, 0x53	; 83
 316:	ff 4f       	sbci	r31, 0xFF	; 255
 318:	89 0f       	add	r24, r25
 31a:	60 81       	ld	r22, Z
 31c:	f1 d1       	rcall	.+994    	; 0x700 <HWIeeprom_Write>
 31e:	81 30       	cpi	r24, 0x01	; 1
 320:	29 f4       	brne	.+10     	; 0x32c <EepromManage+0x3e>
 322:	80 91 e1 00 	lds	r24, 0x00E1
 326:	8f 5f       	subi	r24, 0xFF	; 255
 328:	80 93 e1 00 	sts	0x00E1, r24
 32c:	08 95       	ret

0000032e <KeyInitialize>:
 32e:	86 e0       	ldi	r24, 0x06	; 6
 330:	e2 ee       	ldi	r30, 0xE2	; 226
 332:	f0 e0       	ldi	r31, 0x00	; 0
 334:	df 01       	movw	r26, r30
 336:	1d 92       	st	X+, r1
 338:	8a 95       	dec	r24
 33a:	e9 f7       	brne	.-6      	; 0x336 <KeyInitialize+0x8>
 33c:	08 95       	ret

0000033e <GetKeyStatus>:
 33e:	90 e0       	ldi	r25, 0x00	; 0
 340:	fc 01       	movw	r30, r24
 342:	ee 0f       	add	r30, r30
 344:	ff 1f       	adc	r31, r31
 346:	e8 0f       	add	r30, r24
 348:	f9 1f       	adc	r31, r25
 34a:	ee 51       	subi	r30, 0x1E	; 30
 34c:	ff 4f       	sbci	r31, 0xFF	; 255
 34e:	80 81       	ld	r24, Z
 350:	98 2f       	mov	r25, r24
 352:	9f 77       	andi	r25, 0x7F	; 127
 354:	90 83       	st	Z, r25
 356:	08 95       	ret

00000358 <MangeKeys>:
 358:	ef 92       	push	r14
 35a:	ff 92       	push	r15
 35c:	0f 93       	push	r16
 35e:	1f 93       	push	r17
 360:	cf 93       	push	r28
 362:	df 93       	push	r29
 364:	0f 92       	push	r0
 366:	cd b7       	in	r28, 0x3d	; 61
 368:	de b7       	in	r29, 0x3e	; 62
 36a:	90 e0       	ldi	r25, 0x00	; 0
 36c:	7c 01       	movw	r14, r24
 36e:	ee 0c       	add	r14, r14
 370:	ff 1c       	adc	r15, r15
 372:	e8 0e       	add	r14, r24
 374:	f9 1e       	adc	r15, r25
 376:	22 ee       	ldi	r18, 0xE2	; 226
 378:	30 e0       	ldi	r19, 0x00	; 0
 37a:	e2 0e       	add	r14, r18
 37c:	f3 1e       	adc	r15, r19
 37e:	f7 01       	movw	r30, r14
 380:	20 81       	ld	r18, Z
 382:	2f 77       	andi	r18, 0x7F	; 127
 384:	8c 01       	movw	r16, r24
 386:	43 e0       	ldi	r20, 0x03	; 3
 388:	00 0f       	add	r16, r16
 38a:	11 1f       	adc	r17, r17
 38c:	4a 95       	dec	r20
 38e:	e1 f7       	brne	.-8      	; 0x388 <MangeKeys+0x30>
 390:	08 57       	subi	r16, 0x78	; 120
 392:	1f 4f       	sbci	r17, 0xFF	; 255
 394:	f8 01       	movw	r30, r16
 396:	80 81       	ld	r24, Z
 398:	29 83       	std	Y+1, r18	; 0x01
 39a:	d1 d1       	rcall	.+930    	; 0x73e <HWI_DIGI_READ>
 39c:	29 81       	ldd	r18, Y+1	; 0x01
 39e:	21 30       	cpi	r18, 0x01	; 1
 3a0:	f9 f0       	breq	.+62     	; 0x3e0 <MangeKeys+0x88>
 3a2:	21 30       	cpi	r18, 0x01	; 1
 3a4:	20 f0       	brcs	.+8      	; 0x3ae <MangeKeys+0x56>
 3a6:	22 30       	cpi	r18, 0x02	; 2
 3a8:	09 f0       	breq	.+2      	; 0x3ac <MangeKeys+0x54>
 3aa:	5b c0       	rjmp	.+182    	; 0x462 <__stack+0x3>
 3ac:	45 c0       	rjmp	.+138    	; 0x438 <MangeKeys+0xe0>
 3ae:	f8 01       	movw	r30, r16
 3b0:	91 81       	ldd	r25, Z+1	; 0x01
 3b2:	f7 01       	movw	r30, r14
 3b4:	98 17       	cp	r25, r24
 3b6:	89 f4       	brne	.+34     	; 0x3da <MangeKeys+0x82>
 3b8:	81 81       	ldd	r24, Z+1	; 0x01
 3ba:	92 81       	ldd	r25, Z+2	; 0x02
 3bc:	01 96       	adiw	r24, 0x01	; 1
 3be:	92 83       	std	Z+2, r25	; 0x02
 3c0:	81 83       	std	Z+1, r24	; 0x01
 3c2:	f8 01       	movw	r30, r16
 3c4:	24 81       	ldd	r18, Z+4	; 0x04
 3c6:	35 81       	ldd	r19, Z+5	; 0x05
 3c8:	28 17       	cp	r18, r24
 3ca:	39 07       	cpc	r19, r25
 3cc:	09 f0       	breq	.+2      	; 0x3d0 <MangeKeys+0x78>
 3ce:	4b c0       	rjmp	.+150    	; 0x466 <__stack+0x7>
 3d0:	81 e8       	ldi	r24, 0x81	; 129
 3d2:	f7 01       	movw	r30, r14
 3d4:	80 83       	st	Z, r24
 3d6:	f8 01       	movw	r30, r16
 3d8:	33 c0       	rjmp	.+102    	; 0x440 <MangeKeys+0xe8>
 3da:	12 82       	std	Z+2, r1	; 0x02
 3dc:	11 82       	std	Z+1, r1	; 0x01
 3de:	43 c0       	rjmp	.+134    	; 0x466 <__stack+0x7>
 3e0:	f8 01       	movw	r30, r16
 3e2:	91 81       	ldd	r25, Z+1	; 0x01
 3e4:	f7 01       	movw	r30, r14
 3e6:	21 81       	ldd	r18, Z+1	; 0x01
 3e8:	32 81       	ldd	r19, Z+2	; 0x02
 3ea:	f8 01       	movw	r30, r16
 3ec:	42 81       	ldd	r20, Z+2	; 0x02
 3ee:	53 81       	ldd	r21, Z+3	; 0x03
 3f0:	98 17       	cp	r25, r24
 3f2:	b1 f4       	brne	.+44     	; 0x420 <MangeKeys+0xc8>
 3f4:	24 17       	cp	r18, r20
 3f6:	35 07       	cpc	r19, r21
 3f8:	78 f0       	brcs	.+30     	; 0x418 <MangeKeys+0xc0>
 3fa:	2f 5f       	subi	r18, 0xFF	; 255
 3fc:	3f 4f       	sbci	r19, 0xFF	; 255
 3fe:	f7 01       	movw	r30, r14
 400:	32 83       	std	Z+2, r19	; 0x02
 402:	21 83       	std	Z+1, r18	; 0x01
 404:	f8 01       	movw	r30, r16
 406:	86 81       	ldd	r24, Z+6	; 0x06
 408:	97 81       	ldd	r25, Z+7	; 0x07
 40a:	82 17       	cp	r24, r18
 40c:	93 07       	cpc	r25, r19
 40e:	59 f5       	brne	.+86     	; 0x466 <__stack+0x7>
 410:	82 e8       	ldi	r24, 0x82	; 130
 412:	f7 01       	movw	r30, r14
 414:	80 83       	st	Z, r24
 416:	01 c0       	rjmp	.+2      	; 0x41a <MangeKeys+0xc2>
 418:	f7 01       	movw	r30, r14
 41a:	52 83       	std	Z+2, r21	; 0x02
 41c:	41 83       	std	Z+1, r20	; 0x01
 41e:	23 c0       	rjmp	.+70     	; 0x466 <__stack+0x7>
 420:	42 17       	cp	r20, r18
 422:	53 07       	cpc	r21, r19
 424:	c8 f3       	brcs	.-14     	; 0x418 <MangeKeys+0xc0>
 426:	21 50       	subi	r18, 0x01	; 1
 428:	30 40       	sbci	r19, 0x00	; 0
 42a:	f7 01       	movw	r30, r14
 42c:	32 83       	std	Z+2, r19	; 0x02
 42e:	21 83       	std	Z+1, r18	; 0x01
 430:	21 15       	cp	r18, r1
 432:	31 05       	cpc	r19, r1
 434:	c1 f4       	brne	.+48     	; 0x466 <__stack+0x7>
 436:	12 c0       	rjmp	.+36     	; 0x45c <MangeKeys+0x104>
 438:	f8 01       	movw	r30, r16
 43a:	91 81       	ldd	r25, Z+1	; 0x01
 43c:	98 17       	cp	r25, r24
 43e:	31 f4       	brne	.+12     	; 0x44c <MangeKeys+0xf4>
 440:	82 81       	ldd	r24, Z+2	; 0x02
 442:	93 81       	ldd	r25, Z+3	; 0x03
 444:	f7 01       	movw	r30, r14
 446:	92 83       	std	Z+2, r25	; 0x02
 448:	81 83       	std	Z+1, r24	; 0x01
 44a:	0d c0       	rjmp	.+26     	; 0x466 <__stack+0x7>
 44c:	f7 01       	movw	r30, r14
 44e:	81 81       	ldd	r24, Z+1	; 0x01
 450:	92 81       	ldd	r25, Z+2	; 0x02
 452:	01 97       	sbiw	r24, 0x01	; 1
 454:	92 83       	std	Z+2, r25	; 0x02
 456:	81 83       	std	Z+1, r24	; 0x01
 458:	00 97       	sbiw	r24, 0x00	; 0
 45a:	29 f4       	brne	.+10     	; 0x466 <__stack+0x7>
 45c:	80 e8       	ldi	r24, 0x80	; 128
 45e:	80 83       	st	Z, r24
 460:	02 c0       	rjmp	.+4      	; 0x466 <__stack+0x7>
 462:	f7 01       	movw	r30, r14
 464:	10 82       	st	Z, r1
 466:	0f 90       	pop	r0
 468:	df 91       	pop	r29
 46a:	cf 91       	pop	r28
 46c:	1f 91       	pop	r17
 46e:	0f 91       	pop	r16
 470:	ff 90       	pop	r15
 472:	ef 90       	pop	r14
 474:	08 95       	ret

00000476 <SpeedCalcNotifyInitialize>:
 476:	08 95       	ret

00000478 <SensorOneNotify>:
 478:	80 91 ec 00 	lds	r24, 0x00EC
 47c:	81 30       	cpi	r24, 0x01	; 1
 47e:	19 f4       	brne	.+6      	; 0x486 <SensorOneNotify+0xe>
 480:	10 92 ec 00 	sts	0x00EC, r1
 484:	08 95       	ret
 486:	80 91 eb 00 	lds	r24, 0x00EB
 48a:	88 23       	and	r24, r24
 48c:	29 f0       	breq	.+10     	; 0x498 <SensorOneNotify+0x20>
 48e:	80 91 eb 00 	lds	r24, 0x00EB
 492:	81 50       	subi	r24, 0x01	; 1
 494:	80 93 eb 00 	sts	0x00EB, r24
 498:	08 95       	ret

0000049a <SensorTwoNotify>:
 49a:	80 91 ec 00 	lds	r24, 0x00EC
 49e:	88 23       	and	r24, r24
 4a0:	a9 f4       	brne	.+42     	; 0x4cc <SensorTwoNotify+0x32>
 4a2:	81 e0       	ldi	r24, 0x01	; 1
 4a4:	80 93 ec 00 	sts	0x00EC, r24
 4a8:	80 91 eb 00 	lds	r24, 0x00EB
 4ac:	8f 5f       	subi	r24, 0xFF	; 255
 4ae:	80 93 eb 00 	sts	0x00EB, r24
 4b2:	81 e0       	ldi	r24, 0x01	; 1
 4b4:	9a d1       	rcall	.+820    	; 0x7ea <ReloadHWtimer>
 4b6:	90 93 ea 00 	sts	0x00EA, r25
 4ba:	80 93 e9 00 	sts	0x00E9, r24
 4be:	80 91 e8 00 	lds	r24, 0x00E8
 4c2:	80 93 ed 00 	sts	0x00ED, r24
 4c6:	10 92 e8 00 	sts	0x00E8, r1
 4ca:	08 95       	ret
 4cc:	80 91 eb 00 	lds	r24, 0x00EB
 4d0:	88 23       	and	r24, r24
 4d2:	29 f0       	breq	.+10     	; 0x4de <SensorTwoNotify+0x44>
 4d4:	80 91 eb 00 	lds	r24, 0x00EB
 4d8:	81 50       	subi	r24, 0x01	; 1
 4da:	80 93 eb 00 	sts	0x00EB, r24
 4de:	08 95       	ret

000004e0 <SpeedCalcManage>:
 4e0:	cf 93       	push	r28
 4e2:	df 93       	push	r29
 4e4:	40 91 e9 00 	lds	r20, 0x00E9
 4e8:	50 91 ea 00 	lds	r21, 0x00EA
 4ec:	20 91 ed 00 	lds	r18, 0x00ED
 4f0:	30 e0       	ldi	r19, 0x00	; 0
 4f2:	8f e8       	ldi	r24, 0x8F	; 143
 4f4:	92 e0       	ldi	r25, 0x02	; 2
 4f6:	28 9f       	mul	r18, r24
 4f8:	f0 01       	movw	r30, r0
 4fa:	29 9f       	mul	r18, r25
 4fc:	f0 0d       	add	r31, r0
 4fe:	38 9f       	mul	r19, r24
 500:	f0 0d       	add	r31, r0
 502:	11 24       	eor	r1, r1
 504:	ca 01       	movw	r24, r20
 506:	64 e6       	ldi	r22, 0x64	; 100
 508:	70 e0       	ldi	r23, 0x00	; 0
 50a:	34 d2       	rcall	.+1128   	; 0x974 <__udivmodhi4>
 50c:	e6 0f       	add	r30, r22
 50e:	f7 1f       	adc	r31, r23
 510:	f0 93 ef 00 	sts	0x00EF, r31
 514:	e0 93 ee 00 	sts	0x00EE, r30
 518:	80 91 eb 00 	lds	r24, 0x00EB
 51c:	c0 91 f0 00 	lds	r28, 0x00F0
 520:	d0 91 f1 00 	lds	r29, 0x00F1
 524:	c8 0f       	add	r28, r24
 526:	d1 1d       	adc	r29, r1
 528:	d0 93 f1 00 	sts	0x00F1, r29
 52c:	c0 93 f0 00 	sts	0x00F0, r28
 530:	10 92 eb 00 	sts	0x00EB, r1
 534:	20 91 98 00 	lds	r18, 0x0098
 538:	30 91 99 00 	lds	r19, 0x0099
 53c:	40 e0       	ldi	r20, 0x00	; 0
 53e:	50 e0       	ldi	r21, 0x00	; 0
 540:	60 ea       	ldi	r22, 0xA0	; 160
 542:	76 e8       	ldi	r23, 0x86	; 134
 544:	81 e0       	ldi	r24, 0x01	; 1
 546:	90 e0       	ldi	r25, 0x00	; 0
 548:	29 d2       	rcall	.+1106   	; 0x99c <__udivmodsi4>
 54a:	c2 17       	cp	r28, r18
 54c:	d3 07       	cpc	r29, r19
 54e:	c8 f0       	brcs	.+50     	; 0x582 <SpeedCalcManage+0xa2>
 550:	80 91 f2 00 	lds	r24, 0x00F2
 554:	90 91 f3 00 	lds	r25, 0x00F3
 558:	a0 91 f4 00 	lds	r26, 0x00F4
 55c:	b0 91 f5 00 	lds	r27, 0x00F5
 560:	01 96       	adiw	r24, 0x01	; 1
 562:	a1 1d       	adc	r26, r1
 564:	b1 1d       	adc	r27, r1
 566:	80 93 f2 00 	sts	0x00F2, r24
 56a:	90 93 f3 00 	sts	0x00F3, r25
 56e:	a0 93 f4 00 	sts	0x00F4, r26
 572:	b0 93 f5 00 	sts	0x00F5, r27
 576:	c2 1b       	sub	r28, r18
 578:	d3 0b       	sbc	r29, r19
 57a:	d0 93 f1 00 	sts	0x00F1, r29
 57e:	c0 93 f0 00 	sts	0x00F0, r28
 582:	df 91       	pop	r29
 584:	cf 91       	pop	r28
 586:	08 95       	ret

00000588 <SetDistance>:
 588:	dc 01       	movw	r26, r24
 58a:	cb 01       	movw	r24, r22
 58c:	80 93 f2 00 	sts	0x00F2, r24
 590:	90 93 f3 00 	sts	0x00F3, r25
 594:	a0 93 f4 00 	sts	0x00F4, r26
 598:	b0 93 f5 00 	sts	0x00F5, r27
 59c:	08 95       	ret

0000059e <GetDistance>:
 59e:	60 91 f2 00 	lds	r22, 0x00F2
 5a2:	70 91 f3 00 	lds	r23, 0x00F3
 5a6:	80 91 f4 00 	lds	r24, 0x00F4
 5aa:	90 91 f5 00 	lds	r25, 0x00F5
 5ae:	08 95       	ret

000005b0 <SetCircumfirunce>:
 5b0:	90 93 99 00 	sts	0x0099, r25
 5b4:	80 93 98 00 	sts	0x0098, r24
 5b8:	08 95       	ret

000005ba <GetAvgSpeed>:
 5ba:	cf 93       	push	r28
 5bc:	df 93       	push	r29
 5be:	81 30       	cpi	r24, 0x01	; 1
 5c0:	29 f4       	brne	.+10     	; 0x5cc <GetAvgSpeed+0x12>
 5c2:	68 e6       	ldi	r22, 0x68	; 104
 5c4:	71 e0       	ldi	r23, 0x01	; 1
 5c6:	80 e0       	ldi	r24, 0x00	; 0
 5c8:	90 e0       	ldi	r25, 0x00	; 0
 5ca:	04 c0       	rjmp	.+8      	; 0x5d4 <GetAvgSpeed+0x1a>
 5cc:	61 ee       	ldi	r22, 0xE1	; 225
 5ce:	70 e0       	ldi	r23, 0x00	; 0
 5d0:	80 e0       	ldi	r24, 0x00	; 0
 5d2:	90 e0       	ldi	r25, 0x00	; 0
 5d4:	c0 91 ee 00 	lds	r28, 0x00EE
 5d8:	d0 91 ef 00 	lds	r29, 0x00EF
 5dc:	20 97       	sbiw	r28, 0x00	; 0
 5de:	69 f0       	breq	.+26     	; 0x5fa <GetAvgSpeed+0x40>
 5e0:	20 91 98 00 	lds	r18, 0x0098
 5e4:	30 91 99 00 	lds	r19, 0x0099
 5e8:	40 e0       	ldi	r20, 0x00	; 0
 5ea:	50 e0       	ldi	r21, 0x00	; 0
 5ec:	a4 d1       	rcall	.+840    	; 0x936 <__mulsi3>
 5ee:	9e 01       	movw	r18, r28
 5f0:	40 e0       	ldi	r20, 0x00	; 0
 5f2:	50 e0       	ldi	r21, 0x00	; 0
 5f4:	d3 d1       	rcall	.+934    	; 0x99c <__udivmodsi4>
 5f6:	c9 01       	movw	r24, r18
 5f8:	02 c0       	rjmp	.+4      	; 0x5fe <GetAvgSpeed+0x44>
 5fa:	80 e0       	ldi	r24, 0x00	; 0
 5fc:	90 e0       	ldi	r25, 0x00	; 0
 5fe:	20 91 e8 00 	lds	r18, 0x00E8
 602:	20 34       	cpi	r18, 0x40	; 64
 604:	11 f4       	brne	.+4      	; 0x60a <GetAvgSpeed+0x50>
 606:	80 e0       	ldi	r24, 0x00	; 0
 608:	90 e0       	ldi	r25, 0x00	; 0
 60a:	df 91       	pop	r29
 60c:	cf 91       	pop	r28
 60e:	08 95       	ret

00000610 <HWtimerCallback>:
 610:	80 91 e8 00 	lds	r24, 0x00E8
 614:	80 34       	cpi	r24, 0x40	; 64
 616:	28 f4       	brcc	.+10     	; 0x622 <HWtimerCallback+0x12>
 618:	80 91 e8 00 	lds	r24, 0x00E8
 61c:	8f 5f       	subi	r24, 0xFF	; 255
 61e:	80 93 e8 00 	sts	0x00E8, r24
 622:	08 95       	ret

00000624 <APP_ISR1>:
 624:	29 df       	rcall	.-430    	; 0x478 <SensorOneNotify>
 626:	08 95       	ret

00000628 <APP_ISR2>:
 628:	38 df       	rcall	.-400    	; 0x49a <SensorTwoNotify>
 62a:	08 95       	ret

0000062c <APP_ISR3>:
 62c:	f1 df       	rcall	.-30     	; 0x610 <HWtimerCallback>
 62e:	08 95       	ret

00000630 <ManageDrivers>:
 630:	80 e0       	ldi	r24, 0x00	; 0
 632:	92 de       	rcall	.-732    	; 0x358 <MangeKeys>
 634:	81 e0       	ldi	r24, 0x01	; 1
 636:	90 de       	rcall	.-736    	; 0x358 <MangeKeys>
 638:	5a de       	rcall	.-844    	; 0x2ee <EepromManage>
 63a:	08 95       	ret

0000063c <ManageSpeedCalc>:
 63c:	51 df       	rcall	.-350    	; 0x4e0 <SpeedCalcManage>
 63e:	08 95       	ret

00000640 <ManageApplication>:
 640:	30 dd       	rcall	.-1440   	; 0xa2 <APP_MANAGE>
 642:	08 95       	ret

00000644 <DisplayAlphaNumeric>:
 644:	c6 dd       	rcall	.-1140   	; 0x1d2 <BCDManage7segment>
 646:	08 95       	ret

00000648 <Start_App>:
 648:	ad d0       	rcall	.+346    	; 0x7a4 <HWI_INTERRUPTS_INTITALIZE>
 64a:	73 d0       	rcall	.+230    	; 0x732 <HWI_DIGITAL_INITIALIZE>
 64c:	14 df       	rcall	.-472    	; 0x476 <SpeedCalcNotifyInitialize>
 64e:	07 dd       	rcall	.-1522   	; 0x5e <APP_INITIALIZE>
 650:	81 e0       	ldi	r24, 0x01	; 1
 652:	7e dd       	rcall	.-1284   	; 0x150 <BCDInitialize>
 654:	8e e1       	ldi	r24, 0x1E	; 30
 656:	93 e0       	ldi	r25, 0x03	; 3
 658:	60 e0       	ldi	r22, 0x00	; 0
 65a:	44 e1       	ldi	r20, 0x14	; 20
 65c:	11 d0       	rcall	.+34     	; 0x680 <CreateTask>
 65e:	80 e2       	ldi	r24, 0x20	; 32
 660:	93 e0       	ldi	r25, 0x03	; 3
 662:	62 e0       	ldi	r22, 0x02	; 2
 664:	44 e6       	ldi	r20, 0x64	; 100
 666:	0c d0       	rcall	.+24     	; 0x680 <CreateTask>
 668:	82 e2       	ldi	r24, 0x22	; 34
 66a:	93 e0       	ldi	r25, 0x03	; 3
 66c:	61 e0       	ldi	r22, 0x01	; 1
 66e:	44 e0       	ldi	r20, 0x04	; 4
 670:	07 d0       	rcall	.+14     	; 0x680 <CreateTask>
 672:	88 e1       	ldi	r24, 0x18	; 24
 674:	93 e0       	ldi	r25, 0x03	; 3
 676:	63 e0       	ldi	r22, 0x03	; 3
 678:	4a e0       	ldi	r20, 0x0A	; 10
 67a:	02 d0       	rcall	.+4      	; 0x680 <CreateTask>
 67c:	1b d0       	rcall	.+54     	; 0x6b4 <RunScheduler>
 67e:	08 95       	ret

00000680 <CreateTask>:
 680:	64 30       	cpi	r22, 0x04	; 4
 682:	60 f4       	brcc	.+24     	; 0x69c <CreateTask+0x1c>
 684:	e6 2f       	mov	r30, r22
 686:	f0 e0       	ldi	r31, 0x00	; 0
 688:	ee 0f       	add	r30, r30
 68a:	ff 1f       	adc	r31, r31
 68c:	ee 0f       	add	r30, r30
 68e:	ff 1f       	adc	r31, r31
 690:	ea 50       	subi	r30, 0x0A	; 10
 692:	ff 4f       	sbci	r31, 0xFF	; 255
 694:	91 83       	std	Z+1, r25	; 0x01
 696:	80 83       	st	Z, r24
 698:	42 83       	std	Z+2, r20	; 0x02
 69a:	13 82       	std	Z+3, r1	; 0x03
 69c:	08 95       	ret

0000069e <SchedulerTick>:
 69e:	e9 ef       	ldi	r30, 0xF9	; 249
 6a0:	f0 e0       	ldi	r31, 0x00	; 0
 6a2:	84 e0       	ldi	r24, 0x04	; 4
 6a4:	90 81       	ld	r25, Z
 6a6:	9f 5f       	subi	r25, 0xFF	; 255
 6a8:	90 83       	st	Z, r25
 6aa:	81 50       	subi	r24, 0x01	; 1
 6ac:	34 96       	adiw	r30, 0x04	; 4
 6ae:	88 23       	and	r24, r24
 6b0:	c9 f7       	brne	.-14     	; 0x6a4 <SchedulerTick+0x6>
 6b2:	08 95       	ret

000006b4 <RunScheduler>:
 6b4:	10 92 06 01 	sts	0x0106, r1
 6b8:	1e c0       	rjmp	.+60     	; 0x6f6 <RunScheduler+0x42>
 6ba:	f0 e0       	ldi	r31, 0x00	; 0
 6bc:	ee 0f       	add	r30, r30
 6be:	ff 1f       	adc	r31, r31
 6c0:	ee 0f       	add	r30, r30
 6c2:	ff 1f       	adc	r31, r31
 6c4:	ea 50       	subi	r30, 0x0A	; 10
 6c6:	ff 4f       	sbci	r31, 0xFF	; 255
 6c8:	92 81       	ldd	r25, Z+2	; 0x02
 6ca:	83 81       	ldd	r24, Z+3	; 0x03
 6cc:	89 17       	cp	r24, r25
 6ce:	70 f0       	brcs	.+28     	; 0x6ec <RunScheduler+0x38>
 6d0:	01 90       	ld	r0, Z+
 6d2:	f0 81       	ld	r31, Z
 6d4:	e0 2d       	mov	r30, r0
 6d6:	09 95       	icall
 6d8:	e0 91 06 01 	lds	r30, 0x0106
 6dc:	f0 e0       	ldi	r31, 0x00	; 0
 6de:	ee 0f       	add	r30, r30
 6e0:	ff 1f       	adc	r31, r31
 6e2:	ee 0f       	add	r30, r30
 6e4:	ff 1f       	adc	r31, r31
 6e6:	ea 50       	subi	r30, 0x0A	; 10
 6e8:	ff 4f       	sbci	r31, 0xFF	; 255
 6ea:	13 82       	std	Z+3, r1	; 0x03
 6ec:	80 91 06 01 	lds	r24, 0x0106
 6f0:	8f 5f       	subi	r24, 0xFF	; 255
 6f2:	80 93 06 01 	sts	0x0106, r24
 6f6:	e0 91 06 01 	lds	r30, 0x0106
 6fa:	e4 30       	cpi	r30, 0x04	; 4
 6fc:	d8 f6       	brcc	.-74     	; 0x6b4 <RunScheduler>
 6fe:	dd cf       	rjmp	.-70     	; 0x6ba <RunScheduler+0x6>

00000700 <HWIeeprom_Write>:
 700:	e1 99       	sbic	0x1c, 1	; 28
 702:	08 c0       	rjmp	.+16     	; 0x714 <HWIeeprom_Write+0x14>
 704:	90 e0       	ldi	r25, 0x00	; 0
 706:	9f bb       	out	0x1f, r25	; 31
 708:	8e bb       	out	0x1e, r24	; 30
 70a:	6d bb       	out	0x1d, r22	; 29
 70c:	e2 9a       	sbi	0x1c, 2	; 28
 70e:	e1 9a       	sbi	0x1c, 1	; 28
 710:	81 e0       	ldi	r24, 0x01	; 1
 712:	08 95       	ret
 714:	80 e0       	ldi	r24, 0x00	; 0
 716:	08 95       	ret

00000718 <HWIeeprom_Read>:
 718:	e1 99       	sbic	0x1c, 1	; 28
 71a:	09 c0       	rjmp	.+18     	; 0x72e <HWIeeprom_Read+0x16>
 71c:	90 e0       	ldi	r25, 0x00	; 0
 71e:	9f bb       	out	0x1f, r25	; 31
 720:	8e bb       	out	0x1e, r24	; 30
 722:	e0 9a       	sbi	0x1c, 0	; 28
 724:	8d b3       	in	r24, 0x1d	; 29
 726:	fb 01       	movw	r30, r22
 728:	80 83       	st	Z, r24
 72a:	81 e0       	ldi	r24, 0x01	; 1
 72c:	08 95       	ret
 72e:	80 e0       	ldi	r24, 0x00	; 0
 730:	08 95       	ret

00000732 <HWI_DIGITAL_INITIALIZE>:
 732:	8f ef       	ldi	r24, 0xFF	; 255
 734:	87 bb       	out	0x17, r24	; 23
 736:	84 bb       	out	0x14, r24	; 20
 738:	11 ba       	out	0x11, r1	; 17
 73a:	82 bb       	out	0x12, r24	; 18
 73c:	08 95       	ret

0000073e <HWI_DIGI_READ>:
 73e:	8f 30       	cpi	r24, 0x0F	; 15
 740:	19 f0       	breq	.+6      	; 0x748 <HWI_DIGI_READ+0xa>
 742:	80 31       	cpi	r24, 0x10	; 16
 744:	39 f4       	brne	.+14     	; 0x754 <HWI_DIGI_READ+0x16>
 746:	03 c0       	rjmp	.+6      	; 0x74e <HWI_DIGI_READ+0x10>
 748:	80 b3       	in	r24, 0x10	; 16
 74a:	80 71       	andi	r24, 0x10	; 16
 74c:	08 95       	ret
 74e:	80 b3       	in	r24, 0x10	; 16
 750:	80 72       	andi	r24, 0x20	; 32
 752:	08 95       	ret
 754:	80 e0       	ldi	r24, 0x00	; 0
 756:	08 95       	ret

00000758 <HWI_DIGI_WRITE>:
 758:	08 95       	ret

0000075a <HWI_4Digit_WRITE>:
 75a:	88 23       	and	r24, r24
 75c:	29 f4       	brne	.+10     	; 0x768 <HWI_4Digit_WRITE+0xe>
 75e:	85 b3       	in	r24, 0x15	; 21
 760:	80 7f       	andi	r24, 0xF0	; 240
 762:	86 2b       	or	r24, r22
 764:	85 bb       	out	0x15, r24	; 21
 766:	08 95       	ret
 768:	88 b3       	in	r24, 0x18	; 24
 76a:	80 7f       	andi	r24, 0xF0	; 240
 76c:	86 2b       	or	r24, r22
 76e:	88 bb       	out	0x18, r24	; 24
 770:	08 95       	ret

00000772 <HWI_4Digit_READ>:
 772:	88 23       	and	r24, r24
 774:	19 f0       	breq	.+6      	; 0x77c <HWI_4Digit_READ+0xa>
 776:	81 30       	cpi	r24, 0x01	; 1
 778:	31 f4       	brne	.+12     	; 0x786 <HWI_4Digit_READ+0x14>
 77a:	02 c0       	rjmp	.+4      	; 0x780 <HWI_4Digit_READ+0xe>
 77c:	83 b3       	in	r24, 0x13	; 19
 77e:	01 c0       	rjmp	.+2      	; 0x782 <HWI_4Digit_READ+0x10>
 780:	86 b3       	in	r24, 0x16	; 22
 782:	8f 70       	andi	r24, 0x0F	; 15
 784:	08 95       	ret
 786:	86 b3       	in	r24, 0x16	; 22
 788:	8f 70       	andi	r24, 0x0F	; 15
 78a:	08 95       	ret

0000078c <HWI_8Digit_WRITE>:
 78c:	88 23       	and	r24, r24
 78e:	11 f4       	brne	.+4      	; 0x794 <HWI_8Digit_WRITE+0x8>
 790:	65 bb       	out	0x15, r22	; 21
 792:	08 95       	ret
 794:	68 bb       	out	0x18, r22	; 24
 796:	08 95       	ret

00000798 <HWI8Digit_READ>:
 798:	88 23       	and	r24, r24
 79a:	11 f0       	breq	.+4      	; 0x7a0 <HWI8Digit_READ+0x8>
 79c:	86 b3       	in	r24, 0x16	; 22
 79e:	08 95       	ret
 7a0:	83 b3       	in	r24, 0x13	; 19
 7a2:	08 95       	ret

000007a4 <HWI_INTERRUPTS_INTITALIZE>:
 7a4:	8e b5       	in	r24, 0x2e	; 46
 7a6:	82 60       	ori	r24, 0x02	; 2
 7a8:	8e bd       	out	0x2e, r24	; 46
 7aa:	8f ef       	ldi	r24, 0xFF	; 255
 7ac:	9f e7       	ldi	r25, 0x7F	; 127
 7ae:	9d bd       	out	0x2d, r25	; 45
 7b0:	8c bd       	out	0x2c, r24	; 44
 7b2:	83 b7       	in	r24, 0x33	; 51
 7b4:	83 60       	ori	r24, 0x03	; 3
 7b6:	83 bf       	out	0x33, r24	; 51
 7b8:	82 ec       	ldi	r24, 0xC2	; 194
 7ba:	82 bf       	out	0x32, r24	; 50
 7bc:	89 b7       	in	r24, 0x39	; 57
 7be:	81 60       	ori	r24, 0x01	; 1
 7c0:	89 bf       	out	0x39, r24	; 57
 7c2:	89 b7       	in	r24, 0x39	; 57
 7c4:	84 60       	ori	r24, 0x04	; 4
 7c6:	89 bf       	out	0x39, r24	; 57
 7c8:	8b b7       	in	r24, 0x3b	; 59
 7ca:	80 64       	ori	r24, 0x40	; 64
 7cc:	8b bf       	out	0x3b, r24	; 59
 7ce:	85 b7       	in	r24, 0x35	; 53
 7d0:	83 60       	ori	r24, 0x03	; 3
 7d2:	85 bf       	out	0x35, r24	; 53
 7d4:	8b b7       	in	r24, 0x3b	; 59
 7d6:	80 68       	ori	r24, 0x80	; 128
 7d8:	8b bf       	out	0x3b, r24	; 59
 7da:	85 b7       	in	r24, 0x35	; 53
 7dc:	8c 60       	ori	r24, 0x0C	; 12
 7de:	85 bf       	out	0x35, r24	; 53
 7e0:	81 b3       	in	r24, 0x11	; 17
 7e2:	8c 60       	ori	r24, 0x0C	; 12
 7e4:	81 bb       	out	0x11, r24	; 17
 7e6:	78 94       	sei
 7e8:	08 95       	ret

000007ea <ReloadHWtimer>:
 7ea:	83 30       	cpi	r24, 0x03	; 3
 7ec:	58 f4       	brcc	.+22     	; 0x804 <ReloadHWtimer+0x1a>
 7ee:	8c b5       	in	r24, 0x2c	; 44
 7f0:	9d b5       	in	r25, 0x2d	; 45
 7f2:	8f 5f       	subi	r24, 0xFF	; 255
 7f4:	9f 47       	sbci	r25, 0x7F	; 127
 7f6:	88 0f       	add	r24, r24
 7f8:	99 1f       	adc	r25, r25
 7fa:	2f ef       	ldi	r18, 0xFF	; 255
 7fc:	3f e7       	ldi	r19, 0x7F	; 127
 7fe:	3d bd       	out	0x2d, r19	; 45
 800:	2c bd       	out	0x2c, r18	; 44
 802:	08 95       	ret
 804:	80 e0       	ldi	r24, 0x00	; 0
 806:	90 e0       	ldi	r25, 0x00	; 0
 808:	08 95       	ret

0000080a <__vector_9>:
 80a:	1f 92       	push	r1
 80c:	0f 92       	push	r0
 80e:	0f b6       	in	r0, 0x3f	; 63
 810:	0f 92       	push	r0
 812:	11 24       	eor	r1, r1
 814:	2f 93       	push	r18
 816:	3f 93       	push	r19
 818:	4f 93       	push	r20
 81a:	5f 93       	push	r21
 81c:	6f 93       	push	r22
 81e:	7f 93       	push	r23
 820:	8f 93       	push	r24
 822:	9f 93       	push	r25
 824:	af 93       	push	r26
 826:	bf 93       	push	r27
 828:	ef 93       	push	r30
 82a:	ff 93       	push	r31
 82c:	82 ec       	ldi	r24, 0xC2	; 194
 82e:	82 bf       	out	0x32, r24	; 50
 830:	36 df       	rcall	.-404    	; 0x69e <SchedulerTick>
 832:	ff 91       	pop	r31
 834:	ef 91       	pop	r30
 836:	bf 91       	pop	r27
 838:	af 91       	pop	r26
 83a:	9f 91       	pop	r25
 83c:	8f 91       	pop	r24
 83e:	7f 91       	pop	r23
 840:	6f 91       	pop	r22
 842:	5f 91       	pop	r21
 844:	4f 91       	pop	r20
 846:	3f 91       	pop	r19
 848:	2f 91       	pop	r18
 84a:	0f 90       	pop	r0
 84c:	0f be       	out	0x3f, r0	; 63
 84e:	0f 90       	pop	r0
 850:	1f 90       	pop	r1
 852:	18 95       	reti

00000854 <__vector_8>:
 854:	1f 92       	push	r1
 856:	0f 92       	push	r0
 858:	0f b6       	in	r0, 0x3f	; 63
 85a:	0f 92       	push	r0
 85c:	11 24       	eor	r1, r1
 85e:	2f 93       	push	r18
 860:	3f 93       	push	r19
 862:	4f 93       	push	r20
 864:	5f 93       	push	r21
 866:	6f 93       	push	r22
 868:	7f 93       	push	r23
 86a:	8f 93       	push	r24
 86c:	9f 93       	push	r25
 86e:	af 93       	push	r26
 870:	bf 93       	push	r27
 872:	ef 93       	push	r30
 874:	ff 93       	push	r31
 876:	8f ef       	ldi	r24, 0xFF	; 255
 878:	9f e7       	ldi	r25, 0x7F	; 127
 87a:	9d bd       	out	0x2d, r25	; 45
 87c:	8c bd       	out	0x2c, r24	; 44
 87e:	d6 de       	rcall	.-596    	; 0x62c <APP_ISR3>
 880:	ff 91       	pop	r31
 882:	ef 91       	pop	r30
 884:	bf 91       	pop	r27
 886:	af 91       	pop	r26
 888:	9f 91       	pop	r25
 88a:	8f 91       	pop	r24
 88c:	7f 91       	pop	r23
 88e:	6f 91       	pop	r22
 890:	5f 91       	pop	r21
 892:	4f 91       	pop	r20
 894:	3f 91       	pop	r19
 896:	2f 91       	pop	r18
 898:	0f 90       	pop	r0
 89a:	0f be       	out	0x3f, r0	; 63
 89c:	0f 90       	pop	r0
 89e:	1f 90       	pop	r1
 8a0:	18 95       	reti

000008a2 <__vector_1>:
 8a2:	1f 92       	push	r1
 8a4:	0f 92       	push	r0
 8a6:	0f b6       	in	r0, 0x3f	; 63
 8a8:	0f 92       	push	r0
 8aa:	11 24       	eor	r1, r1
 8ac:	2f 93       	push	r18
 8ae:	3f 93       	push	r19
 8b0:	4f 93       	push	r20
 8b2:	5f 93       	push	r21
 8b4:	6f 93       	push	r22
 8b6:	7f 93       	push	r23
 8b8:	8f 93       	push	r24
 8ba:	9f 93       	push	r25
 8bc:	af 93       	push	r26
 8be:	bf 93       	push	r27
 8c0:	ef 93       	push	r30
 8c2:	ff 93       	push	r31
 8c4:	af de       	rcall	.-674    	; 0x624 <APP_ISR1>
 8c6:	ff 91       	pop	r31
 8c8:	ef 91       	pop	r30
 8ca:	bf 91       	pop	r27
 8cc:	af 91       	pop	r26
 8ce:	9f 91       	pop	r25
 8d0:	8f 91       	pop	r24
 8d2:	7f 91       	pop	r23
 8d4:	6f 91       	pop	r22
 8d6:	5f 91       	pop	r21
 8d8:	4f 91       	pop	r20
 8da:	3f 91       	pop	r19
 8dc:	2f 91       	pop	r18
 8de:	0f 90       	pop	r0
 8e0:	0f be       	out	0x3f, r0	; 63
 8e2:	0f 90       	pop	r0
 8e4:	1f 90       	pop	r1
 8e6:	18 95       	reti

000008e8 <__vector_2>:
 8e8:	1f 92       	push	r1
 8ea:	0f 92       	push	r0
 8ec:	0f b6       	in	r0, 0x3f	; 63
 8ee:	0f 92       	push	r0
 8f0:	11 24       	eor	r1, r1
 8f2:	2f 93       	push	r18
 8f4:	3f 93       	push	r19
 8f6:	4f 93       	push	r20
 8f8:	5f 93       	push	r21
 8fa:	6f 93       	push	r22
 8fc:	7f 93       	push	r23
 8fe:	8f 93       	push	r24
 900:	9f 93       	push	r25
 902:	af 93       	push	r26
 904:	bf 93       	push	r27
 906:	ef 93       	push	r30
 908:	ff 93       	push	r31
 90a:	8e de       	rcall	.-740    	; 0x628 <APP_ISR2>
 90c:	ff 91       	pop	r31
 90e:	ef 91       	pop	r30
 910:	bf 91       	pop	r27
 912:	af 91       	pop	r26
 914:	9f 91       	pop	r25
 916:	8f 91       	pop	r24
 918:	7f 91       	pop	r23
 91a:	6f 91       	pop	r22
 91c:	5f 91       	pop	r21
 91e:	4f 91       	pop	r20
 920:	3f 91       	pop	r19
 922:	2f 91       	pop	r18
 924:	0f 90       	pop	r0
 926:	0f be       	out	0x3f, r0	; 63
 928:	0f 90       	pop	r0
 92a:	1f 90       	pop	r1
 92c:	18 95       	reti

0000092e <main>:
 92e:	8c de       	rcall	.-744    	; 0x648 <Start_App>
 930:	80 e0       	ldi	r24, 0x00	; 0
 932:	90 e0       	ldi	r25, 0x00	; 0
 934:	08 95       	ret

00000936 <__mulsi3>:
 936:	62 9f       	mul	r22, r18
 938:	d0 01       	movw	r26, r0
 93a:	73 9f       	mul	r23, r19
 93c:	f0 01       	movw	r30, r0
 93e:	82 9f       	mul	r24, r18
 940:	e0 0d       	add	r30, r0
 942:	f1 1d       	adc	r31, r1
 944:	64 9f       	mul	r22, r20
 946:	e0 0d       	add	r30, r0
 948:	f1 1d       	adc	r31, r1
 94a:	92 9f       	mul	r25, r18
 94c:	f0 0d       	add	r31, r0
 94e:	83 9f       	mul	r24, r19
 950:	f0 0d       	add	r31, r0
 952:	74 9f       	mul	r23, r20
 954:	f0 0d       	add	r31, r0
 956:	65 9f       	mul	r22, r21
 958:	f0 0d       	add	r31, r0
 95a:	99 27       	eor	r25, r25
 95c:	72 9f       	mul	r23, r18
 95e:	b0 0d       	add	r27, r0
 960:	e1 1d       	adc	r30, r1
 962:	f9 1f       	adc	r31, r25
 964:	63 9f       	mul	r22, r19
 966:	b0 0d       	add	r27, r0
 968:	e1 1d       	adc	r30, r1
 96a:	f9 1f       	adc	r31, r25
 96c:	bd 01       	movw	r22, r26
 96e:	cf 01       	movw	r24, r30
 970:	11 24       	eor	r1, r1
 972:	08 95       	ret

00000974 <__udivmodhi4>:
 974:	aa 1b       	sub	r26, r26
 976:	bb 1b       	sub	r27, r27
 978:	51 e1       	ldi	r21, 0x11	; 17
 97a:	07 c0       	rjmp	.+14     	; 0x98a <__udivmodhi4_ep>

0000097c <__udivmodhi4_loop>:
 97c:	aa 1f       	adc	r26, r26
 97e:	bb 1f       	adc	r27, r27
 980:	a6 17       	cp	r26, r22
 982:	b7 07       	cpc	r27, r23
 984:	10 f0       	brcs	.+4      	; 0x98a <__udivmodhi4_ep>
 986:	a6 1b       	sub	r26, r22
 988:	b7 0b       	sbc	r27, r23

0000098a <__udivmodhi4_ep>:
 98a:	88 1f       	adc	r24, r24
 98c:	99 1f       	adc	r25, r25
 98e:	5a 95       	dec	r21
 990:	a9 f7       	brne	.-22     	; 0x97c <__udivmodhi4_loop>
 992:	80 95       	com	r24
 994:	90 95       	com	r25
 996:	bc 01       	movw	r22, r24
 998:	cd 01       	movw	r24, r26
 99a:	08 95       	ret

0000099c <__udivmodsi4>:
 99c:	a1 e2       	ldi	r26, 0x21	; 33
 99e:	1a 2e       	mov	r1, r26
 9a0:	aa 1b       	sub	r26, r26
 9a2:	bb 1b       	sub	r27, r27
 9a4:	fd 01       	movw	r30, r26
 9a6:	0d c0       	rjmp	.+26     	; 0x9c2 <__udivmodsi4_ep>

000009a8 <__udivmodsi4_loop>:
 9a8:	aa 1f       	adc	r26, r26
 9aa:	bb 1f       	adc	r27, r27
 9ac:	ee 1f       	adc	r30, r30
 9ae:	ff 1f       	adc	r31, r31
 9b0:	a2 17       	cp	r26, r18
 9b2:	b3 07       	cpc	r27, r19
 9b4:	e4 07       	cpc	r30, r20
 9b6:	f5 07       	cpc	r31, r21
 9b8:	20 f0       	brcs	.+8      	; 0x9c2 <__udivmodsi4_ep>
 9ba:	a2 1b       	sub	r26, r18
 9bc:	b3 0b       	sbc	r27, r19
 9be:	e4 0b       	sbc	r30, r20
 9c0:	f5 0b       	sbc	r31, r21

000009c2 <__udivmodsi4_ep>:
 9c2:	66 1f       	adc	r22, r22
 9c4:	77 1f       	adc	r23, r23
 9c6:	88 1f       	adc	r24, r24
 9c8:	99 1f       	adc	r25, r25
 9ca:	1a 94       	dec	r1
 9cc:	69 f7       	brne	.-38     	; 0x9a8 <__udivmodsi4_loop>
 9ce:	60 95       	com	r22
 9d0:	70 95       	com	r23
 9d2:	80 95       	com	r24
 9d4:	90 95       	com	r25
 9d6:	9b 01       	movw	r18, r22
 9d8:	ac 01       	movw	r20, r24
 9da:	bd 01       	movw	r22, r26
 9dc:	cf 01       	movw	r24, r30
 9de:	08 95       	ret

000009e0 <_exit>:
 9e0:	f8 94       	cli

000009e2 <__stop_program>:
 9e2:	ff cf       	rjmp	.-2      	; 0x9e2 <__stop_program>
