
BicMeter.elf:     file format elf32-avr

Sections:
Idx Name          Size      VMA       LMA       File off  Algn
  0 .text         00000c6e  00000000  00000000  00000094  2**1
                  CONTENTS, ALLOC, LOAD, READONLY, CODE
  1 .data         00000040  00800060  00000c6e  00000d02  2**0
                  CONTENTS, ALLOC, LOAD, DATA
  2 .bss          0000007e  008000a0  008000a0  00000d42  2**0
                  ALLOC
  3 .stab         000006cc  00000000  00000000  00000d44  2**2
                  CONTENTS, READONLY, DEBUGGING
  4 .stabstr      00000085  00000000  00000000  00001410  2**0
                  CONTENTS, READONLY, DEBUGGING
  5 .debug_aranges 000000c0  00000000  00000000  00001498  2**3
                  CONTENTS, READONLY, DEBUGGING
  6 .debug_info   0000052e  00000000  00000000  00001558  2**0
                  CONTENTS, READONLY, DEBUGGING
  7 .debug_abbrev 00000078  00000000  00000000  00001a86  2**0
                  CONTENTS, READONLY, DEBUGGING
  8 .debug_line   0000038e  00000000  00000000  00001afe  2**0
                  CONTENTS, READONLY, DEBUGGING

Disassembly of section .text:

00000000 <__vectors>:
   0:	12 c0       	rjmp	.+36     	; 0x26 <__ctors_end>
   2:	94 c5       	rjmp	.+2856   	; 0xb2c <__vector_1>
   4:	b6 c5       	rjmp	.+2924   	; 0xb72 <__vector_2>
   6:	2a c0       	rjmp	.+84     	; 0x5c <__bad_interrupt>
   8:	29 c0       	rjmp	.+82     	; 0x5c <__bad_interrupt>
   a:	28 c0       	rjmp	.+80     	; 0x5c <__bad_interrupt>
   c:	27 c0       	rjmp	.+78     	; 0x5c <__bad_interrupt>
   e:	26 c0       	rjmp	.+76     	; 0x5c <__bad_interrupt>
  10:	66 c5       	rjmp	.+2764   	; 0xade <__vector_8>
  12:	40 c5       	rjmp	.+2688   	; 0xa94 <__vector_9>
  14:	23 c0       	rjmp	.+70     	; 0x5c <__bad_interrupt>
  16:	22 c0       	rjmp	.+68     	; 0x5c <__bad_interrupt>
  18:	21 c0       	rjmp	.+66     	; 0x5c <__bad_interrupt>
  1a:	20 c0       	rjmp	.+64     	; 0x5c <__bad_interrupt>
  1c:	1f c0       	rjmp	.+62     	; 0x5c <__bad_interrupt>
  1e:	1e c0       	rjmp	.+60     	; 0x5c <__bad_interrupt>
  20:	1d c0       	rjmp	.+58     	; 0x5c <__bad_interrupt>
  22:	1c c0       	rjmp	.+56     	; 0x5c <__bad_interrupt>
  24:	1b c0       	rjmp	.+54     	; 0x5c <__bad_interrupt>

00000026 <__ctors_end>:
  26:	11 24       	eor	r1, r1
  28:	1f be       	out	0x3f, r1	; 63
  2a:	cf e5       	ldi	r28, 0x5F	; 95
  2c:	d4 e0       	ldi	r29, 0x04	; 4
  2e:	de bf       	out	0x3e, r29	; 62
  30:	cd bf       	out	0x3d, r28	; 61

00000032 <__do_copy_data>:
  32:	10 e0       	ldi	r17, 0x00	; 0
  34:	a0 e6       	ldi	r26, 0x60	; 96
  36:	b0 e0       	ldi	r27, 0x00	; 0
  38:	ee e6       	ldi	r30, 0x6E	; 110
  3a:	fc e0       	ldi	r31, 0x0C	; 12
  3c:	02 c0       	rjmp	.+4      	; 0x42 <__SREG__+0x3>
  3e:	05 90       	lpm	r0, Z+
  40:	0d 92       	st	X+, r0
  42:	a0 3a       	cpi	r26, 0xA0	; 160
  44:	b1 07       	cpc	r27, r17
  46:	d9 f7       	brne	.-10     	; 0x3e <__SP_H__>

00000048 <__do_clear_bss>:
  48:	11 e0       	ldi	r17, 0x01	; 1
  4a:	a0 ea       	ldi	r26, 0xA0	; 160
  4c:	b0 e0       	ldi	r27, 0x00	; 0
  4e:	01 c0       	rjmp	.+2      	; 0x52 <.do_clear_bss_start>

00000050 <.do_clear_bss_loop>:
  50:	1d 92       	st	X+, r1

00000052 <.do_clear_bss_start>:
  52:	ae 31       	cpi	r26, 0x1E	; 30
  54:	b1 07       	cpc	r27, r17
  56:	e1 f7       	brne	.-8      	; 0x50 <.do_clear_bss_loop>
  58:	af d5       	rcall	.+2910   	; 0xbb8 <main>
  5a:	07 c6       	rjmp	.+3086   	; 0xc6a <_exit>

0000005c <__bad_interrupt>:
  5c:	d1 cf       	rjmp	.-94     	; 0x0 <__vectors>

0000005e <IncrementDecrementSingleDigit>:
  5e:	cf 92       	push	r12
  60:	df 92       	push	r13
  62:	ef 92       	push	r14
  64:	ff 92       	push	r15
  66:	0f 93       	push	r16
  68:	1f 93       	push	r17
  6a:	cf 93       	push	r28
  6c:	df 93       	push	r29
  6e:	00 d0       	rcall	.+0      	; 0x70 <IncrementDecrementSingleDigit+0x12>
  70:	00 d0       	rcall	.+0      	; 0x72 <IncrementDecrementSingleDigit+0x14>
  72:	cd b7       	in	r28, 0x3d	; 61
  74:	de b7       	in	r29, 0x3e	; 62
  76:	9c 01       	movw	r18, r24
  78:	16 2f       	mov	r17, r22
  7a:	04 2f       	mov	r16, r20
  7c:	6e 01       	movw	r12, r28
  7e:	08 94       	sec
  80:	c1 1c       	adc	r12, r1
  82:	d1 1c       	adc	r13, r1
  84:	f6 01       	movw	r30, r12
  86:	44 e0       	ldi	r20, 0x04	; 4
  88:	aa e0       	ldi	r26, 0x0A	; 10
  8a:	ea 2e       	mov	r14, r26
  8c:	f1 2c       	mov	r15, r1
  8e:	21 15       	cp	r18, r1
  90:	31 05       	cpc	r19, r1
  92:	69 f0       	breq	.+26     	; 0xae <IncrementDecrementSingleDigit+0x50>
  94:	c9 01       	movw	r24, r18
  96:	b7 01       	movw	r22, r14
  98:	b2 d5       	rcall	.+2916   	; 0xbfe <__udivmodhi4>
  9a:	96 2f       	mov	r25, r22
  9c:	99 0f       	add	r25, r25
  9e:	89 2f       	mov	r24, r25
  a0:	88 0f       	add	r24, r24
  a2:	88 0f       	add	r24, r24
  a4:	89 0f       	add	r24, r25
  a6:	28 1b       	sub	r18, r24
  a8:	20 83       	st	Z, r18
  aa:	9b 01       	movw	r18, r22
  ac:	01 c0       	rjmp	.+2      	; 0xb0 <IncrementDecrementSingleDigit+0x52>
  ae:	10 82       	st	Z, r1
  b0:	41 50       	subi	r20, 0x01	; 1
  b2:	31 96       	adiw	r30, 0x01	; 1
  b4:	44 23       	and	r20, r20
  b6:	59 f7       	brne	.-42     	; 0x8e <IncrementDecrementSingleDigit+0x30>
  b8:	e1 2f       	mov	r30, r17
  ba:	f0 e0       	ldi	r31, 0x00	; 0
  bc:	00 23       	and	r16, r16
  be:	69 f4       	brne	.+26     	; 0xda <IncrementDecrementSingleDigit+0x7c>
  c0:	81 e0       	ldi	r24, 0x01	; 1
  c2:	90 e0       	ldi	r25, 0x00	; 0
  c4:	8c 0f       	add	r24, r28
  c6:	9d 1f       	adc	r25, r29
  c8:	e8 0f       	add	r30, r24
  ca:	f9 1f       	adc	r31, r25
  cc:	80 81       	ld	r24, Z
  ce:	88 23       	and	r24, r24
  d0:	11 f4       	brne	.+4      	; 0xd6 <IncrementDecrementSingleDigit+0x78>
  d2:	89 e0       	ldi	r24, 0x09	; 9
  d4:	0e c0       	rjmp	.+28     	; 0xf2 <IncrementDecrementSingleDigit+0x94>
  d6:	81 50       	subi	r24, 0x01	; 1
  d8:	0c c0       	rjmp	.+24     	; 0xf2 <IncrementDecrementSingleDigit+0x94>
  da:	a1 e0       	ldi	r26, 0x01	; 1
  dc:	b0 e0       	ldi	r27, 0x00	; 0
  de:	ac 0f       	add	r26, r28
  e0:	bd 1f       	adc	r27, r29
  e2:	ea 0f       	add	r30, r26
  e4:	fb 1f       	adc	r31, r27
  e6:	80 81       	ld	r24, Z
  e8:	89 30       	cpi	r24, 0x09	; 9
  ea:	11 f4       	brne	.+4      	; 0xf0 <IncrementDecrementSingleDigit+0x92>
  ec:	10 82       	st	Z, r1
  ee:	02 c0       	rjmp	.+4      	; 0xf4 <IncrementDecrementSingleDigit+0x96>
  f0:	8f 5f       	subi	r24, 0xFF	; 255
  f2:	80 83       	st	Z, r24
  f4:	20 e0       	ldi	r18, 0x00	; 0
  f6:	60 e0       	ldi	r22, 0x00	; 0
  f8:	70 e0       	ldi	r23, 0x00	; 0
  fa:	1e c0       	rjmp	.+60     	; 0x138 <IncrementDecrementSingleDigit+0xda>
  fc:	ca 01       	movw	r24, r20
  fe:	88 0f       	add	r24, r24
 100:	99 1f       	adc	r25, r25
 102:	f3 e0       	ldi	r31, 0x03	; 3
 104:	44 0f       	add	r20, r20
 106:	55 1f       	adc	r21, r21
 108:	fa 95       	dec	r31
 10a:	e1 f7       	brne	.-8      	; 0x104 <IncrementDecrementSingleDigit+0xa6>
 10c:	48 0f       	add	r20, r24
 10e:	59 1f       	adc	r21, r25
 110:	ef 5f       	subi	r30, 0xFF	; 255
 112:	e2 17       	cp	r30, r18
 114:	99 f7       	brne	.-26     	; 0xfc <IncrementDecrementSingleDigit+0x9e>
 116:	d6 01       	movw	r26, r12
 118:	8d 91       	ld	r24, X+
 11a:	6d 01       	movw	r12, r26
 11c:	90 e0       	ldi	r25, 0x00	; 0
 11e:	48 9f       	mul	r20, r24
 120:	90 01       	movw	r18, r0
 122:	49 9f       	mul	r20, r25
 124:	30 0d       	add	r19, r0
 126:	58 9f       	mul	r21, r24
 128:	30 0d       	add	r19, r0
 12a:	11 24       	eor	r1, r1
 12c:	62 0f       	add	r22, r18
 12e:	73 1f       	adc	r23, r19
 130:	2e 2f       	mov	r18, r30
 132:	2f 5f       	subi	r18, 0xFF	; 255
 134:	24 30       	cpi	r18, 0x04	; 4
 136:	21 f0       	breq	.+8      	; 0x140 <IncrementDecrementSingleDigit+0xe2>
 138:	41 e0       	ldi	r20, 0x01	; 1
 13a:	50 e0       	ldi	r21, 0x00	; 0
 13c:	e0 e0       	ldi	r30, 0x00	; 0
 13e:	e9 cf       	rjmp	.-46     	; 0x112 <IncrementDecrementSingleDigit+0xb4>
 140:	cb 01       	movw	r24, r22
 142:	0f 90       	pop	r0
 144:	0f 90       	pop	r0
 146:	0f 90       	pop	r0
 148:	0f 90       	pop	r0
 14a:	df 91       	pop	r29
 14c:	cf 91       	pop	r28
 14e:	1f 91       	pop	r17
 150:	0f 91       	pop	r16
 152:	ff 90       	pop	r15
 154:	ef 90       	pop	r14
 156:	df 90       	pop	r13
 158:	cf 90       	pop	r12
 15a:	08 95       	ret

0000015c <APP_INITIALIZE>:
 15c:	81 e0       	ldi	r24, 0x01	; 1
 15e:	60 ea       	ldi	r22, 0xA0	; 160
 160:	70 e0       	ldi	r23, 0x00	; 0
 162:	42 e0       	ldi	r20, 0x02	; 2
 164:	d2 d1       	rcall	.+932    	; 0x50a <Eeprom_Read_Block>
 166:	80 91 a0 00 	lds	r24, 0x00A0
 16a:	90 91 a1 00 	lds	r25, 0x00A1
 16e:	27 e2       	ldi	r18, 0x27	; 39
 170:	80 31       	cpi	r24, 0x10	; 16
 172:	92 07       	cpc	r25, r18
 174:	20 f0       	brcs	.+8      	; 0x17e <APP_INITIALIZE+0x22>
 176:	10 92 a1 00 	sts	0x00A1, r1
 17a:	10 92 a0 00 	sts	0x00A0, r1
 17e:	08 95       	ret

00000180 <APP_MANAGE>:
 180:	cf 92       	push	r12
 182:	df 92       	push	r13
 184:	ef 92       	push	r14
 186:	ff 92       	push	r15
 188:	cf 93       	push	r28
 18a:	df 93       	push	r29
 18c:	80 91 a0 00 	lds	r24, 0x00A0
 190:	90 91 a1 00 	lds	r25, 0x00A1
 194:	4c d3       	rcall	.+1688   	; 0x82e <SetCircumfirunce>
 196:	81 e0       	ldi	r24, 0x01	; 1
 198:	4f d3       	rcall	.+1694   	; 0x838 <GetAvgSpeed>
 19a:	ec 01       	movw	r28, r24
 19c:	3f d3       	rcall	.+1662   	; 0x81c <GetDistance>
 19e:	6b 01       	movw	r12, r22
 1a0:	7c 01       	movw	r14, r24
 1a2:	80 91 a2 00 	lds	r24, 0x00A2
 1a6:	90 91 a3 00 	lds	r25, 0x00A3
 1aa:	00 97       	sbiw	r24, 0x00	; 0
 1ac:	b1 f4       	brne	.+44     	; 0x1da <APP_MANAGE+0x5a>
 1ae:	ce 01       	movw	r24, r28
 1b0:	60 e0       	ldi	r22, 0x00	; 0
 1b2:	41 e0       	ldi	r20, 0x01	; 1
 1b4:	21 e0       	ldi	r18, 0x01	; 1
 1b6:	6c d0       	rcall	.+216    	; 0x290 <BCDsendNumber>
 1b8:	c6 01       	movw	r24, r12
 1ba:	61 e0       	ldi	r22, 0x01	; 1
 1bc:	41 e0       	ldi	r20, 0x01	; 1
 1be:	21 e0       	ldi	r18, 0x01	; 1
 1c0:	67 d0       	rcall	.+206    	; 0x290 <BCDsendNumber>
 1c2:	80 e0       	ldi	r24, 0x00	; 0
 1c4:	fa d1       	rcall	.+1012   	; 0x5ba <GetKeyStatus>
 1c6:	82 38       	cpi	r24, 0x82	; 130
 1c8:	09 f0       	breq	.+2      	; 0x1cc <APP_MANAGE+0x4c>
 1ca:	58 c0       	rjmp	.+176    	; 0x27c <APP_MANAGE+0xfc>
 1cc:	81 e0       	ldi	r24, 0x01	; 1
 1ce:	90 e0       	ldi	r25, 0x00	; 0
 1d0:	90 93 a3 00 	sts	0x00A3, r25
 1d4:	80 93 a2 00 	sts	0x00A2, r24
 1d8:	51 c0       	rjmp	.+162    	; 0x27c <APP_MANAGE+0xfc>
 1da:	80 91 a0 00 	lds	r24, 0x00A0
 1de:	90 91 a1 00 	lds	r25, 0x00A1
 1e2:	61 e0       	ldi	r22, 0x01	; 1
 1e4:	40 e0       	ldi	r20, 0x00	; 0
 1e6:	20 e0       	ldi	r18, 0x00	; 0
 1e8:	53 d0       	rcall	.+166    	; 0x290 <BCDsendNumber>
 1ea:	80 91 a4 00 	lds	r24, 0x00A4
 1ee:	61 e0       	ldi	r22, 0x01	; 1
 1f0:	44 e6       	ldi	r20, 0x64	; 100
 1f2:	08 d1       	rcall	.+528    	; 0x404 <BlinkDigit>
 1f4:	80 e0       	ldi	r24, 0x00	; 0
 1f6:	e1 d1       	rcall	.+962    	; 0x5ba <GetKeyStatus>
 1f8:	80 34       	cpi	r24, 0x40	; 64
 1fa:	89 f4       	brne	.+34     	; 0x21e <APP_MANAGE+0x9e>
 1fc:	80 91 a4 00 	lds	r24, 0x00A4
 200:	90 91 a5 00 	lds	r25, 0x00A5
 204:	01 96       	adiw	r24, 0x01	; 1
 206:	90 93 a5 00 	sts	0x00A5, r25
 20a:	80 93 a4 00 	sts	0x00A4, r24
 20e:	84 30       	cpi	r24, 0x04	; 4
 210:	91 05       	cpc	r25, r1
 212:	a1 f5       	brne	.+104    	; 0x27c <APP_MANAGE+0xfc>
 214:	10 92 a5 00 	sts	0x00A5, r1
 218:	10 92 a4 00 	sts	0x00A4, r1
 21c:	2f c0       	rjmp	.+94     	; 0x27c <APP_MANAGE+0xfc>
 21e:	81 e0       	ldi	r24, 0x01	; 1
 220:	cc d1       	rcall	.+920    	; 0x5ba <GetKeyStatus>
 222:	c8 2f       	mov	r28, r24
 224:	82 e0       	ldi	r24, 0x02	; 2
 226:	c9 d1       	rcall	.+914    	; 0x5ba <GetKeyStatus>
 228:	c2 38       	cpi	r28, 0x82	; 130
 22a:	81 f4       	brne	.+32     	; 0x24c <APP_MANAGE+0xcc>
 22c:	81 e0       	ldi	r24, 0x01	; 1
 22e:	60 ea       	ldi	r22, 0xA0	; 160
 230:	70 e0       	ldi	r23, 0x00	; 0
 232:	42 e0       	ldi	r20, 0x02	; 2
 234:	20 e0       	ldi	r18, 0x00	; 0
 236:	30 e0       	ldi	r19, 0x00	; 0
 238:	47 d1       	rcall	.+654    	; 0x4c8 <Eeprom_Write_Block>
 23a:	81 e0       	ldi	r24, 0x01	; 1
 23c:	61 e0       	ldi	r22, 0x01	; 1
 23e:	40 e0       	ldi	r20, 0x00	; 0
 240:	e1 d0       	rcall	.+450    	; 0x404 <BlinkDigit>
 242:	10 92 a3 00 	sts	0x00A3, r1
 246:	10 92 a2 00 	sts	0x00A2, r1
 24a:	18 c0       	rjmp	.+48     	; 0x27c <APP_MANAGE+0xfc>
 24c:	c0 34       	cpi	r28, 0x40	; 64
 24e:	41 f4       	brne	.+16     	; 0x260 <APP_MANAGE+0xe0>
 250:	80 91 a0 00 	lds	r24, 0x00A0
 254:	90 91 a1 00 	lds	r25, 0x00A1
 258:	60 91 a4 00 	lds	r22, 0x00A4
 25c:	40 e0       	ldi	r20, 0x00	; 0
 25e:	09 c0       	rjmp	.+18     	; 0x272 <APP_MANAGE+0xf2>
 260:	80 34       	cpi	r24, 0x40	; 64
 262:	61 f4       	brne	.+24     	; 0x27c <APP_MANAGE+0xfc>
 264:	80 91 a0 00 	lds	r24, 0x00A0
 268:	90 91 a1 00 	lds	r25, 0x00A1
 26c:	60 91 a4 00 	lds	r22, 0x00A4
 270:	41 e0       	ldi	r20, 0x01	; 1
 272:	f5 de       	rcall	.-534    	; 0x5e <IncrementDecrementSingleDigit>
 274:	90 93 a1 00 	sts	0x00A1, r25
 278:	80 93 a0 00 	sts	0x00A0, r24
 27c:	df 91       	pop	r29
 27e:	cf 91       	pop	r28
 280:	ff 90       	pop	r15
 282:	ef 90       	pop	r14
 284:	df 90       	pop	r13
 286:	cf 90       	pop	r12
 288:	08 95       	ret

0000028a <BCDInitialize>:
 28a:	80 93 a6 00 	sts	0x00A6, r24
 28e:	08 95       	ret

00000290 <BCDsendNumber>:
 290:	cf 92       	push	r12
 292:	df 92       	push	r13
 294:	ef 92       	push	r14
 296:	ff 92       	push	r15
 298:	0f 93       	push	r16
 29a:	1f 93       	push	r17
 29c:	cf 93       	push	r28
 29e:	df 93       	push	r29
 2a0:	32 2f       	mov	r19, r18
 2a2:	06 2f       	mov	r16, r22
 2a4:	10 e0       	ldi	r17, 0x00	; 0
 2a6:	e8 01       	movw	r28, r16
 2a8:	63 e0       	ldi	r22, 0x03	; 3
 2aa:	cc 0f       	add	r28, r28
 2ac:	dd 1f       	adc	r29, r29
 2ae:	6a 95       	dec	r22
 2b0:	e1 f7       	brne	.-8      	; 0x2aa <BCDsendNumber+0x1a>
 2b2:	c9 55       	subi	r28, 0x59	; 89
 2b4:	df 4f       	sbci	r29, 0xFF	; 255
 2b6:	fc 01       	movw	r30, r24
 2b8:	20 e0       	ldi	r18, 0x00	; 0
 2ba:	7a e0       	ldi	r23, 0x0A	; 10
 2bc:	e7 2e       	mov	r14, r23
 2be:	f1 2c       	mov	r15, r1
 2c0:	ac ef       	ldi	r26, 0xFC	; 252
 2c2:	ca 2e       	mov	r12, r26
 2c4:	d1 2c       	mov	r13, r1
 2c6:	30 97       	sbiw	r30, 0x00	; 0
 2c8:	11 f4       	brne	.+4      	; 0x2ce <BCDsendNumber+0x3e>
 2ca:	42 17       	cp	r20, r18
 2cc:	b8 f0       	brcs	.+46     	; 0x2fc <BCDsendNumber+0x6c>
 2ce:	cf 01       	movw	r24, r30
 2d0:	b7 01       	movw	r22, r14
 2d2:	95 d4       	rcall	.+2346   	; 0xbfe <__udivmodhi4>
 2d4:	cb 01       	movw	r24, r22
 2d6:	db 01       	movw	r26, r22
 2d8:	aa 0f       	add	r26, r26
 2da:	bb 1f       	adc	r27, r27
 2dc:	53 e0       	ldi	r21, 0x03	; 3
 2de:	88 0f       	add	r24, r24
 2e0:	99 1f       	adc	r25, r25
 2e2:	5a 95       	dec	r21
 2e4:	e1 f7       	brne	.-8      	; 0x2de <BCDsendNumber+0x4e>
 2e6:	a8 0f       	add	r26, r24
 2e8:	b9 1f       	adc	r27, r25
 2ea:	ea 1b       	sub	r30, r26
 2ec:	fb 0b       	sbc	r31, r27
 2ee:	e0 5a       	subi	r30, 0xA0	; 160
 2f0:	ff 4f       	sbci	r31, 0xFF	; 255
 2f2:	80 81       	ld	r24, Z
 2f4:	88 83       	st	Y, r24
 2f6:	19 82       	std	Y+1, r1	; 0x01
 2f8:	fb 01       	movw	r30, r22
 2fa:	07 c0       	rjmp	.+14     	; 0x30a <BCDsendNumber+0x7a>
 2fc:	33 23       	and	r19, r19
 2fe:	19 f4       	brne	.+6      	; 0x306 <BCDsendNumber+0x76>
 300:	d9 82       	std	Y+1, r13	; 0x01
 302:	c8 82       	st	Y, r12
 304:	02 c0       	rjmp	.+4      	; 0x30a <BCDsendNumber+0x7a>
 306:	19 82       	std	Y+1, r1	; 0x01
 308:	18 82       	st	Y, r1
 30a:	2f 5f       	subi	r18, 0xFF	; 255
 30c:	22 96       	adiw	r28, 0x02	; 2
 30e:	24 30       	cpi	r18, 0x04	; 4
 310:	d1 f6       	brne	.-76     	; 0x2c6 <BCDsendNumber+0x36>
 312:	44 23       	and	r20, r20
 314:	81 f0       	breq	.+32     	; 0x336 <BCDsendNumber+0xa6>
 316:	f8 01       	movw	r30, r16
 318:	ee 0f       	add	r30, r30
 31a:	ff 1f       	adc	r31, r31
 31c:	ee 0f       	add	r30, r30
 31e:	ff 1f       	adc	r31, r31
 320:	e4 0f       	add	r30, r20
 322:	f1 1d       	adc	r31, r1
 324:	ee 0f       	add	r30, r30
 326:	ff 1f       	adc	r31, r31
 328:	e9 55       	subi	r30, 0x59	; 89
 32a:	ff 4f       	sbci	r31, 0xFF	; 255
 32c:	80 81       	ld	r24, Z
 32e:	91 81       	ldd	r25, Z+1	; 0x01
 330:	81 60       	ori	r24, 0x01	; 1
 332:	91 83       	std	Z+1, r25	; 0x01
 334:	80 83       	st	Z, r24
 336:	df 91       	pop	r29
 338:	cf 91       	pop	r28
 33a:	1f 91       	pop	r17
 33c:	0f 91       	pop	r16
 33e:	ff 90       	pop	r15
 340:	ef 90       	pop	r14
 342:	df 90       	pop	r13
 344:	cf 90       	pop	r12
 346:	08 95       	ret

00000348 <BCDManage7segment>:
 348:	cf 93       	push	r28
 34a:	90 91 b7 00 	lds	r25, 0x00B7
 34e:	99 23       	and	r25, r25
 350:	81 f0       	breq	.+32     	; 0x372 <BCDManage7segment+0x2a>
 352:	80 91 b8 00 	lds	r24, 0x00B8
 356:	8f 5f       	subi	r24, 0xFF	; 255
 358:	80 93 b8 00 	sts	0x00B8, r24
 35c:	89 17       	cp	r24, r25
 35e:	59 f4       	brne	.+22     	; 0x376 <BCDManage7segment+0x2e>
 360:	80 91 b9 00 	lds	r24, 0x00B9
 364:	91 e0       	ldi	r25, 0x01	; 1
 366:	89 27       	eor	r24, r25
 368:	80 93 b9 00 	sts	0x00B9, r24
 36c:	10 92 b8 00 	sts	0x00B8, r1
 370:	02 c0       	rjmp	.+4      	; 0x376 <BCDManage7segment+0x2e>
 372:	10 92 b9 00 	sts	0x00B9, r1
 376:	80 91 b9 00 	lds	r24, 0x00B9
 37a:	81 30       	cpi	r24, 0x01	; 1
 37c:	61 f4       	brne	.+24     	; 0x396 <BCDManage7segment+0x4e>
 37e:	90 91 ba 00 	lds	r25, 0x00BA
 382:	80 91 bb 00 	lds	r24, 0x00BB
 386:	98 17       	cp	r25, r24
 388:	31 f4       	brne	.+12     	; 0x396 <BCDManage7segment+0x4e>
 38a:	90 91 bc 00 	lds	r25, 0x00BC
 38e:	80 91 bd 00 	lds	r24, 0x00BD
 392:	98 17       	cp	r25, r24
 394:	89 f0       	breq	.+34     	; 0x3b8 <BCDManage7segment+0x70>
 396:	80 91 ba 00 	lds	r24, 0x00BA
 39a:	e0 91 bd 00 	lds	r30, 0x00BD
 39e:	f0 e0       	ldi	r31, 0x00	; 0
 3a0:	ee 0f       	add	r30, r30
 3a2:	ff 1f       	adc	r31, r31
 3a4:	ee 0f       	add	r30, r30
 3a6:	ff 1f       	adc	r31, r31
 3a8:	e8 0f       	add	r30, r24
 3aa:	f1 1d       	adc	r31, r1
 3ac:	ee 0f       	add	r30, r30
 3ae:	ff 1f       	adc	r31, r31
 3b0:	e9 55       	subi	r30, 0x59	; 89
 3b2:	ff 4f       	sbci	r31, 0xFF	; 255
 3b4:	c0 81       	ld	r28, Z
 3b6:	01 c0       	rjmp	.+2      	; 0x3ba <BCDManage7segment+0x72>
 3b8:	c0 e0       	ldi	r28, 0x00	; 0
 3ba:	80 91 a6 00 	lds	r24, 0x00A6
 3be:	81 30       	cpi	r24, 0x01	; 1
 3c0:	09 f4       	brne	.+2      	; 0x3c4 <BCDManage7segment+0x7c>
 3c2:	c0 95       	com	r28
 3c4:	60 91 bd 00 	lds	r22, 0x00BD
 3c8:	66 0f       	add	r22, r22
 3ca:	66 0f       	add	r22, r22
 3cc:	80 91 ba 00 	lds	r24, 0x00BA
 3d0:	68 0f       	add	r22, r24
 3d2:	80 e0       	ldi	r24, 0x00	; 0
 3d4:	07 d3       	rcall	.+1550   	; 0x9e4 <HWI_4Digit_WRITE>
 3d6:	81 e0       	ldi	r24, 0x01	; 1
 3d8:	6c 2f       	mov	r22, r28
 3da:	1d d3       	rcall	.+1594   	; 0xa16 <HWI_8Digit_WRITE>
 3dc:	80 91 ba 00 	lds	r24, 0x00BA
 3e0:	8f 5f       	subi	r24, 0xFF	; 255
 3e2:	80 93 ba 00 	sts	0x00BA, r24
 3e6:	84 30       	cpi	r24, 0x04	; 4
 3e8:	59 f4       	brne	.+22     	; 0x400 <BCDManage7segment+0xb8>
 3ea:	10 92 ba 00 	sts	0x00BA, r1
 3ee:	80 91 bd 00 	lds	r24, 0x00BD
 3f2:	8f 5f       	subi	r24, 0xFF	; 255
 3f4:	80 93 bd 00 	sts	0x00BD, r24
 3f8:	82 30       	cpi	r24, 0x02	; 2
 3fa:	11 f4       	brne	.+4      	; 0x400 <BCDManage7segment+0xb8>
 3fc:	10 92 bd 00 	sts	0x00BD, r1
 400:	cf 91       	pop	r28
 402:	08 95       	ret

00000404 <BlinkDigit>:
 404:	80 93 bb 00 	sts	0x00BB, r24
 408:	40 93 b7 00 	sts	0x00B7, r20
 40c:	60 93 bc 00 	sts	0x00BC, r22
 410:	08 95       	ret

00000412 <Segment7SendString>:
 412:	cf 93       	push	r28
 414:	df 93       	push	r29
 416:	da 01       	movw	r26, r20
 418:	42 2f       	mov	r20, r18
 41a:	50 e0       	ldi	r21, 0x00	; 0
 41c:	48 0f       	add	r20, r24
 41e:	51 1d       	adc	r21, r1
 420:	45 30       	cpi	r20, 0x05	; 5
 422:	51 05       	cpc	r21, r1
 424:	cc f4       	brge	.+50     	; 0x458 <Segment7SendString+0x46>
 426:	70 e0       	ldi	r23, 0x00	; 0
 428:	66 0f       	add	r22, r22
 42a:	77 1f       	adc	r23, r23
 42c:	66 0f       	add	r22, r22
 42e:	77 1f       	adc	r23, r23
 430:	0e c0       	rjmp	.+28     	; 0x44e <Segment7SendString+0x3c>
 432:	fb 01       	movw	r30, r22
 434:	e2 0f       	add	r30, r18
 436:	f3 1f       	adc	r31, r19
 438:	ee 0f       	add	r30, r30
 43a:	ff 1f       	adc	r31, r31
 43c:	e9 55       	subi	r30, 0x59	; 89
 43e:	ff 4f       	sbci	r31, 0xFF	; 255
 440:	2a 0f       	add	r18, r26
 442:	3b 1f       	adc	r19, r27
 444:	e9 01       	movw	r28, r18
 446:	98 81       	ld	r25, Y
 448:	90 83       	st	Z, r25
 44a:	11 82       	std	Z+1, r1	; 0x01
 44c:	8f 5f       	subi	r24, 0xFF	; 255
 44e:	28 2f       	mov	r18, r24
 450:	30 e0       	ldi	r19, 0x00	; 0
 452:	24 17       	cp	r18, r20
 454:	35 07       	cpc	r19, r21
 456:	6c f3       	brlt	.-38     	; 0x432 <Segment7SendString+0x20>
 458:	df 91       	pop	r29
 45a:	cf 91       	pop	r28
 45c:	08 95       	ret

0000045e <DisplaySendString>:
 45e:	ef 92       	push	r14
 460:	ff 92       	push	r15
 462:	0f 93       	push	r16
 464:	1f 93       	push	r17
 466:	cf 93       	push	r28
 468:	df 93       	push	r29
 46a:	00 d0       	rcall	.+0      	; 0x46c <__stack+0xd>
 46c:	00 d0       	rcall	.+0      	; 0x46e <__stack+0xf>
 46e:	cd b7       	in	r28, 0x3d	; 61
 470:	de b7       	in	r29, 0x3e	; 62
 472:	8a 01       	movw	r16, r20
 474:	40 e0       	ldi	r20, 0x00	; 0
 476:	50 e0       	ldi	r21, 0x00	; 0
 478:	de 01       	movw	r26, r28
 47a:	11 96       	adiw	r26, 0x01	; 1
 47c:	a2 0f       	add	r26, r18
 47e:	b1 1d       	adc	r27, r1
 480:	12 c0       	rjmp	.+36     	; 0x4a6 <__stack+0x47>
 482:	f8 01       	movw	r30, r16
 484:	91 91       	ld	r25, Z+
 486:	8f 01       	movw	r16, r30
 488:	4f 5f       	subi	r20, 0xFF	; 255
 48a:	5f 4f       	sbci	r21, 0xFF	; 255
 48c:	91 54       	subi	r25, 0x41	; 65
 48e:	96 32       	cpi	r25, 0x26	; 38
 490:	50 f4       	brcc	.+20     	; 0x4a6 <__stack+0x47>
 492:	7d 01       	movw	r14, r26
 494:	e4 1a       	sub	r14, r20
 496:	f5 0a       	sbc	r15, r21
 498:	e9 2f       	mov	r30, r25
 49a:	f0 e0       	ldi	r31, 0x00	; 0
 49c:	e5 59       	subi	r30, 0x95	; 149
 49e:	ff 4f       	sbci	r31, 0xFF	; 255
 4a0:	90 81       	ld	r25, Z
 4a2:	f7 01       	movw	r30, r14
 4a4:	90 83       	st	Z, r25
 4a6:	42 17       	cp	r20, r18
 4a8:	60 f3       	brcs	.-40     	; 0x482 <__stack+0x23>
 4aa:	ae 01       	movw	r20, r28
 4ac:	4f 5f       	subi	r20, 0xFF	; 255
 4ae:	5f 4f       	sbci	r21, 0xFF	; 255
 4b0:	b0 df       	rcall	.-160    	; 0x412 <Segment7SendString>
 4b2:	0f 90       	pop	r0
 4b4:	0f 90       	pop	r0
 4b6:	0f 90       	pop	r0
 4b8:	0f 90       	pop	r0
 4ba:	df 91       	pop	r29
 4bc:	cf 91       	pop	r28
 4be:	1f 91       	pop	r17
 4c0:	0f 91       	pop	r16
 4c2:	ff 90       	pop	r15
 4c4:	ef 90       	pop	r14
 4c6:	08 95       	ret

000004c8 <Eeprom_Write_Block>:
 4c8:	90 91 be 00 	lds	r25, 0x00BE
 4cc:	99 23       	and	r25, r25
 4ce:	c9 f4       	brne	.+50     	; 0x502 <Eeprom_Write_Block+0x3a>
 4d0:	43 33       	cpi	r20, 0x33	; 51
 4d2:	c8 f4       	brcc	.+50     	; 0x506 <Eeprom_Write_Block+0x3e>
 4d4:	91 e0       	ldi	r25, 0x01	; 1
 4d6:	90 93 be 00 	sts	0x00BE, r25
 4da:	af eb       	ldi	r26, 0xBF	; 191
 4dc:	b0 e0       	ldi	r27, 0x00	; 0
 4de:	fb 01       	movw	r30, r22
 4e0:	02 c0       	rjmp	.+4      	; 0x4e6 <Eeprom_Write_Block+0x1e>
 4e2:	91 91       	ld	r25, Z+
 4e4:	9d 93       	st	X+, r25
 4e6:	9e 2f       	mov	r25, r30
 4e8:	96 1b       	sub	r25, r22
 4ea:	94 17       	cp	r25, r20
 4ec:	d0 f3       	brcs	.-12     	; 0x4e2 <Eeprom_Write_Block+0x1a>
 4ee:	40 93 f1 00 	sts	0x00F1, r20
 4f2:	80 93 f2 00 	sts	0x00F2, r24
 4f6:	30 93 f4 00 	sts	0x00F4, r19
 4fa:	20 93 f3 00 	sts	0x00F3, r18
 4fe:	81 e0       	ldi	r24, 0x01	; 1
 500:	08 95       	ret
 502:	80 e0       	ldi	r24, 0x00	; 0
 504:	08 95       	ret
 506:	80 e0       	ldi	r24, 0x00	; 0
 508:	08 95       	ret

0000050a <Eeprom_Read_Block>:
 50a:	ef 92       	push	r14
 50c:	ff 92       	push	r15
 50e:	0f 93       	push	r16
 510:	1f 93       	push	r17
 512:	cf 93       	push	r28
 514:	df 93       	push	r29
 516:	0f 92       	push	r0
 518:	cd b7       	in	r28, 0x3d	; 61
 51a:	de b7       	in	r29, 0x3e	; 62
 51c:	18 2f       	mov	r17, r24
 51e:	7b 01       	movw	r14, r22
 520:	80 91 be 00 	lds	r24, 0x00BE
 524:	88 23       	and	r24, r24
 526:	71 f0       	breq	.+28     	; 0x544 <Eeprom_Read_Block+0x3a>
 528:	80 e0       	ldi	r24, 0x00	; 0
 52a:	10 c0       	rjmp	.+32     	; 0x54c <Eeprom_Read_Block+0x42>
 52c:	b7 01       	movw	r22, r14
 52e:	60 0f       	add	r22, r16
 530:	71 1d       	adc	r23, r1
 532:	80 2f       	mov	r24, r16
 534:	81 0f       	add	r24, r17
 536:	49 83       	std	Y+1, r20	; 0x01
 538:	30 d2       	rcall	.+1120   	; 0x99a <HWIeeprom_Read>
 53a:	49 81       	ldd	r20, Y+1	; 0x01
 53c:	81 30       	cpi	r24, 0x01	; 1
 53e:	19 f4       	brne	.+6      	; 0x546 <Eeprom_Read_Block+0x3c>
 540:	0f 5f       	subi	r16, 0xFF	; 255
 542:	01 c0       	rjmp	.+2      	; 0x546 <Eeprom_Read_Block+0x3c>
 544:	00 e0       	ldi	r16, 0x00	; 0
 546:	04 17       	cp	r16, r20
 548:	88 f3       	brcs	.-30     	; 0x52c <Eeprom_Read_Block+0x22>
 54a:	81 e0       	ldi	r24, 0x01	; 1
 54c:	0f 90       	pop	r0
 54e:	df 91       	pop	r29
 550:	cf 91       	pop	r28
 552:	1f 91       	pop	r17
 554:	0f 91       	pop	r16
 556:	ff 90       	pop	r15
 558:	ef 90       	pop	r14
 55a:	08 95       	ret

0000055c <EepromManage>:
 55c:	80 91 be 00 	lds	r24, 0x00BE
 560:	81 30       	cpi	r24, 0x01	; 1
 562:	11 f5       	brne	.+68     	; 0x5a8 <EepromManage+0x4c>
 564:	80 91 f5 00 	lds	r24, 0x00F5
 568:	90 91 f1 00 	lds	r25, 0x00F1
 56c:	89 17       	cp	r24, r25
 56e:	61 f4       	brne	.+24     	; 0x588 <EepromManage+0x2c>
 570:	10 92 f5 00 	sts	0x00F5, r1
 574:	10 92 be 00 	sts	0x00BE, r1
 578:	e0 91 f3 00 	lds	r30, 0x00F3
 57c:	f0 91 f4 00 	lds	r31, 0x00F4
 580:	30 97       	sbiw	r30, 0x00	; 0
 582:	91 f0       	breq	.+36     	; 0x5a8 <EepromManage+0x4c>
 584:	09 95       	icall
 586:	08 95       	ret
 588:	90 91 f2 00 	lds	r25, 0x00F2
 58c:	e8 2f       	mov	r30, r24
 58e:	f0 e0       	ldi	r31, 0x00	; 0
 590:	e1 54       	subi	r30, 0x41	; 65
 592:	ff 4f       	sbci	r31, 0xFF	; 255
 594:	89 0f       	add	r24, r25
 596:	60 81       	ld	r22, Z
 598:	f4 d1       	rcall	.+1000   	; 0x982 <HWIeeprom_Write>
 59a:	81 30       	cpi	r24, 0x01	; 1
 59c:	29 f4       	brne	.+10     	; 0x5a8 <EepromManage+0x4c>
 59e:	80 91 f5 00 	lds	r24, 0x00F5
 5a2:	8f 5f       	subi	r24, 0xFF	; 255
 5a4:	80 93 f5 00 	sts	0x00F5, r24
 5a8:	08 95       	ret

000005aa <KeyInitialize>:
 5aa:	89 e0       	ldi	r24, 0x09	; 9
 5ac:	e6 ef       	ldi	r30, 0xF6	; 246
 5ae:	f0 e0       	ldi	r31, 0x00	; 0
 5b0:	df 01       	movw	r26, r30
 5b2:	1d 92       	st	X+, r1
 5b4:	8a 95       	dec	r24
 5b6:	e9 f7       	brne	.-6      	; 0x5b2 <KeyInitialize+0x8>
 5b8:	08 95       	ret

000005ba <GetKeyStatus>:
 5ba:	90 e0       	ldi	r25, 0x00	; 0
 5bc:	fc 01       	movw	r30, r24
 5be:	ee 0f       	add	r30, r30
 5c0:	ff 1f       	adc	r31, r31
 5c2:	e8 0f       	add	r30, r24
 5c4:	f9 1f       	adc	r31, r25
 5c6:	ea 50       	subi	r30, 0x0A	; 10
 5c8:	ff 4f       	sbci	r31, 0xFF	; 255
 5ca:	80 81       	ld	r24, Z
 5cc:	98 2f       	mov	r25, r24
 5ce:	9f 73       	andi	r25, 0x3F	; 63
 5d0:	90 83       	st	Z, r25
 5d2:	08 95       	ret

000005d4 <MangeKeys>:
 5d4:	ef 92       	push	r14
 5d6:	ff 92       	push	r15
 5d8:	0f 93       	push	r16
 5da:	1f 93       	push	r17
 5dc:	cf 93       	push	r28
 5de:	df 93       	push	r29
 5e0:	0f 92       	push	r0
 5e2:	cd b7       	in	r28, 0x3d	; 61
 5e4:	de b7       	in	r29, 0x3e	; 62
 5e6:	90 e0       	ldi	r25, 0x00	; 0
 5e8:	7c 01       	movw	r14, r24
 5ea:	ee 0c       	add	r14, r14
 5ec:	ff 1c       	adc	r15, r15
 5ee:	e8 0e       	add	r14, r24
 5f0:	f9 1e       	adc	r15, r25
 5f2:	26 ef       	ldi	r18, 0xF6	; 246
 5f4:	30 e0       	ldi	r19, 0x00	; 0
 5f6:	e2 0e       	add	r14, r18
 5f8:	f3 1e       	adc	r15, r19
 5fa:	f7 01       	movw	r30, r14
 5fc:	20 81       	ld	r18, Z
 5fe:	2f 73       	andi	r18, 0x3F	; 63
 600:	8c 01       	movw	r16, r24
 602:	43 e0       	ldi	r20, 0x03	; 3
 604:	00 0f       	add	r16, r16
 606:	11 1f       	adc	r17, r17
 608:	4a 95       	dec	r20
 60a:	e1 f7       	brne	.-8      	; 0x604 <MangeKeys+0x30>
 60c:	0b 57       	subi	r16, 0x7B	; 123
 60e:	1f 4f       	sbci	r17, 0xFF	; 255
 610:	f8 01       	movw	r30, r16
 612:	80 81       	ld	r24, Z
 614:	29 83       	std	Y+1, r18	; 0x01
 616:	d4 d1       	rcall	.+936    	; 0x9c0 <HWI_DIGI_READ>
 618:	29 81       	ldd	r18, Y+1	; 0x01
 61a:	21 30       	cpi	r18, 0x01	; 1
 61c:	f9 f0       	breq	.+62     	; 0x65c <MangeKeys+0x88>
 61e:	21 30       	cpi	r18, 0x01	; 1
 620:	20 f0       	brcs	.+8      	; 0x62a <MangeKeys+0x56>
 622:	22 30       	cpi	r18, 0x02	; 2
 624:	09 f0       	breq	.+2      	; 0x628 <MangeKeys+0x54>
 626:	5c c0       	rjmp	.+184    	; 0x6e0 <MangeKeys+0x10c>
 628:	46 c0       	rjmp	.+140    	; 0x6b6 <MangeKeys+0xe2>
 62a:	f8 01       	movw	r30, r16
 62c:	91 81       	ldd	r25, Z+1	; 0x01
 62e:	f7 01       	movw	r30, r14
 630:	98 17       	cp	r25, r24
 632:	89 f4       	brne	.+34     	; 0x656 <MangeKeys+0x82>
 634:	81 81       	ldd	r24, Z+1	; 0x01
 636:	92 81       	ldd	r25, Z+2	; 0x02
 638:	01 96       	adiw	r24, 0x01	; 1
 63a:	92 83       	std	Z+2, r25	; 0x02
 63c:	81 83       	std	Z+1, r24	; 0x01
 63e:	f8 01       	movw	r30, r16
 640:	24 81       	ldd	r18, Z+4	; 0x04
 642:	35 81       	ldd	r19, Z+5	; 0x05
 644:	28 17       	cp	r18, r24
 646:	39 07       	cpc	r19, r25
 648:	09 f0       	breq	.+2      	; 0x64c <MangeKeys+0x78>
 64a:	4c c0       	rjmp	.+152    	; 0x6e4 <MangeKeys+0x110>
 64c:	81 e8       	ldi	r24, 0x81	; 129
 64e:	f7 01       	movw	r30, r14
 650:	80 83       	st	Z, r24
 652:	f8 01       	movw	r30, r16
 654:	34 c0       	rjmp	.+104    	; 0x6be <MangeKeys+0xea>
 656:	12 82       	std	Z+2, r1	; 0x02
 658:	11 82       	std	Z+1, r1	; 0x01
 65a:	44 c0       	rjmp	.+136    	; 0x6e4 <MangeKeys+0x110>
 65c:	f8 01       	movw	r30, r16
 65e:	91 81       	ldd	r25, Z+1	; 0x01
 660:	f7 01       	movw	r30, r14
 662:	21 81       	ldd	r18, Z+1	; 0x01
 664:	32 81       	ldd	r19, Z+2	; 0x02
 666:	f8 01       	movw	r30, r16
 668:	42 81       	ldd	r20, Z+2	; 0x02
 66a:	53 81       	ldd	r21, Z+3	; 0x03
 66c:	98 17       	cp	r25, r24
 66e:	b1 f4       	brne	.+44     	; 0x69c <MangeKeys+0xc8>
 670:	24 17       	cp	r18, r20
 672:	35 07       	cpc	r19, r21
 674:	78 f0       	brcs	.+30     	; 0x694 <MangeKeys+0xc0>
 676:	2f 5f       	subi	r18, 0xFF	; 255
 678:	3f 4f       	sbci	r19, 0xFF	; 255
 67a:	f7 01       	movw	r30, r14
 67c:	32 83       	std	Z+2, r19	; 0x02
 67e:	21 83       	std	Z+1, r18	; 0x01
 680:	f8 01       	movw	r30, r16
 682:	86 81       	ldd	r24, Z+6	; 0x06
 684:	97 81       	ldd	r25, Z+7	; 0x07
 686:	82 17       	cp	r24, r18
 688:	93 07       	cpc	r25, r19
 68a:	61 f5       	brne	.+88     	; 0x6e4 <MangeKeys+0x110>
 68c:	82 e8       	ldi	r24, 0x82	; 130
 68e:	f7 01       	movw	r30, r14
 690:	80 83       	st	Z, r24
 692:	01 c0       	rjmp	.+2      	; 0x696 <MangeKeys+0xc2>
 694:	f7 01       	movw	r30, r14
 696:	52 83       	std	Z+2, r21	; 0x02
 698:	41 83       	std	Z+1, r20	; 0x01
 69a:	24 c0       	rjmp	.+72     	; 0x6e4 <MangeKeys+0x110>
 69c:	42 17       	cp	r20, r18
 69e:	53 07       	cpc	r21, r19
 6a0:	c8 f3       	brcs	.-14     	; 0x694 <MangeKeys+0xc0>
 6a2:	21 50       	subi	r18, 0x01	; 1
 6a4:	30 40       	sbci	r19, 0x00	; 0
 6a6:	f7 01       	movw	r30, r14
 6a8:	32 83       	std	Z+2, r19	; 0x02
 6aa:	21 83       	std	Z+1, r18	; 0x01
 6ac:	21 15       	cp	r18, r1
 6ae:	31 05       	cpc	r19, r1
 6b0:	c9 f4       	brne	.+50     	; 0x6e4 <MangeKeys+0x110>
 6b2:	80 e4       	ldi	r24, 0x40	; 64
 6b4:	13 c0       	rjmp	.+38     	; 0x6dc <MangeKeys+0x108>
 6b6:	f8 01       	movw	r30, r16
 6b8:	91 81       	ldd	r25, Z+1	; 0x01
 6ba:	98 17       	cp	r25, r24
 6bc:	31 f4       	brne	.+12     	; 0x6ca <MangeKeys+0xf6>
 6be:	82 81       	ldd	r24, Z+2	; 0x02
 6c0:	93 81       	ldd	r25, Z+3	; 0x03
 6c2:	f7 01       	movw	r30, r14
 6c4:	92 83       	std	Z+2, r25	; 0x02
 6c6:	81 83       	std	Z+1, r24	; 0x01
 6c8:	0d c0       	rjmp	.+26     	; 0x6e4 <MangeKeys+0x110>
 6ca:	f7 01       	movw	r30, r14
 6cc:	81 81       	ldd	r24, Z+1	; 0x01
 6ce:	92 81       	ldd	r25, Z+2	; 0x02
 6d0:	01 97       	sbiw	r24, 0x01	; 1
 6d2:	92 83       	std	Z+2, r25	; 0x02
 6d4:	81 83       	std	Z+1, r24	; 0x01
 6d6:	00 97       	sbiw	r24, 0x00	; 0
 6d8:	29 f4       	brne	.+10     	; 0x6e4 <MangeKeys+0x110>
 6da:	80 e8       	ldi	r24, 0x80	; 128
 6dc:	80 83       	st	Z, r24
 6de:	02 c0       	rjmp	.+4      	; 0x6e4 <MangeKeys+0x110>
 6e0:	f7 01       	movw	r30, r14
 6e2:	10 82       	st	Z, r1
 6e4:	0f 90       	pop	r0
 6e6:	df 91       	pop	r29
 6e8:	cf 91       	pop	r28
 6ea:	1f 91       	pop	r17
 6ec:	0f 91       	pop	r16
 6ee:	ff 90       	pop	r15
 6f0:	ef 90       	pop	r14
 6f2:	08 95       	ret

000006f4 <SpeedCalcNotifyInitialize>:
 6f4:	08 95       	ret

000006f6 <SensorOneNotify>:
 6f6:	80 91 03 01 	lds	r24, 0x0103
 6fa:	81 30       	cpi	r24, 0x01	; 1
 6fc:	19 f4       	brne	.+6      	; 0x704 <SensorOneNotify+0xe>
 6fe:	10 92 03 01 	sts	0x0103, r1
 702:	08 95       	ret
 704:	80 91 02 01 	lds	r24, 0x0102
 708:	88 23       	and	r24, r24
 70a:	29 f0       	breq	.+10     	; 0x716 <SensorOneNotify+0x20>
 70c:	80 91 02 01 	lds	r24, 0x0102
 710:	81 50       	subi	r24, 0x01	; 1
 712:	80 93 02 01 	sts	0x0102, r24
 716:	08 95       	ret

00000718 <SensorTwoNotify>:
 718:	80 91 03 01 	lds	r24, 0x0103
 71c:	88 23       	and	r24, r24
 71e:	a9 f4       	brne	.+42     	; 0x74a <SensorTwoNotify+0x32>
 720:	81 e0       	ldi	r24, 0x01	; 1
 722:	80 93 03 01 	sts	0x0103, r24
 726:	80 91 02 01 	lds	r24, 0x0102
 72a:	8f 5f       	subi	r24, 0xFF	; 255
 72c:	80 93 02 01 	sts	0x0102, r24
 730:	81 e0       	ldi	r24, 0x01	; 1
 732:	a0 d1       	rcall	.+832    	; 0xa74 <ReloadHWtimer>
 734:	90 93 01 01 	sts	0x0101, r25
 738:	80 93 00 01 	sts	0x0100, r24
 73c:	80 91 ff 00 	lds	r24, 0x00FF
 740:	80 93 04 01 	sts	0x0104, r24
 744:	10 92 ff 00 	sts	0x00FF, r1
 748:	08 95       	ret
 74a:	80 91 02 01 	lds	r24, 0x0102
 74e:	88 23       	and	r24, r24
 750:	29 f0       	breq	.+10     	; 0x75c <SensorTwoNotify+0x44>
 752:	80 91 02 01 	lds	r24, 0x0102
 756:	81 50       	subi	r24, 0x01	; 1
 758:	80 93 02 01 	sts	0x0102, r24
 75c:	08 95       	ret

0000075e <SpeedCalcManage>:
 75e:	cf 93       	push	r28
 760:	df 93       	push	r29
 762:	40 91 00 01 	lds	r20, 0x0100
 766:	50 91 01 01 	lds	r21, 0x0101
 76a:	20 91 04 01 	lds	r18, 0x0104
 76e:	30 e0       	ldi	r19, 0x00	; 0
 770:	8f e8       	ldi	r24, 0x8F	; 143
 772:	92 e0       	ldi	r25, 0x02	; 2
 774:	28 9f       	mul	r18, r24
 776:	f0 01       	movw	r30, r0
 778:	29 9f       	mul	r18, r25
 77a:	f0 0d       	add	r31, r0
 77c:	38 9f       	mul	r19, r24
 77e:	f0 0d       	add	r31, r0
 780:	11 24       	eor	r1, r1
 782:	ca 01       	movw	r24, r20
 784:	64 e6       	ldi	r22, 0x64	; 100
 786:	70 e0       	ldi	r23, 0x00	; 0
 788:	3a d2       	rcall	.+1140   	; 0xbfe <__udivmodhi4>
 78a:	e6 0f       	add	r30, r22
 78c:	f7 1f       	adc	r31, r23
 78e:	f0 93 06 01 	sts	0x0106, r31
 792:	e0 93 05 01 	sts	0x0105, r30
 796:	80 91 02 01 	lds	r24, 0x0102
 79a:	c0 91 07 01 	lds	r28, 0x0107
 79e:	d0 91 08 01 	lds	r29, 0x0108
 7a2:	c8 0f       	add	r28, r24
 7a4:	d1 1d       	adc	r29, r1
 7a6:	d0 93 08 01 	sts	0x0108, r29
 7aa:	c0 93 07 01 	sts	0x0107, r28
 7ae:	10 92 02 01 	sts	0x0102, r1
 7b2:	20 91 9d 00 	lds	r18, 0x009D
 7b6:	30 91 9e 00 	lds	r19, 0x009E
 7ba:	40 e0       	ldi	r20, 0x00	; 0
 7bc:	50 e0       	ldi	r21, 0x00	; 0
 7be:	60 ea       	ldi	r22, 0xA0	; 160
 7c0:	76 e8       	ldi	r23, 0x86	; 134
 7c2:	81 e0       	ldi	r24, 0x01	; 1
 7c4:	90 e0       	ldi	r25, 0x00	; 0
 7c6:	2f d2       	rcall	.+1118   	; 0xc26 <__udivmodsi4>
 7c8:	c2 17       	cp	r28, r18
 7ca:	d3 07       	cpc	r29, r19
 7cc:	c8 f0       	brcs	.+50     	; 0x800 <SpeedCalcManage+0xa2>
 7ce:	80 91 09 01 	lds	r24, 0x0109
 7d2:	90 91 0a 01 	lds	r25, 0x010A
 7d6:	a0 91 0b 01 	lds	r26, 0x010B
 7da:	b0 91 0c 01 	lds	r27, 0x010C
 7de:	01 96       	adiw	r24, 0x01	; 1
 7e0:	a1 1d       	adc	r26, r1
 7e2:	b1 1d       	adc	r27, r1
 7e4:	80 93 09 01 	sts	0x0109, r24
 7e8:	90 93 0a 01 	sts	0x010A, r25
 7ec:	a0 93 0b 01 	sts	0x010B, r26
 7f0:	b0 93 0c 01 	sts	0x010C, r27
 7f4:	c2 1b       	sub	r28, r18
 7f6:	d3 0b       	sbc	r29, r19
 7f8:	d0 93 08 01 	sts	0x0108, r29
 7fc:	c0 93 07 01 	sts	0x0107, r28
 800:	df 91       	pop	r29
 802:	cf 91       	pop	r28
 804:	08 95       	ret

00000806 <SetDistance>:
 806:	dc 01       	movw	r26, r24
 808:	cb 01       	movw	r24, r22
 80a:	80 93 09 01 	sts	0x0109, r24
 80e:	90 93 0a 01 	sts	0x010A, r25
 812:	a0 93 0b 01 	sts	0x010B, r26
 816:	b0 93 0c 01 	sts	0x010C, r27
 81a:	08 95       	ret

0000081c <GetDistance>:
 81c:	60 91 09 01 	lds	r22, 0x0109
 820:	70 91 0a 01 	lds	r23, 0x010A
 824:	80 91 0b 01 	lds	r24, 0x010B
 828:	90 91 0c 01 	lds	r25, 0x010C
 82c:	08 95       	ret

0000082e <SetCircumfirunce>:
 82e:	90 93 9e 00 	sts	0x009E, r25
 832:	80 93 9d 00 	sts	0x009D, r24
 836:	08 95       	ret

00000838 <GetAvgSpeed>:
 838:	cf 93       	push	r28
 83a:	df 93       	push	r29
 83c:	81 30       	cpi	r24, 0x01	; 1
 83e:	29 f4       	brne	.+10     	; 0x84a <GetAvgSpeed+0x12>
 840:	68 e6       	ldi	r22, 0x68	; 104
 842:	71 e0       	ldi	r23, 0x01	; 1
 844:	80 e0       	ldi	r24, 0x00	; 0
 846:	90 e0       	ldi	r25, 0x00	; 0
 848:	04 c0       	rjmp	.+8      	; 0x852 <GetAvgSpeed+0x1a>
 84a:	61 ee       	ldi	r22, 0xE1	; 225
 84c:	70 e0       	ldi	r23, 0x00	; 0
 84e:	80 e0       	ldi	r24, 0x00	; 0
 850:	90 e0       	ldi	r25, 0x00	; 0
 852:	c0 91 05 01 	lds	r28, 0x0105
 856:	d0 91 06 01 	lds	r29, 0x0106
 85a:	20 97       	sbiw	r28, 0x00	; 0
 85c:	69 f0       	breq	.+26     	; 0x878 <GetAvgSpeed+0x40>
 85e:	20 91 9d 00 	lds	r18, 0x009D
 862:	30 91 9e 00 	lds	r19, 0x009E
 866:	40 e0       	ldi	r20, 0x00	; 0
 868:	50 e0       	ldi	r21, 0x00	; 0
 86a:	aa d1       	rcall	.+852    	; 0xbc0 <__mulsi3>
 86c:	9e 01       	movw	r18, r28
 86e:	40 e0       	ldi	r20, 0x00	; 0
 870:	50 e0       	ldi	r21, 0x00	; 0
 872:	d9 d1       	rcall	.+946    	; 0xc26 <__udivmodsi4>
 874:	c9 01       	movw	r24, r18
 876:	02 c0       	rjmp	.+4      	; 0x87c <GetAvgSpeed+0x44>
 878:	80 e0       	ldi	r24, 0x00	; 0
 87a:	90 e0       	ldi	r25, 0x00	; 0
 87c:	20 91 ff 00 	lds	r18, 0x00FF
 880:	20 34       	cpi	r18, 0x40	; 64
 882:	11 f4       	brne	.+4      	; 0x888 <GetAvgSpeed+0x50>
 884:	80 e0       	ldi	r24, 0x00	; 0
 886:	90 e0       	ldi	r25, 0x00	; 0
 888:	df 91       	pop	r29
 88a:	cf 91       	pop	r28
 88c:	08 95       	ret

0000088e <HWtimerCallback>:
 88e:	80 91 ff 00 	lds	r24, 0x00FF
 892:	80 34       	cpi	r24, 0x40	; 64
 894:	28 f4       	brcc	.+10     	; 0x8a0 <HWtimerCallback+0x12>
 896:	80 91 ff 00 	lds	r24, 0x00FF
 89a:	8f 5f       	subi	r24, 0xFF	; 255
 89c:	80 93 ff 00 	sts	0x00FF, r24
 8a0:	08 95       	ret

000008a2 <APP_ISR1>:
 8a2:	29 df       	rcall	.-430    	; 0x6f6 <SensorOneNotify>
 8a4:	08 95       	ret

000008a6 <APP_ISR2>:
 8a6:	38 df       	rcall	.-400    	; 0x718 <SensorTwoNotify>
 8a8:	08 95       	ret

000008aa <APP_ISR3>:
 8aa:	f1 df       	rcall	.-30     	; 0x88e <HWtimerCallback>
 8ac:	08 95       	ret

000008ae <ManageDrivers>:
 8ae:	80 e0       	ldi	r24, 0x00	; 0
 8b0:	91 de       	rcall	.-734    	; 0x5d4 <MangeKeys>
 8b2:	81 e0       	ldi	r24, 0x01	; 1
 8b4:	8f de       	rcall	.-738    	; 0x5d4 <MangeKeys>
 8b6:	82 e0       	ldi	r24, 0x02	; 2
 8b8:	8d de       	rcall	.-742    	; 0x5d4 <MangeKeys>
 8ba:	50 de       	rcall	.-864    	; 0x55c <EepromManage>
 8bc:	08 95       	ret

000008be <ManageSpeedCalc>:
 8be:	4f df       	rcall	.-354    	; 0x75e <SpeedCalcManage>
 8c0:	08 95       	ret

000008c2 <ManageApplication>:
 8c2:	5e dc       	rcall	.-1860   	; 0x180 <APP_MANAGE>
 8c4:	08 95       	ret

000008c6 <DisplayAlphaNumeric>:
 8c6:	40 dd       	rcall	.-1408   	; 0x348 <BCDManage7segment>
 8c8:	08 95       	ret

000008ca <Start_App>:
 8ca:	b1 d0       	rcall	.+354    	; 0xa2e <HWI_INTERRUPTS_INTITALIZE>
 8cc:	73 d0       	rcall	.+230    	; 0x9b4 <HWI_DIGITAL_INITIALIZE>
 8ce:	12 df       	rcall	.-476    	; 0x6f4 <SpeedCalcNotifyInitialize>
 8d0:	45 dc       	rcall	.-1910   	; 0x15c <APP_INITIALIZE>
 8d2:	81 e0       	ldi	r24, 0x01	; 1
 8d4:	da dc       	rcall	.-1612   	; 0x28a <BCDInitialize>
 8d6:	8f e5       	ldi	r24, 0x5F	; 95
 8d8:	94 e0       	ldi	r25, 0x04	; 4
 8da:	60 e0       	ldi	r22, 0x00	; 0
 8dc:	44 e1       	ldi	r20, 0x14	; 20
 8de:	11 d0       	rcall	.+34     	; 0x902 <CreateTask>
 8e0:	81 e6       	ldi	r24, 0x61	; 97
 8e2:	94 e0       	ldi	r25, 0x04	; 4
 8e4:	62 e0       	ldi	r22, 0x02	; 2
 8e6:	44 e6       	ldi	r20, 0x64	; 100
 8e8:	0c d0       	rcall	.+24     	; 0x902 <CreateTask>
 8ea:	83 e6       	ldi	r24, 0x63	; 99
 8ec:	94 e0       	ldi	r25, 0x04	; 4
 8ee:	61 e0       	ldi	r22, 0x01	; 1
 8f0:	42 e0       	ldi	r20, 0x02	; 2
 8f2:	07 d0       	rcall	.+14     	; 0x902 <CreateTask>
 8f4:	87 e5       	ldi	r24, 0x57	; 87
 8f6:	94 e0       	ldi	r25, 0x04	; 4
 8f8:	63 e0       	ldi	r22, 0x03	; 3
 8fa:	4a e0       	ldi	r20, 0x0A	; 10
 8fc:	02 d0       	rcall	.+4      	; 0x902 <CreateTask>
 8fe:	1b d0       	rcall	.+54     	; 0x936 <RunScheduler>
 900:	08 95       	ret

00000902 <CreateTask>:
 902:	64 30       	cpi	r22, 0x04	; 4
 904:	60 f4       	brcc	.+24     	; 0x91e <CreateTask+0x1c>
 906:	e6 2f       	mov	r30, r22
 908:	f0 e0       	ldi	r31, 0x00	; 0
 90a:	ee 0f       	add	r30, r30
 90c:	ff 1f       	adc	r31, r31
 90e:	ee 0f       	add	r30, r30
 910:	ff 1f       	adc	r31, r31
 912:	e3 5f       	subi	r30, 0xF3	; 243
 914:	fe 4f       	sbci	r31, 0xFE	; 254
 916:	91 83       	std	Z+1, r25	; 0x01
 918:	80 83       	st	Z, r24
 91a:	42 83       	std	Z+2, r20	; 0x02
 91c:	13 82       	std	Z+3, r1	; 0x03
 91e:	08 95       	ret

00000920 <SchedulerTick>:
 920:	e0 e1       	ldi	r30, 0x10	; 16
 922:	f1 e0       	ldi	r31, 0x01	; 1
 924:	84 e0       	ldi	r24, 0x04	; 4
 926:	90 81       	ld	r25, Z
 928:	9f 5f       	subi	r25, 0xFF	; 255
 92a:	90 83       	st	Z, r25
 92c:	81 50       	subi	r24, 0x01	; 1
 92e:	34 96       	adiw	r30, 0x04	; 4
 930:	88 23       	and	r24, r24
 932:	c9 f7       	brne	.-14     	; 0x926 <SchedulerTick+0x6>
 934:	08 95       	ret

00000936 <RunScheduler>:
 936:	10 92 1d 01 	sts	0x011D, r1
 93a:	1e c0       	rjmp	.+60     	; 0x978 <RunScheduler+0x42>
 93c:	f0 e0       	ldi	r31, 0x00	; 0
 93e:	ee 0f       	add	r30, r30
 940:	ff 1f       	adc	r31, r31
 942:	ee 0f       	add	r30, r30
 944:	ff 1f       	adc	r31, r31
 946:	e3 5f       	subi	r30, 0xF3	; 243
 948:	fe 4f       	sbci	r31, 0xFE	; 254
 94a:	92 81       	ldd	r25, Z+2	; 0x02
 94c:	83 81       	ldd	r24, Z+3	; 0x03
 94e:	89 17       	cp	r24, r25
 950:	70 f0       	brcs	.+28     	; 0x96e <RunScheduler+0x38>
 952:	01 90       	ld	r0, Z+
 954:	f0 81       	ld	r31, Z
 956:	e0 2d       	mov	r30, r0
 958:	09 95       	icall
 95a:	e0 91 1d 01 	lds	r30, 0x011D
 95e:	f0 e0       	ldi	r31, 0x00	; 0
 960:	ee 0f       	add	r30, r30
 962:	ff 1f       	adc	r31, r31
 964:	ee 0f       	add	r30, r30
 966:	ff 1f       	adc	r31, r31
 968:	e3 5f       	subi	r30, 0xF3	; 243
 96a:	fe 4f       	sbci	r31, 0xFE	; 254
 96c:	13 82       	std	Z+3, r1	; 0x03
 96e:	80 91 1d 01 	lds	r24, 0x011D
 972:	8f 5f       	subi	r24, 0xFF	; 255
 974:	80 93 1d 01 	sts	0x011D, r24
 978:	e0 91 1d 01 	lds	r30, 0x011D
 97c:	e4 30       	cpi	r30, 0x04	; 4
 97e:	d8 f6       	brcc	.-74     	; 0x936 <RunScheduler>
 980:	dd cf       	rjmp	.-70     	; 0x93c <RunScheduler+0x6>

00000982 <HWIeeprom_Write>:
 982:	e1 99       	sbic	0x1c, 1	; 28
 984:	08 c0       	rjmp	.+16     	; 0x996 <HWIeeprom_Write+0x14>
 986:	90 e0       	ldi	r25, 0x00	; 0
 988:	9f bb       	out	0x1f, r25	; 31
 98a:	8e bb       	out	0x1e, r24	; 30
 98c:	6d bb       	out	0x1d, r22	; 29
 98e:	e2 9a       	sbi	0x1c, 2	; 28
 990:	e1 9a       	sbi	0x1c, 1	; 28
 992:	81 e0       	ldi	r24, 0x01	; 1
 994:	08 95       	ret
 996:	80 e0       	ldi	r24, 0x00	; 0
 998:	08 95       	ret

0000099a <HWIeeprom_Read>:
 99a:	e1 99       	sbic	0x1c, 1	; 28
 99c:	09 c0       	rjmp	.+18     	; 0x9b0 <HWIeeprom_Read+0x16>
 99e:	90 e0       	ldi	r25, 0x00	; 0
 9a0:	9f bb       	out	0x1f, r25	; 31
 9a2:	8e bb       	out	0x1e, r24	; 30
 9a4:	e0 9a       	sbi	0x1c, 0	; 28
 9a6:	8d b3       	in	r24, 0x1d	; 29
 9a8:	fb 01       	movw	r30, r22
 9aa:	80 83       	st	Z, r24
 9ac:	81 e0       	ldi	r24, 0x01	; 1
 9ae:	08 95       	ret
 9b0:	80 e0       	ldi	r24, 0x00	; 0
 9b2:	08 95       	ret

000009b4 <HWI_DIGITAL_INITIALIZE>:
 9b4:	8f ef       	ldi	r24, 0xFF	; 255
 9b6:	87 bb       	out	0x17, r24	; 23
 9b8:	84 bb       	out	0x14, r24	; 20
 9ba:	11 ba       	out	0x11, r1	; 17
 9bc:	82 bb       	out	0x12, r24	; 18
 9be:	08 95       	ret

000009c0 <HWI_DIGI_READ>:
 9c0:	80 31       	cpi	r24, 0x10	; 16
 9c2:	39 f0       	breq	.+14     	; 0x9d2 <HWI_DIGI_READ+0x12>
 9c4:	81 31       	cpi	r24, 0x11	; 17
 9c6:	41 f0       	breq	.+16     	; 0x9d8 <HWI_DIGI_READ+0x18>
 9c8:	8f 30       	cpi	r24, 0x0F	; 15
 9ca:	49 f4       	brne	.+18     	; 0x9de <HWI_DIGI_READ+0x1e>
 9cc:	80 b3       	in	r24, 0x10	; 16
 9ce:	80 71       	andi	r24, 0x10	; 16
 9d0:	08 95       	ret
 9d2:	80 b3       	in	r24, 0x10	; 16
 9d4:	80 72       	andi	r24, 0x20	; 32
 9d6:	08 95       	ret
 9d8:	80 b3       	in	r24, 0x10	; 16
 9da:	80 74       	andi	r24, 0x40	; 64
 9dc:	08 95       	ret
 9de:	80 e0       	ldi	r24, 0x00	; 0
 9e0:	08 95       	ret

000009e2 <HWI_DIGI_WRITE>:
 9e2:	08 95       	ret

000009e4 <HWI_4Digit_WRITE>:
 9e4:	88 23       	and	r24, r24
 9e6:	29 f4       	brne	.+10     	; 0x9f2 <HWI_4Digit_WRITE+0xe>
 9e8:	85 b3       	in	r24, 0x15	; 21
 9ea:	80 7f       	andi	r24, 0xF0	; 240
 9ec:	86 2b       	or	r24, r22
 9ee:	85 bb       	out	0x15, r24	; 21
 9f0:	08 95       	ret
 9f2:	88 b3       	in	r24, 0x18	; 24
 9f4:	80 7f       	andi	r24, 0xF0	; 240
 9f6:	86 2b       	or	r24, r22
 9f8:	88 bb       	out	0x18, r24	; 24
 9fa:	08 95       	ret

000009fc <HWI_4Digit_READ>:
 9fc:	88 23       	and	r24, r24
 9fe:	19 f0       	breq	.+6      	; 0xa06 <HWI_4Digit_READ+0xa>
 a00:	81 30       	cpi	r24, 0x01	; 1
 a02:	31 f4       	brne	.+12     	; 0xa10 <HWI_4Digit_READ+0x14>
 a04:	02 c0       	rjmp	.+4      	; 0xa0a <HWI_4Digit_READ+0xe>
 a06:	83 b3       	in	r24, 0x13	; 19
 a08:	01 c0       	rjmp	.+2      	; 0xa0c <HWI_4Digit_READ+0x10>
 a0a:	86 b3       	in	r24, 0x16	; 22
 a0c:	8f 70       	andi	r24, 0x0F	; 15
 a0e:	08 95       	ret
 a10:	86 b3       	in	r24, 0x16	; 22
 a12:	8f 70       	andi	r24, 0x0F	; 15
 a14:	08 95       	ret

00000a16 <HWI_8Digit_WRITE>:
 a16:	88 23       	and	r24, r24
 a18:	11 f4       	brne	.+4      	; 0xa1e <HWI_8Digit_WRITE+0x8>
 a1a:	65 bb       	out	0x15, r22	; 21
 a1c:	08 95       	ret
 a1e:	68 bb       	out	0x18, r22	; 24
 a20:	08 95       	ret

00000a22 <HWI8Digit_READ>:
 a22:	88 23       	and	r24, r24
 a24:	11 f0       	breq	.+4      	; 0xa2a <HWI8Digit_READ+0x8>
 a26:	86 b3       	in	r24, 0x16	; 22
 a28:	08 95       	ret
 a2a:	83 b3       	in	r24, 0x13	; 19
 a2c:	08 95       	ret

00000a2e <HWI_INTERRUPTS_INTITALIZE>:
 a2e:	8e b5       	in	r24, 0x2e	; 46
 a30:	82 60       	ori	r24, 0x02	; 2
 a32:	8e bd       	out	0x2e, r24	; 46
 a34:	8f ef       	ldi	r24, 0xFF	; 255
 a36:	9f e7       	ldi	r25, 0x7F	; 127
 a38:	9d bd       	out	0x2d, r25	; 45
 a3a:	8c bd       	out	0x2c, r24	; 44
 a3c:	83 b7       	in	r24, 0x33	; 51
 a3e:	83 60       	ori	r24, 0x03	; 3
 a40:	83 bf       	out	0x33, r24	; 51
 a42:	82 ec       	ldi	r24, 0xC2	; 194
 a44:	82 bf       	out	0x32, r24	; 50
 a46:	89 b7       	in	r24, 0x39	; 57
 a48:	81 60       	ori	r24, 0x01	; 1
 a4a:	89 bf       	out	0x39, r24	; 57
 a4c:	89 b7       	in	r24, 0x39	; 57
 a4e:	84 60       	ori	r24, 0x04	; 4
 a50:	89 bf       	out	0x39, r24	; 57
 a52:	8b b7       	in	r24, 0x3b	; 59
 a54:	80 64       	ori	r24, 0x40	; 64
 a56:	8b bf       	out	0x3b, r24	; 59
 a58:	85 b7       	in	r24, 0x35	; 53
 a5a:	83 60       	ori	r24, 0x03	; 3
 a5c:	85 bf       	out	0x35, r24	; 53
 a5e:	8b b7       	in	r24, 0x3b	; 59
 a60:	80 68       	ori	r24, 0x80	; 128
 a62:	8b bf       	out	0x3b, r24	; 59
 a64:	85 b7       	in	r24, 0x35	; 53
 a66:	8c 60       	ori	r24, 0x0C	; 12
 a68:	85 bf       	out	0x35, r24	; 53
 a6a:	81 b3       	in	r24, 0x11	; 17
 a6c:	8c 60       	ori	r24, 0x0C	; 12
 a6e:	81 bb       	out	0x11, r24	; 17
 a70:	78 94       	sei
 a72:	08 95       	ret

00000a74 <ReloadHWtimer>:
 a74:	83 30       	cpi	r24, 0x03	; 3
 a76:	58 f4       	brcc	.+22     	; 0xa8e <ReloadHWtimer+0x1a>
 a78:	8c b5       	in	r24, 0x2c	; 44
 a7a:	9d b5       	in	r25, 0x2d	; 45
 a7c:	8f 5f       	subi	r24, 0xFF	; 255
 a7e:	9f 47       	sbci	r25, 0x7F	; 127
 a80:	88 0f       	add	r24, r24
 a82:	99 1f       	adc	r25, r25
 a84:	2f ef       	ldi	r18, 0xFF	; 255
 a86:	3f e7       	ldi	r19, 0x7F	; 127
 a88:	3d bd       	out	0x2d, r19	; 45
 a8a:	2c bd       	out	0x2c, r18	; 44
 a8c:	08 95       	ret
 a8e:	80 e0       	ldi	r24, 0x00	; 0
 a90:	90 e0       	ldi	r25, 0x00	; 0
 a92:	08 95       	ret

00000a94 <__vector_9>:
 a94:	1f 92       	push	r1
 a96:	0f 92       	push	r0
 a98:	0f b6       	in	r0, 0x3f	; 63
 a9a:	0f 92       	push	r0
 a9c:	11 24       	eor	r1, r1
 a9e:	2f 93       	push	r18
 aa0:	3f 93       	push	r19
 aa2:	4f 93       	push	r20
 aa4:	5f 93       	push	r21
 aa6:	6f 93       	push	r22
 aa8:	7f 93       	push	r23
 aaa:	8f 93       	push	r24
 aac:	9f 93       	push	r25
 aae:	af 93       	push	r26
 ab0:	bf 93       	push	r27
 ab2:	ef 93       	push	r30
 ab4:	ff 93       	push	r31
 ab6:	82 ec       	ldi	r24, 0xC2	; 194
 ab8:	82 bf       	out	0x32, r24	; 50
 aba:	32 df       	rcall	.-412    	; 0x920 <SchedulerTick>
 abc:	ff 91       	pop	r31
 abe:	ef 91       	pop	r30
 ac0:	bf 91       	pop	r27
 ac2:	af 91       	pop	r26
 ac4:	9f 91       	pop	r25
 ac6:	8f 91       	pop	r24
 ac8:	7f 91       	pop	r23
 aca:	6f 91       	pop	r22
 acc:	5f 91       	pop	r21
 ace:	4f 91       	pop	r20
 ad0:	3f 91       	pop	r19
 ad2:	2f 91       	pop	r18
 ad4:	0f 90       	pop	r0
 ad6:	0f be       	out	0x3f, r0	; 63
 ad8:	0f 90       	pop	r0
 ada:	1f 90       	pop	r1
 adc:	18 95       	reti

00000ade <__vector_8>:
 ade:	1f 92       	push	r1
 ae0:	0f 92       	push	r0
 ae2:	0f b6       	in	r0, 0x3f	; 63
 ae4:	0f 92       	push	r0
 ae6:	11 24       	eor	r1, r1
 ae8:	2f 93       	push	r18
 aea:	3f 93       	push	r19
 aec:	4f 93       	push	r20
 aee:	5f 93       	push	r21
 af0:	6f 93       	push	r22
 af2:	7f 93       	push	r23
 af4:	8f 93       	push	r24
 af6:	9f 93       	push	r25
 af8:	af 93       	push	r26
 afa:	bf 93       	push	r27
 afc:	ef 93       	push	r30
 afe:	ff 93       	push	r31
 b00:	8f ef       	ldi	r24, 0xFF	; 255
 b02:	9f e7       	ldi	r25, 0x7F	; 127
 b04:	9d bd       	out	0x2d, r25	; 45
 b06:	8c bd       	out	0x2c, r24	; 44
 b08:	d0 de       	rcall	.-608    	; 0x8aa <APP_ISR3>
 b0a:	ff 91       	pop	r31
 b0c:	ef 91       	pop	r30
 b0e:	bf 91       	pop	r27
 b10:	af 91       	pop	r26
 b12:	9f 91       	pop	r25
 b14:	8f 91       	pop	r24
 b16:	7f 91       	pop	r23
 b18:	6f 91       	pop	r22
 b1a:	5f 91       	pop	r21
 b1c:	4f 91       	pop	r20
 b1e:	3f 91       	pop	r19
 b20:	2f 91       	pop	r18
 b22:	0f 90       	pop	r0
 b24:	0f be       	out	0x3f, r0	; 63
 b26:	0f 90       	pop	r0
 b28:	1f 90       	pop	r1
 b2a:	18 95       	reti

00000b2c <__vector_1>:
 b2c:	1f 92       	push	r1
 b2e:	0f 92       	push	r0
 b30:	0f b6       	in	r0, 0x3f	; 63
 b32:	0f 92       	push	r0
 b34:	11 24       	eor	r1, r1
 b36:	2f 93       	push	r18
 b38:	3f 93       	push	r19
 b3a:	4f 93       	push	r20
 b3c:	5f 93       	push	r21
 b3e:	6f 93       	push	r22
 b40:	7f 93       	push	r23
 b42:	8f 93       	push	r24
 b44:	9f 93       	push	r25
 b46:	af 93       	push	r26
 b48:	bf 93       	push	r27
 b4a:	ef 93       	push	r30
 b4c:	ff 93       	push	r31
 b4e:	a9 de       	rcall	.-686    	; 0x8a2 <APP_ISR1>
 b50:	ff 91       	pop	r31
 b52:	ef 91       	pop	r30
 b54:	bf 91       	pop	r27
 b56:	af 91       	pop	r26
 b58:	9f 91       	pop	r25
 b5a:	8f 91       	pop	r24
 b5c:	7f 91       	pop	r23
 b5e:	6f 91       	pop	r22
 b60:	5f 91       	pop	r21
 b62:	4f 91       	pop	r20
 b64:	3f 91       	pop	r19
 b66:	2f 91       	pop	r18
 b68:	0f 90       	pop	r0
 b6a:	0f be       	out	0x3f, r0	; 63
 b6c:	0f 90       	pop	r0
 b6e:	1f 90       	pop	r1
 b70:	18 95       	reti

00000b72 <__vector_2>:
 b72:	1f 92       	push	r1
 b74:	0f 92       	push	r0
 b76:	0f b6       	in	r0, 0x3f	; 63
 b78:	0f 92       	push	r0
 b7a:	11 24       	eor	r1, r1
 b7c:	2f 93       	push	r18
 b7e:	3f 93       	push	r19
 b80:	4f 93       	push	r20
 b82:	5f 93       	push	r21
 b84:	6f 93       	push	r22
 b86:	7f 93       	push	r23
 b88:	8f 93       	push	r24
 b8a:	9f 93       	push	r25
 b8c:	af 93       	push	r26
 b8e:	bf 93       	push	r27
 b90:	ef 93       	push	r30
 b92:	ff 93       	push	r31
 b94:	88 de       	rcall	.-752    	; 0x8a6 <APP_ISR2>
 b96:	ff 91       	pop	r31
 b98:	ef 91       	pop	r30
 b9a:	bf 91       	pop	r27
 b9c:	af 91       	pop	r26
 b9e:	9f 91       	pop	r25
 ba0:	8f 91       	pop	r24
 ba2:	7f 91       	pop	r23
 ba4:	6f 91       	pop	r22
 ba6:	5f 91       	pop	r21
 ba8:	4f 91       	pop	r20
 baa:	3f 91       	pop	r19
 bac:	2f 91       	pop	r18
 bae:	0f 90       	pop	r0
 bb0:	0f be       	out	0x3f, r0	; 63
 bb2:	0f 90       	pop	r0
 bb4:	1f 90       	pop	r1
 bb6:	18 95       	reti

00000bb8 <main>:
 bb8:	88 de       	rcall	.-752    	; 0x8ca <Start_App>
 bba:	80 e0       	ldi	r24, 0x00	; 0
 bbc:	90 e0       	ldi	r25, 0x00	; 0
 bbe:	08 95       	ret

00000bc0 <__mulsi3>:
 bc0:	62 9f       	mul	r22, r18
 bc2:	d0 01       	movw	r26, r0
 bc4:	73 9f       	mul	r23, r19
 bc6:	f0 01       	movw	r30, r0
 bc8:	82 9f       	mul	r24, r18
 bca:	e0 0d       	add	r30, r0
 bcc:	f1 1d       	adc	r31, r1
 bce:	64 9f       	mul	r22, r20
 bd0:	e0 0d       	add	r30, r0
 bd2:	f1 1d       	adc	r31, r1
 bd4:	92 9f       	mul	r25, r18
 bd6:	f0 0d       	add	r31, r0
 bd8:	83 9f       	mul	r24, r19
 bda:	f0 0d       	add	r31, r0
 bdc:	74 9f       	mul	r23, r20
 bde:	f0 0d       	add	r31, r0
 be0:	65 9f       	mul	r22, r21
 be2:	f0 0d       	add	r31, r0
 be4:	99 27       	eor	r25, r25
 be6:	72 9f       	mul	r23, r18
 be8:	b0 0d       	add	r27, r0
 bea:	e1 1d       	adc	r30, r1
 bec:	f9 1f       	adc	r31, r25
 bee:	63 9f       	mul	r22, r19
 bf0:	b0 0d       	add	r27, r0
 bf2:	e1 1d       	adc	r30, r1
 bf4:	f9 1f       	adc	r31, r25
 bf6:	bd 01       	movw	r22, r26
 bf8:	cf 01       	movw	r24, r30
 bfa:	11 24       	eor	r1, r1
 bfc:	08 95       	ret

00000bfe <__udivmodhi4>:
 bfe:	aa 1b       	sub	r26, r26
 c00:	bb 1b       	sub	r27, r27
 c02:	51 e1       	ldi	r21, 0x11	; 17
 c04:	07 c0       	rjmp	.+14     	; 0xc14 <__udivmodhi4_ep>

00000c06 <__udivmodhi4_loop>:
 c06:	aa 1f       	adc	r26, r26
 c08:	bb 1f       	adc	r27, r27
 c0a:	a6 17       	cp	r26, r22
 c0c:	b7 07       	cpc	r27, r23
 c0e:	10 f0       	brcs	.+4      	; 0xc14 <__udivmodhi4_ep>
 c10:	a6 1b       	sub	r26, r22
 c12:	b7 0b       	sbc	r27, r23

00000c14 <__udivmodhi4_ep>:
 c14:	88 1f       	adc	r24, r24
 c16:	99 1f       	adc	r25, r25
 c18:	5a 95       	dec	r21
 c1a:	a9 f7       	brne	.-22     	; 0xc06 <__udivmodhi4_loop>
 c1c:	80 95       	com	r24
 c1e:	90 95       	com	r25
 c20:	bc 01       	movw	r22, r24
 c22:	cd 01       	movw	r24, r26
 c24:	08 95       	ret

00000c26 <__udivmodsi4>:
 c26:	a1 e2       	ldi	r26, 0x21	; 33
 c28:	1a 2e       	mov	r1, r26
 c2a:	aa 1b       	sub	r26, r26
 c2c:	bb 1b       	sub	r27, r27
 c2e:	fd 01       	movw	r30, r26
 c30:	0d c0       	rjmp	.+26     	; 0xc4c <__udivmodsi4_ep>

00000c32 <__udivmodsi4_loop>:
 c32:	aa 1f       	adc	r26, r26
 c34:	bb 1f       	adc	r27, r27
 c36:	ee 1f       	adc	r30, r30
 c38:	ff 1f       	adc	r31, r31
 c3a:	a2 17       	cp	r26, r18
 c3c:	b3 07       	cpc	r27, r19
 c3e:	e4 07       	cpc	r30, r20
 c40:	f5 07       	cpc	r31, r21
 c42:	20 f0       	brcs	.+8      	; 0xc4c <__udivmodsi4_ep>
 c44:	a2 1b       	sub	r26, r18
 c46:	b3 0b       	sbc	r27, r19
 c48:	e4 0b       	sbc	r30, r20
 c4a:	f5 0b       	sbc	r31, r21

00000c4c <__udivmodsi4_ep>:
 c4c:	66 1f       	adc	r22, r22
 c4e:	77 1f       	adc	r23, r23
 c50:	88 1f       	adc	r24, r24
 c52:	99 1f       	adc	r25, r25
 c54:	1a 94       	dec	r1
 c56:	69 f7       	brne	.-38     	; 0xc32 <__udivmodsi4_loop>
 c58:	60 95       	com	r22
 c5a:	70 95       	com	r23
 c5c:	80 95       	com	r24
 c5e:	90 95       	com	r25
 c60:	9b 01       	movw	r18, r22
 c62:	ac 01       	movw	r20, r24
 c64:	bd 01       	movw	r22, r26
 c66:	cf 01       	movw	r24, r30
 c68:	08 95       	ret

00000c6a <_exit>:
 c6a:	f8 94       	cli

00000c6c <__stop_program>:
 c6c:	ff cf       	rjmp	.-2      	; 0xc6c <__stop_program>
