
BicMeter.elf:     file format elf32-avr

Sections:
Idx Name          Size      VMA       LMA       File off  Algn
  0 .text         00000ca2  00000000  00000000  00000094  2**1
                  CONTENTS, ALLOC, LOAD, READONLY, CODE
  1 .data         00000040  00800060  00000ca2  00000d36  2**0
                  CONTENTS, ALLOC, LOAD, DATA
  2 .bss          0000007e  008000a0  008000a0  00000d76  2**0
                  ALLOC
  3 .stab         000006cc  00000000  00000000  00000d78  2**2
                  CONTENTS, READONLY, DEBUGGING
  4 .stabstr      00000085  00000000  00000000  00001444  2**0
                  CONTENTS, READONLY, DEBUGGING
  5 .debug_aranges 000000c0  00000000  00000000  000014d0  2**3
                  CONTENTS, READONLY, DEBUGGING
  6 .debug_info   0000052e  00000000  00000000  00001590  2**0
                  CONTENTS, READONLY, DEBUGGING
  7 .debug_abbrev 00000078  00000000  00000000  00001abe  2**0
                  CONTENTS, READONLY, DEBUGGING
  8 .debug_line   0000038e  00000000  00000000  00001b36  2**0
                  CONTENTS, READONLY, DEBUGGING

Disassembly of section .text:

00000000 <__vectors>:
   0:	12 c0       	rjmp	.+36     	; 0x26 <__ctors_end>
   2:	9b c5       	rjmp	.+2870   	; 0xb3a <__vector_1>
   4:	c0 c5       	rjmp	.+2944   	; 0xb86 <__vector_2>
   6:	2a c0       	rjmp	.+84     	; 0x5c <__bad_interrupt>
   8:	29 c0       	rjmp	.+82     	; 0x5c <__bad_interrupt>
   a:	28 c0       	rjmp	.+80     	; 0x5c <__bad_interrupt>
   c:	27 c0       	rjmp	.+78     	; 0x5c <__bad_interrupt>
   e:	26 c0       	rjmp	.+76     	; 0x5c <__bad_interrupt>
  10:	6d c5       	rjmp	.+2778   	; 0xaec <__vector_8>
  12:	47 c5       	rjmp	.+2702   	; 0xaa2 <__vector_9>
  14:	23 c0       	rjmp	.+70     	; 0x5c <__bad_interrupt>
  16:	22 c0       	rjmp	.+68     	; 0x5c <__bad_interrupt>
  18:	21 c0       	rjmp	.+66     	; 0x5c <__bad_interrupt>
  1a:	20 c0       	rjmp	.+64     	; 0x5c <__bad_interrupt>
  1c:	1f c0       	rjmp	.+62     	; 0x5c <__bad_interrupt>
  1e:	1e c0       	rjmp	.+60     	; 0x5c <__bad_interrupt>
  20:	1d c0       	rjmp	.+58     	; 0x5c <__bad_interrupt>
  22:	1c c0       	rjmp	.+56     	; 0x5c <__bad_interrupt>
  24:	1b c0       	rjmp	.+54     	; 0x5c <__bad_interrupt>

00000026 <__ctors_end>:
  26:	11 24       	eor	r1, r1
  28:	1f be       	out	0x3f, r1	; 63
  2a:	cf e5       	ldi	r28, 0x5F	; 95
  2c:	d4 e0       	ldi	r29, 0x04	; 4
  2e:	de bf       	out	0x3e, r29	; 62
  30:	cd bf       	out	0x3d, r28	; 61

00000032 <__do_copy_data>:
  32:	10 e0       	ldi	r17, 0x00	; 0
  34:	a0 e6       	ldi	r26, 0x60	; 96
  36:	b0 e0       	ldi	r27, 0x00	; 0
  38:	e2 ea       	ldi	r30, 0xA2	; 162
  3a:	fc e0       	ldi	r31, 0x0C	; 12
  3c:	02 c0       	rjmp	.+4      	; 0x42 <__SREG__+0x3>
  3e:	05 90       	lpm	r0, Z+
  40:	0d 92       	st	X+, r0
  42:	a0 3a       	cpi	r26, 0xA0	; 160
  44:	b1 07       	cpc	r27, r17
  46:	d9 f7       	brne	.-10     	; 0x3e <__SP_H__>

00000048 <__do_clear_bss>:
  48:	11 e0       	ldi	r17, 0x01	; 1
  4a:	a0 ea       	ldi	r26, 0xA0	; 160
  4c:	b0 e0       	ldi	r27, 0x00	; 0
  4e:	01 c0       	rjmp	.+2      	; 0x52 <.do_clear_bss_start>

00000050 <.do_clear_bss_loop>:
  50:	1d 92       	st	X+, r1

00000052 <.do_clear_bss_start>:
  52:	ae 31       	cpi	r26, 0x1E	; 30
  54:	b1 07       	cpc	r27, r17
  56:	e1 f7       	brne	.-8      	; 0x50 <.do_clear_bss_loop>
  58:	c9 d5       	rcall	.+2962   	; 0xbec <main>
  5a:	21 c6       	rjmp	.+3138   	; 0xc9e <_exit>

0000005c <__bad_interrupt>:
  5c:	d1 cf       	rjmp	.-94     	; 0x0 <__vectors>

0000005e <IncrementDecrementSingleDigit>:
  5e:	cf 92       	push	r12
  60:	df 92       	push	r13
  62:	ef 92       	push	r14
  64:	ff 92       	push	r15
  66:	0f 93       	push	r16
  68:	1f 93       	push	r17
  6a:	cf 93       	push	r28
  6c:	df 93       	push	r29
  6e:	00 d0       	rcall	.+0      	; 0x70 <IncrementDecrementSingleDigit+0x12>
  70:	00 d0       	rcall	.+0      	; 0x72 <IncrementDecrementSingleDigit+0x14>
  72:	cd b7       	in	r28, 0x3d	; 61
  74:	de b7       	in	r29, 0x3e	; 62
  76:	9c 01       	movw	r18, r24
  78:	16 2f       	mov	r17, r22
  7a:	04 2f       	mov	r16, r20
  7c:	6e 01       	movw	r12, r28
  7e:	08 94       	sec
  80:	c1 1c       	adc	r12, r1
  82:	d1 1c       	adc	r13, r1
  84:	f6 01       	movw	r30, r12
  86:	44 e0       	ldi	r20, 0x04	; 4
  88:	aa e0       	ldi	r26, 0x0A	; 10
  8a:	ea 2e       	mov	r14, r26
  8c:	f1 2c       	mov	r15, r1
  8e:	21 15       	cp	r18, r1
  90:	31 05       	cpc	r19, r1
  92:	69 f0       	breq	.+26     	; 0xae <IncrementDecrementSingleDigit+0x50>
  94:	c9 01       	movw	r24, r18
  96:	b7 01       	movw	r22, r14
  98:	cc d5       	rcall	.+2968   	; 0xc32 <__udivmodhi4>
  9a:	96 2f       	mov	r25, r22
  9c:	99 0f       	add	r25, r25
  9e:	89 2f       	mov	r24, r25
  a0:	88 0f       	add	r24, r24
  a2:	88 0f       	add	r24, r24
  a4:	89 0f       	add	r24, r25
  a6:	28 1b       	sub	r18, r24
  a8:	20 83       	st	Z, r18
  aa:	9b 01       	movw	r18, r22
  ac:	01 c0       	rjmp	.+2      	; 0xb0 <IncrementDecrementSingleDigit+0x52>
  ae:	10 82       	st	Z, r1
  b0:	41 50       	subi	r20, 0x01	; 1
  b2:	31 96       	adiw	r30, 0x01	; 1
  b4:	44 23       	and	r20, r20
  b6:	59 f7       	brne	.-42     	; 0x8e <IncrementDecrementSingleDigit+0x30>
  b8:	e1 2f       	mov	r30, r17
  ba:	f0 e0       	ldi	r31, 0x00	; 0
  bc:	00 23       	and	r16, r16
  be:	69 f4       	brne	.+26     	; 0xda <IncrementDecrementSingleDigit+0x7c>
  c0:	81 e0       	ldi	r24, 0x01	; 1
  c2:	90 e0       	ldi	r25, 0x00	; 0
  c4:	8c 0f       	add	r24, r28
  c6:	9d 1f       	adc	r25, r29
  c8:	e8 0f       	add	r30, r24
  ca:	f9 1f       	adc	r31, r25
  cc:	80 81       	ld	r24, Z
  ce:	88 23       	and	r24, r24
  d0:	11 f4       	brne	.+4      	; 0xd6 <IncrementDecrementSingleDigit+0x78>
  d2:	89 e0       	ldi	r24, 0x09	; 9
  d4:	0e c0       	rjmp	.+28     	; 0xf2 <IncrementDecrementSingleDigit+0x94>
  d6:	81 50       	subi	r24, 0x01	; 1
  d8:	0c c0       	rjmp	.+24     	; 0xf2 <IncrementDecrementSingleDigit+0x94>
  da:	a1 e0       	ldi	r26, 0x01	; 1
  dc:	b0 e0       	ldi	r27, 0x00	; 0
  de:	ac 0f       	add	r26, r28
  e0:	bd 1f       	adc	r27, r29
  e2:	ea 0f       	add	r30, r26
  e4:	fb 1f       	adc	r31, r27
  e6:	80 81       	ld	r24, Z
  e8:	89 30       	cpi	r24, 0x09	; 9
  ea:	11 f4       	brne	.+4      	; 0xf0 <IncrementDecrementSingleDigit+0x92>
  ec:	10 82       	st	Z, r1
  ee:	02 c0       	rjmp	.+4      	; 0xf4 <IncrementDecrementSingleDigit+0x96>
  f0:	8f 5f       	subi	r24, 0xFF	; 255
  f2:	80 83       	st	Z, r24
  f4:	20 e0       	ldi	r18, 0x00	; 0
  f6:	60 e0       	ldi	r22, 0x00	; 0
  f8:	70 e0       	ldi	r23, 0x00	; 0
  fa:	1e c0       	rjmp	.+60     	; 0x138 <IncrementDecrementSingleDigit+0xda>
  fc:	ca 01       	movw	r24, r20
  fe:	88 0f       	add	r24, r24
 100:	99 1f       	adc	r25, r25
 102:	f3 e0       	ldi	r31, 0x03	; 3
 104:	44 0f       	add	r20, r20
 106:	55 1f       	adc	r21, r21
 108:	fa 95       	dec	r31
 10a:	e1 f7       	brne	.-8      	; 0x104 <IncrementDecrementSingleDigit+0xa6>
 10c:	48 0f       	add	r20, r24
 10e:	59 1f       	adc	r21, r25
 110:	ef 5f       	subi	r30, 0xFF	; 255
 112:	e2 17       	cp	r30, r18
 114:	99 f7       	brne	.-26     	; 0xfc <IncrementDecrementSingleDigit+0x9e>
 116:	d6 01       	movw	r26, r12
 118:	8d 91       	ld	r24, X+
 11a:	6d 01       	movw	r12, r26
 11c:	90 e0       	ldi	r25, 0x00	; 0
 11e:	48 9f       	mul	r20, r24
 120:	90 01       	movw	r18, r0
 122:	49 9f       	mul	r20, r25
 124:	30 0d       	add	r19, r0
 126:	58 9f       	mul	r21, r24
 128:	30 0d       	add	r19, r0
 12a:	11 24       	eor	r1, r1
 12c:	62 0f       	add	r22, r18
 12e:	73 1f       	adc	r23, r19
 130:	2e 2f       	mov	r18, r30
 132:	2f 5f       	subi	r18, 0xFF	; 255
 134:	24 30       	cpi	r18, 0x04	; 4
 136:	21 f0       	breq	.+8      	; 0x140 <IncrementDecrementSingleDigit+0xe2>
 138:	41 e0       	ldi	r20, 0x01	; 1
 13a:	50 e0       	ldi	r21, 0x00	; 0
 13c:	e0 e0       	ldi	r30, 0x00	; 0
 13e:	e9 cf       	rjmp	.-46     	; 0x112 <IncrementDecrementSingleDigit+0xb4>
 140:	cb 01       	movw	r24, r22
 142:	0f 90       	pop	r0
 144:	0f 90       	pop	r0
 146:	0f 90       	pop	r0
 148:	0f 90       	pop	r0
 14a:	df 91       	pop	r29
 14c:	cf 91       	pop	r28
 14e:	1f 91       	pop	r17
 150:	0f 91       	pop	r16
 152:	ff 90       	pop	r15
 154:	ef 90       	pop	r14
 156:	df 90       	pop	r13
 158:	cf 90       	pop	r12
 15a:	08 95       	ret

0000015c <APP_INITIALIZE>:
 15c:	81 e0       	ldi	r24, 0x01	; 1
 15e:	60 ea       	ldi	r22, 0xA0	; 160
 160:	70 e0       	ldi	r23, 0x00	; 0
 162:	42 e0       	ldi	r20, 0x02	; 2
 164:	d9 d1       	rcall	.+946    	; 0x518 <Eeprom_Read_Block>
 166:	80 91 a0 00 	lds	r24, 0x00A0
 16a:	90 91 a1 00 	lds	r25, 0x00A1
 16e:	27 e2       	ldi	r18, 0x27	; 39
 170:	80 31       	cpi	r24, 0x10	; 16
 172:	92 07       	cpc	r25, r18
 174:	30 f0       	brcs	.+12     	; 0x182 <APP_INITIALIZE+0x26>
 176:	80 ed       	ldi	r24, 0xD0	; 208
 178:	97 e0       	ldi	r25, 0x07	; 7
 17a:	90 93 a1 00 	sts	0x00A1, r25
 17e:	80 93 a0 00 	sts	0x00A0, r24
 182:	08 95       	ret

00000184 <APP_MANAGE>:
 184:	cf 92       	push	r12
 186:	df 92       	push	r13
 188:	ef 92       	push	r14
 18a:	ff 92       	push	r15
 18c:	cf 93       	push	r28
 18e:	df 93       	push	r29
 190:	80 91 a0 00 	lds	r24, 0x00A0
 194:	90 91 a1 00 	lds	r25, 0x00A1
 198:	51 d3       	rcall	.+1698   	; 0x83c <SetCircumfirunce>
 19a:	81 e0       	ldi	r24, 0x01	; 1
 19c:	54 d3       	rcall	.+1704   	; 0x846 <GetAvgSpeed>
 19e:	ec 01       	movw	r28, r24
 1a0:	44 d3       	rcall	.+1672   	; 0x82a <GetDistance>
 1a2:	6b 01       	movw	r12, r22
 1a4:	7c 01       	movw	r14, r24
 1a6:	80 91 a2 00 	lds	r24, 0x00A2
 1aa:	90 91 a3 00 	lds	r25, 0x00A3
 1ae:	00 97       	sbiw	r24, 0x00	; 0
 1b0:	01 f5       	brne	.+64     	; 0x1f2 <APP_MANAGE+0x6e>
 1b2:	ce 01       	movw	r24, r28
 1b4:	60 e0       	ldi	r22, 0x00	; 0
 1b6:	41 e0       	ldi	r20, 0x01	; 1
 1b8:	21 e0       	ldi	r18, 0x01	; 1
 1ba:	76 d0       	rcall	.+236    	; 0x2a8 <BCDsendNumber>
 1bc:	c6 01       	movw	r24, r12
 1be:	61 e0       	ldi	r22, 0x01	; 1
 1c0:	41 e0       	ldi	r20, 0x01	; 1
 1c2:	21 e0       	ldi	r18, 0x01	; 1
 1c4:	71 d0       	rcall	.+226    	; 0x2a8 <BCDsendNumber>
 1c6:	80 e0       	ldi	r24, 0x00	; 0
 1c8:	ff d1       	rcall	.+1022   	; 0x5c8 <GetKeyStatus>
 1ca:	c8 2f       	mov	r28, r24
 1cc:	81 e0       	ldi	r24, 0x01	; 1
 1ce:	fc d1       	rcall	.+1016   	; 0x5c8 <GetKeyStatus>
 1d0:	c2 38       	cpi	r28, 0x82	; 130
 1d2:	39 f4       	brne	.+14     	; 0x1e2 <APP_MANAGE+0x5e>
 1d4:	81 e0       	ldi	r24, 0x01	; 1
 1d6:	90 e0       	ldi	r25, 0x00	; 0
 1d8:	90 93 a3 00 	sts	0x00A3, r25
 1dc:	80 93 a2 00 	sts	0x00A2, r24
 1e0:	59 c0       	rjmp	.+178    	; 0x294 <APP_MANAGE+0x110>
 1e2:	81 38       	cpi	r24, 0x81	; 129
 1e4:	09 f0       	breq	.+2      	; 0x1e8 <APP_MANAGE+0x64>
 1e6:	56 c0       	rjmp	.+172    	; 0x294 <APP_MANAGE+0x110>
 1e8:	81 e0       	ldi	r24, 0x01	; 1
 1ea:	6f ef       	ldi	r22, 0xFF	; 255
 1ec:	1b d4       	rcall	.+2102   	; 0xa24 <HWI_8Digit_WRITE>
 1ee:	ee d4       	rcall	.+2524   	; 0xbcc <SendMCUtoSleep>
 1f0:	51 c0       	rjmp	.+162    	; 0x294 <APP_MANAGE+0x110>
 1f2:	80 91 a0 00 	lds	r24, 0x00A0
 1f6:	90 91 a1 00 	lds	r25, 0x00A1
 1fa:	61 e0       	ldi	r22, 0x01	; 1
 1fc:	40 e0       	ldi	r20, 0x00	; 0
 1fe:	20 e0       	ldi	r18, 0x00	; 0
 200:	53 d0       	rcall	.+166    	; 0x2a8 <BCDsendNumber>
 202:	80 91 a4 00 	lds	r24, 0x00A4
 206:	61 e0       	ldi	r22, 0x01	; 1
 208:	44 e6       	ldi	r20, 0x64	; 100
 20a:	08 d1       	rcall	.+528    	; 0x41c <BlinkDigit>
 20c:	80 e0       	ldi	r24, 0x00	; 0
 20e:	dc d1       	rcall	.+952    	; 0x5c8 <GetKeyStatus>
 210:	80 34       	cpi	r24, 0x40	; 64
 212:	89 f4       	brne	.+34     	; 0x236 <APP_MANAGE+0xb2>
 214:	80 91 a4 00 	lds	r24, 0x00A4
 218:	90 91 a5 00 	lds	r25, 0x00A5
 21c:	01 96       	adiw	r24, 0x01	; 1
 21e:	90 93 a5 00 	sts	0x00A5, r25
 222:	80 93 a4 00 	sts	0x00A4, r24
 226:	84 30       	cpi	r24, 0x04	; 4
 228:	91 05       	cpc	r25, r1
 22a:	a1 f5       	brne	.+104    	; 0x294 <APP_MANAGE+0x110>
 22c:	10 92 a5 00 	sts	0x00A5, r1
 230:	10 92 a4 00 	sts	0x00A4, r1
 234:	2f c0       	rjmp	.+94     	; 0x294 <APP_MANAGE+0x110>
 236:	81 e0       	ldi	r24, 0x01	; 1
 238:	c7 d1       	rcall	.+910    	; 0x5c8 <GetKeyStatus>
 23a:	c8 2f       	mov	r28, r24
 23c:	82 e0       	ldi	r24, 0x02	; 2
 23e:	c4 d1       	rcall	.+904    	; 0x5c8 <GetKeyStatus>
 240:	c2 38       	cpi	r28, 0x82	; 130
 242:	81 f4       	brne	.+32     	; 0x264 <APP_MANAGE+0xe0>
 244:	81 e0       	ldi	r24, 0x01	; 1
 246:	60 ea       	ldi	r22, 0xA0	; 160
 248:	70 e0       	ldi	r23, 0x00	; 0
 24a:	42 e0       	ldi	r20, 0x02	; 2
 24c:	20 e0       	ldi	r18, 0x00	; 0
 24e:	30 e0       	ldi	r19, 0x00	; 0
 250:	42 d1       	rcall	.+644    	; 0x4d6 <Eeprom_Write_Block>
 252:	81 e0       	ldi	r24, 0x01	; 1
 254:	61 e0       	ldi	r22, 0x01	; 1
 256:	40 e0       	ldi	r20, 0x00	; 0
 258:	e1 d0       	rcall	.+450    	; 0x41c <BlinkDigit>
 25a:	10 92 a3 00 	sts	0x00A3, r1
 25e:	10 92 a2 00 	sts	0x00A2, r1
 262:	18 c0       	rjmp	.+48     	; 0x294 <APP_MANAGE+0x110>
 264:	c0 34       	cpi	r28, 0x40	; 64
 266:	41 f4       	brne	.+16     	; 0x278 <APP_MANAGE+0xf4>
 268:	80 91 a0 00 	lds	r24, 0x00A0
 26c:	90 91 a1 00 	lds	r25, 0x00A1
 270:	60 91 a4 00 	lds	r22, 0x00A4
 274:	40 e0       	ldi	r20, 0x00	; 0
 276:	09 c0       	rjmp	.+18     	; 0x28a <APP_MANAGE+0x106>
 278:	80 34       	cpi	r24, 0x40	; 64
 27a:	61 f4       	brne	.+24     	; 0x294 <APP_MANAGE+0x110>
 27c:	80 91 a0 00 	lds	r24, 0x00A0
 280:	90 91 a1 00 	lds	r25, 0x00A1
 284:	60 91 a4 00 	lds	r22, 0x00A4
 288:	41 e0       	ldi	r20, 0x01	; 1
 28a:	e9 de       	rcall	.-558    	; 0x5e <IncrementDecrementSingleDigit>
 28c:	90 93 a1 00 	sts	0x00A1, r25
 290:	80 93 a0 00 	sts	0x00A0, r24
 294:	df 91       	pop	r29
 296:	cf 91       	pop	r28
 298:	ff 90       	pop	r15
 29a:	ef 90       	pop	r14
 29c:	df 90       	pop	r13
 29e:	cf 90       	pop	r12
 2a0:	08 95       	ret

000002a2 <BCDInitialize>:
 2a2:	80 93 a6 00 	sts	0x00A6, r24
 2a6:	08 95       	ret

000002a8 <BCDsendNumber>:
 2a8:	cf 92       	push	r12
 2aa:	df 92       	push	r13
 2ac:	ef 92       	push	r14
 2ae:	ff 92       	push	r15
 2b0:	0f 93       	push	r16
 2b2:	1f 93       	push	r17
 2b4:	cf 93       	push	r28
 2b6:	df 93       	push	r29
 2b8:	32 2f       	mov	r19, r18
 2ba:	06 2f       	mov	r16, r22
 2bc:	10 e0       	ldi	r17, 0x00	; 0
 2be:	e8 01       	movw	r28, r16
 2c0:	63 e0       	ldi	r22, 0x03	; 3
 2c2:	cc 0f       	add	r28, r28
 2c4:	dd 1f       	adc	r29, r29
 2c6:	6a 95       	dec	r22
 2c8:	e1 f7       	brne	.-8      	; 0x2c2 <BCDsendNumber+0x1a>
 2ca:	c9 55       	subi	r28, 0x59	; 89
 2cc:	df 4f       	sbci	r29, 0xFF	; 255
 2ce:	fc 01       	movw	r30, r24
 2d0:	20 e0       	ldi	r18, 0x00	; 0
 2d2:	7a e0       	ldi	r23, 0x0A	; 10
 2d4:	e7 2e       	mov	r14, r23
 2d6:	f1 2c       	mov	r15, r1
 2d8:	ac ef       	ldi	r26, 0xFC	; 252
 2da:	ca 2e       	mov	r12, r26
 2dc:	d1 2c       	mov	r13, r1
 2de:	30 97       	sbiw	r30, 0x00	; 0
 2e0:	11 f4       	brne	.+4      	; 0x2e6 <BCDsendNumber+0x3e>
 2e2:	42 17       	cp	r20, r18
 2e4:	b8 f0       	brcs	.+46     	; 0x314 <BCDsendNumber+0x6c>
 2e6:	cf 01       	movw	r24, r30
 2e8:	b7 01       	movw	r22, r14
 2ea:	a3 d4       	rcall	.+2374   	; 0xc32 <__udivmodhi4>
 2ec:	cb 01       	movw	r24, r22
 2ee:	db 01       	movw	r26, r22
 2f0:	aa 0f       	add	r26, r26
 2f2:	bb 1f       	adc	r27, r27
 2f4:	53 e0       	ldi	r21, 0x03	; 3
 2f6:	88 0f       	add	r24, r24
 2f8:	99 1f       	adc	r25, r25
 2fa:	5a 95       	dec	r21
 2fc:	e1 f7       	brne	.-8      	; 0x2f6 <BCDsendNumber+0x4e>
 2fe:	a8 0f       	add	r26, r24
 300:	b9 1f       	adc	r27, r25
 302:	ea 1b       	sub	r30, r26
 304:	fb 0b       	sbc	r31, r27
 306:	e0 5a       	subi	r30, 0xA0	; 160
 308:	ff 4f       	sbci	r31, 0xFF	; 255
 30a:	80 81       	ld	r24, Z
 30c:	88 83       	st	Y, r24
 30e:	19 82       	std	Y+1, r1	; 0x01
 310:	fb 01       	movw	r30, r22
 312:	07 c0       	rjmp	.+14     	; 0x322 <BCDsendNumber+0x7a>
 314:	33 23       	and	r19, r19
 316:	19 f4       	brne	.+6      	; 0x31e <BCDsendNumber+0x76>
 318:	d9 82       	std	Y+1, r13	; 0x01
 31a:	c8 82       	st	Y, r12
 31c:	02 c0       	rjmp	.+4      	; 0x322 <BCDsendNumber+0x7a>
 31e:	19 82       	std	Y+1, r1	; 0x01
 320:	18 82       	st	Y, r1
 322:	2f 5f       	subi	r18, 0xFF	; 255
 324:	22 96       	adiw	r28, 0x02	; 2
 326:	24 30       	cpi	r18, 0x04	; 4
 328:	d1 f6       	brne	.-76     	; 0x2de <BCDsendNumber+0x36>
 32a:	44 23       	and	r20, r20
 32c:	81 f0       	breq	.+32     	; 0x34e <BCDsendNumber+0xa6>
 32e:	f8 01       	movw	r30, r16
 330:	ee 0f       	add	r30, r30
 332:	ff 1f       	adc	r31, r31
 334:	ee 0f       	add	r30, r30
 336:	ff 1f       	adc	r31, r31
 338:	e4 0f       	add	r30, r20
 33a:	f1 1d       	adc	r31, r1
 33c:	ee 0f       	add	r30, r30
 33e:	ff 1f       	adc	r31, r31
 340:	e9 55       	subi	r30, 0x59	; 89
 342:	ff 4f       	sbci	r31, 0xFF	; 255
 344:	80 81       	ld	r24, Z
 346:	91 81       	ldd	r25, Z+1	; 0x01
 348:	81 60       	ori	r24, 0x01	; 1
 34a:	91 83       	std	Z+1, r25	; 0x01
 34c:	80 83       	st	Z, r24
 34e:	df 91       	pop	r29
 350:	cf 91       	pop	r28
 352:	1f 91       	pop	r17
 354:	0f 91       	pop	r16
 356:	ff 90       	pop	r15
 358:	ef 90       	pop	r14
 35a:	df 90       	pop	r13
 35c:	cf 90       	pop	r12
 35e:	08 95       	ret

00000360 <BCDManage7segment>:
 360:	cf 93       	push	r28
 362:	90 91 b7 00 	lds	r25, 0x00B7
 366:	99 23       	and	r25, r25
 368:	81 f0       	breq	.+32     	; 0x38a <BCDManage7segment+0x2a>
 36a:	80 91 b8 00 	lds	r24, 0x00B8
 36e:	8f 5f       	subi	r24, 0xFF	; 255
 370:	80 93 b8 00 	sts	0x00B8, r24
 374:	89 17       	cp	r24, r25
 376:	59 f4       	brne	.+22     	; 0x38e <BCDManage7segment+0x2e>
 378:	80 91 b9 00 	lds	r24, 0x00B9
 37c:	91 e0       	ldi	r25, 0x01	; 1
 37e:	89 27       	eor	r24, r25
 380:	80 93 b9 00 	sts	0x00B9, r24
 384:	10 92 b8 00 	sts	0x00B8, r1
 388:	02 c0       	rjmp	.+4      	; 0x38e <BCDManage7segment+0x2e>
 38a:	10 92 b9 00 	sts	0x00B9, r1
 38e:	80 91 b9 00 	lds	r24, 0x00B9
 392:	81 30       	cpi	r24, 0x01	; 1
 394:	61 f4       	brne	.+24     	; 0x3ae <BCDManage7segment+0x4e>
 396:	90 91 ba 00 	lds	r25, 0x00BA
 39a:	80 91 bb 00 	lds	r24, 0x00BB
 39e:	98 17       	cp	r25, r24
 3a0:	31 f4       	brne	.+12     	; 0x3ae <BCDManage7segment+0x4e>
 3a2:	90 91 bc 00 	lds	r25, 0x00BC
 3a6:	80 91 bd 00 	lds	r24, 0x00BD
 3aa:	98 17       	cp	r25, r24
 3ac:	89 f0       	breq	.+34     	; 0x3d0 <BCDManage7segment+0x70>
 3ae:	80 91 ba 00 	lds	r24, 0x00BA
 3b2:	e0 91 bd 00 	lds	r30, 0x00BD
 3b6:	f0 e0       	ldi	r31, 0x00	; 0
 3b8:	ee 0f       	add	r30, r30
 3ba:	ff 1f       	adc	r31, r31
 3bc:	ee 0f       	add	r30, r30
 3be:	ff 1f       	adc	r31, r31
 3c0:	e8 0f       	add	r30, r24
 3c2:	f1 1d       	adc	r31, r1
 3c4:	ee 0f       	add	r30, r30
 3c6:	ff 1f       	adc	r31, r31
 3c8:	e9 55       	subi	r30, 0x59	; 89
 3ca:	ff 4f       	sbci	r31, 0xFF	; 255
 3cc:	c0 81       	ld	r28, Z
 3ce:	01 c0       	rjmp	.+2      	; 0x3d2 <BCDManage7segment+0x72>
 3d0:	c0 e0       	ldi	r28, 0x00	; 0
 3d2:	80 91 a6 00 	lds	r24, 0x00A6
 3d6:	81 30       	cpi	r24, 0x01	; 1
 3d8:	09 f4       	brne	.+2      	; 0x3dc <BCDManage7segment+0x7c>
 3da:	c0 95       	com	r28
 3dc:	60 91 bd 00 	lds	r22, 0x00BD
 3e0:	66 0f       	add	r22, r22
 3e2:	66 0f       	add	r22, r22
 3e4:	80 91 ba 00 	lds	r24, 0x00BA
 3e8:	68 0f       	add	r22, r24
 3ea:	80 e0       	ldi	r24, 0x00	; 0
 3ec:	02 d3       	rcall	.+1540   	; 0x9f2 <HWI_4Digit_WRITE>
 3ee:	81 e0       	ldi	r24, 0x01	; 1
 3f0:	6c 2f       	mov	r22, r28
 3f2:	18 d3       	rcall	.+1584   	; 0xa24 <HWI_8Digit_WRITE>
 3f4:	80 91 ba 00 	lds	r24, 0x00BA
 3f8:	8f 5f       	subi	r24, 0xFF	; 255
 3fa:	80 93 ba 00 	sts	0x00BA, r24
 3fe:	84 30       	cpi	r24, 0x04	; 4
 400:	59 f4       	brne	.+22     	; 0x418 <BCDManage7segment+0xb8>
 402:	10 92 ba 00 	sts	0x00BA, r1
 406:	80 91 bd 00 	lds	r24, 0x00BD
 40a:	8f 5f       	subi	r24, 0xFF	; 255
 40c:	80 93 bd 00 	sts	0x00BD, r24
 410:	82 30       	cpi	r24, 0x02	; 2
 412:	11 f4       	brne	.+4      	; 0x418 <BCDManage7segment+0xb8>
 414:	10 92 bd 00 	sts	0x00BD, r1
 418:	cf 91       	pop	r28
 41a:	08 95       	ret

0000041c <BlinkDigit>:
 41c:	80 93 bb 00 	sts	0x00BB, r24
 420:	40 93 b7 00 	sts	0x00B7, r20
 424:	60 93 bc 00 	sts	0x00BC, r22
 428:	08 95       	ret

0000042a <Segment7SendString>:
 42a:	cf 93       	push	r28
 42c:	df 93       	push	r29
 42e:	da 01       	movw	r26, r20
 430:	42 2f       	mov	r20, r18
 432:	50 e0       	ldi	r21, 0x00	; 0
 434:	48 0f       	add	r20, r24
 436:	51 1d       	adc	r21, r1
 438:	45 30       	cpi	r20, 0x05	; 5
 43a:	51 05       	cpc	r21, r1
 43c:	cc f4       	brge	.+50     	; 0x470 <__stack+0x11>
 43e:	70 e0       	ldi	r23, 0x00	; 0
 440:	66 0f       	add	r22, r22
 442:	77 1f       	adc	r23, r23
 444:	66 0f       	add	r22, r22
 446:	77 1f       	adc	r23, r23
 448:	0e c0       	rjmp	.+28     	; 0x466 <__stack+0x7>
 44a:	fb 01       	movw	r30, r22
 44c:	e2 0f       	add	r30, r18
 44e:	f3 1f       	adc	r31, r19
 450:	ee 0f       	add	r30, r30
 452:	ff 1f       	adc	r31, r31
 454:	e9 55       	subi	r30, 0x59	; 89
 456:	ff 4f       	sbci	r31, 0xFF	; 255
 458:	2a 0f       	add	r18, r26
 45a:	3b 1f       	adc	r19, r27
 45c:	e9 01       	movw	r28, r18
 45e:	98 81       	ld	r25, Y
 460:	90 83       	st	Z, r25
 462:	11 82       	std	Z+1, r1	; 0x01
 464:	8f 5f       	subi	r24, 0xFF	; 255
 466:	28 2f       	mov	r18, r24
 468:	30 e0       	ldi	r19, 0x00	; 0
 46a:	24 17       	cp	r18, r20
 46c:	35 07       	cpc	r19, r21
 46e:	6c f3       	brlt	.-38     	; 0x44a <Segment7SendString+0x20>
 470:	df 91       	pop	r29
 472:	cf 91       	pop	r28
 474:	08 95       	ret

00000476 <DisplaySendString>:
 476:	ef 92       	push	r14
 478:	ff 92       	push	r15
 47a:	0f 93       	push	r16
 47c:	1f 93       	push	r17
 47e:	cf 93       	push	r28
 480:	df 93       	push	r29
 482:	00 d0       	rcall	.+0      	; 0x484 <DisplaySendString+0xe>
 484:	00 d0       	rcall	.+0      	; 0x486 <DisplaySendString+0x10>
 486:	cd b7       	in	r28, 0x3d	; 61
 488:	de b7       	in	r29, 0x3e	; 62
 48a:	de 01       	movw	r26, r28
 48c:	a2 0f       	add	r26, r18
 48e:	b1 1d       	adc	r27, r1
 490:	7a 01       	movw	r14, r20
 492:	0e c0       	rjmp	.+28     	; 0x4b0 <DisplaySendString+0x3a>
 494:	f7 01       	movw	r30, r14
 496:	91 91       	ld	r25, Z+
 498:	7f 01       	movw	r14, r30
 49a:	09 2f       	mov	r16, r25
 49c:	01 54       	subi	r16, 0x41	; 65
 49e:	06 32       	cpi	r16, 0x26	; 38
 4a0:	28 f4       	brcc	.+10     	; 0x4ac <DisplaySendString+0x36>
 4a2:	10 e0       	ldi	r17, 0x00	; 0
 4a4:	05 59       	subi	r16, 0x95	; 149
 4a6:	1f 4f       	sbci	r17, 0xFF	; 255
 4a8:	f8 01       	movw	r30, r16
 4aa:	90 81       	ld	r25, Z
 4ac:	9c 93       	st	X, r25
 4ae:	11 97       	sbiw	r26, 0x01	; 1
 4b0:	9e 2d       	mov	r25, r14
 4b2:	94 1b       	sub	r25, r20
 4b4:	92 17       	cp	r25, r18
 4b6:	70 f3       	brcs	.-36     	; 0x494 <DisplaySendString+0x1e>
 4b8:	ae 01       	movw	r20, r28
 4ba:	4f 5f       	subi	r20, 0xFF	; 255
 4bc:	5f 4f       	sbci	r21, 0xFF	; 255
 4be:	b5 df       	rcall	.-150    	; 0x42a <Segment7SendString>
 4c0:	0f 90       	pop	r0
 4c2:	0f 90       	pop	r0
 4c4:	0f 90       	pop	r0
 4c6:	0f 90       	pop	r0
 4c8:	df 91       	pop	r29
 4ca:	cf 91       	pop	r28
 4cc:	1f 91       	pop	r17
 4ce:	0f 91       	pop	r16
 4d0:	ff 90       	pop	r15
 4d2:	ef 90       	pop	r14
 4d4:	08 95       	ret

000004d6 <Eeprom_Write_Block>:
 4d6:	90 91 be 00 	lds	r25, 0x00BE
 4da:	99 23       	and	r25, r25
 4dc:	c9 f4       	brne	.+50     	; 0x510 <Eeprom_Write_Block+0x3a>
 4de:	43 33       	cpi	r20, 0x33	; 51
 4e0:	c8 f4       	brcc	.+50     	; 0x514 <Eeprom_Write_Block+0x3e>
 4e2:	91 e0       	ldi	r25, 0x01	; 1
 4e4:	90 93 be 00 	sts	0x00BE, r25
 4e8:	af eb       	ldi	r26, 0xBF	; 191
 4ea:	b0 e0       	ldi	r27, 0x00	; 0
 4ec:	fb 01       	movw	r30, r22
 4ee:	02 c0       	rjmp	.+4      	; 0x4f4 <Eeprom_Write_Block+0x1e>
 4f0:	91 91       	ld	r25, Z+
 4f2:	9d 93       	st	X+, r25
 4f4:	9e 2f       	mov	r25, r30
 4f6:	96 1b       	sub	r25, r22
 4f8:	94 17       	cp	r25, r20
 4fa:	d0 f3       	brcs	.-12     	; 0x4f0 <Eeprom_Write_Block+0x1a>
 4fc:	40 93 f1 00 	sts	0x00F1, r20
 500:	80 93 f2 00 	sts	0x00F2, r24
 504:	30 93 f4 00 	sts	0x00F4, r19
 508:	20 93 f3 00 	sts	0x00F3, r18
 50c:	81 e0       	ldi	r24, 0x01	; 1
 50e:	08 95       	ret
 510:	80 e0       	ldi	r24, 0x00	; 0
 512:	08 95       	ret
 514:	80 e0       	ldi	r24, 0x00	; 0
 516:	08 95       	ret

00000518 <Eeprom_Read_Block>:
 518:	ef 92       	push	r14
 51a:	ff 92       	push	r15
 51c:	0f 93       	push	r16
 51e:	1f 93       	push	r17
 520:	cf 93       	push	r28
 522:	df 93       	push	r29
 524:	0f 92       	push	r0
 526:	cd b7       	in	r28, 0x3d	; 61
 528:	de b7       	in	r29, 0x3e	; 62
 52a:	18 2f       	mov	r17, r24
 52c:	7b 01       	movw	r14, r22
 52e:	80 91 be 00 	lds	r24, 0x00BE
 532:	88 23       	and	r24, r24
 534:	71 f0       	breq	.+28     	; 0x552 <Eeprom_Read_Block+0x3a>
 536:	80 e0       	ldi	r24, 0x00	; 0
 538:	10 c0       	rjmp	.+32     	; 0x55a <Eeprom_Read_Block+0x42>
 53a:	b7 01       	movw	r22, r14
 53c:	60 0f       	add	r22, r16
 53e:	71 1d       	adc	r23, r1
 540:	80 2f       	mov	r24, r16
 542:	81 0f       	add	r24, r17
 544:	49 83       	std	Y+1, r20	; 0x01
 546:	30 d2       	rcall	.+1120   	; 0x9a8 <HWIeeprom_Read>
 548:	49 81       	ldd	r20, Y+1	; 0x01
 54a:	81 30       	cpi	r24, 0x01	; 1
 54c:	19 f4       	brne	.+6      	; 0x554 <Eeprom_Read_Block+0x3c>
 54e:	0f 5f       	subi	r16, 0xFF	; 255
 550:	01 c0       	rjmp	.+2      	; 0x554 <Eeprom_Read_Block+0x3c>
 552:	00 e0       	ldi	r16, 0x00	; 0
 554:	04 17       	cp	r16, r20
 556:	88 f3       	brcs	.-30     	; 0x53a <Eeprom_Read_Block+0x22>
 558:	81 e0       	ldi	r24, 0x01	; 1
 55a:	0f 90       	pop	r0
 55c:	df 91       	pop	r29
 55e:	cf 91       	pop	r28
 560:	1f 91       	pop	r17
 562:	0f 91       	pop	r16
 564:	ff 90       	pop	r15
 566:	ef 90       	pop	r14
 568:	08 95       	ret

0000056a <EepromManage>:
 56a:	80 91 be 00 	lds	r24, 0x00BE
 56e:	81 30       	cpi	r24, 0x01	; 1
 570:	11 f5       	brne	.+68     	; 0x5b6 <EepromManage+0x4c>
 572:	80 91 f5 00 	lds	r24, 0x00F5
 576:	90 91 f1 00 	lds	r25, 0x00F1
 57a:	89 17       	cp	r24, r25
 57c:	61 f4       	brne	.+24     	; 0x596 <EepromManage+0x2c>
 57e:	10 92 f5 00 	sts	0x00F5, r1
 582:	10 92 be 00 	sts	0x00BE, r1
 586:	e0 91 f3 00 	lds	r30, 0x00F3
 58a:	f0 91 f4 00 	lds	r31, 0x00F4
 58e:	30 97       	sbiw	r30, 0x00	; 0
 590:	91 f0       	breq	.+36     	; 0x5b6 <EepromManage+0x4c>
 592:	09 95       	icall
 594:	08 95       	ret
 596:	90 91 f2 00 	lds	r25, 0x00F2
 59a:	e8 2f       	mov	r30, r24
 59c:	f0 e0       	ldi	r31, 0x00	; 0
 59e:	e1 54       	subi	r30, 0x41	; 65
 5a0:	ff 4f       	sbci	r31, 0xFF	; 255
 5a2:	89 0f       	add	r24, r25
 5a4:	60 81       	ld	r22, Z
 5a6:	f4 d1       	rcall	.+1000   	; 0x990 <HWIeeprom_Write>
 5a8:	81 30       	cpi	r24, 0x01	; 1
 5aa:	29 f4       	brne	.+10     	; 0x5b6 <EepromManage+0x4c>
 5ac:	80 91 f5 00 	lds	r24, 0x00F5
 5b0:	8f 5f       	subi	r24, 0xFF	; 255
 5b2:	80 93 f5 00 	sts	0x00F5, r24
 5b6:	08 95       	ret

000005b8 <KeyInitialize>:
 5b8:	89 e0       	ldi	r24, 0x09	; 9
 5ba:	e6 ef       	ldi	r30, 0xF6	; 246
 5bc:	f0 e0       	ldi	r31, 0x00	; 0
 5be:	df 01       	movw	r26, r30
 5c0:	1d 92       	st	X+, r1
 5c2:	8a 95       	dec	r24
 5c4:	e9 f7       	brne	.-6      	; 0x5c0 <KeyInitialize+0x8>
 5c6:	08 95       	ret

000005c8 <GetKeyStatus>:
 5c8:	90 e0       	ldi	r25, 0x00	; 0
 5ca:	fc 01       	movw	r30, r24
 5cc:	ee 0f       	add	r30, r30
 5ce:	ff 1f       	adc	r31, r31
 5d0:	e8 0f       	add	r30, r24
 5d2:	f9 1f       	adc	r31, r25
 5d4:	ea 50       	subi	r30, 0x0A	; 10
 5d6:	ff 4f       	sbci	r31, 0xFF	; 255
 5d8:	80 81       	ld	r24, Z
 5da:	98 2f       	mov	r25, r24
 5dc:	9f 73       	andi	r25, 0x3F	; 63
 5de:	90 83       	st	Z, r25
 5e0:	08 95       	ret

000005e2 <MangeKeys>:
 5e2:	ef 92       	push	r14
 5e4:	ff 92       	push	r15
 5e6:	0f 93       	push	r16
 5e8:	1f 93       	push	r17
 5ea:	cf 93       	push	r28
 5ec:	df 93       	push	r29
 5ee:	0f 92       	push	r0
 5f0:	cd b7       	in	r28, 0x3d	; 61
 5f2:	de b7       	in	r29, 0x3e	; 62
 5f4:	90 e0       	ldi	r25, 0x00	; 0
 5f6:	7c 01       	movw	r14, r24
 5f8:	ee 0c       	add	r14, r14
 5fa:	ff 1c       	adc	r15, r15
 5fc:	e8 0e       	add	r14, r24
 5fe:	f9 1e       	adc	r15, r25
 600:	26 ef       	ldi	r18, 0xF6	; 246
 602:	30 e0       	ldi	r19, 0x00	; 0
 604:	e2 0e       	add	r14, r18
 606:	f3 1e       	adc	r15, r19
 608:	f7 01       	movw	r30, r14
 60a:	20 81       	ld	r18, Z
 60c:	2f 73       	andi	r18, 0x3F	; 63
 60e:	8c 01       	movw	r16, r24
 610:	43 e0       	ldi	r20, 0x03	; 3
 612:	00 0f       	add	r16, r16
 614:	11 1f       	adc	r17, r17
 616:	4a 95       	dec	r20
 618:	e1 f7       	brne	.-8      	; 0x612 <MangeKeys+0x30>
 61a:	0b 57       	subi	r16, 0x7B	; 123
 61c:	1f 4f       	sbci	r17, 0xFF	; 255
 61e:	f8 01       	movw	r30, r16
 620:	80 81       	ld	r24, Z
 622:	29 83       	std	Y+1, r18	; 0x01
 624:	d4 d1       	rcall	.+936    	; 0x9ce <HWI_DIGI_READ>
 626:	29 81       	ldd	r18, Y+1	; 0x01
 628:	21 30       	cpi	r18, 0x01	; 1
 62a:	f9 f0       	breq	.+62     	; 0x66a <MangeKeys+0x88>
 62c:	21 30       	cpi	r18, 0x01	; 1
 62e:	20 f0       	brcs	.+8      	; 0x638 <MangeKeys+0x56>
 630:	22 30       	cpi	r18, 0x02	; 2
 632:	09 f0       	breq	.+2      	; 0x636 <MangeKeys+0x54>
 634:	5c c0       	rjmp	.+184    	; 0x6ee <MangeKeys+0x10c>
 636:	46 c0       	rjmp	.+140    	; 0x6c4 <MangeKeys+0xe2>
 638:	f8 01       	movw	r30, r16
 63a:	91 81       	ldd	r25, Z+1	; 0x01
 63c:	f7 01       	movw	r30, r14
 63e:	98 17       	cp	r25, r24
 640:	89 f4       	brne	.+34     	; 0x664 <MangeKeys+0x82>
 642:	81 81       	ldd	r24, Z+1	; 0x01
 644:	92 81       	ldd	r25, Z+2	; 0x02
 646:	01 96       	adiw	r24, 0x01	; 1
 648:	92 83       	std	Z+2, r25	; 0x02
 64a:	81 83       	std	Z+1, r24	; 0x01
 64c:	f8 01       	movw	r30, r16
 64e:	24 81       	ldd	r18, Z+4	; 0x04
 650:	35 81       	ldd	r19, Z+5	; 0x05
 652:	28 17       	cp	r18, r24
 654:	39 07       	cpc	r19, r25
 656:	09 f0       	breq	.+2      	; 0x65a <MangeKeys+0x78>
 658:	4c c0       	rjmp	.+152    	; 0x6f2 <MangeKeys+0x110>
 65a:	81 e8       	ldi	r24, 0x81	; 129
 65c:	f7 01       	movw	r30, r14
 65e:	80 83       	st	Z, r24
 660:	f8 01       	movw	r30, r16
 662:	34 c0       	rjmp	.+104    	; 0x6cc <MangeKeys+0xea>
 664:	12 82       	std	Z+2, r1	; 0x02
 666:	11 82       	std	Z+1, r1	; 0x01
 668:	44 c0       	rjmp	.+136    	; 0x6f2 <MangeKeys+0x110>
 66a:	f8 01       	movw	r30, r16
 66c:	91 81       	ldd	r25, Z+1	; 0x01
 66e:	f7 01       	movw	r30, r14
 670:	21 81       	ldd	r18, Z+1	; 0x01
 672:	32 81       	ldd	r19, Z+2	; 0x02
 674:	f8 01       	movw	r30, r16
 676:	42 81       	ldd	r20, Z+2	; 0x02
 678:	53 81       	ldd	r21, Z+3	; 0x03
 67a:	98 17       	cp	r25, r24
 67c:	b1 f4       	brne	.+44     	; 0x6aa <MangeKeys+0xc8>
 67e:	24 17       	cp	r18, r20
 680:	35 07       	cpc	r19, r21
 682:	78 f0       	brcs	.+30     	; 0x6a2 <MangeKeys+0xc0>
 684:	2f 5f       	subi	r18, 0xFF	; 255
 686:	3f 4f       	sbci	r19, 0xFF	; 255
 688:	f7 01       	movw	r30, r14
 68a:	32 83       	std	Z+2, r19	; 0x02
 68c:	21 83       	std	Z+1, r18	; 0x01
 68e:	f8 01       	movw	r30, r16
 690:	86 81       	ldd	r24, Z+6	; 0x06
 692:	97 81       	ldd	r25, Z+7	; 0x07
 694:	82 17       	cp	r24, r18
 696:	93 07       	cpc	r25, r19
 698:	61 f5       	brne	.+88     	; 0x6f2 <MangeKeys+0x110>
 69a:	82 e8       	ldi	r24, 0x82	; 130
 69c:	f7 01       	movw	r30, r14
 69e:	80 83       	st	Z, r24
 6a0:	01 c0       	rjmp	.+2      	; 0x6a4 <MangeKeys+0xc2>
 6a2:	f7 01       	movw	r30, r14
 6a4:	52 83       	std	Z+2, r21	; 0x02
 6a6:	41 83       	std	Z+1, r20	; 0x01
 6a8:	24 c0       	rjmp	.+72     	; 0x6f2 <MangeKeys+0x110>
 6aa:	42 17       	cp	r20, r18
 6ac:	53 07       	cpc	r21, r19
 6ae:	c8 f3       	brcs	.-14     	; 0x6a2 <MangeKeys+0xc0>
 6b0:	21 50       	subi	r18, 0x01	; 1
 6b2:	30 40       	sbci	r19, 0x00	; 0
 6b4:	f7 01       	movw	r30, r14
 6b6:	32 83       	std	Z+2, r19	; 0x02
 6b8:	21 83       	std	Z+1, r18	; 0x01
 6ba:	21 15       	cp	r18, r1
 6bc:	31 05       	cpc	r19, r1
 6be:	c9 f4       	brne	.+50     	; 0x6f2 <MangeKeys+0x110>
 6c0:	80 e4       	ldi	r24, 0x40	; 64
 6c2:	13 c0       	rjmp	.+38     	; 0x6ea <MangeKeys+0x108>
 6c4:	f8 01       	movw	r30, r16
 6c6:	91 81       	ldd	r25, Z+1	; 0x01
 6c8:	98 17       	cp	r25, r24
 6ca:	31 f4       	brne	.+12     	; 0x6d8 <MangeKeys+0xf6>
 6cc:	82 81       	ldd	r24, Z+2	; 0x02
 6ce:	93 81       	ldd	r25, Z+3	; 0x03
 6d0:	f7 01       	movw	r30, r14
 6d2:	92 83       	std	Z+2, r25	; 0x02
 6d4:	81 83       	std	Z+1, r24	; 0x01
 6d6:	0d c0       	rjmp	.+26     	; 0x6f2 <MangeKeys+0x110>
 6d8:	f7 01       	movw	r30, r14
 6da:	81 81       	ldd	r24, Z+1	; 0x01
 6dc:	92 81       	ldd	r25, Z+2	; 0x02
 6de:	01 97       	sbiw	r24, 0x01	; 1
 6e0:	92 83       	std	Z+2, r25	; 0x02
 6e2:	81 83       	std	Z+1, r24	; 0x01
 6e4:	00 97       	sbiw	r24, 0x00	; 0
 6e6:	29 f4       	brne	.+10     	; 0x6f2 <MangeKeys+0x110>
 6e8:	80 e8       	ldi	r24, 0x80	; 128
 6ea:	80 83       	st	Z, r24
 6ec:	02 c0       	rjmp	.+4      	; 0x6f2 <MangeKeys+0x110>
 6ee:	f7 01       	movw	r30, r14
 6f0:	10 82       	st	Z, r1
 6f2:	0f 90       	pop	r0
 6f4:	df 91       	pop	r29
 6f6:	cf 91       	pop	r28
 6f8:	1f 91       	pop	r17
 6fa:	0f 91       	pop	r16
 6fc:	ff 90       	pop	r15
 6fe:	ef 90       	pop	r14
 700:	08 95       	ret

00000702 <SpeedCalcNotifyInitialize>:
 702:	08 95       	ret

00000704 <SensorOneNotify>:
 704:	80 91 03 01 	lds	r24, 0x0103
 708:	81 30       	cpi	r24, 0x01	; 1
 70a:	19 f4       	brne	.+6      	; 0x712 <SensorOneNotify+0xe>
 70c:	10 92 03 01 	sts	0x0103, r1
 710:	08 95       	ret
 712:	80 91 02 01 	lds	r24, 0x0102
 716:	88 23       	and	r24, r24
 718:	29 f0       	breq	.+10     	; 0x724 <SensorOneNotify+0x20>
 71a:	80 91 02 01 	lds	r24, 0x0102
 71e:	81 50       	subi	r24, 0x01	; 1
 720:	80 93 02 01 	sts	0x0102, r24
 724:	08 95       	ret

00000726 <SensorTwoNotify>:
 726:	80 91 03 01 	lds	r24, 0x0103
 72a:	88 23       	and	r24, r24
 72c:	a9 f4       	brne	.+42     	; 0x758 <SensorTwoNotify+0x32>
 72e:	81 e0       	ldi	r24, 0x01	; 1
 730:	80 93 03 01 	sts	0x0103, r24
 734:	80 91 02 01 	lds	r24, 0x0102
 738:	8f 5f       	subi	r24, 0xFF	; 255
 73a:	80 93 02 01 	sts	0x0102, r24
 73e:	81 e0       	ldi	r24, 0x01	; 1
 740:	a0 d1       	rcall	.+832    	; 0xa82 <ReloadHWtimer>
 742:	90 93 01 01 	sts	0x0101, r25
 746:	80 93 00 01 	sts	0x0100, r24
 74a:	80 91 ff 00 	lds	r24, 0x00FF
 74e:	80 93 04 01 	sts	0x0104, r24
 752:	10 92 ff 00 	sts	0x00FF, r1
 756:	08 95       	ret
 758:	80 91 02 01 	lds	r24, 0x0102
 75c:	88 23       	and	r24, r24
 75e:	29 f0       	breq	.+10     	; 0x76a <SensorTwoNotify+0x44>
 760:	80 91 02 01 	lds	r24, 0x0102
 764:	81 50       	subi	r24, 0x01	; 1
 766:	80 93 02 01 	sts	0x0102, r24
 76a:	08 95       	ret

0000076c <SpeedCalcManage>:
 76c:	cf 93       	push	r28
 76e:	df 93       	push	r29
 770:	40 91 00 01 	lds	r20, 0x0100
 774:	50 91 01 01 	lds	r21, 0x0101
 778:	20 91 04 01 	lds	r18, 0x0104
 77c:	30 e0       	ldi	r19, 0x00	; 0
 77e:	8f e8       	ldi	r24, 0x8F	; 143
 780:	92 e0       	ldi	r25, 0x02	; 2
 782:	28 9f       	mul	r18, r24
 784:	f0 01       	movw	r30, r0
 786:	29 9f       	mul	r18, r25
 788:	f0 0d       	add	r31, r0
 78a:	38 9f       	mul	r19, r24
 78c:	f0 0d       	add	r31, r0
 78e:	11 24       	eor	r1, r1
 790:	ca 01       	movw	r24, r20
 792:	64 e6       	ldi	r22, 0x64	; 100
 794:	70 e0       	ldi	r23, 0x00	; 0
 796:	4d d2       	rcall	.+1178   	; 0xc32 <__udivmodhi4>
 798:	e6 0f       	add	r30, r22
 79a:	f7 1f       	adc	r31, r23
 79c:	f0 93 06 01 	sts	0x0106, r31
 7a0:	e0 93 05 01 	sts	0x0105, r30
 7a4:	80 91 02 01 	lds	r24, 0x0102
 7a8:	c0 91 07 01 	lds	r28, 0x0107
 7ac:	d0 91 08 01 	lds	r29, 0x0108
 7b0:	c8 0f       	add	r28, r24
 7b2:	d1 1d       	adc	r29, r1
 7b4:	d0 93 08 01 	sts	0x0108, r29
 7b8:	c0 93 07 01 	sts	0x0107, r28
 7bc:	10 92 02 01 	sts	0x0102, r1
 7c0:	20 91 9d 00 	lds	r18, 0x009D
 7c4:	30 91 9e 00 	lds	r19, 0x009E
 7c8:	40 e0       	ldi	r20, 0x00	; 0
 7ca:	50 e0       	ldi	r21, 0x00	; 0
 7cc:	60 ea       	ldi	r22, 0xA0	; 160
 7ce:	76 e8       	ldi	r23, 0x86	; 134
 7d0:	81 e0       	ldi	r24, 0x01	; 1
 7d2:	90 e0       	ldi	r25, 0x00	; 0
 7d4:	42 d2       	rcall	.+1156   	; 0xc5a <__udivmodsi4>
 7d6:	c2 17       	cp	r28, r18
 7d8:	d3 07       	cpc	r29, r19
 7da:	c8 f0       	brcs	.+50     	; 0x80e <SpeedCalcManage+0xa2>
 7dc:	80 91 09 01 	lds	r24, 0x0109
 7e0:	90 91 0a 01 	lds	r25, 0x010A
 7e4:	a0 91 0b 01 	lds	r26, 0x010B
 7e8:	b0 91 0c 01 	lds	r27, 0x010C
 7ec:	01 96       	adiw	r24, 0x01	; 1
 7ee:	a1 1d       	adc	r26, r1
 7f0:	b1 1d       	adc	r27, r1
 7f2:	80 93 09 01 	sts	0x0109, r24
 7f6:	90 93 0a 01 	sts	0x010A, r25
 7fa:	a0 93 0b 01 	sts	0x010B, r26
 7fe:	b0 93 0c 01 	sts	0x010C, r27
 802:	c2 1b       	sub	r28, r18
 804:	d3 0b       	sbc	r29, r19
 806:	d0 93 08 01 	sts	0x0108, r29
 80a:	c0 93 07 01 	sts	0x0107, r28
 80e:	df 91       	pop	r29
 810:	cf 91       	pop	r28
 812:	08 95       	ret

00000814 <SetDistance>:
 814:	dc 01       	movw	r26, r24
 816:	cb 01       	movw	r24, r22
 818:	80 93 09 01 	sts	0x0109, r24
 81c:	90 93 0a 01 	sts	0x010A, r25
 820:	a0 93 0b 01 	sts	0x010B, r26
 824:	b0 93 0c 01 	sts	0x010C, r27
 828:	08 95       	ret

0000082a <GetDistance>:
 82a:	60 91 09 01 	lds	r22, 0x0109
 82e:	70 91 0a 01 	lds	r23, 0x010A
 832:	80 91 0b 01 	lds	r24, 0x010B
 836:	90 91 0c 01 	lds	r25, 0x010C
 83a:	08 95       	ret

0000083c <SetCircumfirunce>:
 83c:	90 93 9e 00 	sts	0x009E, r25
 840:	80 93 9d 00 	sts	0x009D, r24
 844:	08 95       	ret

00000846 <GetAvgSpeed>:
 846:	cf 93       	push	r28
 848:	df 93       	push	r29
 84a:	81 30       	cpi	r24, 0x01	; 1
 84c:	29 f4       	brne	.+10     	; 0x858 <GetAvgSpeed+0x12>
 84e:	68 e6       	ldi	r22, 0x68	; 104
 850:	71 e0       	ldi	r23, 0x01	; 1
 852:	80 e0       	ldi	r24, 0x00	; 0
 854:	90 e0       	ldi	r25, 0x00	; 0
 856:	04 c0       	rjmp	.+8      	; 0x860 <GetAvgSpeed+0x1a>
 858:	61 ee       	ldi	r22, 0xE1	; 225
 85a:	70 e0       	ldi	r23, 0x00	; 0
 85c:	80 e0       	ldi	r24, 0x00	; 0
 85e:	90 e0       	ldi	r25, 0x00	; 0
 860:	c0 91 05 01 	lds	r28, 0x0105
 864:	d0 91 06 01 	lds	r29, 0x0106
 868:	20 97       	sbiw	r28, 0x00	; 0
 86a:	69 f0       	breq	.+26     	; 0x886 <GetAvgSpeed+0x40>
 86c:	20 91 9d 00 	lds	r18, 0x009D
 870:	30 91 9e 00 	lds	r19, 0x009E
 874:	40 e0       	ldi	r20, 0x00	; 0
 876:	50 e0       	ldi	r21, 0x00	; 0
 878:	bd d1       	rcall	.+890    	; 0xbf4 <__mulsi3>
 87a:	9e 01       	movw	r18, r28
 87c:	40 e0       	ldi	r20, 0x00	; 0
 87e:	50 e0       	ldi	r21, 0x00	; 0
 880:	ec d1       	rcall	.+984    	; 0xc5a <__udivmodsi4>
 882:	c9 01       	movw	r24, r18
 884:	02 c0       	rjmp	.+4      	; 0x88a <GetAvgSpeed+0x44>
 886:	80 e0       	ldi	r24, 0x00	; 0
 888:	90 e0       	ldi	r25, 0x00	; 0
 88a:	20 91 ff 00 	lds	r18, 0x00FF
 88e:	20 34       	cpi	r18, 0x40	; 64
 890:	11 f4       	brne	.+4      	; 0x896 <GetAvgSpeed+0x50>
 892:	80 e0       	ldi	r24, 0x00	; 0
 894:	90 e0       	ldi	r25, 0x00	; 0
 896:	df 91       	pop	r29
 898:	cf 91       	pop	r28
 89a:	08 95       	ret

0000089c <HWtimerCallback>:
 89c:	80 91 ff 00 	lds	r24, 0x00FF
 8a0:	80 34       	cpi	r24, 0x40	; 64
 8a2:	28 f4       	brcc	.+10     	; 0x8ae <HWtimerCallback+0x12>
 8a4:	80 91 ff 00 	lds	r24, 0x00FF
 8a8:	8f 5f       	subi	r24, 0xFF	; 255
 8aa:	80 93 ff 00 	sts	0x00FF, r24
 8ae:	08 95       	ret

000008b0 <APP_ISR1>:
 8b0:	29 df       	rcall	.-430    	; 0x704 <SensorOneNotify>
 8b2:	08 95       	ret

000008b4 <APP_ISR2>:
 8b4:	38 df       	rcall	.-400    	; 0x726 <SensorTwoNotify>
 8b6:	08 95       	ret

000008b8 <APP_ISR3>:
 8b8:	f1 df       	rcall	.-30     	; 0x89c <HWtimerCallback>
 8ba:	08 95       	ret

000008bc <ManageDrivers>:
 8bc:	80 e0       	ldi	r24, 0x00	; 0
 8be:	91 de       	rcall	.-734    	; 0x5e2 <MangeKeys>
 8c0:	81 e0       	ldi	r24, 0x01	; 1
 8c2:	8f de       	rcall	.-738    	; 0x5e2 <MangeKeys>
 8c4:	82 e0       	ldi	r24, 0x02	; 2
 8c6:	8d de       	rcall	.-742    	; 0x5e2 <MangeKeys>
 8c8:	50 de       	rcall	.-864    	; 0x56a <EepromManage>
 8ca:	08 95       	ret

000008cc <ManageSpeedCalc>:
 8cc:	4f df       	rcall	.-354    	; 0x76c <SpeedCalcManage>
 8ce:	08 95       	ret

000008d0 <ManageApplication>:
 8d0:	59 dc       	rcall	.-1870   	; 0x184 <APP_MANAGE>
 8d2:	08 95       	ret

000008d4 <DisplayAlphaNumeric>:
 8d4:	45 dd       	rcall	.-1398   	; 0x360 <BCDManage7segment>
 8d6:	08 95       	ret

000008d8 <Start_App>:
 8d8:	b1 d0       	rcall	.+354    	; 0xa3c <HWI_INTERRUPTS_INTITALIZE>
 8da:	73 d0       	rcall	.+230    	; 0x9c2 <HWI_DIGITAL_INITIALIZE>
 8dc:	12 df       	rcall	.-476    	; 0x702 <SpeedCalcNotifyInitialize>
 8de:	3e dc       	rcall	.-1924   	; 0x15c <APP_INITIALIZE>
 8e0:	81 e0       	ldi	r24, 0x01	; 1
 8e2:	df dc       	rcall	.-1602   	; 0x2a2 <BCDInitialize>
 8e4:	86 e6       	ldi	r24, 0x66	; 102
 8e6:	94 e0       	ldi	r25, 0x04	; 4
 8e8:	60 e0       	ldi	r22, 0x00	; 0
 8ea:	44 e1       	ldi	r20, 0x14	; 20
 8ec:	11 d0       	rcall	.+34     	; 0x910 <CreateTask>
 8ee:	88 e6       	ldi	r24, 0x68	; 104
 8f0:	94 e0       	ldi	r25, 0x04	; 4
 8f2:	62 e0       	ldi	r22, 0x02	; 2
 8f4:	42 e3       	ldi	r20, 0x32	; 50
 8f6:	0c d0       	rcall	.+24     	; 0x910 <CreateTask>
 8f8:	8a e6       	ldi	r24, 0x6A	; 106
 8fa:	94 e0       	ldi	r25, 0x04	; 4
 8fc:	61 e0       	ldi	r22, 0x01	; 1
 8fe:	42 e0       	ldi	r20, 0x02	; 2
 900:	07 d0       	rcall	.+14     	; 0x910 <CreateTask>
 902:	8e e5       	ldi	r24, 0x5E	; 94
 904:	94 e0       	ldi	r25, 0x04	; 4
 906:	63 e0       	ldi	r22, 0x03	; 3
 908:	4a e0       	ldi	r20, 0x0A	; 10
 90a:	02 d0       	rcall	.+4      	; 0x910 <CreateTask>
 90c:	1b d0       	rcall	.+54     	; 0x944 <RunScheduler>
 90e:	08 95       	ret

00000910 <CreateTask>:
 910:	64 30       	cpi	r22, 0x04	; 4
 912:	60 f4       	brcc	.+24     	; 0x92c <CreateTask+0x1c>
 914:	e6 2f       	mov	r30, r22
 916:	f0 e0       	ldi	r31, 0x00	; 0
 918:	ee 0f       	add	r30, r30
 91a:	ff 1f       	adc	r31, r31
 91c:	ee 0f       	add	r30, r30
 91e:	ff 1f       	adc	r31, r31
 920:	e3 5f       	subi	r30, 0xF3	; 243
 922:	fe 4f       	sbci	r31, 0xFE	; 254
 924:	91 83       	std	Z+1, r25	; 0x01
 926:	80 83       	st	Z, r24
 928:	42 83       	std	Z+2, r20	; 0x02
 92a:	13 82       	std	Z+3, r1	; 0x03
 92c:	08 95       	ret

0000092e <SchedulerTick>:
 92e:	e0 e1       	ldi	r30, 0x10	; 16
 930:	f1 e0       	ldi	r31, 0x01	; 1
 932:	84 e0       	ldi	r24, 0x04	; 4
 934:	90 81       	ld	r25, Z
 936:	9f 5f       	subi	r25, 0xFF	; 255
 938:	90 83       	st	Z, r25
 93a:	81 50       	subi	r24, 0x01	; 1
 93c:	34 96       	adiw	r30, 0x04	; 4
 93e:	88 23       	and	r24, r24
 940:	c9 f7       	brne	.-14     	; 0x934 <SchedulerTick+0x6>
 942:	08 95       	ret

00000944 <RunScheduler>:
 944:	10 92 1d 01 	sts	0x011D, r1
 948:	1e c0       	rjmp	.+60     	; 0x986 <RunScheduler+0x42>
 94a:	f0 e0       	ldi	r31, 0x00	; 0
 94c:	ee 0f       	add	r30, r30
 94e:	ff 1f       	adc	r31, r31
 950:	ee 0f       	add	r30, r30
 952:	ff 1f       	adc	r31, r31
 954:	e3 5f       	subi	r30, 0xF3	; 243
 956:	fe 4f       	sbci	r31, 0xFE	; 254
 958:	92 81       	ldd	r25, Z+2	; 0x02
 95a:	83 81       	ldd	r24, Z+3	; 0x03
 95c:	89 17       	cp	r24, r25
 95e:	70 f0       	brcs	.+28     	; 0x97c <RunScheduler+0x38>
 960:	01 90       	ld	r0, Z+
 962:	f0 81       	ld	r31, Z
 964:	e0 2d       	mov	r30, r0
 966:	09 95       	icall
 968:	e0 91 1d 01 	lds	r30, 0x011D
 96c:	f0 e0       	ldi	r31, 0x00	; 0
 96e:	ee 0f       	add	r30, r30
 970:	ff 1f       	adc	r31, r31
 972:	ee 0f       	add	r30, r30
 974:	ff 1f       	adc	r31, r31
 976:	e3 5f       	subi	r30, 0xF3	; 243
 978:	fe 4f       	sbci	r31, 0xFE	; 254
 97a:	13 82       	std	Z+3, r1	; 0x03
 97c:	80 91 1d 01 	lds	r24, 0x011D
 980:	8f 5f       	subi	r24, 0xFF	; 255
 982:	80 93 1d 01 	sts	0x011D, r24
 986:	e0 91 1d 01 	lds	r30, 0x011D
 98a:	e4 30       	cpi	r30, 0x04	; 4
 98c:	d8 f6       	brcc	.-74     	; 0x944 <RunScheduler>
 98e:	dd cf       	rjmp	.-70     	; 0x94a <RunScheduler+0x6>

00000990 <HWIeeprom_Write>:
 990:	e1 99       	sbic	0x1c, 1	; 28
 992:	08 c0       	rjmp	.+16     	; 0x9a4 <HWIeeprom_Write+0x14>
 994:	90 e0       	ldi	r25, 0x00	; 0
 996:	9f bb       	out	0x1f, r25	; 31
 998:	8e bb       	out	0x1e, r24	; 30
 99a:	6d bb       	out	0x1d, r22	; 29
 99c:	e2 9a       	sbi	0x1c, 2	; 28
 99e:	e1 9a       	sbi	0x1c, 1	; 28
 9a0:	81 e0       	ldi	r24, 0x01	; 1
 9a2:	08 95       	ret
 9a4:	80 e0       	ldi	r24, 0x00	; 0
 9a6:	08 95       	ret

000009a8 <HWIeeprom_Read>:
 9a8:	e1 99       	sbic	0x1c, 1	; 28
 9aa:	09 c0       	rjmp	.+18     	; 0x9be <HWIeeprom_Read+0x16>
 9ac:	90 e0       	ldi	r25, 0x00	; 0
 9ae:	9f bb       	out	0x1f, r25	; 31
 9b0:	8e bb       	out	0x1e, r24	; 30
 9b2:	e0 9a       	sbi	0x1c, 0	; 28
 9b4:	8d b3       	in	r24, 0x1d	; 29
 9b6:	fb 01       	movw	r30, r22
 9b8:	80 83       	st	Z, r24
 9ba:	81 e0       	ldi	r24, 0x01	; 1
 9bc:	08 95       	ret
 9be:	80 e0       	ldi	r24, 0x00	; 0
 9c0:	08 95       	ret

000009c2 <HWI_DIGITAL_INITIALIZE>:
 9c2:	8f ef       	ldi	r24, 0xFF	; 255
 9c4:	87 bb       	out	0x17, r24	; 23
 9c6:	84 bb       	out	0x14, r24	; 20
 9c8:	11 ba       	out	0x11, r1	; 17
 9ca:	82 bb       	out	0x12, r24	; 18
 9cc:	08 95       	ret

000009ce <HWI_DIGI_READ>:
 9ce:	80 31       	cpi	r24, 0x10	; 16
 9d0:	39 f0       	breq	.+14     	; 0x9e0 <HWI_DIGI_READ+0x12>
 9d2:	81 31       	cpi	r24, 0x11	; 17
 9d4:	41 f0       	breq	.+16     	; 0x9e6 <HWI_DIGI_READ+0x18>
 9d6:	8f 30       	cpi	r24, 0x0F	; 15
 9d8:	49 f4       	brne	.+18     	; 0x9ec <HWI_DIGI_READ+0x1e>
 9da:	80 b3       	in	r24, 0x10	; 16
 9dc:	80 71       	andi	r24, 0x10	; 16
 9de:	08 95       	ret
 9e0:	80 b3       	in	r24, 0x10	; 16
 9e2:	80 72       	andi	r24, 0x20	; 32
 9e4:	08 95       	ret
 9e6:	80 b3       	in	r24, 0x10	; 16
 9e8:	80 74       	andi	r24, 0x40	; 64
 9ea:	08 95       	ret
 9ec:	80 e0       	ldi	r24, 0x00	; 0
 9ee:	08 95       	ret

000009f0 <HWI_DIGI_WRITE>:
 9f0:	08 95       	ret

000009f2 <HWI_4Digit_WRITE>:
 9f2:	88 23       	and	r24, r24
 9f4:	29 f4       	brne	.+10     	; 0xa00 <HWI_4Digit_WRITE+0xe>
 9f6:	85 b3       	in	r24, 0x15	; 21
 9f8:	80 7f       	andi	r24, 0xF0	; 240
 9fa:	86 2b       	or	r24, r22
 9fc:	85 bb       	out	0x15, r24	; 21
 9fe:	08 95       	ret
 a00:	88 b3       	in	r24, 0x18	; 24
 a02:	80 7f       	andi	r24, 0xF0	; 240
 a04:	86 2b       	or	r24, r22
 a06:	88 bb       	out	0x18, r24	; 24
 a08:	08 95       	ret

00000a0a <HWI_4Digit_READ>:
 a0a:	88 23       	and	r24, r24
 a0c:	19 f0       	breq	.+6      	; 0xa14 <HWI_4Digit_READ+0xa>
 a0e:	81 30       	cpi	r24, 0x01	; 1
 a10:	31 f4       	brne	.+12     	; 0xa1e <HWI_4Digit_READ+0x14>
 a12:	02 c0       	rjmp	.+4      	; 0xa18 <HWI_4Digit_READ+0xe>
 a14:	83 b3       	in	r24, 0x13	; 19
 a16:	01 c0       	rjmp	.+2      	; 0xa1a <HWI_4Digit_READ+0x10>
 a18:	86 b3       	in	r24, 0x16	; 22
 a1a:	8f 70       	andi	r24, 0x0F	; 15
 a1c:	08 95       	ret
 a1e:	86 b3       	in	r24, 0x16	; 22
 a20:	8f 70       	andi	r24, 0x0F	; 15
 a22:	08 95       	ret

00000a24 <HWI_8Digit_WRITE>:
 a24:	88 23       	and	r24, r24
 a26:	11 f4       	brne	.+4      	; 0xa2c <HWI_8Digit_WRITE+0x8>
 a28:	65 bb       	out	0x15, r22	; 21
 a2a:	08 95       	ret
 a2c:	68 bb       	out	0x18, r22	; 24
 a2e:	08 95       	ret

00000a30 <HWI8Digit_READ>:
 a30:	88 23       	and	r24, r24
 a32:	11 f0       	breq	.+4      	; 0xa38 <HWI8Digit_READ+0x8>
 a34:	86 b3       	in	r24, 0x16	; 22
 a36:	08 95       	ret
 a38:	83 b3       	in	r24, 0x13	; 19
 a3a:	08 95       	ret

00000a3c <HWI_INTERRUPTS_INTITALIZE>:
 a3c:	8e b5       	in	r24, 0x2e	; 46
 a3e:	82 60       	ori	r24, 0x02	; 2
 a40:	8e bd       	out	0x2e, r24	; 46
 a42:	8f ef       	ldi	r24, 0xFF	; 255
 a44:	9f e7       	ldi	r25, 0x7F	; 127
 a46:	9d bd       	out	0x2d, r25	; 45
 a48:	8c bd       	out	0x2c, r24	; 44
 a4a:	83 b7       	in	r24, 0x33	; 51
 a4c:	83 60       	ori	r24, 0x03	; 3
 a4e:	83 bf       	out	0x33, r24	; 51
 a50:	82 ec       	ldi	r24, 0xC2	; 194
 a52:	82 bf       	out	0x32, r24	; 50
 a54:	89 b7       	in	r24, 0x39	; 57
 a56:	81 60       	ori	r24, 0x01	; 1
 a58:	89 bf       	out	0x39, r24	; 57
 a5a:	89 b7       	in	r24, 0x39	; 57
 a5c:	84 60       	ori	r24, 0x04	; 4
 a5e:	89 bf       	out	0x39, r24	; 57
 a60:	8b b7       	in	r24, 0x3b	; 59
 a62:	80 64       	ori	r24, 0x40	; 64
 a64:	8b bf       	out	0x3b, r24	; 59
 a66:	85 b7       	in	r24, 0x35	; 53
 a68:	83 60       	ori	r24, 0x03	; 3
 a6a:	85 bf       	out	0x35, r24	; 53
 a6c:	8b b7       	in	r24, 0x3b	; 59
 a6e:	80 68       	ori	r24, 0x80	; 128
 a70:	8b bf       	out	0x3b, r24	; 59
 a72:	85 b7       	in	r24, 0x35	; 53
 a74:	8c 60       	ori	r24, 0x0C	; 12
 a76:	85 bf       	out	0x35, r24	; 53
 a78:	81 b3       	in	r24, 0x11	; 17
 a7a:	8c 60       	ori	r24, 0x0C	; 12
 a7c:	81 bb       	out	0x11, r24	; 17
 a7e:	78 94       	sei
 a80:	08 95       	ret

00000a82 <ReloadHWtimer>:
 a82:	83 30       	cpi	r24, 0x03	; 3
 a84:	58 f4       	brcc	.+22     	; 0xa9c <ReloadHWtimer+0x1a>
 a86:	8c b5       	in	r24, 0x2c	; 44
 a88:	9d b5       	in	r25, 0x2d	; 45
 a8a:	8f 5f       	subi	r24, 0xFF	; 255
 a8c:	9f 47       	sbci	r25, 0x7F	; 127
 a8e:	88 0f       	add	r24, r24
 a90:	99 1f       	adc	r25, r25
 a92:	2f ef       	ldi	r18, 0xFF	; 255
 a94:	3f e7       	ldi	r19, 0x7F	; 127
 a96:	3d bd       	out	0x2d, r19	; 45
 a98:	2c bd       	out	0x2c, r18	; 44
 a9a:	08 95       	ret
 a9c:	80 e0       	ldi	r24, 0x00	; 0
 a9e:	90 e0       	ldi	r25, 0x00	; 0
 aa0:	08 95       	ret

00000aa2 <__vector_9>:
 aa2:	1f 92       	push	r1
 aa4:	0f 92       	push	r0
 aa6:	0f b6       	in	r0, 0x3f	; 63
 aa8:	0f 92       	push	r0
 aaa:	11 24       	eor	r1, r1
 aac:	2f 93       	push	r18
 aae:	3f 93       	push	r19
 ab0:	4f 93       	push	r20
 ab2:	5f 93       	push	r21
 ab4:	6f 93       	push	r22
 ab6:	7f 93       	push	r23
 ab8:	8f 93       	push	r24
 aba:	9f 93       	push	r25
 abc:	af 93       	push	r26
 abe:	bf 93       	push	r27
 ac0:	ef 93       	push	r30
 ac2:	ff 93       	push	r31
 ac4:	82 ec       	ldi	r24, 0xC2	; 194
 ac6:	82 bf       	out	0x32, r24	; 50
 ac8:	32 df       	rcall	.-412    	; 0x92e <SchedulerTick>
 aca:	ff 91       	pop	r31
 acc:	ef 91       	pop	r30
 ace:	bf 91       	pop	r27
 ad0:	af 91       	pop	r26
 ad2:	9f 91       	pop	r25
 ad4:	8f 91       	pop	r24
 ad6:	7f 91       	pop	r23
 ad8:	6f 91       	pop	r22
 ada:	5f 91       	pop	r21
 adc:	4f 91       	pop	r20
 ade:	3f 91       	pop	r19
 ae0:	2f 91       	pop	r18
 ae2:	0f 90       	pop	r0
 ae4:	0f be       	out	0x3f, r0	; 63
 ae6:	0f 90       	pop	r0
 ae8:	1f 90       	pop	r1
 aea:	18 95       	reti

00000aec <__vector_8>:
 aec:	1f 92       	push	r1
 aee:	0f 92       	push	r0
 af0:	0f b6       	in	r0, 0x3f	; 63
 af2:	0f 92       	push	r0
 af4:	11 24       	eor	r1, r1
 af6:	2f 93       	push	r18
 af8:	3f 93       	push	r19
 afa:	4f 93       	push	r20
 afc:	5f 93       	push	r21
 afe:	6f 93       	push	r22
 b00:	7f 93       	push	r23
 b02:	8f 93       	push	r24
 b04:	9f 93       	push	r25
 b06:	af 93       	push	r26
 b08:	bf 93       	push	r27
 b0a:	ef 93       	push	r30
 b0c:	ff 93       	push	r31
 b0e:	8f ef       	ldi	r24, 0xFF	; 255
 b10:	9f e7       	ldi	r25, 0x7F	; 127
 b12:	9d bd       	out	0x2d, r25	; 45
 b14:	8c bd       	out	0x2c, r24	; 44
 b16:	d0 de       	rcall	.-608    	; 0x8b8 <APP_ISR3>
 b18:	ff 91       	pop	r31
 b1a:	ef 91       	pop	r30
 b1c:	bf 91       	pop	r27
 b1e:	af 91       	pop	r26
 b20:	9f 91       	pop	r25
 b22:	8f 91       	pop	r24
 b24:	7f 91       	pop	r23
 b26:	6f 91       	pop	r22
 b28:	5f 91       	pop	r21
 b2a:	4f 91       	pop	r20
 b2c:	3f 91       	pop	r19
 b2e:	2f 91       	pop	r18
 b30:	0f 90       	pop	r0
 b32:	0f be       	out	0x3f, r0	; 63
 b34:	0f 90       	pop	r0
 b36:	1f 90       	pop	r1
 b38:	18 95       	reti

00000b3a <__vector_1>:
 b3a:	1f 92       	push	r1
 b3c:	0f 92       	push	r0
 b3e:	0f b6       	in	r0, 0x3f	; 63
 b40:	0f 92       	push	r0
 b42:	11 24       	eor	r1, r1
 b44:	2f 93       	push	r18
 b46:	3f 93       	push	r19
 b48:	4f 93       	push	r20
 b4a:	5f 93       	push	r21
 b4c:	6f 93       	push	r22
 b4e:	7f 93       	push	r23
 b50:	8f 93       	push	r24
 b52:	9f 93       	push	r25
 b54:	af 93       	push	r26
 b56:	bf 93       	push	r27
 b58:	ef 93       	push	r30
 b5a:	ff 93       	push	r31
 b5c:	a9 de       	rcall	.-686    	; 0x8b0 <APP_ISR1>
 b5e:	85 b7       	in	r24, 0x35	; 53
 b60:	83 60       	ori	r24, 0x03	; 3
 b62:	85 bf       	out	0x35, r24	; 53
 b64:	ff 91       	pop	r31
 b66:	ef 91       	pop	r30
 b68:	bf 91       	pop	r27
 b6a:	af 91       	pop	r26
 b6c:	9f 91       	pop	r25
 b6e:	8f 91       	pop	r24
 b70:	7f 91       	pop	r23
 b72:	6f 91       	pop	r22
 b74:	5f 91       	pop	r21
 b76:	4f 91       	pop	r20
 b78:	3f 91       	pop	r19
 b7a:	2f 91       	pop	r18
 b7c:	0f 90       	pop	r0
 b7e:	0f be       	out	0x3f, r0	; 63
 b80:	0f 90       	pop	r0
 b82:	1f 90       	pop	r1
 b84:	18 95       	reti

00000b86 <__vector_2>:
 b86:	1f 92       	push	r1
 b88:	0f 92       	push	r0
 b8a:	0f b6       	in	r0, 0x3f	; 63
 b8c:	0f 92       	push	r0
 b8e:	11 24       	eor	r1, r1
 b90:	2f 93       	push	r18
 b92:	3f 93       	push	r19
 b94:	4f 93       	push	r20
 b96:	5f 93       	push	r21
 b98:	6f 93       	push	r22
 b9a:	7f 93       	push	r23
 b9c:	8f 93       	push	r24
 b9e:	9f 93       	push	r25
 ba0:	af 93       	push	r26
 ba2:	bf 93       	push	r27
 ba4:	ef 93       	push	r30
 ba6:	ff 93       	push	r31
 ba8:	85 de       	rcall	.-758    	; 0x8b4 <APP_ISR2>
 baa:	ff 91       	pop	r31
 bac:	ef 91       	pop	r30
 bae:	bf 91       	pop	r27
 bb0:	af 91       	pop	r26
 bb2:	9f 91       	pop	r25
 bb4:	8f 91       	pop	r24
 bb6:	7f 91       	pop	r23
 bb8:	6f 91       	pop	r22
 bba:	5f 91       	pop	r21
 bbc:	4f 91       	pop	r20
 bbe:	3f 91       	pop	r19
 bc0:	2f 91       	pop	r18
 bc2:	0f 90       	pop	r0
 bc4:	0f be       	out	0x3f, r0	; 63
 bc6:	0f 90       	pop	r0
 bc8:	1f 90       	pop	r1
 bca:	18 95       	reti

00000bcc <SendMCUtoSleep>:
 bcc:	85 b7       	in	r24, 0x35	; 53
 bce:	8c 7f       	andi	r24, 0xFC	; 252
 bd0:	85 bf       	out	0x35, r24	; 53
 bd2:	85 b7       	in	r24, 0x35	; 53
 bd4:	80 62       	ori	r24, 0x20	; 32
 bd6:	85 bf       	out	0x35, r24	; 53
 bd8:	f8 94       	cli
 bda:	85 b7       	in	r24, 0x35	; 53
 bdc:	80 68       	ori	r24, 0x80	; 128
 bde:	85 bf       	out	0x35, r24	; 53
 be0:	78 94       	sei
 be2:	88 95       	sleep
 be4:	85 b7       	in	r24, 0x35	; 53
 be6:	8f 77       	andi	r24, 0x7F	; 127
 be8:	85 bf       	out	0x35, r24	; 53
 bea:	08 95       	ret

00000bec <main>:
 bec:	75 de       	rcall	.-790    	; 0x8d8 <Start_App>
 bee:	80 e0       	ldi	r24, 0x00	; 0
 bf0:	90 e0       	ldi	r25, 0x00	; 0
 bf2:	08 95       	ret

00000bf4 <__mulsi3>:
 bf4:	62 9f       	mul	r22, r18
 bf6:	d0 01       	movw	r26, r0
 bf8:	73 9f       	mul	r23, r19
 bfa:	f0 01       	movw	r30, r0
 bfc:	82 9f       	mul	r24, r18
 bfe:	e0 0d       	add	r30, r0
 c00:	f1 1d       	adc	r31, r1
 c02:	64 9f       	mul	r22, r20
 c04:	e0 0d       	add	r30, r0
 c06:	f1 1d       	adc	r31, r1
 c08:	92 9f       	mul	r25, r18
 c0a:	f0 0d       	add	r31, r0
 c0c:	83 9f       	mul	r24, r19
 c0e:	f0 0d       	add	r31, r0
 c10:	74 9f       	mul	r23, r20
 c12:	f0 0d       	add	r31, r0
 c14:	65 9f       	mul	r22, r21
 c16:	f0 0d       	add	r31, r0
 c18:	99 27       	eor	r25, r25
 c1a:	72 9f       	mul	r23, r18
 c1c:	b0 0d       	add	r27, r0
 c1e:	e1 1d       	adc	r30, r1
 c20:	f9 1f       	adc	r31, r25
 c22:	63 9f       	mul	r22, r19
 c24:	b0 0d       	add	r27, r0
 c26:	e1 1d       	adc	r30, r1
 c28:	f9 1f       	adc	r31, r25
 c2a:	bd 01       	movw	r22, r26
 c2c:	cf 01       	movw	r24, r30
 c2e:	11 24       	eor	r1, r1
 c30:	08 95       	ret

00000c32 <__udivmodhi4>:
 c32:	aa 1b       	sub	r26, r26
 c34:	bb 1b       	sub	r27, r27
 c36:	51 e1       	ldi	r21, 0x11	; 17
 c38:	07 c0       	rjmp	.+14     	; 0xc48 <__udivmodhi4_ep>

00000c3a <__udivmodhi4_loop>:
 c3a:	aa 1f       	adc	r26, r26
 c3c:	bb 1f       	adc	r27, r27
 c3e:	a6 17       	cp	r26, r22
 c40:	b7 07       	cpc	r27, r23
 c42:	10 f0       	brcs	.+4      	; 0xc48 <__udivmodhi4_ep>
 c44:	a6 1b       	sub	r26, r22
 c46:	b7 0b       	sbc	r27, r23

00000c48 <__udivmodhi4_ep>:
 c48:	88 1f       	adc	r24, r24
 c4a:	99 1f       	adc	r25, r25
 c4c:	5a 95       	dec	r21
 c4e:	a9 f7       	brne	.-22     	; 0xc3a <__udivmodhi4_loop>
 c50:	80 95       	com	r24
 c52:	90 95       	com	r25
 c54:	bc 01       	movw	r22, r24
 c56:	cd 01       	movw	r24, r26
 c58:	08 95       	ret

00000c5a <__udivmodsi4>:
 c5a:	a1 e2       	ldi	r26, 0x21	; 33
 c5c:	1a 2e       	mov	r1, r26
 c5e:	aa 1b       	sub	r26, r26
 c60:	bb 1b       	sub	r27, r27
 c62:	fd 01       	movw	r30, r26
 c64:	0d c0       	rjmp	.+26     	; 0xc80 <__udivmodsi4_ep>

00000c66 <__udivmodsi4_loop>:
 c66:	aa 1f       	adc	r26, r26
 c68:	bb 1f       	adc	r27, r27
 c6a:	ee 1f       	adc	r30, r30
 c6c:	ff 1f       	adc	r31, r31
 c6e:	a2 17       	cp	r26, r18
 c70:	b3 07       	cpc	r27, r19
 c72:	e4 07       	cpc	r30, r20
 c74:	f5 07       	cpc	r31, r21
 c76:	20 f0       	brcs	.+8      	; 0xc80 <__udivmodsi4_ep>
 c78:	a2 1b       	sub	r26, r18
 c7a:	b3 0b       	sbc	r27, r19
 c7c:	e4 0b       	sbc	r30, r20
 c7e:	f5 0b       	sbc	r31, r21

00000c80 <__udivmodsi4_ep>:
 c80:	66 1f       	adc	r22, r22
 c82:	77 1f       	adc	r23, r23
 c84:	88 1f       	adc	r24, r24
 c86:	99 1f       	adc	r25, r25
 c88:	1a 94       	dec	r1
 c8a:	69 f7       	brne	.-38     	; 0xc66 <__udivmodsi4_loop>
 c8c:	60 95       	com	r22
 c8e:	70 95       	com	r23
 c90:	80 95       	com	r24
 c92:	90 95       	com	r25
 c94:	9b 01       	movw	r18, r22
 c96:	ac 01       	movw	r20, r24
 c98:	bd 01       	movw	r22, r26
 c9a:	cf 01       	movw	r24, r30
 c9c:	08 95       	ret

00000c9e <_exit>:
 c9e:	f8 94       	cli

00000ca0 <__stop_program>:
 ca0:	ff cf       	rjmp	.-2      	; 0xca0 <__stop_program>
