
BicMeter.elf:     file format elf32-avr

Sections:
Idx Name          Size      VMA       LMA       File off  Algn
  0 .text         000005fe  00000000  00000000  00000094  2**1
                  CONTENTS, ALLOC, LOAD, READONLY, CODE
  1 .data         0000000e  00800060  000005fe  00000692  2**0
                  CONTENTS, ALLOC, LOAD, DATA
  2 .bss          00000021  0080006e  0080006e  000006a0  2**0
                  ALLOC
  3 .stab         000006cc  00000000  00000000  000006a0  2**2
                  CONTENTS, READONLY, DEBUGGING
  4 .stabstr      00000085  00000000  00000000  00000d6c  2**0
                  CONTENTS, READONLY, DEBUGGING
  5 .debug_aranges 000000c0  00000000  00000000  00000df8  2**3
                  CONTENTS, READONLY, DEBUGGING
  6 .debug_info   0000052e  00000000  00000000  00000eb8  2**0
                  CONTENTS, READONLY, DEBUGGING
  7 .debug_abbrev 00000078  00000000  00000000  000013e6  2**0
                  CONTENTS, READONLY, DEBUGGING
  8 .debug_line   0000038e  00000000  00000000  0000145e  2**0
                  CONTENTS, READONLY, DEBUGGING

Disassembly of section .text:

00000000 <__vectors>:
   0:	12 c0       	rjmp	.+36     	; 0x26 <__ctors_end>
   2:	43 c2       	rjmp	.+1158   	; 0x48a <__vector_1>
   4:	65 c2       	rjmp	.+1226   	; 0x4d0 <__vector_2>
   6:	2a c0       	rjmp	.+84     	; 0x5c <__bad_interrupt>
   8:	29 c0       	rjmp	.+82     	; 0x5c <__bad_interrupt>
   a:	28 c0       	rjmp	.+80     	; 0x5c <__bad_interrupt>
   c:	27 c0       	rjmp	.+78     	; 0x5c <__bad_interrupt>
   e:	26 c0       	rjmp	.+76     	; 0x5c <__bad_interrupt>
  10:	15 c2       	rjmp	.+1066   	; 0x43c <__vector_8>
  12:	ef c1       	rjmp	.+990    	; 0x3f2 <__vector_9>
  14:	23 c0       	rjmp	.+70     	; 0x5c <__bad_interrupt>
  16:	22 c0       	rjmp	.+68     	; 0x5c <__bad_interrupt>
  18:	21 c0       	rjmp	.+66     	; 0x5c <__bad_interrupt>
  1a:	20 c0       	rjmp	.+64     	; 0x5c <__bad_interrupt>
  1c:	1f c0       	rjmp	.+62     	; 0x5c <__bad_interrupt>
  1e:	1e c0       	rjmp	.+60     	; 0x5c <__bad_interrupt>
  20:	1d c0       	rjmp	.+58     	; 0x5c <__bad_interrupt>
  22:	1c c0       	rjmp	.+56     	; 0x5c <__bad_interrupt>
  24:	1b c0       	rjmp	.+54     	; 0x5c <__bad_interrupt>

00000026 <__ctors_end>:
  26:	11 24       	eor	r1, r1
  28:	1f be       	out	0x3f, r1	; 63
  2a:	cf e5       	ldi	r28, 0x5F	; 95
  2c:	d4 e0       	ldi	r29, 0x04	; 4
  2e:	de bf       	out	0x3e, r29	; 62
  30:	cd bf       	out	0x3d, r28	; 61

00000032 <__do_copy_data>:
  32:	10 e0       	ldi	r17, 0x00	; 0
  34:	a0 e6       	ldi	r26, 0x60	; 96
  36:	b0 e0       	ldi	r27, 0x00	; 0
  38:	ee ef       	ldi	r30, 0xFE	; 254
  3a:	f5 e0       	ldi	r31, 0x05	; 5
  3c:	02 c0       	rjmp	.+4      	; 0x42 <__SREG__+0x3>
  3e:	05 90       	lpm	r0, Z+
  40:	0d 92       	st	X+, r0
  42:	ae 36       	cpi	r26, 0x6E	; 110
  44:	b1 07       	cpc	r27, r17
  46:	d9 f7       	brne	.-10     	; 0x3e <__SP_H__>

00000048 <__do_clear_bss>:
  48:	10 e0       	ldi	r17, 0x00	; 0
  4a:	ae e6       	ldi	r26, 0x6E	; 110
  4c:	b0 e0       	ldi	r27, 0x00	; 0
  4e:	01 c0       	rjmp	.+2      	; 0x52 <.do_clear_bss_start>

00000050 <.do_clear_bss_loop>:
  50:	1d 92       	st	X+, r1

00000052 <.do_clear_bss_start>:
  52:	af 38       	cpi	r26, 0x8F	; 143
  54:	b1 07       	cpc	r27, r17
  56:	e1 f7       	brne	.-8      	; 0x50 <.do_clear_bss_loop>
  58:	64 d2       	rcall	.+1224   	; 0x522 <main>
  5a:	cf c2       	rjmp	.+1438   	; 0x5fa <_exit>

0000005c <__bad_interrupt>:
  5c:	d1 cf       	rjmp	.-94     	; 0x0 <__vectors>

0000005e <APP_INITIALIZE>:
  5e:	08 95       	ret

00000060 <APP_MANAGE>:
  60:	cf 93       	push	r28
  62:	df 93       	push	r29
  64:	80 ed       	ldi	r24, 0xD0	; 208
  66:	97 e0       	ldi	r25, 0x07	; 7
  68:	f2 d0       	rcall	.+484    	; 0x24e <SetCircumfirunce>
  6a:	81 e0       	ldi	r24, 0x01	; 1
  6c:	f5 d0       	rcall	.+490    	; 0x258 <GetAvgSpeed>
  6e:	ec 01       	movw	r28, r24
  70:	e5 d0       	rcall	.+458    	; 0x23c <GetDistance>
  72:	ce 01       	movw	r24, r28
  74:	61 e0       	ldi	r22, 0x01	; 1
  76:	03 d0       	rcall	.+6      	; 0x7e <BCDsendNumber>
  78:	df 91       	pop	r29
  7a:	cf 91       	pop	r28
  7c:	08 95       	ret

0000007e <BCDsendNumber>:
  7e:	0f 93       	push	r16
  80:	1f 93       	push	r17
  82:	cf 93       	push	r28
  84:	df 93       	push	r29
  86:	26 2f       	mov	r18, r22
  88:	ce e6       	ldi	r28, 0x6E	; 110
  8a:	d0 e0       	ldi	r29, 0x00	; 0
  8c:	fc 01       	movw	r30, r24
  8e:	30 e0       	ldi	r19, 0x00	; 0
  90:	0a e0       	ldi	r16, 0x0A	; 10
  92:	10 e0       	ldi	r17, 0x00	; 0
  94:	30 97       	sbiw	r30, 0x00	; 0
  96:	11 f4       	brne	.+4      	; 0x9c <BCDsendNumber+0x1e>
  98:	23 17       	cp	r18, r19
  9a:	b8 f0       	brcs	.+46     	; 0xca <BCDsendNumber+0x4c>
  9c:	cf 01       	movw	r24, r30
  9e:	b8 01       	movw	r22, r16
  a0:	76 d2       	rcall	.+1260   	; 0x58e <__udivmodhi4>
  a2:	cb 01       	movw	r24, r22
  a4:	ab 01       	movw	r20, r22
  a6:	44 0f       	add	r20, r20
  a8:	55 1f       	adc	r21, r21
  aa:	b3 e0       	ldi	r27, 0x03	; 3
  ac:	88 0f       	add	r24, r24
  ae:	99 1f       	adc	r25, r25
  b0:	ba 95       	dec	r27
  b2:	e1 f7       	brne	.-8      	; 0xac <BCDsendNumber+0x2e>
  b4:	48 0f       	add	r20, r24
  b6:	59 1f       	adc	r21, r25
  b8:	e4 1b       	sub	r30, r20
  ba:	f5 0b       	sbc	r31, r21
  bc:	e0 5a       	subi	r30, 0xA0	; 160
  be:	ff 4f       	sbci	r31, 0xFF	; 255
  c0:	80 81       	ld	r24, Z
  c2:	88 83       	st	Y, r24
  c4:	19 82       	std	Y+1, r1	; 0x01
  c6:	fb 01       	movw	r30, r22
  c8:	02 c0       	rjmp	.+4      	; 0xce <BCDsendNumber+0x50>
  ca:	19 82       	std	Y+1, r1	; 0x01
  cc:	18 82       	st	Y, r1
  ce:	3f 5f       	subi	r19, 0xFF	; 255
  d0:	22 96       	adiw	r28, 0x02	; 2
  d2:	34 30       	cpi	r19, 0x04	; 4
  d4:	f9 f6       	brne	.-66     	; 0x94 <BCDsendNumber+0x16>
  d6:	22 23       	and	r18, r18
  d8:	59 f0       	breq	.+22     	; 0xf0 <BCDsendNumber+0x72>
  da:	e2 2f       	mov	r30, r18
  dc:	f0 e0       	ldi	r31, 0x00	; 0
  de:	ee 0f       	add	r30, r30
  e0:	ff 1f       	adc	r31, r31
  e2:	e2 59       	subi	r30, 0x92	; 146
  e4:	ff 4f       	sbci	r31, 0xFF	; 255
  e6:	80 81       	ld	r24, Z
  e8:	91 81       	ldd	r25, Z+1	; 0x01
  ea:	81 60       	ori	r24, 0x01	; 1
  ec:	91 83       	std	Z+1, r25	; 0x01
  ee:	80 83       	st	Z, r24
  f0:	df 91       	pop	r29
  f2:	cf 91       	pop	r28
  f4:	1f 91       	pop	r17
  f6:	0f 91       	pop	r16
  f8:	08 95       	ret

000000fa <BCDManage7segment>:
  fa:	68 e0       	ldi	r22, 0x08	; 8
  fc:	70 e0       	ldi	r23, 0x00	; 0
  fe:	00 90 76 00 	lds	r0, 0x0076
 102:	02 c0       	rjmp	.+4      	; 0x108 <BCDManage7segment+0xe>
 104:	75 95       	asr	r23
 106:	67 95       	ror	r22
 108:	0a 94       	dec	r0
 10a:	e2 f7       	brpl	.-8      	; 0x104 <BCDManage7segment+0xa>
 10c:	60 95       	com	r22
 10e:	80 e0       	ldi	r24, 0x00	; 0
 110:	18 d1       	rcall	.+560    	; 0x342 <HWI_4Digit_WRITE>
 112:	e0 91 76 00 	lds	r30, 0x0076
 116:	f0 e0       	ldi	r31, 0x00	; 0
 118:	ee 0f       	add	r30, r30
 11a:	ff 1f       	adc	r31, r31
 11c:	e2 59       	subi	r30, 0x92	; 146
 11e:	ff 4f       	sbci	r31, 0xFF	; 255
 120:	81 e0       	ldi	r24, 0x01	; 1
 122:	60 81       	ld	r22, Z
 124:	27 d1       	rcall	.+590    	; 0x374 <HWI_8Digit_WRITE>
 126:	80 91 76 00 	lds	r24, 0x0076
 12a:	8f 5f       	subi	r24, 0xFF	; 255
 12c:	80 93 76 00 	sts	0x0076, r24
 130:	84 30       	cpi	r24, 0x04	; 4
 132:	11 f4       	brne	.+4      	; 0x138 <BCDManage7segment+0x3e>
 134:	10 92 76 00 	sts	0x0076, r1
 138:	08 95       	ret

0000013a <SpeedCalcNotifyInitialize>:
 13a:	08 95       	ret

0000013c <SensorOneNotify>:
 13c:	80 91 77 00 	lds	r24, 0x0077
 140:	81 30       	cpi	r24, 0x01	; 1
 142:	19 f4       	brne	.+6      	; 0x14a <SensorOneNotify+0xe>
 144:	10 92 77 00 	sts	0x0077, r1
 148:	08 95       	ret
 14a:	80 91 78 00 	lds	r24, 0x0078
 14e:	88 23       	and	r24, r24
 150:	19 f0       	breq	.+6      	; 0x158 <SensorOneNotify+0x1c>
 152:	81 50       	subi	r24, 0x01	; 1
 154:	80 93 78 00 	sts	0x0078, r24
 158:	08 95       	ret

0000015a <SensorTwoNotify>:
 15a:	90 91 77 00 	lds	r25, 0x0077
 15e:	80 91 78 00 	lds	r24, 0x0078
 162:	99 23       	and	r25, r25
 164:	01 f5       	brne	.+64     	; 0x1a6 <SensorTwoNotify+0x4c>
 166:	91 e0       	ldi	r25, 0x01	; 1
 168:	90 93 77 00 	sts	0x0077, r25
 16c:	8f 5f       	subi	r24, 0xFF	; 255
 16e:	80 93 78 00 	sts	0x0078, r24
 172:	81 e0       	ldi	r24, 0x01	; 1
 174:	2e d1       	rcall	.+604    	; 0x3d2 <ReloadHWtimer>
 176:	64 e6       	ldi	r22, 0x64	; 100
 178:	70 e0       	ldi	r23, 0x00	; 0
 17a:	09 d2       	rcall	.+1042   	; 0x58e <__udivmodhi4>
 17c:	20 91 7b 00 	lds	r18, 0x007B
 180:	30 e0       	ldi	r19, 0x00	; 0
 182:	8f e8       	ldi	r24, 0x8F	; 143
 184:	92 e0       	ldi	r25, 0x02	; 2
 186:	28 9f       	mul	r18, r24
 188:	a0 01       	movw	r20, r0
 18a:	29 9f       	mul	r18, r25
 18c:	50 0d       	add	r21, r0
 18e:	38 9f       	mul	r19, r24
 190:	50 0d       	add	r21, r0
 192:	11 24       	eor	r1, r1
 194:	64 0f       	add	r22, r20
 196:	75 1f       	adc	r23, r21
 198:	70 93 7a 00 	sts	0x007A, r23
 19c:	60 93 79 00 	sts	0x0079, r22
 1a0:	10 92 7b 00 	sts	0x007B, r1
 1a4:	08 95       	ret
 1a6:	88 23       	and	r24, r24
 1a8:	19 f0       	breq	.+6      	; 0x1b0 <SensorTwoNotify+0x56>
 1aa:	81 50       	subi	r24, 0x01	; 1
 1ac:	80 93 78 00 	sts	0x0078, r24
 1b0:	08 95       	ret

000001b2 <SpeedCalcManage>:
 1b2:	cf 93       	push	r28
 1b4:	df 93       	push	r29
 1b6:	80 91 78 00 	lds	r24, 0x0078
 1ba:	c0 91 7c 00 	lds	r28, 0x007C
 1be:	d0 91 7d 00 	lds	r29, 0x007D
 1c2:	c8 0f       	add	r28, r24
 1c4:	d1 1d       	adc	r29, r1
 1c6:	d0 93 7d 00 	sts	0x007D, r29
 1ca:	c0 93 7c 00 	sts	0x007C, r28
 1ce:	10 92 78 00 	sts	0x0078, r1
 1d2:	20 91 6b 00 	lds	r18, 0x006B
 1d6:	30 91 6c 00 	lds	r19, 0x006C
 1da:	40 e0       	ldi	r20, 0x00	; 0
 1dc:	50 e0       	ldi	r21, 0x00	; 0
 1de:	60 ea       	ldi	r22, 0xA0	; 160
 1e0:	76 e8       	ldi	r23, 0x86	; 134
 1e2:	81 e0       	ldi	r24, 0x01	; 1
 1e4:	90 e0       	ldi	r25, 0x00	; 0
 1e6:	e7 d1       	rcall	.+974    	; 0x5b6 <__udivmodsi4>
 1e8:	c2 17       	cp	r28, r18
 1ea:	d3 07       	cpc	r29, r19
 1ec:	c8 f0       	brcs	.+50     	; 0x220 <SpeedCalcManage+0x6e>
 1ee:	80 91 7e 00 	lds	r24, 0x007E
 1f2:	90 91 7f 00 	lds	r25, 0x007F
 1f6:	a0 91 80 00 	lds	r26, 0x0080
 1fa:	b0 91 81 00 	lds	r27, 0x0081
 1fe:	01 96       	adiw	r24, 0x01	; 1
 200:	a1 1d       	adc	r26, r1
 202:	b1 1d       	adc	r27, r1
 204:	80 93 7e 00 	sts	0x007E, r24
 208:	90 93 7f 00 	sts	0x007F, r25
 20c:	a0 93 80 00 	sts	0x0080, r26
 210:	b0 93 81 00 	sts	0x0081, r27
 214:	c2 1b       	sub	r28, r18
 216:	d3 0b       	sbc	r29, r19
 218:	d0 93 7d 00 	sts	0x007D, r29
 21c:	c0 93 7c 00 	sts	0x007C, r28
 220:	df 91       	pop	r29
 222:	cf 91       	pop	r28
 224:	08 95       	ret

00000226 <SetDistance>:
 226:	dc 01       	movw	r26, r24
 228:	cb 01       	movw	r24, r22
 22a:	80 93 7e 00 	sts	0x007E, r24
 22e:	90 93 7f 00 	sts	0x007F, r25
 232:	a0 93 80 00 	sts	0x0080, r26
 236:	b0 93 81 00 	sts	0x0081, r27
 23a:	08 95       	ret

0000023c <GetDistance>:
 23c:	60 91 7e 00 	lds	r22, 0x007E
 240:	70 91 7f 00 	lds	r23, 0x007F
 244:	80 91 80 00 	lds	r24, 0x0080
 248:	90 91 81 00 	lds	r25, 0x0081
 24c:	08 95       	ret

0000024e <SetCircumfirunce>:
 24e:	90 93 6c 00 	sts	0x006C, r25
 252:	80 93 6b 00 	sts	0x006B, r24
 256:	08 95       	ret

00000258 <GetAvgSpeed>:
 258:	81 30       	cpi	r24, 0x01	; 1
 25a:	29 f4       	brne	.+10     	; 0x266 <GetAvgSpeed+0xe>
 25c:	68 e6       	ldi	r22, 0x68	; 104
 25e:	71 e0       	ldi	r23, 0x01	; 1
 260:	80 e0       	ldi	r24, 0x00	; 0
 262:	90 e0       	ldi	r25, 0x00	; 0
 264:	04 c0       	rjmp	.+8      	; 0x26e <GetAvgSpeed+0x16>
 266:	61 ee       	ldi	r22, 0xE1	; 225
 268:	70 e0       	ldi	r23, 0x00	; 0
 26a:	80 e0       	ldi	r24, 0x00	; 0
 26c:	90 e0       	ldi	r25, 0x00	; 0
 26e:	20 91 6b 00 	lds	r18, 0x006B
 272:	30 91 6c 00 	lds	r19, 0x006C
 276:	40 e0       	ldi	r20, 0x00	; 0
 278:	50 e0       	ldi	r21, 0x00	; 0
 27a:	6a d1       	rcall	.+724    	; 0x550 <__mulsi3>
 27c:	20 91 79 00 	lds	r18, 0x0079
 280:	30 91 7a 00 	lds	r19, 0x007A
 284:	40 e0       	ldi	r20, 0x00	; 0
 286:	50 e0       	ldi	r21, 0x00	; 0
 288:	96 d1       	rcall	.+812    	; 0x5b6 <__udivmodsi4>
 28a:	c9 01       	movw	r24, r18
 28c:	08 95       	ret

0000028e <HWtimerCallback>:
 28e:	80 91 7b 00 	lds	r24, 0x007B
 292:	80 34       	cpi	r24, 0x40	; 64
 294:	18 f4       	brcc	.+6      	; 0x29c <HWtimerCallback+0xe>
 296:	8f 5f       	subi	r24, 0xFF	; 255
 298:	80 93 7b 00 	sts	0x007B, r24
 29c:	08 95       	ret

0000029e <APP_ISR1>:
 29e:	4e df       	rcall	.-356    	; 0x13c <SensorOneNotify>
 2a0:	08 95       	ret

000002a2 <APP_ISR2>:
 2a2:	5b df       	rcall	.-330    	; 0x15a <SensorTwoNotify>
 2a4:	08 95       	ret

000002a6 <APP_ISR3>:
 2a6:	f3 df       	rcall	.-26     	; 0x28e <HWtimerCallback>
 2a8:	08 95       	ret

000002aa <CreateTask>:
 2aa:	63 30       	cpi	r22, 0x03	; 3
 2ac:	60 f4       	brcc	.+24     	; 0x2c6 <CreateTask+0x1c>
 2ae:	e6 2f       	mov	r30, r22
 2b0:	f0 e0       	ldi	r31, 0x00	; 0
 2b2:	ee 0f       	add	r30, r30
 2b4:	ff 1f       	adc	r31, r31
 2b6:	ee 0f       	add	r30, r30
 2b8:	ff 1f       	adc	r31, r31
 2ba:	ee 57       	subi	r30, 0x7E	; 126
 2bc:	ff 4f       	sbci	r31, 0xFF	; 255
 2be:	91 83       	std	Z+1, r25	; 0x01
 2c0:	80 83       	st	Z, r24
 2c2:	42 83       	std	Z+2, r20	; 0x02
 2c4:	13 82       	std	Z+3, r1	; 0x03
 2c6:	08 95       	ret

000002c8 <SchedulerTick>:
 2c8:	80 91 85 00 	lds	r24, 0x0085
 2cc:	8f 5f       	subi	r24, 0xFF	; 255
 2ce:	80 93 85 00 	sts	0x0085, r24
 2d2:	80 91 89 00 	lds	r24, 0x0089
 2d6:	8f 5f       	subi	r24, 0xFF	; 255
 2d8:	80 93 89 00 	sts	0x0089, r24
 2dc:	80 91 8d 00 	lds	r24, 0x008D
 2e0:	8f 5f       	subi	r24, 0xFF	; 255
 2e2:	80 93 8d 00 	sts	0x008D, r24
 2e6:	08 95       	ret

000002e8 <RunScheduler>:
 2e8:	10 92 8e 00 	sts	0x008E, r1
 2ec:	1e c0       	rjmp	.+60     	; 0x32a <RunScheduler+0x42>
 2ee:	f0 e0       	ldi	r31, 0x00	; 0
 2f0:	ee 0f       	add	r30, r30
 2f2:	ff 1f       	adc	r31, r31
 2f4:	ee 0f       	add	r30, r30
 2f6:	ff 1f       	adc	r31, r31
 2f8:	ee 57       	subi	r30, 0x7E	; 126
 2fa:	ff 4f       	sbci	r31, 0xFF	; 255
 2fc:	92 81       	ldd	r25, Z+2	; 0x02
 2fe:	83 81       	ldd	r24, Z+3	; 0x03
 300:	89 17       	cp	r24, r25
 302:	70 f0       	brcs	.+28     	; 0x320 <RunScheduler+0x38>
 304:	01 90       	ld	r0, Z+
 306:	f0 81       	ld	r31, Z
 308:	e0 2d       	mov	r30, r0
 30a:	09 95       	icall
 30c:	e0 91 8e 00 	lds	r30, 0x008E
 310:	f0 e0       	ldi	r31, 0x00	; 0
 312:	ee 0f       	add	r30, r30
 314:	ff 1f       	adc	r31, r31
 316:	ee 0f       	add	r30, r30
 318:	ff 1f       	adc	r31, r31
 31a:	ee 57       	subi	r30, 0x7E	; 126
 31c:	ff 4f       	sbci	r31, 0xFF	; 255
 31e:	13 82       	std	Z+3, r1	; 0x03
 320:	80 91 8e 00 	lds	r24, 0x008E
 324:	8f 5f       	subi	r24, 0xFF	; 255
 326:	80 93 8e 00 	sts	0x008E, r24
 32a:	e0 91 8e 00 	lds	r30, 0x008E
 32e:	e3 30       	cpi	r30, 0x03	; 3
 330:	d8 f6       	brcc	.-74     	; 0x2e8 <RunScheduler>
 332:	dd cf       	rjmp	.-70     	; 0x2ee <RunScheduler+0x6>

00000334 <HWI_DIGITAL_INITIALIZE>:
 334:	8f ef       	ldi	r24, 0xFF	; 255
 336:	87 bb       	out	0x17, r24	; 23
 338:	84 bb       	out	0x14, r24	; 20
 33a:	08 95       	ret

0000033c <HWI_DIGI_READ>:
 33c:	80 e0       	ldi	r24, 0x00	; 0
 33e:	08 95       	ret

00000340 <HWI_DIGI_WRITE>:
 340:	08 95       	ret

00000342 <HWI_4Digit_WRITE>:
 342:	88 23       	and	r24, r24
 344:	29 f4       	brne	.+10     	; 0x350 <HWI_4Digit_WRITE+0xe>
 346:	85 b3       	in	r24, 0x15	; 21
 348:	80 7f       	andi	r24, 0xF0	; 240
 34a:	86 2b       	or	r24, r22
 34c:	85 bb       	out	0x15, r24	; 21
 34e:	08 95       	ret
 350:	88 b3       	in	r24, 0x18	; 24
 352:	80 7f       	andi	r24, 0xF0	; 240
 354:	86 2b       	or	r24, r22
 356:	88 bb       	out	0x18, r24	; 24
 358:	08 95       	ret

0000035a <HWI_4Digit_READ>:
 35a:	88 23       	and	r24, r24
 35c:	19 f0       	breq	.+6      	; 0x364 <HWI_4Digit_READ+0xa>
 35e:	81 30       	cpi	r24, 0x01	; 1
 360:	31 f4       	brne	.+12     	; 0x36e <HWI_4Digit_READ+0x14>
 362:	02 c0       	rjmp	.+4      	; 0x368 <HWI_4Digit_READ+0xe>
 364:	85 b3       	in	r24, 0x15	; 21
 366:	01 c0       	rjmp	.+2      	; 0x36a <HWI_4Digit_READ+0x10>
 368:	88 b3       	in	r24, 0x18	; 24
 36a:	8f 70       	andi	r24, 0x0F	; 15
 36c:	08 95       	ret
 36e:	88 b3       	in	r24, 0x18	; 24
 370:	8f 70       	andi	r24, 0x0F	; 15
 372:	08 95       	ret

00000374 <HWI_8Digit_WRITE>:
 374:	88 23       	and	r24, r24
 376:	11 f4       	brne	.+4      	; 0x37c <HWI_8Digit_WRITE+0x8>
 378:	65 bb       	out	0x15, r22	; 21
 37a:	08 95       	ret
 37c:	68 bb       	out	0x18, r22	; 24
 37e:	08 95       	ret

00000380 <HWI8Digit_READ>:
 380:	88 23       	and	r24, r24
 382:	11 f0       	breq	.+4      	; 0x388 <HWI8Digit_READ+0x8>
 384:	88 b3       	in	r24, 0x18	; 24
 386:	08 95       	ret
 388:	85 b3       	in	r24, 0x15	; 21
 38a:	08 95       	ret

0000038c <HWI_INTERRUPTS_INTITALIZE>:
 38c:	8e b5       	in	r24, 0x2e	; 46
 38e:	82 60       	ori	r24, 0x02	; 2
 390:	8e bd       	out	0x2e, r24	; 46
 392:	8f ef       	ldi	r24, 0xFF	; 255
 394:	9f e7       	ldi	r25, 0x7F	; 127
 396:	9d bd       	out	0x2d, r25	; 45
 398:	8c bd       	out	0x2c, r24	; 44
 39a:	83 b7       	in	r24, 0x33	; 51
 39c:	83 60       	ori	r24, 0x03	; 3
 39e:	83 bf       	out	0x33, r24	; 51
 3a0:	82 ec       	ldi	r24, 0xC2	; 194
 3a2:	82 bf       	out	0x32, r24	; 50
 3a4:	89 b7       	in	r24, 0x39	; 57
 3a6:	81 60       	ori	r24, 0x01	; 1
 3a8:	89 bf       	out	0x39, r24	; 57
 3aa:	89 b7       	in	r24, 0x39	; 57
 3ac:	84 60       	ori	r24, 0x04	; 4
 3ae:	89 bf       	out	0x39, r24	; 57
 3b0:	8b b7       	in	r24, 0x3b	; 59
 3b2:	80 64       	ori	r24, 0x40	; 64
 3b4:	8b bf       	out	0x3b, r24	; 59
 3b6:	85 b7       	in	r24, 0x35	; 53
 3b8:	83 60       	ori	r24, 0x03	; 3
 3ba:	85 bf       	out	0x35, r24	; 53
 3bc:	8b b7       	in	r24, 0x3b	; 59
 3be:	80 68       	ori	r24, 0x80	; 128
 3c0:	8b bf       	out	0x3b, r24	; 59
 3c2:	85 b7       	in	r24, 0x35	; 53
 3c4:	8c 60       	ori	r24, 0x0C	; 12
 3c6:	85 bf       	out	0x35, r24	; 53
 3c8:	81 b3       	in	r24, 0x11	; 17
 3ca:	8c 60       	ori	r24, 0x0C	; 12
 3cc:	81 bb       	out	0x11, r24	; 17
 3ce:	78 94       	sei
 3d0:	08 95       	ret

000003d2 <ReloadHWtimer>:
 3d2:	83 30       	cpi	r24, 0x03	; 3
 3d4:	58 f4       	brcc	.+22     	; 0x3ec <ReloadHWtimer+0x1a>
 3d6:	8c b5       	in	r24, 0x2c	; 44
 3d8:	9d b5       	in	r25, 0x2d	; 45
 3da:	8f 5f       	subi	r24, 0xFF	; 255
 3dc:	9f 47       	sbci	r25, 0x7F	; 127
 3de:	88 0f       	add	r24, r24
 3e0:	99 1f       	adc	r25, r25
 3e2:	2f ef       	ldi	r18, 0xFF	; 255
 3e4:	3f e7       	ldi	r19, 0x7F	; 127
 3e6:	3d bd       	out	0x2d, r19	; 45
 3e8:	2c bd       	out	0x2c, r18	; 44
 3ea:	08 95       	ret
 3ec:	80 e0       	ldi	r24, 0x00	; 0
 3ee:	90 e0       	ldi	r25, 0x00	; 0
 3f0:	08 95       	ret

000003f2 <__vector_9>:
 3f2:	1f 92       	push	r1
 3f4:	0f 92       	push	r0
 3f6:	0f b6       	in	r0, 0x3f	; 63
 3f8:	0f 92       	push	r0
 3fa:	11 24       	eor	r1, r1
 3fc:	2f 93       	push	r18
 3fe:	3f 93       	push	r19
 400:	4f 93       	push	r20
 402:	5f 93       	push	r21
 404:	6f 93       	push	r22
 406:	7f 93       	push	r23
 408:	8f 93       	push	r24
 40a:	9f 93       	push	r25
 40c:	af 93       	push	r26
 40e:	bf 93       	push	r27
 410:	ef 93       	push	r30
 412:	ff 93       	push	r31
 414:	82 ec       	ldi	r24, 0xC2	; 194
 416:	82 bf       	out	0x32, r24	; 50
 418:	57 df       	rcall	.-338    	; 0x2c8 <SchedulerTick>
 41a:	ff 91       	pop	r31
 41c:	ef 91       	pop	r30
 41e:	bf 91       	pop	r27
 420:	af 91       	pop	r26
 422:	9f 91       	pop	r25
 424:	8f 91       	pop	r24
 426:	7f 91       	pop	r23
 428:	6f 91       	pop	r22
 42a:	5f 91       	pop	r21
 42c:	4f 91       	pop	r20
 42e:	3f 91       	pop	r19
 430:	2f 91       	pop	r18
 432:	0f 90       	pop	r0
 434:	0f be       	out	0x3f, r0	; 63
 436:	0f 90       	pop	r0
 438:	1f 90       	pop	r1
 43a:	18 95       	reti

0000043c <__vector_8>:
 43c:	1f 92       	push	r1
 43e:	0f 92       	push	r0
 440:	0f b6       	in	r0, 0x3f	; 63
 442:	0f 92       	push	r0
 444:	11 24       	eor	r1, r1
 446:	2f 93       	push	r18
 448:	3f 93       	push	r19
 44a:	4f 93       	push	r20
 44c:	5f 93       	push	r21
 44e:	6f 93       	push	r22
 450:	7f 93       	push	r23
 452:	8f 93       	push	r24
 454:	9f 93       	push	r25
 456:	af 93       	push	r26
 458:	bf 93       	push	r27
 45a:	ef 93       	push	r30
 45c:	ff 93       	push	r31
 45e:	8f ef       	ldi	r24, 0xFF	; 255
 460:	9f e7       	ldi	r25, 0x7F	; 127
 462:	9d bd       	out	0x2d, r25	; 45
 464:	8c bd       	out	0x2c, r24	; 44
 466:	1f df       	rcall	.-450    	; 0x2a6 <APP_ISR3>
 468:	ff 91       	pop	r31
 46a:	ef 91       	pop	r30
 46c:	bf 91       	pop	r27
 46e:	af 91       	pop	r26
 470:	9f 91       	pop	r25
 472:	8f 91       	pop	r24
 474:	7f 91       	pop	r23
 476:	6f 91       	pop	r22
 478:	5f 91       	pop	r21
 47a:	4f 91       	pop	r20
 47c:	3f 91       	pop	r19
 47e:	2f 91       	pop	r18
 480:	0f 90       	pop	r0
 482:	0f be       	out	0x3f, r0	; 63
 484:	0f 90       	pop	r0
 486:	1f 90       	pop	r1
 488:	18 95       	reti

0000048a <__vector_1>:
 48a:	1f 92       	push	r1
 48c:	0f 92       	push	r0
 48e:	0f b6       	in	r0, 0x3f	; 63
 490:	0f 92       	push	r0
 492:	11 24       	eor	r1, r1
 494:	2f 93       	push	r18
 496:	3f 93       	push	r19
 498:	4f 93       	push	r20
 49a:	5f 93       	push	r21
 49c:	6f 93       	push	r22
 49e:	7f 93       	push	r23
 4a0:	8f 93       	push	r24
 4a2:	9f 93       	push	r25
 4a4:	af 93       	push	r26
 4a6:	bf 93       	push	r27
 4a8:	ef 93       	push	r30
 4aa:	ff 93       	push	r31
 4ac:	f8 de       	rcall	.-528    	; 0x29e <APP_ISR1>
 4ae:	ff 91       	pop	r31
 4b0:	ef 91       	pop	r30
 4b2:	bf 91       	pop	r27
 4b4:	af 91       	pop	r26
 4b6:	9f 91       	pop	r25
 4b8:	8f 91       	pop	r24
 4ba:	7f 91       	pop	r23
 4bc:	6f 91       	pop	r22
 4be:	5f 91       	pop	r21
 4c0:	4f 91       	pop	r20
 4c2:	3f 91       	pop	r19
 4c4:	2f 91       	pop	r18
 4c6:	0f 90       	pop	r0
 4c8:	0f be       	out	0x3f, r0	; 63
 4ca:	0f 90       	pop	r0
 4cc:	1f 90       	pop	r1
 4ce:	18 95       	reti

000004d0 <__vector_2>:
 4d0:	1f 92       	push	r1
 4d2:	0f 92       	push	r0
 4d4:	0f b6       	in	r0, 0x3f	; 63
 4d6:	0f 92       	push	r0
 4d8:	11 24       	eor	r1, r1
 4da:	2f 93       	push	r18
 4dc:	3f 93       	push	r19
 4de:	4f 93       	push	r20
 4e0:	5f 93       	push	r21
 4e2:	6f 93       	push	r22
 4e4:	7f 93       	push	r23
 4e6:	8f 93       	push	r24
 4e8:	9f 93       	push	r25
 4ea:	af 93       	push	r26
 4ec:	bf 93       	push	r27
 4ee:	ef 93       	push	r30
 4f0:	ff 93       	push	r31
 4f2:	d7 de       	rcall	.-594    	; 0x2a2 <APP_ISR2>
 4f4:	ff 91       	pop	r31
 4f6:	ef 91       	pop	r30
 4f8:	bf 91       	pop	r27
 4fa:	af 91       	pop	r26
 4fc:	9f 91       	pop	r25
 4fe:	8f 91       	pop	r24
 500:	7f 91       	pop	r23
 502:	6f 91       	pop	r22
 504:	5f 91       	pop	r21
 506:	4f 91       	pop	r20
 508:	3f 91       	pop	r19
 50a:	2f 91       	pop	r18
 50c:	0f 90       	pop	r0
 50e:	0f be       	out	0x3f, r0	; 63
 510:	0f 90       	pop	r0
 512:	1f 90       	pop	r1
 514:	18 95       	reti

00000516 <ManageSpeedCalc>:
 516:	4d de       	rcall	.-870    	; 0x1b2 <SpeedCalcManage>
 518:	08 95       	ret

0000051a <ManageApplication>:
 51a:	a2 dd       	rcall	.-1212   	; 0x60 <APP_MANAGE>
 51c:	08 95       	ret

0000051e <DisplayAlphaNumeric>:
 51e:	ed dd       	rcall	.-1062   	; 0xfa <BCDManage7segment>
 520:	08 95       	ret

00000522 <main>:
 522:	34 df       	rcall	.-408    	; 0x38c <HWI_INTERRUPTS_INTITALIZE>
 524:	07 df       	rcall	.-498    	; 0x334 <HWI_DIGITAL_INITIALIZE>
 526:	09 de       	rcall	.-1006   	; 0x13a <SpeedCalcNotifyInitialize>
 528:	9a dd       	rcall	.-1228   	; 0x5e <APP_INITIALIZE>
 52a:	8b e8       	ldi	r24, 0x8B	; 139
 52c:	92 e0       	ldi	r25, 0x02	; 2
 52e:	60 e0       	ldi	r22, 0x00	; 0
 530:	44 e1       	ldi	r20, 0x14	; 20
 532:	bb de       	rcall	.-650    	; 0x2aa <CreateTask>
 534:	8d e8       	ldi	r24, 0x8D	; 141
 536:	92 e0       	ldi	r25, 0x02	; 2
 538:	62 e0       	ldi	r22, 0x02	; 2
 53a:	44 e6       	ldi	r20, 0x64	; 100
 53c:	b6 de       	rcall	.-660    	; 0x2aa <CreateTask>
 53e:	8f e8       	ldi	r24, 0x8F	; 143
 540:	92 e0       	ldi	r25, 0x02	; 2
 542:	61 e0       	ldi	r22, 0x01	; 1
 544:	42 e3       	ldi	r20, 0x32	; 50
 546:	b1 de       	rcall	.-670    	; 0x2aa <CreateTask>
 548:	cf de       	rcall	.-610    	; 0x2e8 <RunScheduler>
 54a:	80 e0       	ldi	r24, 0x00	; 0
 54c:	90 e0       	ldi	r25, 0x00	; 0
 54e:	08 95       	ret

00000550 <__mulsi3>:
 550:	62 9f       	mul	r22, r18
 552:	d0 01       	movw	r26, r0
 554:	73 9f       	mul	r23, r19
 556:	f0 01       	movw	r30, r0
 558:	82 9f       	mul	r24, r18
 55a:	e0 0d       	add	r30, r0
 55c:	f1 1d       	adc	r31, r1
 55e:	64 9f       	mul	r22, r20
 560:	e0 0d       	add	r30, r0
 562:	f1 1d       	adc	r31, r1
 564:	92 9f       	mul	r25, r18
 566:	f0 0d       	add	r31, r0
 568:	83 9f       	mul	r24, r19
 56a:	f0 0d       	add	r31, r0
 56c:	74 9f       	mul	r23, r20
 56e:	f0 0d       	add	r31, r0
 570:	65 9f       	mul	r22, r21
 572:	f0 0d       	add	r31, r0
 574:	99 27       	eor	r25, r25
 576:	72 9f       	mul	r23, r18
 578:	b0 0d       	add	r27, r0
 57a:	e1 1d       	adc	r30, r1
 57c:	f9 1f       	adc	r31, r25
 57e:	63 9f       	mul	r22, r19
 580:	b0 0d       	add	r27, r0
 582:	e1 1d       	adc	r30, r1
 584:	f9 1f       	adc	r31, r25
 586:	bd 01       	movw	r22, r26
 588:	cf 01       	movw	r24, r30
 58a:	11 24       	eor	r1, r1
 58c:	08 95       	ret

0000058e <__udivmodhi4>:
 58e:	aa 1b       	sub	r26, r26
 590:	bb 1b       	sub	r27, r27
 592:	51 e1       	ldi	r21, 0x11	; 17
 594:	07 c0       	rjmp	.+14     	; 0x5a4 <__udivmodhi4_ep>

00000596 <__udivmodhi4_loop>:
 596:	aa 1f       	adc	r26, r26
 598:	bb 1f       	adc	r27, r27
 59a:	a6 17       	cp	r26, r22
 59c:	b7 07       	cpc	r27, r23
 59e:	10 f0       	brcs	.+4      	; 0x5a4 <__udivmodhi4_ep>
 5a0:	a6 1b       	sub	r26, r22
 5a2:	b7 0b       	sbc	r27, r23

000005a4 <__udivmodhi4_ep>:
 5a4:	88 1f       	adc	r24, r24
 5a6:	99 1f       	adc	r25, r25
 5a8:	5a 95       	dec	r21
 5aa:	a9 f7       	brne	.-22     	; 0x596 <__udivmodhi4_loop>
 5ac:	80 95       	com	r24
 5ae:	90 95       	com	r25
 5b0:	bc 01       	movw	r22, r24
 5b2:	cd 01       	movw	r24, r26
 5b4:	08 95       	ret

000005b6 <__udivmodsi4>:
 5b6:	a1 e2       	ldi	r26, 0x21	; 33
 5b8:	1a 2e       	mov	r1, r26
 5ba:	aa 1b       	sub	r26, r26
 5bc:	bb 1b       	sub	r27, r27
 5be:	fd 01       	movw	r30, r26
 5c0:	0d c0       	rjmp	.+26     	; 0x5dc <__udivmodsi4_ep>

000005c2 <__udivmodsi4_loop>:
 5c2:	aa 1f       	adc	r26, r26
 5c4:	bb 1f       	adc	r27, r27
 5c6:	ee 1f       	adc	r30, r30
 5c8:	ff 1f       	adc	r31, r31
 5ca:	a2 17       	cp	r26, r18
 5cc:	b3 07       	cpc	r27, r19
 5ce:	e4 07       	cpc	r30, r20
 5d0:	f5 07       	cpc	r31, r21
 5d2:	20 f0       	brcs	.+8      	; 0x5dc <__udivmodsi4_ep>
 5d4:	a2 1b       	sub	r26, r18
 5d6:	b3 0b       	sbc	r27, r19
 5d8:	e4 0b       	sbc	r30, r20
 5da:	f5 0b       	sbc	r31, r21

000005dc <__udivmodsi4_ep>:
 5dc:	66 1f       	adc	r22, r22
 5de:	77 1f       	adc	r23, r23
 5e0:	88 1f       	adc	r24, r24
 5e2:	99 1f       	adc	r25, r25
 5e4:	1a 94       	dec	r1
 5e6:	69 f7       	brne	.-38     	; 0x5c2 <__udivmodsi4_loop>
 5e8:	60 95       	com	r22
 5ea:	70 95       	com	r23
 5ec:	80 95       	com	r24
 5ee:	90 95       	com	r25
 5f0:	9b 01       	movw	r18, r22
 5f2:	ac 01       	movw	r20, r24
 5f4:	bd 01       	movw	r22, r26
 5f6:	cf 01       	movw	r24, r30
 5f8:	08 95       	ret

000005fa <_exit>:
 5fa:	f8 94       	cli

000005fc <__stop_program>:
 5fc:	ff cf       	rjmp	.-2      	; 0x5fc <__stop_program>
