
BicMeter.elf:     file format elf32-avr

Sections:
Idx Name          Size      VMA       LMA       File off  Algn
  0 .text         0000100c  00000000  00000000  00000094  2**1
                  CONTENTS, ALLOC, LOAD, READONLY, CODE
  1 .data         00000038  00800060  0000100c  000010a0  2**0
                  CONTENTS, ALLOC, LOAD, DATA
  2 .bss          00000089  00800098  00800098  000010d8  2**0
                  ALLOC
  3 .stab         000006cc  00000000  00000000  000010d8  2**2
                  CONTENTS, READONLY, DEBUGGING
  4 .stabstr      00000085  00000000  00000000  000017a4  2**0
                  CONTENTS, READONLY, DEBUGGING
  5 .debug_aranges 000000c0  00000000  00000000  00001830  2**3
                  CONTENTS, READONLY, DEBUGGING
  6 .debug_info   0000052e  00000000  00000000  000018f0  2**0
                  CONTENTS, READONLY, DEBUGGING
  7 .debug_abbrev 00000078  00000000  00000000  00001e1e  2**0
                  CONTENTS, READONLY, DEBUGGING
  8 .debug_line   0000038e  00000000  00000000  00001e96  2**0
                  CONTENTS, READONLY, DEBUGGING

Disassembly of section .text:

00000000 <__vectors>:
       0:	12 c0       	rjmp	.+36     	; 0x26 <__ctors_end>
       2:	3e c7       	rjmp	.+3708   	; 0xe80 <__vector_1>
       4:	63 c7       	rjmp	.+3782   	; 0xecc <__vector_2>
       6:	2a c0       	rjmp	.+84     	; 0x5c <__bad_interrupt>
       8:	29 c0       	rjmp	.+82     	; 0x5c <__bad_interrupt>
       a:	28 c0       	rjmp	.+80     	; 0x5c <__bad_interrupt>
       c:	27 c0       	rjmp	.+78     	; 0x5c <__bad_interrupt>
       e:	26 c0       	rjmp	.+76     	; 0x5c <__bad_interrupt>
      10:	10 c7       	rjmp	.+3616   	; 0xe32 <__vector_8>
      12:	ea c6       	rjmp	.+3540   	; 0xde8 <__vector_9>
      14:	23 c0       	rjmp	.+70     	; 0x5c <__bad_interrupt>
      16:	22 c0       	rjmp	.+68     	; 0x5c <__bad_interrupt>
      18:	21 c0       	rjmp	.+66     	; 0x5c <__bad_interrupt>
      1a:	20 c0       	rjmp	.+64     	; 0x5c <__bad_interrupt>
      1c:	1f c0       	rjmp	.+62     	; 0x5c <__bad_interrupt>
      1e:	1e c0       	rjmp	.+60     	; 0x5c <__bad_interrupt>
      20:	1d c0       	rjmp	.+58     	; 0x5c <__bad_interrupt>
      22:	1c c0       	rjmp	.+56     	; 0x5c <__bad_interrupt>
      24:	1b c0       	rjmp	.+54     	; 0x5c <__bad_interrupt>

00000026 <__ctors_end>:
      26:	11 24       	eor	r1, r1
      28:	1f be       	out	0x3f, r1	; 63
      2a:	cf e5       	ldi	r28, 0x5F	; 95
      2c:	d4 e0       	ldi	r29, 0x04	; 4
      2e:	de bf       	out	0x3e, r29	; 62
      30:	cd bf       	out	0x3d, r28	; 61

00000032 <__do_copy_data>:
      32:	10 e0       	ldi	r17, 0x00	; 0
      34:	a0 e6       	ldi	r26, 0x60	; 96
      36:	b0 e0       	ldi	r27, 0x00	; 0
      38:	ec e0       	ldi	r30, 0x0C	; 12
      3a:	f0 e1       	ldi	r31, 0x10	; 16
      3c:	02 c0       	rjmp	.+4      	; 0x42 <__SREG__+0x3>
      3e:	05 90       	lpm	r0, Z+
      40:	0d 92       	st	X+, r0
      42:	a8 39       	cpi	r26, 0x98	; 152
      44:	b1 07       	cpc	r27, r17
      46:	d9 f7       	brne	.-10     	; 0x3e <__SP_H__>

00000048 <__do_clear_bss>:
      48:	11 e0       	ldi	r17, 0x01	; 1
      4a:	a8 e9       	ldi	r26, 0x98	; 152
      4c:	b0 e0       	ldi	r27, 0x00	; 0
      4e:	01 c0       	rjmp	.+2      	; 0x52 <.do_clear_bss_start>

00000050 <.do_clear_bss_loop>:
      50:	1d 92       	st	X+, r1

00000052 <.do_clear_bss_start>:
      52:	a1 32       	cpi	r26, 0x21	; 33
      54:	b1 07       	cpc	r27, r17
      56:	e1 f7       	brne	.-8      	; 0x50 <.do_clear_bss_loop>
      58:	7e d7       	rcall	.+3836   	; 0xf56 <main>
      5a:	d6 c7       	rjmp	.+4012   	; 0x1008 <_exit>

0000005c <__bad_interrupt>:
      5c:	d1 cf       	rjmp	.-94     	; 0x0 <__vectors>

0000005e <IncrementDecrementSingleDigit>:
      5e:	cf 92       	push	r12
      60:	df 92       	push	r13
      62:	ef 92       	push	r14
      64:	ff 92       	push	r15
      66:	0f 93       	push	r16
      68:	1f 93       	push	r17
      6a:	cf 93       	push	r28
      6c:	df 93       	push	r29
      6e:	00 d0       	rcall	.+0      	; 0x70 <IncrementDecrementSingleDigit+0x12>
      70:	00 d0       	rcall	.+0      	; 0x72 <IncrementDecrementSingleDigit+0x14>
      72:	cd b7       	in	r28, 0x3d	; 61
      74:	de b7       	in	r29, 0x3e	; 62
      76:	9c 01       	movw	r18, r24
      78:	16 2f       	mov	r17, r22
      7a:	04 2f       	mov	r16, r20
      7c:	6e 01       	movw	r12, r28
      7e:	08 94       	sec
      80:	c1 1c       	adc	r12, r1
      82:	d1 1c       	adc	r13, r1
      84:	f6 01       	movw	r30, r12
      86:	44 e0       	ldi	r20, 0x04	; 4
      88:	aa e0       	ldi	r26, 0x0A	; 10
      8a:	ea 2e       	mov	r14, r26
      8c:	f1 2c       	mov	r15, r1
      8e:	21 15       	cp	r18, r1
      90:	31 05       	cpc	r19, r1
      92:	69 f0       	breq	.+26     	; 0xae <IncrementDecrementSingleDigit+0x50>
      94:	c9 01       	movw	r24, r18
      96:	b7 01       	movw	r22, r14
      98:	81 d7       	rcall	.+3842   	; 0xf9c <__udivmodhi4>
      9a:	96 2f       	mov	r25, r22
      9c:	99 0f       	add	r25, r25
      9e:	89 2f       	mov	r24, r25
      a0:	88 0f       	add	r24, r24
      a2:	88 0f       	add	r24, r24
      a4:	89 0f       	add	r24, r25
      a6:	28 1b       	sub	r18, r24
      a8:	20 83       	st	Z, r18
      aa:	9b 01       	movw	r18, r22
      ac:	01 c0       	rjmp	.+2      	; 0xb0 <IncrementDecrementSingleDigit+0x52>
      ae:	10 82       	st	Z, r1
      b0:	41 50       	subi	r20, 0x01	; 1
      b2:	31 96       	adiw	r30, 0x01	; 1
      b4:	44 23       	and	r20, r20
      b6:	59 f7       	brne	.-42     	; 0x8e <IncrementDecrementSingleDigit+0x30>
      b8:	e1 2f       	mov	r30, r17
      ba:	f0 e0       	ldi	r31, 0x00	; 0
      bc:	00 23       	and	r16, r16
      be:	69 f4       	brne	.+26     	; 0xda <IncrementDecrementSingleDigit+0x7c>
      c0:	81 e0       	ldi	r24, 0x01	; 1
      c2:	90 e0       	ldi	r25, 0x00	; 0
      c4:	8c 0f       	add	r24, r28
      c6:	9d 1f       	adc	r25, r29
      c8:	e8 0f       	add	r30, r24
      ca:	f9 1f       	adc	r31, r25
      cc:	80 81       	ld	r24, Z
      ce:	88 23       	and	r24, r24
      d0:	11 f4       	brne	.+4      	; 0xd6 <IncrementDecrementSingleDigit+0x78>
      d2:	89 e0       	ldi	r24, 0x09	; 9
      d4:	0e c0       	rjmp	.+28     	; 0xf2 <IncrementDecrementSingleDigit+0x94>
      d6:	81 50       	subi	r24, 0x01	; 1
      d8:	0c c0       	rjmp	.+24     	; 0xf2 <IncrementDecrementSingleDigit+0x94>
      da:	a1 e0       	ldi	r26, 0x01	; 1
      dc:	b0 e0       	ldi	r27, 0x00	; 0
      de:	ac 0f       	add	r26, r28
      e0:	bd 1f       	adc	r27, r29
      e2:	ea 0f       	add	r30, r26
      e4:	fb 1f       	adc	r31, r27
      e6:	80 81       	ld	r24, Z
      e8:	89 30       	cpi	r24, 0x09	; 9
      ea:	11 f4       	brne	.+4      	; 0xf0 <IncrementDecrementSingleDigit+0x92>
      ec:	10 82       	st	Z, r1
      ee:	02 c0       	rjmp	.+4      	; 0xf4 <IncrementDecrementSingleDigit+0x96>
      f0:	8f 5f       	subi	r24, 0xFF	; 255
      f2:	80 83       	st	Z, r24
      f4:	20 e0       	ldi	r18, 0x00	; 0
      f6:	60 e0       	ldi	r22, 0x00	; 0
      f8:	70 e0       	ldi	r23, 0x00	; 0
      fa:	1e c0       	rjmp	.+60     	; 0x138 <IncrementDecrementSingleDigit+0xda>
      fc:	ca 01       	movw	r24, r20
      fe:	88 0f       	add	r24, r24
     100:	99 1f       	adc	r25, r25
     102:	f3 e0       	ldi	r31, 0x03	; 3
     104:	44 0f       	add	r20, r20
     106:	55 1f       	adc	r21, r21
     108:	fa 95       	dec	r31
     10a:	e1 f7       	brne	.-8      	; 0x104 <IncrementDecrementSingleDigit+0xa6>
     10c:	48 0f       	add	r20, r24
     10e:	59 1f       	adc	r21, r25
     110:	ef 5f       	subi	r30, 0xFF	; 255
     112:	e2 17       	cp	r30, r18
     114:	99 f7       	brne	.-26     	; 0xfc <IncrementDecrementSingleDigit+0x9e>
     116:	d6 01       	movw	r26, r12
     118:	8d 91       	ld	r24, X+
     11a:	6d 01       	movw	r12, r26
     11c:	90 e0       	ldi	r25, 0x00	; 0
     11e:	48 9f       	mul	r20, r24
     120:	90 01       	movw	r18, r0
     122:	49 9f       	mul	r20, r25
     124:	30 0d       	add	r19, r0
     126:	58 9f       	mul	r21, r24
     128:	30 0d       	add	r19, r0
     12a:	11 24       	eor	r1, r1
     12c:	62 0f       	add	r22, r18
     12e:	73 1f       	adc	r23, r19
     130:	2e 2f       	mov	r18, r30
     132:	2f 5f       	subi	r18, 0xFF	; 255
     134:	24 30       	cpi	r18, 0x04	; 4
     136:	21 f0       	breq	.+8      	; 0x140 <IncrementDecrementSingleDigit+0xe2>
     138:	41 e0       	ldi	r20, 0x01	; 1
     13a:	50 e0       	ldi	r21, 0x00	; 0
     13c:	e0 e0       	ldi	r30, 0x00	; 0
     13e:	e9 cf       	rjmp	.-46     	; 0x112 <IncrementDecrementSingleDigit+0xb4>
     140:	cb 01       	movw	r24, r22
     142:	0f 90       	pop	r0
     144:	0f 90       	pop	r0
     146:	0f 90       	pop	r0
     148:	0f 90       	pop	r0
     14a:	df 91       	pop	r29
     14c:	cf 91       	pop	r28
     14e:	1f 91       	pop	r17
     150:	0f 91       	pop	r16
     152:	ff 90       	pop	r15
     154:	ef 90       	pop	r14
     156:	df 90       	pop	r13
     158:	cf 90       	pop	r12
     15a:	08 95       	ret

0000015c <APP_INITIALIZE>:
     15c:	81 e0       	ldi	r24, 0x01	; 1
     15e:	68 e9       	ldi	r22, 0x98	; 152
     160:	70 e0       	ldi	r23, 0x00	; 0
     162:	4d e0       	ldi	r20, 0x0D	; 13
     164:	7d d3       	rcall	.+1786   	; 0x860 <Eeprom_Read_Block>
     166:	80 91 98 00 	lds	r24, 0x0098
     16a:	90 91 99 00 	lds	r25, 0x0099
     16e:	27 e2       	ldi	r18, 0x27	; 39
     170:	80 31       	cpi	r24, 0x10	; 16
     172:	92 07       	cpc	r25, r18
     174:	30 f0       	brcs	.+12     	; 0x182 <APP_INITIALIZE+0x26>
     176:	80 ed       	ldi	r24, 0xD0	; 208
     178:	97 e0       	ldi	r25, 0x07	; 7
     17a:	90 93 99 00 	sts	0x0099, r25
     17e:	80 93 98 00 	sts	0x0098, r24
     182:	80 91 9d 00 	lds	r24, 0x009D
     186:	90 91 9e 00 	lds	r25, 0x009E
     18a:	a0 91 9f 00 	lds	r26, 0x009F
     18e:	b0 91 a0 00 	lds	r27, 0x00A0
     192:	80 31       	cpi	r24, 0x10	; 16
     194:	27 e2       	ldi	r18, 0x27	; 39
     196:	92 07       	cpc	r25, r18
     198:	20 e0       	ldi	r18, 0x00	; 0
     19a:	a2 07       	cpc	r26, r18
     19c:	20 e0       	ldi	r18, 0x00	; 0
     19e:	b2 07       	cpc	r27, r18
     1a0:	40 f0       	brcs	.+16     	; 0x1b2 <APP_INITIALIZE+0x56>
     1a2:	10 92 9d 00 	sts	0x009D, r1
     1a6:	10 92 9e 00 	sts	0x009E, r1
     1aa:	10 92 9f 00 	sts	0x009F, r1
     1ae:	10 92 a0 00 	sts	0x00A0, r1
     1b2:	80 91 9d 00 	lds	r24, 0x009D
     1b6:	90 91 9e 00 	lds	r25, 0x009E
     1ba:	a0 91 9f 00 	lds	r26, 0x009F
     1be:	b0 91 a0 00 	lds	r27, 0x00A0
     1c2:	80 31       	cpi	r24, 0x10	; 16
     1c4:	27 e2       	ldi	r18, 0x27	; 39
     1c6:	92 07       	cpc	r25, r18
     1c8:	20 e0       	ldi	r18, 0x00	; 0
     1ca:	a2 07       	cpc	r26, r18
     1cc:	20 e0       	ldi	r18, 0x00	; 0
     1ce:	b2 07       	cpc	r27, r18
     1d0:	40 f0       	brcs	.+16     	; 0x1e2 <APP_INITIALIZE+0x86>
     1d2:	10 92 a1 00 	sts	0x00A1, r1
     1d6:	10 92 a2 00 	sts	0x00A2, r1
     1da:	10 92 a3 00 	sts	0x00A3, r1
     1de:	10 92 a4 00 	sts	0x00A4, r1
     1e2:	80 91 98 00 	lds	r24, 0x0098
     1e6:	90 91 99 00 	lds	r25, 0x0099
     1ea:	cc d4       	rcall	.+2456   	; 0xb84 <SetCircumfirunce>
     1ec:	60 91 9d 00 	lds	r22, 0x009D
     1f0:	70 91 9e 00 	lds	r23, 0x009E
     1f4:	80 91 9f 00 	lds	r24, 0x009F
     1f8:	90 91 a0 00 	lds	r25, 0x00A0
     1fc:	af d4       	rcall	.+2398   	; 0xb5c <SetDistance>
     1fe:	60 91 a1 00 	lds	r22, 0x00A1
     202:	70 91 a2 00 	lds	r23, 0x00A2
     206:	80 91 a3 00 	lds	r24, 0x00A3
     20a:	90 91 a4 00 	lds	r25, 0x00A4
     20e:	de d0       	rcall	.+444    	; 0x3cc <APP_CALC_TIMEsetTravelTime>
     210:	08 95       	ret

00000212 <APP_MANAGE>:
     212:	0f 93       	push	r16
     214:	1f 93       	push	r17
     216:	cf 93       	push	r28
     218:	df 93       	push	r29
     21a:	00 d0       	rcall	.+0      	; 0x21c <APP_MANAGE+0xa>
     21c:	cd b7       	in	r28, 0x3d	; 61
     21e:	de b7       	in	r29, 0x3e	; 62
     220:	80 91 9b 00 	lds	r24, 0x009B
     224:	90 91 9c 00 	lds	r25, 0x009C
     228:	9a 83       	std	Y+2, r25	; 0x02
     22a:	89 83       	std	Y+1, r24	; 0x01
     22c:	a2 d4       	rcall	.+2372   	; 0xb72 <GetDistance>
     22e:	dc 01       	movw	r26, r24
     230:	cb 01       	movw	r24, r22
     232:	80 93 9d 00 	sts	0x009D, r24
     236:	90 93 9e 00 	sts	0x009E, r25
     23a:	a0 93 9f 00 	sts	0x009F, r26
     23e:	b0 93 a0 00 	sts	0x00A0, r27
     242:	ce 01       	movw	r24, r28
     244:	01 96       	adiw	r24, 0x01	; 1
     246:	14 d1       	rcall	.+552    	; 0x470 <APP_HMImanage>
     248:	ce 01       	movw	r24, r28
     24a:	01 96       	adiw	r24, 0x01	; 1
     24c:	ce d0       	rcall	.+412    	; 0x3ea <APP_CALC_TIMEmanage>
     24e:	ab 01       	movw	r20, r22
     250:	bc 01       	movw	r22, r24
     252:	40 93 a1 00 	sts	0x00A1, r20
     256:	50 93 a2 00 	sts	0x00A2, r21
     25a:	60 93 a3 00 	sts	0x00A3, r22
     25e:	70 93 a4 00 	sts	0x00A4, r23
     262:	00 91 9d 00 	lds	r16, 0x009D
     266:	10 91 9e 00 	lds	r17, 0x009E
     26a:	20 91 9f 00 	lds	r18, 0x009F
     26e:	30 91 a0 00 	lds	r19, 0x00A0
     272:	ce 01       	movw	r24, r28
     274:	01 96       	adiw	r24, 0x01	; 1
     276:	a7 d0       	rcall	.+334    	; 0x3c6 <APP_CALC_AVGSPDemanage>
     278:	ce 01       	movw	r24, r28
     27a:	01 96       	adiw	r24, 0x01	; 1
     27c:	75 d1       	rcall	.+746    	; 0x568 <APP_SLEEPmanage>
     27e:	8a 81       	ldd	r24, Y+2	; 0x02
     280:	86 95       	lsr	r24
     282:	81 70       	andi	r24, 0x01	; 1
     284:	84 d4       	rcall	.+2312   	; 0xb8e <GetAvgSpeed>
     286:	bc 01       	movw	r22, r24
     288:	80 e0       	ldi	r24, 0x00	; 0
     28a:	90 e0       	ldi	r25, 0x00	; 0
     28c:	40 e0       	ldi	r20, 0x00	; 0
     28e:	21 e0       	ldi	r18, 0x01	; 1
     290:	01 e0       	ldi	r16, 0x01	; 1
     292:	6e d1       	rcall	.+732    	; 0x570 <BCDsendNumber>
     294:	29 81       	ldd	r18, Y+1	; 0x01
     296:	82 2f       	mov	r24, r18
     298:	83 70       	andi	r24, 0x03	; 3
     29a:	90 e0       	ldi	r25, 0x00	; 0
     29c:	82 30       	cpi	r24, 0x02	; 2
     29e:	91 05       	cpc	r25, r1
     2a0:	21 f1       	breq	.+72     	; 0x2ea <APP_MANAGE+0xd8>
     2a2:	83 30       	cpi	r24, 0x03	; 3
     2a4:	91 05       	cpc	r25, r1
     2a6:	31 f1       	breq	.+76     	; 0x2f4 <APP_MANAGE+0xe2>
     2a8:	81 30       	cpi	r24, 0x01	; 1
     2aa:	91 05       	cpc	r25, r1
     2ac:	59 f0       	breq	.+22     	; 0x2c4 <APP_MANAGE+0xb2>
     2ae:	60 91 9d 00 	lds	r22, 0x009D
     2b2:	70 91 9e 00 	lds	r23, 0x009E
     2b6:	80 91 9f 00 	lds	r24, 0x009F
     2ba:	90 91 a0 00 	lds	r25, 0x00A0
     2be:	41 e0       	ldi	r20, 0x01	; 1
     2c0:	21 e0       	ldi	r18, 0x01	; 1
     2c2:	11 c0       	rjmp	.+34     	; 0x2e6 <APP_MANAGE+0xd4>
     2c4:	25 ff       	sbrs	r18, 5
     2c6:	04 c0       	rjmp	.+8      	; 0x2d0 <APP_MANAGE+0xbe>
     2c8:	60 e0       	ldi	r22, 0x00	; 0
     2ca:	70 e0       	ldi	r23, 0x00	; 0
     2cc:	cb 01       	movw	r24, r22
     2ce:	7e d0       	rcall	.+252    	; 0x3cc <APP_CALC_TIMEsetTravelTime>
     2d0:	60 91 a1 00 	lds	r22, 0x00A1
     2d4:	70 91 a2 00 	lds	r23, 0x00A2
     2d8:	80 91 a3 00 	lds	r24, 0x00A3
     2dc:	90 91 a4 00 	lds	r25, 0x00A4
     2e0:	41 e0       	ldi	r20, 0x01	; 1
     2e2:	20 e0       	ldi	r18, 0x00	; 0
     2e4:	01 e0       	ldi	r16, 0x01	; 1
     2e6:	44 d1       	rcall	.+648    	; 0x570 <BCDsendNumber>
     2e8:	50 c0       	rjmp	.+160    	; 0x38a <APP_MANAGE+0x178>
     2ea:	61 e0       	ldi	r22, 0x01	; 1
     2ec:	70 e0       	ldi	r23, 0x00	; 0
     2ee:	80 e0       	ldi	r24, 0x00	; 0
     2f0:	90 e0       	ldi	r25, 0x00	; 0
     2f2:	f6 cf       	rjmp	.-20     	; 0x2e0 <APP_MANAGE+0xce>
     2f4:	8a 81       	ldd	r24, Y+2	; 0x02
     2f6:	82 ff       	sbrs	r24, 2
     2f8:	34 c0       	rjmp	.+104    	; 0x362 <APP_MANAGE+0x150>
     2fa:	25 ff       	sbrs	r18, 5
     2fc:	09 c0       	rjmp	.+18     	; 0x310 <APP_MANAGE+0xfe>
     2fe:	80 91 9a 00 	lds	r24, 0x009A
     302:	83 30       	cpi	r24, 0x03	; 3
     304:	19 f4       	brne	.+6      	; 0x30c <APP_MANAGE+0xfa>
     306:	10 92 9a 00 	sts	0x009A, r1
     30a:	26 c0       	rjmp	.+76     	; 0x358 <APP_MANAGE+0x146>
     30c:	8f 5f       	subi	r24, 0xFF	; 255
     30e:	09 c0       	rjmp	.+18     	; 0x322 <APP_MANAGE+0x110>
     310:	26 ff       	sbrs	r18, 6
     312:	0a c0       	rjmp	.+20     	; 0x328 <APP_MANAGE+0x116>
     314:	80 91 9a 00 	lds	r24, 0x009A
     318:	88 23       	and	r24, r24
     31a:	11 f4       	brne	.+4      	; 0x320 <APP_MANAGE+0x10e>
     31c:	83 e0       	ldi	r24, 0x03	; 3
     31e:	01 c0       	rjmp	.+2      	; 0x322 <APP_MANAGE+0x110>
     320:	81 50       	subi	r24, 0x01	; 1
     322:	80 93 9a 00 	sts	0x009A, r24
     326:	18 c0       	rjmp	.+48     	; 0x358 <APP_MANAGE+0x146>
     328:	23 ff       	sbrs	r18, 3
     32a:	08 c0       	rjmp	.+16     	; 0x33c <APP_MANAGE+0x12a>
     32c:	80 91 98 00 	lds	r24, 0x0098
     330:	90 91 99 00 	lds	r25, 0x0099
     334:	60 91 9a 00 	lds	r22, 0x009A
     338:	40 e0       	ldi	r20, 0x00	; 0
     33a:	09 c0       	rjmp	.+18     	; 0x34e <APP_MANAGE+0x13c>
     33c:	24 ff       	sbrs	r18, 4
     33e:	0c c0       	rjmp	.+24     	; 0x358 <APP_MANAGE+0x146>
     340:	80 91 98 00 	lds	r24, 0x0098
     344:	90 91 99 00 	lds	r25, 0x0099
     348:	60 91 9a 00 	lds	r22, 0x009A
     34c:	41 e0       	ldi	r20, 0x01	; 1
     34e:	87 de       	rcall	.-754    	; 0x5e <IncrementDecrementSingleDigit>
     350:	90 93 99 00 	sts	0x0099, r25
     354:	80 93 98 00 	sts	0x0098, r24
     358:	80 91 9a 00 	lds	r24, 0x009A
     35c:	61 e0       	ldi	r22, 0x01	; 1
     35e:	44 e6       	ldi	r20, 0x64	; 100
     360:	04 c0       	rjmp	.+8      	; 0x36a <APP_MANAGE+0x158>
     362:	80 91 9a 00 	lds	r24, 0x009A
     366:	61 e0       	ldi	r22, 0x01	; 1
     368:	40 e0       	ldi	r20, 0x00	; 0
     36a:	fc d1       	rcall	.+1016   	; 0x764 <BlinkDigit>
     36c:	60 91 98 00 	lds	r22, 0x0098
     370:	70 91 99 00 	lds	r23, 0x0099
     374:	80 e0       	ldi	r24, 0x00	; 0
     376:	90 e0       	ldi	r25, 0x00	; 0
     378:	41 e0       	ldi	r20, 0x01	; 1
     37a:	20 e0       	ldi	r18, 0x00	; 0
     37c:	00 e0       	ldi	r16, 0x00	; 0
     37e:	f8 d0       	rcall	.+496    	; 0x570 <BCDsendNumber>
     380:	80 91 98 00 	lds	r24, 0x0098
     384:	90 91 99 00 	lds	r25, 0x0099
     388:	fd d3       	rcall	.+2042   	; 0xb84 <SetCircumfirunce>
     38a:	89 81       	ldd	r24, Y+1	; 0x01
     38c:	9a 81       	ldd	r25, Y+2	; 0x02
     38e:	90 93 9c 00 	sts	0x009C, r25
     392:	80 93 9b 00 	sts	0x009B, r24
     396:	89 81       	ldd	r24, Y+1	; 0x01
     398:	82 ff       	sbrs	r24, 2
     39a:	0e c0       	rjmp	.+28     	; 0x3b8 <APP_MANAGE+0x1a6>
     39c:	81 e0       	ldi	r24, 0x01	; 1
     39e:	68 e9       	ldi	r22, 0x98	; 152
     3a0:	70 e0       	ldi	r23, 0x00	; 0
     3a2:	4d e0       	ldi	r20, 0x0D	; 13
     3a4:	20 e0       	ldi	r18, 0x00	; 0
     3a6:	30 e0       	ldi	r19, 0x00	; 0
     3a8:	3a d2       	rcall	.+1140   	; 0x81e <Eeprom_Write_Block>
     3aa:	81 30       	cpi	r24, 0x01	; 1
     3ac:	29 f4       	brne	.+10     	; 0x3b8 <APP_MANAGE+0x1a6>
     3ae:	80 91 9b 00 	lds	r24, 0x009B
     3b2:	8b 7f       	andi	r24, 0xFB	; 251
     3b4:	80 93 9b 00 	sts	0x009B, r24
     3b8:	0f 90       	pop	r0
     3ba:	0f 90       	pop	r0
     3bc:	df 91       	pop	r29
     3be:	cf 91       	pop	r28
     3c0:	1f 91       	pop	r17
     3c2:	0f 91       	pop	r16
     3c4:	08 95       	ret

000003c6 <APP_CALC_AVGSPDemanage>:
     3c6:	80 e0       	ldi	r24, 0x00	; 0
     3c8:	90 e0       	ldi	r25, 0x00	; 0
     3ca:	08 95       	ret

000003cc <APP_CALC_TIMEsetTravelTime>:
     3cc:	dc 01       	movw	r26, r24
     3ce:	cb 01       	movw	r24, r22
     3d0:	80 93 a5 00 	sts	0x00A5, r24
     3d4:	90 93 a6 00 	sts	0x00A6, r25
     3d8:	a0 93 a7 00 	sts	0x00A7, r26
     3dc:	b0 93 a8 00 	sts	0x00A8, r27
     3e0:	10 92 aa 00 	sts	0x00AA, r1
     3e4:	10 92 a9 00 	sts	0x00A9, r1
     3e8:	08 95       	ret

000003ea <APP_CALC_TIMEmanage>:
     3ea:	fc 01       	movw	r30, r24
     3ec:	80 81       	ld	r24, Z
     3ee:	87 ff       	sbrs	r24, 7
     3f0:	0d c0       	rjmp	.+26     	; 0x40c <APP_CALC_TIMEmanage+0x22>
     3f2:	10 92 aa 00 	sts	0x00AA, r1
     3f6:	10 92 a9 00 	sts	0x00A9, r1
     3fa:	10 92 a5 00 	sts	0x00A5, r1
     3fe:	10 92 a6 00 	sts	0x00A6, r1
     402:	10 92 a7 00 	sts	0x00A7, r1
     406:	10 92 a8 00 	sts	0x00A8, r1
     40a:	29 c0       	rjmp	.+82     	; 0x45e <APP_CALC_TIMEmanage+0x74>
     40c:	80 91 a9 00 	lds	r24, 0x00A9
     410:	90 91 aa 00 	lds	r25, 0x00AA
     414:	24 e0       	ldi	r18, 0x04	; 4
     416:	80 3b       	cpi	r24, 0xB0	; 176
     418:	92 07       	cpc	r25, r18
     41a:	e0 f0       	brcs	.+56     	; 0x454 <APP_CALC_TIMEmanage+0x6a>
     41c:	10 92 aa 00 	sts	0x00AA, r1
     420:	10 92 a9 00 	sts	0x00A9, r1
     424:	40 91 a5 00 	lds	r20, 0x00A5
     428:	50 91 a6 00 	lds	r21, 0x00A6
     42c:	60 91 a7 00 	lds	r22, 0x00A7
     430:	70 91 a8 00 	lds	r23, 0x00A8
     434:	4f 5f       	subi	r20, 0xFF	; 255
     436:	5f 4f       	sbci	r21, 0xFF	; 255
     438:	6f 4f       	sbci	r22, 0xFF	; 255
     43a:	7f 4f       	sbci	r23, 0xFF	; 255
     43c:	40 93 a5 00 	sts	0x00A5, r20
     440:	50 93 a6 00 	sts	0x00A6, r21
     444:	60 93 a7 00 	sts	0x00A7, r22
     448:	70 93 a8 00 	sts	0x00A8, r23
     44c:	80 81       	ld	r24, Z
     44e:	84 60       	ori	r24, 0x04	; 4
     450:	80 83       	st	Z, r24
     452:	05 c0       	rjmp	.+10     	; 0x45e <APP_CALC_TIMEmanage+0x74>
     454:	01 96       	adiw	r24, 0x01	; 1
     456:	90 93 aa 00 	sts	0x00AA, r25
     45a:	80 93 a9 00 	sts	0x00A9, r24
     45e:	60 91 a5 00 	lds	r22, 0x00A5
     462:	70 91 a6 00 	lds	r23, 0x00A6
     466:	80 91 a7 00 	lds	r24, 0x00A7
     46a:	90 91 a8 00 	lds	r25, 0x00A8
     46e:	08 95       	ret

00000470 <APP_HMImanage>:
     470:	1f 93       	push	r17
     472:	cf 93       	push	r28
     474:	df 93       	push	r29
     476:	ec 01       	movw	r28, r24
     478:	80 e0       	ldi	r24, 0x00	; 0
     47a:	4a d2       	rcall	.+1172   	; 0x910 <GetKeyStatus>
     47c:	18 2f       	mov	r17, r24
     47e:	81 e0       	ldi	r24, 0x01	; 1
     480:	47 d2       	rcall	.+1166   	; 0x910 <GetKeyStatus>
     482:	90 91 ab 00 	lds	r25, 0x00AB
     486:	91 30       	cpi	r25, 0x01	; 1
     488:	69 f1       	breq	.+90     	; 0x4e4 <APP_HMImanage+0x74>
     48a:	91 30       	cpi	r25, 0x01	; 1
     48c:	38 f0       	brcs	.+14     	; 0x49c <APP_HMImanage+0x2c>
     48e:	92 30       	cpi	r25, 0x02	; 2
     490:	09 f4       	brne	.+2      	; 0x494 <APP_HMImanage+0x24>
     492:	4e c0       	rjmp	.+156    	; 0x530 <APP_HMImanage+0xc0>
     494:	93 30       	cpi	r25, 0x03	; 3
     496:	09 f0       	breq	.+2      	; 0x49a <APP_HMImanage+0x2a>
     498:	58 c0       	rjmp	.+176    	; 0x54a <APP_HMImanage+0xda>
     49a:	4f c0       	rjmp	.+158    	; 0x53a <APP_HMImanage+0xca>
     49c:	11 30       	cpi	r17, 0x01	; 1
     49e:	21 f4       	brne	.+8      	; 0x4a8 <APP_HMImanage+0x38>
     4a0:	81 30       	cpi	r24, 0x01	; 1
     4a2:	41 f4       	brne	.+16     	; 0x4b4 <APP_HMImanage+0x44>
     4a4:	83 e0       	ldi	r24, 0x03	; 3
     4a6:	4e c0       	rjmp	.+156    	; 0x544 <APP_HMImanage+0xd4>
     4a8:	10 34       	cpi	r17, 0x40	; 64
     4aa:	21 f4       	brne	.+8      	; 0x4b4 <APP_HMImanage+0x44>
     4ac:	88 81       	ld	r24, Y
     4ae:	98 2f       	mov	r25, r24
     4b0:	9d 5f       	subi	r25, 0xFD	; 253
     4b2:	05 c0       	rjmp	.+10     	; 0x4be <APP_HMImanage+0x4e>
     4b4:	80 34       	cpi	r24, 0x40	; 64
     4b6:	29 f4       	brne	.+10     	; 0x4c2 <APP_HMImanage+0x52>
     4b8:	88 81       	ld	r24, Y
     4ba:	98 2f       	mov	r25, r24
     4bc:	9f 5f       	subi	r25, 0xFF	; 255
     4be:	93 70       	andi	r25, 0x03	; 3
     4c0:	33 c0       	rjmp	.+102    	; 0x528 <APP_HMImanage+0xb8>
     4c2:	99 81       	ldd	r25, Y+1	; 0x01
     4c4:	12 38       	cpi	r17, 0x82	; 130
     4c6:	29 f4       	brne	.+10     	; 0x4d2 <APP_HMImanage+0x62>
     4c8:	89 2f       	mov	r24, r25
     4ca:	80 95       	com	r24
     4cc:	82 70       	andi	r24, 0x02	; 2
     4ce:	9d 7f       	andi	r25, 0xFD	; 253
     4d0:	06 c0       	rjmp	.+12     	; 0x4de <APP_HMImanage+0x6e>
     4d2:	82 38       	cpi	r24, 0x82	; 130
     4d4:	e1 f5       	brne	.+120    	; 0x54e <APP_HMImanage+0xde>
     4d6:	89 2f       	mov	r24, r25
     4d8:	80 95       	com	r24
     4da:	88 70       	andi	r24, 0x08	; 8
     4dc:	97 7f       	andi	r25, 0xF7	; 247
     4de:	98 2b       	or	r25, r24
     4e0:	99 83       	std	Y+1, r25	; 0x01
     4e2:	35 c0       	rjmp	.+106    	; 0x54e <APP_HMImanage+0xde>
     4e4:	98 81       	ld	r25, Y
     4e6:	93 70       	andi	r25, 0x03	; 3
     4e8:	19 82       	std	Y+1, r1	; 0x01
     4ea:	18 82       	st	Y, r1
     4ec:	11 30       	cpi	r17, 0x01	; 1
     4ee:	41 f4       	brne	.+16     	; 0x500 <APP_HMImanage+0x90>
     4f0:	81 30       	cpi	r24, 0x01	; 1
     4f2:	61 f4       	brne	.+24     	; 0x50c <APP_HMImanage+0x9c>
     4f4:	82 e0       	ldi	r24, 0x02	; 2
     4f6:	80 93 ab 00 	sts	0x00AB, r24
     4fa:	88 81       	ld	r24, Y
     4fc:	84 60       	ori	r24, 0x04	; 4
     4fe:	04 c0       	rjmp	.+8      	; 0x508 <APP_HMImanage+0x98>
     500:	10 34       	cpi	r17, 0x40	; 64
     502:	21 f4       	brne	.+8      	; 0x50c <APP_HMImanage+0x9c>
     504:	88 81       	ld	r24, Y
     506:	80 61       	ori	r24, 0x10	; 16
     508:	88 83       	st	Y, r24
     50a:	0d c0       	rjmp	.+26     	; 0x526 <APP_HMImanage+0xb6>
     50c:	28 81       	ld	r18, Y
     50e:	80 34       	cpi	r24, 0x40	; 64
     510:	11 f4       	brne	.+4      	; 0x516 <APP_HMImanage+0xa6>
     512:	28 60       	ori	r18, 0x08	; 8
     514:	07 c0       	rjmp	.+14     	; 0x524 <APP_HMImanage+0xb4>
     516:	12 38       	cpi	r17, 0x82	; 130
     518:	11 f4       	brne	.+4      	; 0x51e <APP_HMImanage+0xae>
     51a:	20 64       	ori	r18, 0x40	; 64
     51c:	03 c0       	rjmp	.+6      	; 0x524 <APP_HMImanage+0xb4>
     51e:	82 38       	cpi	r24, 0x82	; 130
     520:	11 f4       	brne	.+4      	; 0x526 <APP_HMImanage+0xb6>
     522:	20 62       	ori	r18, 0x20	; 32
     524:	28 83       	st	Y, r18
     526:	88 81       	ld	r24, Y
     528:	8c 7f       	andi	r24, 0xFC	; 252
     52a:	89 2b       	or	r24, r25
     52c:	88 83       	st	Y, r24
     52e:	0f c0       	rjmp	.+30     	; 0x54e <APP_HMImanage+0xde>
     530:	11 23       	and	r17, r17
     532:	69 f4       	brne	.+26     	; 0x54e <APP_HMImanage+0xde>
     534:	88 23       	and	r24, r24
     536:	59 f4       	brne	.+22     	; 0x54e <APP_HMImanage+0xde>
     538:	08 c0       	rjmp	.+16     	; 0x54a <APP_HMImanage+0xda>
     53a:	11 23       	and	r17, r17
     53c:	41 f4       	brne	.+16     	; 0x54e <APP_HMImanage+0xde>
     53e:	88 23       	and	r24, r24
     540:	31 f4       	brne	.+12     	; 0x54e <APP_HMImanage+0xde>
     542:	81 e0       	ldi	r24, 0x01	; 1
     544:	80 93 ab 00 	sts	0x00AB, r24
     548:	02 c0       	rjmp	.+4      	; 0x54e <APP_HMImanage+0xde>
     54a:	10 92 ab 00 	sts	0x00AB, r1
     54e:	90 91 ab 00 	lds	r25, 0x00AB
     552:	91 70       	andi	r25, 0x01	; 1
     554:	99 0f       	add	r25, r25
     556:	99 0f       	add	r25, r25
     558:	89 81       	ldd	r24, Y+1	; 0x01
     55a:	8b 7f       	andi	r24, 0xFB	; 251
     55c:	89 2b       	or	r24, r25
     55e:	89 83       	std	Y+1, r24	; 0x01
     560:	df 91       	pop	r29
     562:	cf 91       	pop	r28
     564:	1f 91       	pop	r17
     566:	08 95       	ret

00000568 <APP_SLEEPmanage>:
     568:	08 95       	ret

0000056a <BCDInitialize>:
     56a:	80 93 ac 00 	sts	0x00AC, r24
     56e:	08 95       	ret

00000570 <BCDsendNumber>:
     570:	2f 92       	push	r2
     572:	3f 92       	push	r3
     574:	4f 92       	push	r4
     576:	5f 92       	push	r5
     578:	7f 92       	push	r7
     57a:	8f 92       	push	r8
     57c:	9f 92       	push	r9
     57e:	af 92       	push	r10
     580:	bf 92       	push	r11
     582:	cf 92       	push	r12
     584:	df 92       	push	r13
     586:	ef 92       	push	r14
     588:	ff 92       	push	r15
     58a:	0f 93       	push	r16
     58c:	1f 93       	push	r17
     58e:	cf 93       	push	r28
     590:	df 93       	push	r29
     592:	00 d0       	rcall	.+0      	; 0x594 <BCDsendNumber+0x24>
     594:	00 d0       	rcall	.+0      	; 0x596 <BCDsendNumber+0x26>
     596:	cd b7       	in	r28, 0x3d	; 61
     598:	de b7       	in	r29, 0x3e	; 62
     59a:	12 2f       	mov	r17, r18
     59c:	70 2e       	mov	r7, r16
     59e:	24 2f       	mov	r18, r20
     5a0:	30 e0       	ldi	r19, 0x00	; 0
     5a2:	3a 83       	std	Y+2, r19	; 0x02
     5a4:	29 83       	std	Y+1, r18	; 0x01
     5a6:	43 e0       	ldi	r20, 0x03	; 3
     5a8:	22 0f       	add	r18, r18
     5aa:	33 1f       	adc	r19, r19
     5ac:	4a 95       	dec	r20
     5ae:	e1 f7       	brne	.-8      	; 0x5a8 <BCDsendNumber+0x38>
     5b0:	23 55       	subi	r18, 0x53	; 83
     5b2:	3f 4f       	sbci	r19, 0xFF	; 255
     5b4:	6b 01       	movw	r12, r22
     5b6:	7c 01       	movw	r14, r24
     5b8:	88 24       	eor	r8, r8
     5ba:	5a e0       	ldi	r21, 0x0A	; 10
     5bc:	25 2e       	mov	r2, r21
     5be:	31 2c       	mov	r3, r1
     5c0:	41 2c       	mov	r4, r1
     5c2:	51 2c       	mov	r5, r1
     5c4:	3c 83       	std	Y+4, r19	; 0x04
     5c6:	2b 83       	std	Y+3, r18	; 0x03
     5c8:	91 2e       	mov	r9, r17
     5ca:	c1 14       	cp	r12, r1
     5cc:	d1 04       	cpc	r13, r1
     5ce:	e1 04       	cpc	r14, r1
     5d0:	f1 04       	cpc	r15, r1
     5d2:	11 f4       	brne	.+4      	; 0x5d8 <BCDsendNumber+0x68>
     5d4:	98 14       	cp	r9, r8
     5d6:	38 f1       	brcs	.+78     	; 0x626 <BCDsendNumber+0xb6>
     5d8:	c7 01       	movw	r24, r14
     5da:	b6 01       	movw	r22, r12
     5dc:	a2 01       	movw	r20, r4
     5de:	91 01       	movw	r18, r2
     5e0:	f1 d4       	rcall	.+2530   	; 0xfc4 <__udivmodsi4>
     5e2:	12 2f       	mov	r17, r18
     5e4:	03 2f       	mov	r16, r19
     5e6:	b4 2e       	mov	r11, r20
     5e8:	a5 2e       	mov	r10, r21
     5ea:	62 2f       	mov	r22, r18
     5ec:	73 2f       	mov	r23, r19
     5ee:	84 2f       	mov	r24, r20
     5f0:	95 2f       	mov	r25, r21
     5f2:	2a e0       	ldi	r18, 0x0A	; 10
     5f4:	30 e0       	ldi	r19, 0x00	; 0
     5f6:	40 e0       	ldi	r20, 0x00	; 0
     5f8:	50 e0       	ldi	r21, 0x00	; 0
     5fa:	b1 d4       	rcall	.+2402   	; 0xf5e <__mulsi3>
     5fc:	dc 01       	movw	r26, r24
     5fe:	cb 01       	movw	r24, r22
     600:	c8 1a       	sub	r12, r24
     602:	d9 0a       	sbc	r13, r25
     604:	ea 0a       	sbc	r14, r26
     606:	fb 0a       	sbc	r15, r27
     608:	f6 01       	movw	r30, r12
     60a:	e0 5a       	subi	r30, 0xA0	; 160
     60c:	ff 4f       	sbci	r31, 0xFF	; 255
     60e:	80 81       	ld	r24, Z
     610:	ab 81       	ldd	r26, Y+3	; 0x03
     612:	bc 81       	ldd	r27, Y+4	; 0x04
     614:	8c 93       	st	X, r24
     616:	11 96       	adiw	r26, 0x01	; 1
     618:	1c 92       	st	X, r1
     61a:	11 97       	sbiw	r26, 0x01	; 1
     61c:	c1 2e       	mov	r12, r17
     61e:	d0 2e       	mov	r13, r16
     620:	eb 2c       	mov	r14, r11
     622:	fa 2c       	mov	r15, r10
     624:	0e c0       	rjmp	.+28     	; 0x642 <BCDsendNumber+0xd2>
     626:	77 20       	and	r7, r7
     628:	39 f4       	brne	.+14     	; 0x638 <BCDsendNumber+0xc8>
     62a:	2c ef       	ldi	r18, 0xFC	; 252
     62c:	30 e0       	ldi	r19, 0x00	; 0
     62e:	eb 81       	ldd	r30, Y+3	; 0x03
     630:	fc 81       	ldd	r31, Y+4	; 0x04
     632:	31 83       	std	Z+1, r19	; 0x01
     634:	20 83       	st	Z, r18
     636:	05 c0       	rjmp	.+10     	; 0x642 <BCDsendNumber+0xd2>
     638:	ab 81       	ldd	r26, Y+3	; 0x03
     63a:	bc 81       	ldd	r27, Y+4	; 0x04
     63c:	11 96       	adiw	r26, 0x01	; 1
     63e:	1c 92       	st	X, r1
     640:	1e 92       	st	-X, r1
     642:	83 94       	inc	r8
     644:	eb 81       	ldd	r30, Y+3	; 0x03
     646:	fc 81       	ldd	r31, Y+4	; 0x04
     648:	32 96       	adiw	r30, 0x02	; 2
     64a:	fc 83       	std	Y+4, r31	; 0x04
     64c:	eb 83       	std	Y+3, r30	; 0x03
     64e:	f4 e0       	ldi	r31, 0x04	; 4
     650:	8f 16       	cp	r8, r31
     652:	09 f0       	breq	.+2      	; 0x656 <BCDsendNumber+0xe6>
     654:	ba cf       	rjmp	.-140    	; 0x5ca <BCDsendNumber+0x5a>
     656:	99 20       	and	r9, r9
     658:	89 f0       	breq	.+34     	; 0x67c <BCDsendNumber+0x10c>
     65a:	e9 81       	ldd	r30, Y+1	; 0x01
     65c:	fa 81       	ldd	r31, Y+2	; 0x02
     65e:	ee 0f       	add	r30, r30
     660:	ff 1f       	adc	r31, r31
     662:	ee 0f       	add	r30, r30
     664:	ff 1f       	adc	r31, r31
     666:	e9 0d       	add	r30, r9
     668:	f1 1d       	adc	r31, r1
     66a:	ee 0f       	add	r30, r30
     66c:	ff 1f       	adc	r31, r31
     66e:	e3 55       	subi	r30, 0x53	; 83
     670:	ff 4f       	sbci	r31, 0xFF	; 255
     672:	80 81       	ld	r24, Z
     674:	91 81       	ldd	r25, Z+1	; 0x01
     676:	81 60       	ori	r24, 0x01	; 1
     678:	91 83       	std	Z+1, r25	; 0x01
     67a:	80 83       	st	Z, r24
     67c:	0f 90       	pop	r0
     67e:	0f 90       	pop	r0
     680:	0f 90       	pop	r0
     682:	0f 90       	pop	r0
     684:	df 91       	pop	r29
     686:	cf 91       	pop	r28
     688:	1f 91       	pop	r17
     68a:	0f 91       	pop	r16
     68c:	ff 90       	pop	r15
     68e:	ef 90       	pop	r14
     690:	df 90       	pop	r13
     692:	cf 90       	pop	r12
     694:	bf 90       	pop	r11
     696:	af 90       	pop	r10
     698:	9f 90       	pop	r9
     69a:	8f 90       	pop	r8
     69c:	7f 90       	pop	r7
     69e:	5f 90       	pop	r5
     6a0:	4f 90       	pop	r4
     6a2:	3f 90       	pop	r3
     6a4:	2f 90       	pop	r2
     6a6:	08 95       	ret

000006a8 <BCDManage7segment>:
     6a8:	cf 93       	push	r28
     6aa:	90 91 bd 00 	lds	r25, 0x00BD
     6ae:	99 23       	and	r25, r25
     6b0:	81 f0       	breq	.+32     	; 0x6d2 <BCDManage7segment+0x2a>
     6b2:	80 91 be 00 	lds	r24, 0x00BE
     6b6:	8f 5f       	subi	r24, 0xFF	; 255
     6b8:	80 93 be 00 	sts	0x00BE, r24
     6bc:	89 17       	cp	r24, r25
     6be:	59 f4       	brne	.+22     	; 0x6d6 <BCDManage7segment+0x2e>
     6c0:	80 91 bf 00 	lds	r24, 0x00BF
     6c4:	91 e0       	ldi	r25, 0x01	; 1
     6c6:	89 27       	eor	r24, r25
     6c8:	80 93 bf 00 	sts	0x00BF, r24
     6cc:	10 92 be 00 	sts	0x00BE, r1
     6d0:	02 c0       	rjmp	.+4      	; 0x6d6 <BCDManage7segment+0x2e>
     6d2:	10 92 bf 00 	sts	0x00BF, r1
     6d6:	80 91 bf 00 	lds	r24, 0x00BF
     6da:	81 30       	cpi	r24, 0x01	; 1
     6dc:	61 f4       	brne	.+24     	; 0x6f6 <BCDManage7segment+0x4e>
     6de:	90 91 c0 00 	lds	r25, 0x00C0
     6e2:	80 91 c1 00 	lds	r24, 0x00C1
     6e6:	98 17       	cp	r25, r24
     6e8:	31 f4       	brne	.+12     	; 0x6f6 <BCDManage7segment+0x4e>
     6ea:	90 91 c2 00 	lds	r25, 0x00C2
     6ee:	80 91 c3 00 	lds	r24, 0x00C3
     6f2:	98 17       	cp	r25, r24
     6f4:	89 f0       	breq	.+34     	; 0x718 <BCDManage7segment+0x70>
     6f6:	80 91 c0 00 	lds	r24, 0x00C0
     6fa:	e0 91 c3 00 	lds	r30, 0x00C3
     6fe:	f0 e0       	ldi	r31, 0x00	; 0
     700:	ee 0f       	add	r30, r30
     702:	ff 1f       	adc	r31, r31
     704:	ee 0f       	add	r30, r30
     706:	ff 1f       	adc	r31, r31
     708:	e8 0f       	add	r30, r24
     70a:	f1 1d       	adc	r31, r1
     70c:	ee 0f       	add	r30, r30
     70e:	ff 1f       	adc	r31, r31
     710:	e3 55       	subi	r30, 0x53	; 83
     712:	ff 4f       	sbci	r31, 0xFF	; 255
     714:	c0 81       	ld	r28, Z
     716:	01 c0       	rjmp	.+2      	; 0x71a <BCDManage7segment+0x72>
     718:	c0 e0       	ldi	r28, 0x00	; 0
     71a:	80 91 ac 00 	lds	r24, 0x00AC
     71e:	81 30       	cpi	r24, 0x01	; 1
     720:	09 f4       	brne	.+2      	; 0x724 <BCDManage7segment+0x7c>
     722:	c0 95       	com	r28
     724:	60 91 c3 00 	lds	r22, 0x00C3
     728:	66 0f       	add	r22, r22
     72a:	66 0f       	add	r22, r22
     72c:	80 91 c0 00 	lds	r24, 0x00C0
     730:	68 0f       	add	r22, r24
     732:	80 e0       	ldi	r24, 0x00	; 0
     734:	01 d3       	rcall	.+1538   	; 0xd38 <HWI_4Digit_WRITE>
     736:	81 e0       	ldi	r24, 0x01	; 1
     738:	6c 2f       	mov	r22, r28
     73a:	17 d3       	rcall	.+1582   	; 0xd6a <HWI_8Digit_WRITE>
     73c:	80 91 c0 00 	lds	r24, 0x00C0
     740:	8f 5f       	subi	r24, 0xFF	; 255
     742:	80 93 c0 00 	sts	0x00C0, r24
     746:	84 30       	cpi	r24, 0x04	; 4
     748:	59 f4       	brne	.+22     	; 0x760 <BCDManage7segment+0xb8>
     74a:	10 92 c0 00 	sts	0x00C0, r1
     74e:	80 91 c3 00 	lds	r24, 0x00C3
     752:	8f 5f       	subi	r24, 0xFF	; 255
     754:	80 93 c3 00 	sts	0x00C3, r24
     758:	82 30       	cpi	r24, 0x02	; 2
     75a:	11 f4       	brne	.+4      	; 0x760 <BCDManage7segment+0xb8>
     75c:	10 92 c3 00 	sts	0x00C3, r1
     760:	cf 91       	pop	r28
     762:	08 95       	ret

00000764 <BlinkDigit>:
     764:	80 93 c1 00 	sts	0x00C1, r24
     768:	40 93 bd 00 	sts	0x00BD, r20
     76c:	60 93 c2 00 	sts	0x00C2, r22
     770:	08 95       	ret

00000772 <Segment7SendString>:
     772:	cf 93       	push	r28
     774:	df 93       	push	r29
     776:	da 01       	movw	r26, r20
     778:	42 2f       	mov	r20, r18
     77a:	50 e0       	ldi	r21, 0x00	; 0
     77c:	48 0f       	add	r20, r24
     77e:	51 1d       	adc	r21, r1
     780:	45 30       	cpi	r20, 0x05	; 5
     782:	51 05       	cpc	r21, r1
     784:	cc f4       	brge	.+50     	; 0x7b8 <Segment7SendString+0x46>
     786:	70 e0       	ldi	r23, 0x00	; 0
     788:	66 0f       	add	r22, r22
     78a:	77 1f       	adc	r23, r23
     78c:	66 0f       	add	r22, r22
     78e:	77 1f       	adc	r23, r23
     790:	0e c0       	rjmp	.+28     	; 0x7ae <Segment7SendString+0x3c>
     792:	fb 01       	movw	r30, r22
     794:	e2 0f       	add	r30, r18
     796:	f3 1f       	adc	r31, r19
     798:	ee 0f       	add	r30, r30
     79a:	ff 1f       	adc	r31, r31
     79c:	e3 55       	subi	r30, 0x53	; 83
     79e:	ff 4f       	sbci	r31, 0xFF	; 255
     7a0:	2a 0f       	add	r18, r26
     7a2:	3b 1f       	adc	r19, r27
     7a4:	e9 01       	movw	r28, r18
     7a6:	98 81       	ld	r25, Y
     7a8:	90 83       	st	Z, r25
     7aa:	11 82       	std	Z+1, r1	; 0x01
     7ac:	8f 5f       	subi	r24, 0xFF	; 255
     7ae:	28 2f       	mov	r18, r24
     7b0:	30 e0       	ldi	r19, 0x00	; 0
     7b2:	24 17       	cp	r18, r20
     7b4:	35 07       	cpc	r19, r21
     7b6:	6c f3       	brlt	.-38     	; 0x792 <Segment7SendString+0x20>
     7b8:	df 91       	pop	r29
     7ba:	cf 91       	pop	r28
     7bc:	08 95       	ret

000007be <DisplaySendString>:
     7be:	ef 92       	push	r14
     7c0:	ff 92       	push	r15
     7c2:	0f 93       	push	r16
     7c4:	1f 93       	push	r17
     7c6:	cf 93       	push	r28
     7c8:	df 93       	push	r29
     7ca:	00 d0       	rcall	.+0      	; 0x7cc <DisplaySendString+0xe>
     7cc:	00 d0       	rcall	.+0      	; 0x7ce <DisplaySendString+0x10>
     7ce:	cd b7       	in	r28, 0x3d	; 61
     7d0:	de b7       	in	r29, 0x3e	; 62
     7d2:	de 01       	movw	r26, r28
     7d4:	a2 0f       	add	r26, r18
     7d6:	b1 1d       	adc	r27, r1
     7d8:	7a 01       	movw	r14, r20
     7da:	0e c0       	rjmp	.+28     	; 0x7f8 <DisplaySendString+0x3a>
     7dc:	f7 01       	movw	r30, r14
     7de:	91 91       	ld	r25, Z+
     7e0:	7f 01       	movw	r14, r30
     7e2:	09 2f       	mov	r16, r25
     7e4:	01 54       	subi	r16, 0x41	; 65
     7e6:	06 32       	cpi	r16, 0x26	; 38
     7e8:	28 f4       	brcc	.+10     	; 0x7f4 <DisplaySendString+0x36>
     7ea:	10 e0       	ldi	r17, 0x00	; 0
     7ec:	05 59       	subi	r16, 0x95	; 149
     7ee:	1f 4f       	sbci	r17, 0xFF	; 255
     7f0:	f8 01       	movw	r30, r16
     7f2:	90 81       	ld	r25, Z
     7f4:	9c 93       	st	X, r25
     7f6:	11 97       	sbiw	r26, 0x01	; 1
     7f8:	9e 2d       	mov	r25, r14
     7fa:	94 1b       	sub	r25, r20
     7fc:	92 17       	cp	r25, r18
     7fe:	70 f3       	brcs	.-36     	; 0x7dc <DisplaySendString+0x1e>
     800:	ae 01       	movw	r20, r28
     802:	4f 5f       	subi	r20, 0xFF	; 255
     804:	5f 4f       	sbci	r21, 0xFF	; 255
     806:	b5 df       	rcall	.-150    	; 0x772 <Segment7SendString>
     808:	0f 90       	pop	r0
     80a:	0f 90       	pop	r0
     80c:	0f 90       	pop	r0
     80e:	0f 90       	pop	r0
     810:	df 91       	pop	r29
     812:	cf 91       	pop	r28
     814:	1f 91       	pop	r17
     816:	0f 91       	pop	r16
     818:	ff 90       	pop	r15
     81a:	ef 90       	pop	r14
     81c:	08 95       	ret

0000081e <Eeprom_Write_Block>:
     81e:	90 91 c4 00 	lds	r25, 0x00C4
     822:	99 23       	and	r25, r25
     824:	c9 f4       	brne	.+50     	; 0x858 <Eeprom_Write_Block+0x3a>
     826:	43 33       	cpi	r20, 0x33	; 51
     828:	c8 f4       	brcc	.+50     	; 0x85c <Eeprom_Write_Block+0x3e>
     82a:	91 e0       	ldi	r25, 0x01	; 1
     82c:	90 93 c4 00 	sts	0x00C4, r25
     830:	a5 ec       	ldi	r26, 0xC5	; 197
     832:	b0 e0       	ldi	r27, 0x00	; 0
     834:	fb 01       	movw	r30, r22
     836:	02 c0       	rjmp	.+4      	; 0x83c <Eeprom_Write_Block+0x1e>
     838:	91 91       	ld	r25, Z+
     83a:	9d 93       	st	X+, r25
     83c:	9e 2f       	mov	r25, r30
     83e:	96 1b       	sub	r25, r22
     840:	94 17       	cp	r25, r20
     842:	d0 f3       	brcs	.-12     	; 0x838 <Eeprom_Write_Block+0x1a>
     844:	40 93 f7 00 	sts	0x00F7, r20
     848:	80 93 f8 00 	sts	0x00F8, r24
     84c:	30 93 fa 00 	sts	0x00FA, r19
     850:	20 93 f9 00 	sts	0x00F9, r18
     854:	81 e0       	ldi	r24, 0x01	; 1
     856:	08 95       	ret
     858:	80 e0       	ldi	r24, 0x00	; 0
     85a:	08 95       	ret
     85c:	80 e0       	ldi	r24, 0x00	; 0
     85e:	08 95       	ret

00000860 <Eeprom_Read_Block>:
     860:	ef 92       	push	r14
     862:	ff 92       	push	r15
     864:	0f 93       	push	r16
     866:	1f 93       	push	r17
     868:	cf 93       	push	r28
     86a:	df 93       	push	r29
     86c:	0f 92       	push	r0
     86e:	cd b7       	in	r28, 0x3d	; 61
     870:	de b7       	in	r29, 0x3e	; 62
     872:	18 2f       	mov	r17, r24
     874:	7b 01       	movw	r14, r22
     876:	80 91 c4 00 	lds	r24, 0x00C4
     87a:	88 23       	and	r24, r24
     87c:	71 f0       	breq	.+28     	; 0x89a <Eeprom_Read_Block+0x3a>
     87e:	80 e0       	ldi	r24, 0x00	; 0
     880:	10 c0       	rjmp	.+32     	; 0x8a2 <Eeprom_Read_Block+0x42>
     882:	b7 01       	movw	r22, r14
     884:	60 0f       	add	r22, r16
     886:	71 1d       	adc	r23, r1
     888:	80 2f       	mov	r24, r16
     88a:	81 0f       	add	r24, r17
     88c:	49 83       	std	Y+1, r20	; 0x01
     88e:	2f d2       	rcall	.+1118   	; 0xcee <HWIeeprom_Read>
     890:	49 81       	ldd	r20, Y+1	; 0x01
     892:	81 30       	cpi	r24, 0x01	; 1
     894:	19 f4       	brne	.+6      	; 0x89c <Eeprom_Read_Block+0x3c>
     896:	0f 5f       	subi	r16, 0xFF	; 255
     898:	01 c0       	rjmp	.+2      	; 0x89c <Eeprom_Read_Block+0x3c>
     89a:	00 e0       	ldi	r16, 0x00	; 0
     89c:	04 17       	cp	r16, r20
     89e:	88 f3       	brcs	.-30     	; 0x882 <Eeprom_Read_Block+0x22>
     8a0:	81 e0       	ldi	r24, 0x01	; 1
     8a2:	0f 90       	pop	r0
     8a4:	df 91       	pop	r29
     8a6:	cf 91       	pop	r28
     8a8:	1f 91       	pop	r17
     8aa:	0f 91       	pop	r16
     8ac:	ff 90       	pop	r15
     8ae:	ef 90       	pop	r14
     8b0:	08 95       	ret

000008b2 <EepromManage>:
     8b2:	80 91 c4 00 	lds	r24, 0x00C4
     8b6:	81 30       	cpi	r24, 0x01	; 1
     8b8:	11 f5       	brne	.+68     	; 0x8fe <EepromManage+0x4c>
     8ba:	80 91 fb 00 	lds	r24, 0x00FB
     8be:	90 91 f7 00 	lds	r25, 0x00F7
     8c2:	89 17       	cp	r24, r25
     8c4:	61 f4       	brne	.+24     	; 0x8de <EepromManage+0x2c>
     8c6:	10 92 fb 00 	sts	0x00FB, r1
     8ca:	10 92 c4 00 	sts	0x00C4, r1
     8ce:	e0 91 f9 00 	lds	r30, 0x00F9
     8d2:	f0 91 fa 00 	lds	r31, 0x00FA
     8d6:	30 97       	sbiw	r30, 0x00	; 0
     8d8:	91 f0       	breq	.+36     	; 0x8fe <EepromManage+0x4c>
     8da:	09 95       	icall
     8dc:	08 95       	ret
     8de:	90 91 f8 00 	lds	r25, 0x00F8
     8e2:	e8 2f       	mov	r30, r24
     8e4:	f0 e0       	ldi	r31, 0x00	; 0
     8e6:	eb 53       	subi	r30, 0x3B	; 59
     8e8:	ff 4f       	sbci	r31, 0xFF	; 255
     8ea:	89 0f       	add	r24, r25
     8ec:	60 81       	ld	r22, Z
     8ee:	f3 d1       	rcall	.+998    	; 0xcd6 <HWIeeprom_Write>
     8f0:	81 30       	cpi	r24, 0x01	; 1
     8f2:	29 f4       	brne	.+10     	; 0x8fe <EepromManage+0x4c>
     8f4:	80 91 fb 00 	lds	r24, 0x00FB
     8f8:	8f 5f       	subi	r24, 0xFF	; 255
     8fa:	80 93 fb 00 	sts	0x00FB, r24
     8fe:	08 95       	ret

00000900 <KeyInitialize>:
     900:	86 e0       	ldi	r24, 0x06	; 6
     902:	ec ef       	ldi	r30, 0xFC	; 252
     904:	f0 e0       	ldi	r31, 0x00	; 0
     906:	df 01       	movw	r26, r30
     908:	1d 92       	st	X+, r1
     90a:	8a 95       	dec	r24
     90c:	e9 f7       	brne	.-6      	; 0x908 <KeyInitialize+0x8>
     90e:	08 95       	ret

00000910 <GetKeyStatus>:
     910:	90 e0       	ldi	r25, 0x00	; 0
     912:	fc 01       	movw	r30, r24
     914:	ee 0f       	add	r30, r30
     916:	ff 1f       	adc	r31, r31
     918:	e8 0f       	add	r30, r24
     91a:	f9 1f       	adc	r31, r25
     91c:	e4 50       	subi	r30, 0x04	; 4
     91e:	ff 4f       	sbci	r31, 0xFF	; 255
     920:	80 81       	ld	r24, Z
     922:	98 2f       	mov	r25, r24
     924:	9f 73       	andi	r25, 0x3F	; 63
     926:	90 83       	st	Z, r25
     928:	08 95       	ret

0000092a <MangeKeys>:
     92a:	ef 92       	push	r14
     92c:	ff 92       	push	r15
     92e:	0f 93       	push	r16
     930:	1f 93       	push	r17
     932:	cf 93       	push	r28
     934:	df 93       	push	r29
     936:	0f 92       	push	r0
     938:	cd b7       	in	r28, 0x3d	; 61
     93a:	de b7       	in	r29, 0x3e	; 62
     93c:	90 e0       	ldi	r25, 0x00	; 0
     93e:	7c 01       	movw	r14, r24
     940:	ee 0c       	add	r14, r14
     942:	ff 1c       	adc	r15, r15
     944:	e8 0e       	add	r14, r24
     946:	f9 1e       	adc	r15, r25
     948:	2c ef       	ldi	r18, 0xFC	; 252
     94a:	30 e0       	ldi	r19, 0x00	; 0
     94c:	e2 0e       	add	r14, r18
     94e:	f3 1e       	adc	r15, r19
     950:	f7 01       	movw	r30, r14
     952:	20 81       	ld	r18, Z
     954:	2f 73       	andi	r18, 0x3F	; 63
     956:	8c 01       	movw	r16, r24
     958:	43 e0       	ldi	r20, 0x03	; 3
     95a:	00 0f       	add	r16, r16
     95c:	11 1f       	adc	r17, r17
     95e:	4a 95       	dec	r20
     960:	e1 f7       	brne	.-8      	; 0x95a <MangeKeys+0x30>
     962:	0b 57       	subi	r16, 0x7B	; 123
     964:	1f 4f       	sbci	r17, 0xFF	; 255
     966:	f8 01       	movw	r30, r16
     968:	80 81       	ld	r24, Z
     96a:	29 83       	std	Y+1, r18	; 0x01
     96c:	d3 d1       	rcall	.+934    	; 0xd14 <HWI_DIGI_READ>
     96e:	29 81       	ldd	r18, Y+1	; 0x01
     970:	21 30       	cpi	r18, 0x01	; 1
     972:	f9 f0       	breq	.+62     	; 0x9b2 <MangeKeys+0x88>
     974:	21 30       	cpi	r18, 0x01	; 1
     976:	20 f0       	brcs	.+8      	; 0x980 <MangeKeys+0x56>
     978:	22 30       	cpi	r18, 0x02	; 2
     97a:	09 f0       	breq	.+2      	; 0x97e <MangeKeys+0x54>
     97c:	5c c0       	rjmp	.+184    	; 0xa36 <MangeKeys+0x10c>
     97e:	46 c0       	rjmp	.+140    	; 0xa0c <MangeKeys+0xe2>
     980:	f8 01       	movw	r30, r16
     982:	91 81       	ldd	r25, Z+1	; 0x01
     984:	f7 01       	movw	r30, r14
     986:	98 17       	cp	r25, r24
     988:	89 f4       	brne	.+34     	; 0x9ac <MangeKeys+0x82>
     98a:	81 81       	ldd	r24, Z+1	; 0x01
     98c:	92 81       	ldd	r25, Z+2	; 0x02
     98e:	01 96       	adiw	r24, 0x01	; 1
     990:	92 83       	std	Z+2, r25	; 0x02
     992:	81 83       	std	Z+1, r24	; 0x01
     994:	f8 01       	movw	r30, r16
     996:	24 81       	ldd	r18, Z+4	; 0x04
     998:	35 81       	ldd	r19, Z+5	; 0x05
     99a:	28 17       	cp	r18, r24
     99c:	39 07       	cpc	r19, r25
     99e:	09 f0       	breq	.+2      	; 0x9a2 <MangeKeys+0x78>
     9a0:	4c c0       	rjmp	.+152    	; 0xa3a <MangeKeys+0x110>
     9a2:	81 e8       	ldi	r24, 0x81	; 129
     9a4:	f7 01       	movw	r30, r14
     9a6:	80 83       	st	Z, r24
     9a8:	f8 01       	movw	r30, r16
     9aa:	34 c0       	rjmp	.+104    	; 0xa14 <MangeKeys+0xea>
     9ac:	12 82       	std	Z+2, r1	; 0x02
     9ae:	11 82       	std	Z+1, r1	; 0x01
     9b0:	44 c0       	rjmp	.+136    	; 0xa3a <MangeKeys+0x110>
     9b2:	f8 01       	movw	r30, r16
     9b4:	91 81       	ldd	r25, Z+1	; 0x01
     9b6:	f7 01       	movw	r30, r14
     9b8:	21 81       	ldd	r18, Z+1	; 0x01
     9ba:	32 81       	ldd	r19, Z+2	; 0x02
     9bc:	f8 01       	movw	r30, r16
     9be:	42 81       	ldd	r20, Z+2	; 0x02
     9c0:	53 81       	ldd	r21, Z+3	; 0x03
     9c2:	98 17       	cp	r25, r24
     9c4:	b1 f4       	brne	.+44     	; 0x9f2 <MangeKeys+0xc8>
     9c6:	24 17       	cp	r18, r20
     9c8:	35 07       	cpc	r19, r21
     9ca:	78 f0       	brcs	.+30     	; 0x9ea <MangeKeys+0xc0>
     9cc:	2f 5f       	subi	r18, 0xFF	; 255
     9ce:	3f 4f       	sbci	r19, 0xFF	; 255
     9d0:	f7 01       	movw	r30, r14
     9d2:	32 83       	std	Z+2, r19	; 0x02
     9d4:	21 83       	std	Z+1, r18	; 0x01
     9d6:	f8 01       	movw	r30, r16
     9d8:	86 81       	ldd	r24, Z+6	; 0x06
     9da:	97 81       	ldd	r25, Z+7	; 0x07
     9dc:	82 17       	cp	r24, r18
     9de:	93 07       	cpc	r25, r19
     9e0:	61 f5       	brne	.+88     	; 0xa3a <MangeKeys+0x110>
     9e2:	82 e8       	ldi	r24, 0x82	; 130
     9e4:	f7 01       	movw	r30, r14
     9e6:	80 83       	st	Z, r24
     9e8:	01 c0       	rjmp	.+2      	; 0x9ec <MangeKeys+0xc2>
     9ea:	f7 01       	movw	r30, r14
     9ec:	52 83       	std	Z+2, r21	; 0x02
     9ee:	41 83       	std	Z+1, r20	; 0x01
     9f0:	24 c0       	rjmp	.+72     	; 0xa3a <MangeKeys+0x110>
     9f2:	42 17       	cp	r20, r18
     9f4:	53 07       	cpc	r21, r19
     9f6:	c8 f3       	brcs	.-14     	; 0x9ea <MangeKeys+0xc0>
     9f8:	21 50       	subi	r18, 0x01	; 1
     9fa:	30 40       	sbci	r19, 0x00	; 0
     9fc:	f7 01       	movw	r30, r14
     9fe:	32 83       	std	Z+2, r19	; 0x02
     a00:	21 83       	std	Z+1, r18	; 0x01
     a02:	21 15       	cp	r18, r1
     a04:	31 05       	cpc	r19, r1
     a06:	c9 f4       	brne	.+50     	; 0xa3a <MangeKeys+0x110>
     a08:	80 e4       	ldi	r24, 0x40	; 64
     a0a:	13 c0       	rjmp	.+38     	; 0xa32 <MangeKeys+0x108>
     a0c:	f8 01       	movw	r30, r16
     a0e:	91 81       	ldd	r25, Z+1	; 0x01
     a10:	98 17       	cp	r25, r24
     a12:	31 f4       	brne	.+12     	; 0xa20 <MangeKeys+0xf6>
     a14:	82 81       	ldd	r24, Z+2	; 0x02
     a16:	93 81       	ldd	r25, Z+3	; 0x03
     a18:	f7 01       	movw	r30, r14
     a1a:	92 83       	std	Z+2, r25	; 0x02
     a1c:	81 83       	std	Z+1, r24	; 0x01
     a1e:	0d c0       	rjmp	.+26     	; 0xa3a <MangeKeys+0x110>
     a20:	f7 01       	movw	r30, r14
     a22:	81 81       	ldd	r24, Z+1	; 0x01
     a24:	92 81       	ldd	r25, Z+2	; 0x02
     a26:	01 97       	sbiw	r24, 0x01	; 1
     a28:	92 83       	std	Z+2, r25	; 0x02
     a2a:	81 83       	std	Z+1, r24	; 0x01
     a2c:	00 97       	sbiw	r24, 0x00	; 0
     a2e:	29 f4       	brne	.+10     	; 0xa3a <MangeKeys+0x110>
     a30:	80 e8       	ldi	r24, 0x80	; 128
     a32:	80 83       	st	Z, r24
     a34:	02 c0       	rjmp	.+4      	; 0xa3a <MangeKeys+0x110>
     a36:	f7 01       	movw	r30, r14
     a38:	10 82       	st	Z, r1
     a3a:	0f 90       	pop	r0
     a3c:	df 91       	pop	r29
     a3e:	cf 91       	pop	r28
     a40:	1f 91       	pop	r17
     a42:	0f 91       	pop	r16
     a44:	ff 90       	pop	r15
     a46:	ef 90       	pop	r14
     a48:	08 95       	ret

00000a4a <SpeedCalcNotifyInitialize>:
     a4a:	08 95       	ret

00000a4c <SensorOneNotify>:
     a4c:	80 91 06 01 	lds	r24, 0x0106
     a50:	81 30       	cpi	r24, 0x01	; 1
     a52:	19 f4       	brne	.+6      	; 0xa5a <SensorOneNotify+0xe>
     a54:	10 92 06 01 	sts	0x0106, r1
     a58:	08 95       	ret
     a5a:	80 91 05 01 	lds	r24, 0x0105
     a5e:	88 23       	and	r24, r24
     a60:	29 f0       	breq	.+10     	; 0xa6c <SensorOneNotify+0x20>
     a62:	80 91 05 01 	lds	r24, 0x0105
     a66:	81 50       	subi	r24, 0x01	; 1
     a68:	80 93 05 01 	sts	0x0105, r24
     a6c:	08 95       	ret

00000a6e <SensorTwoNotify>:
     a6e:	80 91 06 01 	lds	r24, 0x0106
     a72:	88 23       	and	r24, r24
     a74:	a9 f4       	brne	.+42     	; 0xaa0 <SensorTwoNotify+0x32>
     a76:	81 e0       	ldi	r24, 0x01	; 1
     a78:	80 93 06 01 	sts	0x0106, r24
     a7c:	80 91 05 01 	lds	r24, 0x0105
     a80:	8f 5f       	subi	r24, 0xFF	; 255
     a82:	80 93 05 01 	sts	0x0105, r24
     a86:	81 e0       	ldi	r24, 0x01	; 1
     a88:	9f d1       	rcall	.+830    	; 0xdc8 <ReloadHWtimer>
     a8a:	90 93 04 01 	sts	0x0104, r25
     a8e:	80 93 03 01 	sts	0x0103, r24
     a92:	80 91 02 01 	lds	r24, 0x0102
     a96:	80 93 07 01 	sts	0x0107, r24
     a9a:	10 92 02 01 	sts	0x0102, r1
     a9e:	08 95       	ret
     aa0:	80 91 05 01 	lds	r24, 0x0105
     aa4:	88 23       	and	r24, r24
     aa6:	29 f0       	breq	.+10     	; 0xab2 <SensorTwoNotify+0x44>
     aa8:	80 91 05 01 	lds	r24, 0x0105
     aac:	81 50       	subi	r24, 0x01	; 1
     aae:	80 93 05 01 	sts	0x0105, r24
     ab2:	08 95       	ret

00000ab4 <SpeedCalcManage>:
     ab4:	cf 93       	push	r28
     ab6:	df 93       	push	r29
     ab8:	40 91 03 01 	lds	r20, 0x0103
     abc:	50 91 04 01 	lds	r21, 0x0104
     ac0:	20 91 07 01 	lds	r18, 0x0107
     ac4:	30 e0       	ldi	r19, 0x00	; 0
     ac6:	8f e8       	ldi	r24, 0x8F	; 143
     ac8:	92 e0       	ldi	r25, 0x02	; 2
     aca:	28 9f       	mul	r18, r24
     acc:	f0 01       	movw	r30, r0
     ace:	29 9f       	mul	r18, r25
     ad0:	f0 0d       	add	r31, r0
     ad2:	38 9f       	mul	r19, r24
     ad4:	f0 0d       	add	r31, r0
     ad6:	11 24       	eor	r1, r1
     ad8:	ca 01       	movw	r24, r20
     ada:	64 e6       	ldi	r22, 0x64	; 100
     adc:	70 e0       	ldi	r23, 0x00	; 0
     ade:	5e d2       	rcall	.+1212   	; 0xf9c <__udivmodhi4>
     ae0:	e6 0f       	add	r30, r22
     ae2:	f7 1f       	adc	r31, r23
     ae4:	f0 93 09 01 	sts	0x0109, r31
     ae8:	e0 93 08 01 	sts	0x0108, r30
     aec:	80 91 05 01 	lds	r24, 0x0105
     af0:	c0 91 0a 01 	lds	r28, 0x010A
     af4:	d0 91 0b 01 	lds	r29, 0x010B
     af8:	c8 0f       	add	r28, r24
     afa:	d1 1d       	adc	r29, r1
     afc:	d0 93 0b 01 	sts	0x010B, r29
     b00:	c0 93 0a 01 	sts	0x010A, r28
     b04:	10 92 05 01 	sts	0x0105, r1
     b08:	20 91 95 00 	lds	r18, 0x0095
     b0c:	30 91 96 00 	lds	r19, 0x0096
     b10:	40 e0       	ldi	r20, 0x00	; 0
     b12:	50 e0       	ldi	r21, 0x00	; 0
     b14:	60 ea       	ldi	r22, 0xA0	; 160
     b16:	76 e8       	ldi	r23, 0x86	; 134
     b18:	81 e0       	ldi	r24, 0x01	; 1
     b1a:	90 e0       	ldi	r25, 0x00	; 0
     b1c:	53 d2       	rcall	.+1190   	; 0xfc4 <__udivmodsi4>
     b1e:	c2 17       	cp	r28, r18
     b20:	d3 07       	cpc	r29, r19
     b22:	c8 f0       	brcs	.+50     	; 0xb56 <SpeedCalcManage+0xa2>
     b24:	80 91 0c 01 	lds	r24, 0x010C
     b28:	90 91 0d 01 	lds	r25, 0x010D
     b2c:	a0 91 0e 01 	lds	r26, 0x010E
     b30:	b0 91 0f 01 	lds	r27, 0x010F
     b34:	01 96       	adiw	r24, 0x01	; 1
     b36:	a1 1d       	adc	r26, r1
     b38:	b1 1d       	adc	r27, r1
     b3a:	80 93 0c 01 	sts	0x010C, r24
     b3e:	90 93 0d 01 	sts	0x010D, r25
     b42:	a0 93 0e 01 	sts	0x010E, r26
     b46:	b0 93 0f 01 	sts	0x010F, r27
     b4a:	c2 1b       	sub	r28, r18
     b4c:	d3 0b       	sbc	r29, r19
     b4e:	d0 93 0b 01 	sts	0x010B, r29
     b52:	c0 93 0a 01 	sts	0x010A, r28
     b56:	df 91       	pop	r29
     b58:	cf 91       	pop	r28
     b5a:	08 95       	ret

00000b5c <SetDistance>:
     b5c:	dc 01       	movw	r26, r24
     b5e:	cb 01       	movw	r24, r22
     b60:	80 93 0c 01 	sts	0x010C, r24
     b64:	90 93 0d 01 	sts	0x010D, r25
     b68:	a0 93 0e 01 	sts	0x010E, r26
     b6c:	b0 93 0f 01 	sts	0x010F, r27
     b70:	08 95       	ret

00000b72 <GetDistance>:
     b72:	60 91 0c 01 	lds	r22, 0x010C
     b76:	70 91 0d 01 	lds	r23, 0x010D
     b7a:	80 91 0e 01 	lds	r24, 0x010E
     b7e:	90 91 0f 01 	lds	r25, 0x010F
     b82:	08 95       	ret

00000b84 <SetCircumfirunce>:
     b84:	90 93 96 00 	sts	0x0096, r25
     b88:	80 93 95 00 	sts	0x0095, r24
     b8c:	08 95       	ret

00000b8e <GetAvgSpeed>:
     b8e:	cf 93       	push	r28
     b90:	df 93       	push	r29
     b92:	81 30       	cpi	r24, 0x01	; 1
     b94:	29 f4       	brne	.+10     	; 0xba0 <GetAvgSpeed+0x12>
     b96:	68 e6       	ldi	r22, 0x68	; 104
     b98:	71 e0       	ldi	r23, 0x01	; 1
     b9a:	80 e0       	ldi	r24, 0x00	; 0
     b9c:	90 e0       	ldi	r25, 0x00	; 0
     b9e:	04 c0       	rjmp	.+8      	; 0xba8 <GetAvgSpeed+0x1a>
     ba0:	61 ee       	ldi	r22, 0xE1	; 225
     ba2:	70 e0       	ldi	r23, 0x00	; 0
     ba4:	80 e0       	ldi	r24, 0x00	; 0
     ba6:	90 e0       	ldi	r25, 0x00	; 0
     ba8:	c0 91 08 01 	lds	r28, 0x0108
     bac:	d0 91 09 01 	lds	r29, 0x0109
     bb0:	20 97       	sbiw	r28, 0x00	; 0
     bb2:	69 f0       	breq	.+26     	; 0xbce <GetAvgSpeed+0x40>
     bb4:	20 91 95 00 	lds	r18, 0x0095
     bb8:	30 91 96 00 	lds	r19, 0x0096
     bbc:	40 e0       	ldi	r20, 0x00	; 0
     bbe:	50 e0       	ldi	r21, 0x00	; 0
     bc0:	ce d1       	rcall	.+924    	; 0xf5e <__mulsi3>
     bc2:	9e 01       	movw	r18, r28
     bc4:	40 e0       	ldi	r20, 0x00	; 0
     bc6:	50 e0       	ldi	r21, 0x00	; 0
     bc8:	fd d1       	rcall	.+1018   	; 0xfc4 <__udivmodsi4>
     bca:	c9 01       	movw	r24, r18
     bcc:	02 c0       	rjmp	.+4      	; 0xbd2 <GetAvgSpeed+0x44>
     bce:	80 e0       	ldi	r24, 0x00	; 0
     bd0:	90 e0       	ldi	r25, 0x00	; 0
     bd2:	20 91 02 01 	lds	r18, 0x0102
     bd6:	20 34       	cpi	r18, 0x40	; 64
     bd8:	11 f4       	brne	.+4      	; 0xbde <GetAvgSpeed+0x50>
     bda:	80 e0       	ldi	r24, 0x00	; 0
     bdc:	90 e0       	ldi	r25, 0x00	; 0
     bde:	df 91       	pop	r29
     be0:	cf 91       	pop	r28
     be2:	08 95       	ret

00000be4 <HWtimerCallback>:
     be4:	80 91 02 01 	lds	r24, 0x0102
     be8:	80 34       	cpi	r24, 0x40	; 64
     bea:	28 f4       	brcc	.+10     	; 0xbf6 <HWtimerCallback+0x12>
     bec:	80 91 02 01 	lds	r24, 0x0102
     bf0:	8f 5f       	subi	r24, 0xFF	; 255
     bf2:	80 93 02 01 	sts	0x0102, r24
     bf6:	08 95       	ret

00000bf8 <APP_ISR1>:
     bf8:	29 df       	rcall	.-430    	; 0xa4c <SensorOneNotify>
     bfa:	08 95       	ret

00000bfc <APP_ISR2>:
     bfc:	38 df       	rcall	.-400    	; 0xa6e <SensorTwoNotify>
     bfe:	08 95       	ret

00000c00 <APP_ISR3>:
     c00:	f1 df       	rcall	.-30     	; 0xbe4 <HWtimerCallback>
     c02:	08 95       	ret

00000c04 <ManageDrivers>:
     c04:	80 e0       	ldi	r24, 0x00	; 0
     c06:	91 de       	rcall	.-734    	; 0x92a <MangeKeys>
     c08:	81 e0       	ldi	r24, 0x01	; 1
     c0a:	8f de       	rcall	.-738    	; 0x92a <MangeKeys>
     c0c:	52 de       	rcall	.-860    	; 0x8b2 <EepromManage>
     c0e:	08 95       	ret

00000c10 <ManageSpeedCalc>:
     c10:	51 df       	rcall	.-350    	; 0xab4 <SpeedCalcManage>
     c12:	08 95       	ret

00000c14 <ManageApplication>:
     c14:	fe da       	rcall	.-2564   	; 0x212 <APP_MANAGE>
     c16:	08 95       	ret

00000c18 <DisplayAlphaNumeric>:
     c18:	47 dd       	rcall	.-1394   	; 0x6a8 <BCDManage7segment>
     c1a:	08 95       	ret

00000c1c <Start_App>:
     c1c:	8a d1       	rcall	.+788    	; 0xf32 <HWI_InitOscilatorCalib>
     c1e:	b1 d0       	rcall	.+354    	; 0xd82 <HWI_INTERRUPTS_INTITALIZE>
     c20:	73 d0       	rcall	.+230    	; 0xd08 <HWI_DIGITAL_INITIALIZE>
     c22:	13 df       	rcall	.-474    	; 0xa4a <SpeedCalcNotifyInitialize>
     c24:	9b da       	rcall	.-2762   	; 0x15c <APP_INITIALIZE>
     c26:	81 e0       	ldi	r24, 0x01	; 1
     c28:	a0 dc       	rcall	.-1728   	; 0x56a <BCDInitialize>
     c2a:	88 e0       	ldi	r24, 0x08	; 8
     c2c:	96 e0       	ldi	r25, 0x06	; 6
     c2e:	60 e0       	ldi	r22, 0x00	; 0
     c30:	44 e1       	ldi	r20, 0x14	; 20
     c32:	11 d0       	rcall	.+34     	; 0xc56 <CreateTask>
     c34:	8a e0       	ldi	r24, 0x0A	; 10
     c36:	96 e0       	ldi	r25, 0x06	; 6
     c38:	62 e0       	ldi	r22, 0x02	; 2
     c3a:	42 e3       	ldi	r20, 0x32	; 50
     c3c:	0c d0       	rcall	.+24     	; 0xc56 <CreateTask>
     c3e:	8c e0       	ldi	r24, 0x0C	; 12
     c40:	96 e0       	ldi	r25, 0x06	; 6
     c42:	61 e0       	ldi	r22, 0x01	; 1
     c44:	42 e0       	ldi	r20, 0x02	; 2
     c46:	07 d0       	rcall	.+14     	; 0xc56 <CreateTask>
     c48:	82 e0       	ldi	r24, 0x02	; 2
     c4a:	96 e0       	ldi	r25, 0x06	; 6
     c4c:	63 e0       	ldi	r22, 0x03	; 3
     c4e:	4a e0       	ldi	r20, 0x0A	; 10
     c50:	02 d0       	rcall	.+4      	; 0xc56 <CreateTask>
     c52:	1b d0       	rcall	.+54     	; 0xc8a <RunScheduler>
     c54:	08 95       	ret

00000c56 <CreateTask>:
     c56:	64 30       	cpi	r22, 0x04	; 4
     c58:	60 f4       	brcc	.+24     	; 0xc72 <CreateTask+0x1c>
     c5a:	e6 2f       	mov	r30, r22
     c5c:	f0 e0       	ldi	r31, 0x00	; 0
     c5e:	ee 0f       	add	r30, r30
     c60:	ff 1f       	adc	r31, r31
     c62:	ee 0f       	add	r30, r30
     c64:	ff 1f       	adc	r31, r31
     c66:	e0 5f       	subi	r30, 0xF0	; 240
     c68:	fe 4f       	sbci	r31, 0xFE	; 254
     c6a:	91 83       	std	Z+1, r25	; 0x01
     c6c:	80 83       	st	Z, r24
     c6e:	42 83       	std	Z+2, r20	; 0x02
     c70:	13 82       	std	Z+3, r1	; 0x03
     c72:	08 95       	ret

00000c74 <SchedulerTick>:
     c74:	e3 e1       	ldi	r30, 0x13	; 19
     c76:	f1 e0       	ldi	r31, 0x01	; 1
     c78:	84 e0       	ldi	r24, 0x04	; 4
     c7a:	90 81       	ld	r25, Z
     c7c:	9f 5f       	subi	r25, 0xFF	; 255
     c7e:	90 83       	st	Z, r25
     c80:	81 50       	subi	r24, 0x01	; 1
     c82:	34 96       	adiw	r30, 0x04	; 4
     c84:	88 23       	and	r24, r24
     c86:	c9 f7       	brne	.-14     	; 0xc7a <SchedulerTick+0x6>
     c88:	08 95       	ret

00000c8a <RunScheduler>:
     c8a:	10 92 20 01 	sts	0x0120, r1
     c8e:	1e c0       	rjmp	.+60     	; 0xccc <RunScheduler+0x42>
     c90:	f0 e0       	ldi	r31, 0x00	; 0
     c92:	ee 0f       	add	r30, r30
     c94:	ff 1f       	adc	r31, r31
     c96:	ee 0f       	add	r30, r30
     c98:	ff 1f       	adc	r31, r31
     c9a:	e0 5f       	subi	r30, 0xF0	; 240
     c9c:	fe 4f       	sbci	r31, 0xFE	; 254
     c9e:	92 81       	ldd	r25, Z+2	; 0x02
     ca0:	83 81       	ldd	r24, Z+3	; 0x03
     ca2:	89 17       	cp	r24, r25
     ca4:	70 f0       	brcs	.+28     	; 0xcc2 <RunScheduler+0x38>
     ca6:	01 90       	ld	r0, Z+
     ca8:	f0 81       	ld	r31, Z
     caa:	e0 2d       	mov	r30, r0
     cac:	09 95       	icall
     cae:	e0 91 20 01 	lds	r30, 0x0120
     cb2:	f0 e0       	ldi	r31, 0x00	; 0
     cb4:	ee 0f       	add	r30, r30
     cb6:	ff 1f       	adc	r31, r31
     cb8:	ee 0f       	add	r30, r30
     cba:	ff 1f       	adc	r31, r31
     cbc:	e0 5f       	subi	r30, 0xF0	; 240
     cbe:	fe 4f       	sbci	r31, 0xFE	; 254
     cc0:	13 82       	std	Z+3, r1	; 0x03
     cc2:	80 91 20 01 	lds	r24, 0x0120
     cc6:	8f 5f       	subi	r24, 0xFF	; 255
     cc8:	80 93 20 01 	sts	0x0120, r24
     ccc:	e0 91 20 01 	lds	r30, 0x0120
     cd0:	e4 30       	cpi	r30, 0x04	; 4
     cd2:	d8 f6       	brcc	.-74     	; 0xc8a <RunScheduler>
     cd4:	dd cf       	rjmp	.-70     	; 0xc90 <RunScheduler+0x6>

00000cd6 <HWIeeprom_Write>:
     cd6:	e1 99       	sbic	0x1c, 1	; 28
     cd8:	08 c0       	rjmp	.+16     	; 0xcea <HWIeeprom_Write+0x14>
     cda:	90 e0       	ldi	r25, 0x00	; 0
     cdc:	9f bb       	out	0x1f, r25	; 31
     cde:	8e bb       	out	0x1e, r24	; 30
     ce0:	6d bb       	out	0x1d, r22	; 29
     ce2:	e2 9a       	sbi	0x1c, 2	; 28
     ce4:	e1 9a       	sbi	0x1c, 1	; 28
     ce6:	81 e0       	ldi	r24, 0x01	; 1
     ce8:	08 95       	ret
     cea:	80 e0       	ldi	r24, 0x00	; 0
     cec:	08 95       	ret

00000cee <HWIeeprom_Read>:
     cee:	e1 99       	sbic	0x1c, 1	; 28
     cf0:	09 c0       	rjmp	.+18     	; 0xd04 <HWIeeprom_Read+0x16>
     cf2:	90 e0       	ldi	r25, 0x00	; 0
     cf4:	9f bb       	out	0x1f, r25	; 31
     cf6:	8e bb       	out	0x1e, r24	; 30
     cf8:	e0 9a       	sbi	0x1c, 0	; 28
     cfa:	8d b3       	in	r24, 0x1d	; 29
     cfc:	fb 01       	movw	r30, r22
     cfe:	80 83       	st	Z, r24
     d00:	81 e0       	ldi	r24, 0x01	; 1
     d02:	08 95       	ret
     d04:	80 e0       	ldi	r24, 0x00	; 0
     d06:	08 95       	ret

00000d08 <HWI_DIGITAL_INITIALIZE>:
     d08:	8f ef       	ldi	r24, 0xFF	; 255
     d0a:	87 bb       	out	0x17, r24	; 23
     d0c:	84 bb       	out	0x14, r24	; 20
     d0e:	11 ba       	out	0x11, r1	; 17
     d10:	82 bb       	out	0x12, r24	; 18
     d12:	08 95       	ret

00000d14 <HWI_DIGI_READ>:
     d14:	80 31       	cpi	r24, 0x10	; 16
     d16:	39 f0       	breq	.+14     	; 0xd26 <HWI_DIGI_READ+0x12>
     d18:	81 31       	cpi	r24, 0x11	; 17
     d1a:	41 f0       	breq	.+16     	; 0xd2c <HWI_DIGI_READ+0x18>
     d1c:	8f 30       	cpi	r24, 0x0F	; 15
     d1e:	49 f4       	brne	.+18     	; 0xd32 <HWI_DIGI_READ+0x1e>
     d20:	80 b3       	in	r24, 0x10	; 16
     d22:	80 71       	andi	r24, 0x10	; 16
     d24:	08 95       	ret
     d26:	80 b3       	in	r24, 0x10	; 16
     d28:	80 72       	andi	r24, 0x20	; 32
     d2a:	08 95       	ret
     d2c:	80 b3       	in	r24, 0x10	; 16
     d2e:	80 74       	andi	r24, 0x40	; 64
     d30:	08 95       	ret
     d32:	80 e0       	ldi	r24, 0x00	; 0
     d34:	08 95       	ret

00000d36 <HWI_DIGI_WRITE>:
     d36:	08 95       	ret

00000d38 <HWI_4Digit_WRITE>:
     d38:	88 23       	and	r24, r24
     d3a:	29 f4       	brne	.+10     	; 0xd46 <HWI_4Digit_WRITE+0xe>
     d3c:	85 b3       	in	r24, 0x15	; 21
     d3e:	80 7f       	andi	r24, 0xF0	; 240
     d40:	86 2b       	or	r24, r22
     d42:	85 bb       	out	0x15, r24	; 21
     d44:	08 95       	ret
     d46:	88 b3       	in	r24, 0x18	; 24
     d48:	80 7f       	andi	r24, 0xF0	; 240
     d4a:	86 2b       	or	r24, r22
     d4c:	88 bb       	out	0x18, r24	; 24
     d4e:	08 95       	ret

00000d50 <HWI_4Digit_READ>:
     d50:	88 23       	and	r24, r24
     d52:	19 f0       	breq	.+6      	; 0xd5a <HWI_4Digit_READ+0xa>
     d54:	81 30       	cpi	r24, 0x01	; 1
     d56:	31 f4       	brne	.+12     	; 0xd64 <HWI_4Digit_READ+0x14>
     d58:	02 c0       	rjmp	.+4      	; 0xd5e <HWI_4Digit_READ+0xe>
     d5a:	83 b3       	in	r24, 0x13	; 19
     d5c:	01 c0       	rjmp	.+2      	; 0xd60 <HWI_4Digit_READ+0x10>
     d5e:	86 b3       	in	r24, 0x16	; 22
     d60:	8f 70       	andi	r24, 0x0F	; 15
     d62:	08 95       	ret
     d64:	86 b3       	in	r24, 0x16	; 22
     d66:	8f 70       	andi	r24, 0x0F	; 15
     d68:	08 95       	ret

00000d6a <HWI_8Digit_WRITE>:
     d6a:	88 23       	and	r24, r24
     d6c:	11 f4       	brne	.+4      	; 0xd72 <HWI_8Digit_WRITE+0x8>
     d6e:	65 bb       	out	0x15, r22	; 21
     d70:	08 95       	ret
     d72:	68 bb       	out	0x18, r22	; 24
     d74:	08 95       	ret

00000d76 <HWI8Digit_READ>:
     d76:	88 23       	and	r24, r24
     d78:	11 f0       	breq	.+4      	; 0xd7e <HWI8Digit_READ+0x8>
     d7a:	86 b3       	in	r24, 0x16	; 22
     d7c:	08 95       	ret
     d7e:	83 b3       	in	r24, 0x13	; 19
     d80:	08 95       	ret

00000d82 <HWI_INTERRUPTS_INTITALIZE>:
     d82:	8e b5       	in	r24, 0x2e	; 46
     d84:	82 60       	ori	r24, 0x02	; 2
     d86:	8e bd       	out	0x2e, r24	; 46
     d88:	8f ef       	ldi	r24, 0xFF	; 255
     d8a:	9f e7       	ldi	r25, 0x7F	; 127
     d8c:	9d bd       	out	0x2d, r25	; 45
     d8e:	8c bd       	out	0x2c, r24	; 44
     d90:	83 b7       	in	r24, 0x33	; 51
     d92:	83 60       	ori	r24, 0x03	; 3
     d94:	83 bf       	out	0x33, r24	; 51
     d96:	82 ec       	ldi	r24, 0xC2	; 194
     d98:	82 bf       	out	0x32, r24	; 50
     d9a:	89 b7       	in	r24, 0x39	; 57
     d9c:	81 60       	ori	r24, 0x01	; 1
     d9e:	89 bf       	out	0x39, r24	; 57
     da0:	89 b7       	in	r24, 0x39	; 57
     da2:	84 60       	ori	r24, 0x04	; 4
     da4:	89 bf       	out	0x39, r24	; 57
     da6:	8b b7       	in	r24, 0x3b	; 59
     da8:	80 64       	ori	r24, 0x40	; 64
     daa:	8b bf       	out	0x3b, r24	; 59
     dac:	85 b7       	in	r24, 0x35	; 53
     dae:	83 60       	ori	r24, 0x03	; 3
     db0:	85 bf       	out	0x35, r24	; 53
     db2:	8b b7       	in	r24, 0x3b	; 59
     db4:	80 68       	ori	r24, 0x80	; 128
     db6:	8b bf       	out	0x3b, r24	; 59
     db8:	85 b7       	in	r24, 0x35	; 53
     dba:	8c 60       	ori	r24, 0x0C	; 12
     dbc:	85 bf       	out	0x35, r24	; 53
     dbe:	81 b3       	in	r24, 0x11	; 17
     dc0:	8c 60       	ori	r24, 0x0C	; 12
     dc2:	81 bb       	out	0x11, r24	; 17
     dc4:	78 94       	sei
     dc6:	08 95       	ret

00000dc8 <ReloadHWtimer>:
     dc8:	83 30       	cpi	r24, 0x03	; 3
     dca:	58 f4       	brcc	.+22     	; 0xde2 <ReloadHWtimer+0x1a>
     dcc:	8c b5       	in	r24, 0x2c	; 44
     dce:	9d b5       	in	r25, 0x2d	; 45
     dd0:	8f 5f       	subi	r24, 0xFF	; 255
     dd2:	9f 47       	sbci	r25, 0x7F	; 127
     dd4:	88 0f       	add	r24, r24
     dd6:	99 1f       	adc	r25, r25
     dd8:	2f ef       	ldi	r18, 0xFF	; 255
     dda:	3f e7       	ldi	r19, 0x7F	; 127
     ddc:	3d bd       	out	0x2d, r19	; 45
     dde:	2c bd       	out	0x2c, r18	; 44
     de0:	08 95       	ret
     de2:	80 e0       	ldi	r24, 0x00	; 0
     de4:	90 e0       	ldi	r25, 0x00	; 0
     de6:	08 95       	ret

00000de8 <__vector_9>:
     de8:	1f 92       	push	r1
     dea:	0f 92       	push	r0
     dec:	0f b6       	in	r0, 0x3f	; 63
     dee:	0f 92       	push	r0
     df0:	11 24       	eor	r1, r1
     df2:	2f 93       	push	r18
     df4:	3f 93       	push	r19
     df6:	4f 93       	push	r20
     df8:	5f 93       	push	r21
     dfa:	6f 93       	push	r22
     dfc:	7f 93       	push	r23
     dfe:	8f 93       	push	r24
     e00:	9f 93       	push	r25
     e02:	af 93       	push	r26
     e04:	bf 93       	push	r27
     e06:	ef 93       	push	r30
     e08:	ff 93       	push	r31
     e0a:	82 ec       	ldi	r24, 0xC2	; 194
     e0c:	82 bf       	out	0x32, r24	; 50
     e0e:	32 df       	rcall	.-412    	; 0xc74 <SchedulerTick>
     e10:	ff 91       	pop	r31
     e12:	ef 91       	pop	r30
     e14:	bf 91       	pop	r27
     e16:	af 91       	pop	r26
     e18:	9f 91       	pop	r25
     e1a:	8f 91       	pop	r24
     e1c:	7f 91       	pop	r23
     e1e:	6f 91       	pop	r22
     e20:	5f 91       	pop	r21
     e22:	4f 91       	pop	r20
     e24:	3f 91       	pop	r19
     e26:	2f 91       	pop	r18
     e28:	0f 90       	pop	r0
     e2a:	0f be       	out	0x3f, r0	; 63
     e2c:	0f 90       	pop	r0
     e2e:	1f 90       	pop	r1
     e30:	18 95       	reti

00000e32 <__vector_8>:
     e32:	1f 92       	push	r1
     e34:	0f 92       	push	r0
     e36:	0f b6       	in	r0, 0x3f	; 63
     e38:	0f 92       	push	r0
     e3a:	11 24       	eor	r1, r1
     e3c:	2f 93       	push	r18
     e3e:	3f 93       	push	r19
     e40:	4f 93       	push	r20
     e42:	5f 93       	push	r21
     e44:	6f 93       	push	r22
     e46:	7f 93       	push	r23
     e48:	8f 93       	push	r24
     e4a:	9f 93       	push	r25
     e4c:	af 93       	push	r26
     e4e:	bf 93       	push	r27
     e50:	ef 93       	push	r30
     e52:	ff 93       	push	r31
     e54:	8f ef       	ldi	r24, 0xFF	; 255
     e56:	9f e7       	ldi	r25, 0x7F	; 127
     e58:	9d bd       	out	0x2d, r25	; 45
     e5a:	8c bd       	out	0x2c, r24	; 44
     e5c:	d1 de       	rcall	.-606    	; 0xc00 <APP_ISR3>
     e5e:	ff 91       	pop	r31
     e60:	ef 91       	pop	r30
     e62:	bf 91       	pop	r27
     e64:	af 91       	pop	r26
     e66:	9f 91       	pop	r25
     e68:	8f 91       	pop	r24
     e6a:	7f 91       	pop	r23
     e6c:	6f 91       	pop	r22
     e6e:	5f 91       	pop	r21
     e70:	4f 91       	pop	r20
     e72:	3f 91       	pop	r19
     e74:	2f 91       	pop	r18
     e76:	0f 90       	pop	r0
     e78:	0f be       	out	0x3f, r0	; 63
     e7a:	0f 90       	pop	r0
     e7c:	1f 90       	pop	r1
     e7e:	18 95       	reti

00000e80 <__vector_1>:
     e80:	1f 92       	push	r1
     e82:	0f 92       	push	r0
     e84:	0f b6       	in	r0, 0x3f	; 63
     e86:	0f 92       	push	r0
     e88:	11 24       	eor	r1, r1
     e8a:	2f 93       	push	r18
     e8c:	3f 93       	push	r19
     e8e:	4f 93       	push	r20
     e90:	5f 93       	push	r21
     e92:	6f 93       	push	r22
     e94:	7f 93       	push	r23
     e96:	8f 93       	push	r24
     e98:	9f 93       	push	r25
     e9a:	af 93       	push	r26
     e9c:	bf 93       	push	r27
     e9e:	ef 93       	push	r30
     ea0:	ff 93       	push	r31
     ea2:	aa de       	rcall	.-684    	; 0xbf8 <APP_ISR1>
     ea4:	85 b7       	in	r24, 0x35	; 53
     ea6:	83 60       	ori	r24, 0x03	; 3
     ea8:	85 bf       	out	0x35, r24	; 53
     eaa:	ff 91       	pop	r31
     eac:	ef 91       	pop	r30
     eae:	bf 91       	pop	r27
     eb0:	af 91       	pop	r26
     eb2:	9f 91       	pop	r25
     eb4:	8f 91       	pop	r24
     eb6:	7f 91       	pop	r23
     eb8:	6f 91       	pop	r22
     eba:	5f 91       	pop	r21
     ebc:	4f 91       	pop	r20
     ebe:	3f 91       	pop	r19
     ec0:	2f 91       	pop	r18
     ec2:	0f 90       	pop	r0
     ec4:	0f be       	out	0x3f, r0	; 63
     ec6:	0f 90       	pop	r0
     ec8:	1f 90       	pop	r1
     eca:	18 95       	reti

00000ecc <__vector_2>:
     ecc:	1f 92       	push	r1
     ece:	0f 92       	push	r0
     ed0:	0f b6       	in	r0, 0x3f	; 63
     ed2:	0f 92       	push	r0
     ed4:	11 24       	eor	r1, r1
     ed6:	2f 93       	push	r18
     ed8:	3f 93       	push	r19
     eda:	4f 93       	push	r20
     edc:	5f 93       	push	r21
     ede:	6f 93       	push	r22
     ee0:	7f 93       	push	r23
     ee2:	8f 93       	push	r24
     ee4:	9f 93       	push	r25
     ee6:	af 93       	push	r26
     ee8:	bf 93       	push	r27
     eea:	ef 93       	push	r30
     eec:	ff 93       	push	r31
     eee:	86 de       	rcall	.-756    	; 0xbfc <APP_ISR2>
     ef0:	ff 91       	pop	r31
     ef2:	ef 91       	pop	r30
     ef4:	bf 91       	pop	r27
     ef6:	af 91       	pop	r26
     ef8:	9f 91       	pop	r25
     efa:	8f 91       	pop	r24
     efc:	7f 91       	pop	r23
     efe:	6f 91       	pop	r22
     f00:	5f 91       	pop	r21
     f02:	4f 91       	pop	r20
     f04:	3f 91       	pop	r19
     f06:	2f 91       	pop	r18
     f08:	0f 90       	pop	r0
     f0a:	0f be       	out	0x3f, r0	; 63
     f0c:	0f 90       	pop	r0
     f0e:	1f 90       	pop	r1
     f10:	18 95       	reti

00000f12 <SendMCUtoSleep>:
     f12:	85 b7       	in	r24, 0x35	; 53
     f14:	8c 7f       	andi	r24, 0xFC	; 252
     f16:	85 bf       	out	0x35, r24	; 53
     f18:	85 b7       	in	r24, 0x35	; 53
     f1a:	80 62       	ori	r24, 0x20	; 32
     f1c:	85 bf       	out	0x35, r24	; 53
     f1e:	f8 94       	cli
     f20:	85 b7       	in	r24, 0x35	; 53
     f22:	80 68       	ori	r24, 0x80	; 128
     f24:	85 bf       	out	0x35, r24	; 53
     f26:	78 94       	sei
     f28:	88 95       	sleep
     f2a:	85 b7       	in	r24, 0x35	; 53
     f2c:	8f 77       	andi	r24, 0x7F	; 127
     f2e:	85 bf       	out	0x35, r24	; 53
     f30:	08 95       	ret

00000f32 <HWI_InitOscilatorCalib>:
     f32:	cf 93       	push	r28
     f34:	df 93       	push	r29
     f36:	0f 92       	push	r0
     f38:	cd b7       	in	r28, 0x3d	; 61
     f3a:	de b7       	in	r29, 0x3e	; 62
     f3c:	80 e0       	ldi	r24, 0x00	; 0
     f3e:	be 01       	movw	r22, r28
     f40:	6f 5f       	subi	r22, 0xFF	; 255
     f42:	7f 4f       	sbci	r23, 0xFF	; 255
     f44:	d4 de       	rcall	.-600    	; 0xcee <HWIeeprom_Read>
     f46:	88 23       	and	r24, r24
     f48:	c9 f3       	breq	.-14     	; 0xf3c <HWI_InitOscilatorCalib+0xa>
     f4a:	89 81       	ldd	r24, Y+1	; 0x01
     f4c:	81 bf       	out	0x31, r24	; 49
     f4e:	0f 90       	pop	r0
     f50:	df 91       	pop	r29
     f52:	cf 91       	pop	r28
     f54:	08 95       	ret

00000f56 <main>:
     f56:	62 de       	rcall	.-828    	; 0xc1c <Start_App>
     f58:	80 e0       	ldi	r24, 0x00	; 0
     f5a:	90 e0       	ldi	r25, 0x00	; 0
     f5c:	08 95       	ret

00000f5e <__mulsi3>:
     f5e:	62 9f       	mul	r22, r18
     f60:	d0 01       	movw	r26, r0
     f62:	73 9f       	mul	r23, r19
     f64:	f0 01       	movw	r30, r0
     f66:	82 9f       	mul	r24, r18
     f68:	e0 0d       	add	r30, r0
     f6a:	f1 1d       	adc	r31, r1
     f6c:	64 9f       	mul	r22, r20
     f6e:	e0 0d       	add	r30, r0
     f70:	f1 1d       	adc	r31, r1
     f72:	92 9f       	mul	r25, r18
     f74:	f0 0d       	add	r31, r0
     f76:	83 9f       	mul	r24, r19
     f78:	f0 0d       	add	r31, r0
     f7a:	74 9f       	mul	r23, r20
     f7c:	f0 0d       	add	r31, r0
     f7e:	65 9f       	mul	r22, r21
     f80:	f0 0d       	add	r31, r0
     f82:	99 27       	eor	r25, r25
     f84:	72 9f       	mul	r23, r18
     f86:	b0 0d       	add	r27, r0
     f88:	e1 1d       	adc	r30, r1
     f8a:	f9 1f       	adc	r31, r25
     f8c:	63 9f       	mul	r22, r19
     f8e:	b0 0d       	add	r27, r0
     f90:	e1 1d       	adc	r30, r1
     f92:	f9 1f       	adc	r31, r25
     f94:	bd 01       	movw	r22, r26
     f96:	cf 01       	movw	r24, r30
     f98:	11 24       	eor	r1, r1
     f9a:	08 95       	ret

00000f9c <__udivmodhi4>:
     f9c:	aa 1b       	sub	r26, r26
     f9e:	bb 1b       	sub	r27, r27
     fa0:	51 e1       	ldi	r21, 0x11	; 17
     fa2:	07 c0       	rjmp	.+14     	; 0xfb2 <__udivmodhi4_ep>

00000fa4 <__udivmodhi4_loop>:
     fa4:	aa 1f       	adc	r26, r26
     fa6:	bb 1f       	adc	r27, r27
     fa8:	a6 17       	cp	r26, r22
     faa:	b7 07       	cpc	r27, r23
     fac:	10 f0       	brcs	.+4      	; 0xfb2 <__udivmodhi4_ep>
     fae:	a6 1b       	sub	r26, r22
     fb0:	b7 0b       	sbc	r27, r23

00000fb2 <__udivmodhi4_ep>:
     fb2:	88 1f       	adc	r24, r24
     fb4:	99 1f       	adc	r25, r25
     fb6:	5a 95       	dec	r21
     fb8:	a9 f7       	brne	.-22     	; 0xfa4 <__udivmodhi4_loop>
     fba:	80 95       	com	r24
     fbc:	90 95       	com	r25
     fbe:	bc 01       	movw	r22, r24
     fc0:	cd 01       	movw	r24, r26
     fc2:	08 95       	ret

00000fc4 <__udivmodsi4>:
     fc4:	a1 e2       	ldi	r26, 0x21	; 33
     fc6:	1a 2e       	mov	r1, r26
     fc8:	aa 1b       	sub	r26, r26
     fca:	bb 1b       	sub	r27, r27
     fcc:	fd 01       	movw	r30, r26
     fce:	0d c0       	rjmp	.+26     	; 0xfea <__udivmodsi4_ep>

00000fd0 <__udivmodsi4_loop>:
     fd0:	aa 1f       	adc	r26, r26
     fd2:	bb 1f       	adc	r27, r27
     fd4:	ee 1f       	adc	r30, r30
     fd6:	ff 1f       	adc	r31, r31
     fd8:	a2 17       	cp	r26, r18
     fda:	b3 07       	cpc	r27, r19
     fdc:	e4 07       	cpc	r30, r20
     fde:	f5 07       	cpc	r31, r21
     fe0:	20 f0       	brcs	.+8      	; 0xfea <__udivmodsi4_ep>
     fe2:	a2 1b       	sub	r26, r18
     fe4:	b3 0b       	sbc	r27, r19
     fe6:	e4 0b       	sbc	r30, r20
     fe8:	f5 0b       	sbc	r31, r21

00000fea <__udivmodsi4_ep>:
     fea:	66 1f       	adc	r22, r22
     fec:	77 1f       	adc	r23, r23
     fee:	88 1f       	adc	r24, r24
     ff0:	99 1f       	adc	r25, r25
     ff2:	1a 94       	dec	r1
     ff4:	69 f7       	brne	.-38     	; 0xfd0 <__udivmodsi4_loop>
     ff6:	60 95       	com	r22
     ff8:	70 95       	com	r23
     ffa:	80 95       	com	r24
     ffc:	90 95       	com	r25
     ffe:	9b 01       	movw	r18, r22
    1000:	ac 01       	movw	r20, r24
    1002:	bd 01       	movw	r22, r26
    1004:	cf 01       	movw	r24, r30
    1006:	08 95       	ret

00001008 <_exit>:
    1008:	f8 94       	cli

0000100a <__stop_program>:
    100a:	ff cf       	rjmp	.-2      	; 0x100a <__stop_program>
