
BicMeter.elf:     file format elf32-avr

Sections:
Idx Name          Size      VMA       LMA       File off  Algn
  0 .text         00000892  00000000  00000000  00000094  2**1
                  CONTENTS, ALLOC, LOAD, READONLY, CODE
  1 .data         0000001e  00800060  00000892  00000926  2**0
                  CONTENTS, ALLOC, LOAD, DATA
  2 .bss          00000037  0080007e  0080007e  00000944  2**0
                  ALLOC
  3 .stab         000006cc  00000000  00000000  00000944  2**2
                  CONTENTS, READONLY, DEBUGGING
  4 .stabstr      00000085  00000000  00000000  00001010  2**0
                  CONTENTS, READONLY, DEBUGGING
  5 .debug_aranges 000000c0  00000000  00000000  00001098  2**3
                  CONTENTS, READONLY, DEBUGGING
  6 .debug_info   0000052e  00000000  00000000  00001158  2**0
                  CONTENTS, READONLY, DEBUGGING
  7 .debug_abbrev 00000078  00000000  00000000  00001686  2**0
                  CONTENTS, READONLY, DEBUGGING
  8 .debug_line   0000038e  00000000  00000000  000016fe  2**0
                  CONTENTS, READONLY, DEBUGGING

Disassembly of section .text:

00000000 <__vectors>:
   0:	12 c0       	rjmp	.+36     	; 0x26 <__ctors_end>
   2:	a6 c3       	rjmp	.+1868   	; 0x750 <__vector_1>
   4:	c8 c3       	rjmp	.+1936   	; 0x796 <__vector_2>
   6:	2a c0       	rjmp	.+84     	; 0x5c <__bad_interrupt>
   8:	29 c0       	rjmp	.+82     	; 0x5c <__bad_interrupt>
   a:	28 c0       	rjmp	.+80     	; 0x5c <__bad_interrupt>
   c:	27 c0       	rjmp	.+78     	; 0x5c <__bad_interrupt>
   e:	26 c0       	rjmp	.+76     	; 0x5c <__bad_interrupt>
  10:	78 c3       	rjmp	.+1776   	; 0x702 <__vector_8>
  12:	52 c3       	rjmp	.+1700   	; 0x6b8 <__vector_9>
  14:	23 c0       	rjmp	.+70     	; 0x5c <__bad_interrupt>
  16:	22 c0       	rjmp	.+68     	; 0x5c <__bad_interrupt>
  18:	21 c0       	rjmp	.+66     	; 0x5c <__bad_interrupt>
  1a:	20 c0       	rjmp	.+64     	; 0x5c <__bad_interrupt>
  1c:	1f c0       	rjmp	.+62     	; 0x5c <__bad_interrupt>
  1e:	1e c0       	rjmp	.+60     	; 0x5c <__bad_interrupt>
  20:	1d c0       	rjmp	.+58     	; 0x5c <__bad_interrupt>
  22:	1c c0       	rjmp	.+56     	; 0x5c <__bad_interrupt>
  24:	1b c0       	rjmp	.+54     	; 0x5c <__bad_interrupt>

00000026 <__ctors_end>:
  26:	11 24       	eor	r1, r1
  28:	1f be       	out	0x3f, r1	; 63
  2a:	cf e5       	ldi	r28, 0x5F	; 95
  2c:	d4 e0       	ldi	r29, 0x04	; 4
  2e:	de bf       	out	0x3e, r29	; 62
  30:	cd bf       	out	0x3d, r28	; 61

00000032 <__do_copy_data>:
  32:	10 e0       	ldi	r17, 0x00	; 0
  34:	a0 e6       	ldi	r26, 0x60	; 96
  36:	b0 e0       	ldi	r27, 0x00	; 0
  38:	e2 e9       	ldi	r30, 0x92	; 146
  3a:	f8 e0       	ldi	r31, 0x08	; 8
  3c:	02 c0       	rjmp	.+4      	; 0x42 <__SREG__+0x3>
  3e:	05 90       	lpm	r0, Z+
  40:	0d 92       	st	X+, r0
  42:	ae 37       	cpi	r26, 0x7E	; 126
  44:	b1 07       	cpc	r27, r17
  46:	d9 f7       	brne	.-10     	; 0x3e <__SP_H__>

00000048 <__do_clear_bss>:
  48:	10 e0       	ldi	r17, 0x00	; 0
  4a:	ae e7       	ldi	r26, 0x7E	; 126
  4c:	b0 e0       	ldi	r27, 0x00	; 0
  4e:	01 c0       	rjmp	.+2      	; 0x52 <.do_clear_bss_start>

00000050 <.do_clear_bss_loop>:
  50:	1d 92       	st	X+, r1

00000052 <.do_clear_bss_start>:
  52:	a5 3b       	cpi	r26, 0xB5	; 181
  54:	b1 07       	cpc	r27, r17
  56:	e1 f7       	brne	.-8      	; 0x50 <.do_clear_bss_loop>
  58:	c1 d3       	rcall	.+1922   	; 0x7dc <main>
  5a:	19 c4       	rjmp	.+2098   	; 0x88e <_exit>

0000005c <__bad_interrupt>:
  5c:	d1 cf       	rjmp	.-94     	; 0x0 <__vectors>

0000005e <APP_INITIALIZE>:
  5e:	08 95       	ret

00000060 <APP_MANAGE>:
  60:	cf 93       	push	r28
  62:	df 93       	push	r29
  64:	88 e0       	ldi	r24, 0x08	; 8
  66:	98 e0       	ldi	r25, 0x08	; 8
  68:	14 d2       	rcall	.+1064   	; 0x492 <SetCircumfirunce>
  6a:	81 e0       	ldi	r24, 0x01	; 1
  6c:	17 d2       	rcall	.+1070   	; 0x49c <GetAvgSpeed>
  6e:	ec 01       	movw	r28, r24
  70:	07 d2       	rcall	.+1038   	; 0x480 <GetDistance>
  72:	ce 01       	movw	r24, r28
  74:	61 e0       	ldi	r22, 0x01	; 1
  76:	3b d0       	rcall	.+118    	; 0xee <BCDsendNumber>
  78:	80 91 7e 00 	lds	r24, 0x007E
  7c:	90 91 7f 00 	lds	r25, 0x007F
  80:	00 97       	sbiw	r24, 0x00	; 0
  82:	59 f4       	brne	.+22     	; 0x9a <APP_MANAGE+0x3a>
  84:	80 e0       	ldi	r24, 0x00	; 0
  86:	cc d0       	rcall	.+408    	; 0x220 <GetKeyStatus>
  88:	82 38       	cpi	r24, 0x82	; 130
  8a:	59 f5       	brne	.+86     	; 0xe2 <APP_MANAGE+0x82>
  8c:	81 e0       	ldi	r24, 0x01	; 1
  8e:	90 e0       	ldi	r25, 0x00	; 0
  90:	90 93 7f 00 	sts	0x007F, r25
  94:	80 93 7e 00 	sts	0x007E, r24
  98:	24 c0       	rjmp	.+72     	; 0xe2 <APP_MANAGE+0x82>
  9a:	80 91 80 00 	lds	r24, 0x0080
  9e:	64 e6       	ldi	r22, 0x64	; 100
  a0:	b2 d0       	rcall	.+356    	; 0x206 <BlinkDigit>
  a2:	80 e0       	ldi	r24, 0x00	; 0
  a4:	bd d0       	rcall	.+378    	; 0x220 <GetKeyStatus>
  a6:	81 38       	cpi	r24, 0x81	; 129
  a8:	89 f4       	brne	.+34     	; 0xcc <APP_MANAGE+0x6c>
  aa:	80 91 80 00 	lds	r24, 0x0080
  ae:	90 91 81 00 	lds	r25, 0x0081
  b2:	01 96       	adiw	r24, 0x01	; 1
  b4:	90 93 81 00 	sts	0x0081, r25
  b8:	80 93 80 00 	sts	0x0080, r24
  bc:	84 30       	cpi	r24, 0x04	; 4
  be:	91 05       	cpc	r25, r1
  c0:	81 f4       	brne	.+32     	; 0xe2 <APP_MANAGE+0x82>
  c2:	10 92 81 00 	sts	0x0081, r1
  c6:	10 92 80 00 	sts	0x0080, r1
  ca:	0b c0       	rjmp	.+22     	; 0xe2 <APP_MANAGE+0x82>
  cc:	81 e0       	ldi	r24, 0x01	; 1
  ce:	a8 d0       	rcall	.+336    	; 0x220 <GetKeyStatus>
  d0:	82 38       	cpi	r24, 0x82	; 130
  d2:	39 f4       	brne	.+14     	; 0xe2 <APP_MANAGE+0x82>
  d4:	81 e0       	ldi	r24, 0x01	; 1
  d6:	60 e0       	ldi	r22, 0x00	; 0
  d8:	96 d0       	rcall	.+300    	; 0x206 <BlinkDigit>
  da:	10 92 7f 00 	sts	0x007F, r1
  de:	10 92 7e 00 	sts	0x007E, r1
  e2:	df 91       	pop	r29
  e4:	cf 91       	pop	r28
  e6:	08 95       	ret

000000e8 <BCDInitialize>:
  e8:	80 93 82 00 	sts	0x0082, r24
  ec:	08 95       	ret

000000ee <BCDsendNumber>:
  ee:	0f 93       	push	r16
  f0:	1f 93       	push	r17
  f2:	cf 93       	push	r28
  f4:	df 93       	push	r29
  f6:	26 2f       	mov	r18, r22
  f8:	c3 e8       	ldi	r28, 0x83	; 131
  fa:	d0 e0       	ldi	r29, 0x00	; 0
  fc:	fc 01       	movw	r30, r24
  fe:	30 e0       	ldi	r19, 0x00	; 0
 100:	0a e0       	ldi	r16, 0x0A	; 10
 102:	10 e0       	ldi	r17, 0x00	; 0
 104:	30 97       	sbiw	r30, 0x00	; 0
 106:	11 f4       	brne	.+4      	; 0x10c <BCDsendNumber+0x1e>
 108:	23 17       	cp	r18, r19
 10a:	b8 f0       	brcs	.+46     	; 0x13a <BCDsendNumber+0x4c>
 10c:	cf 01       	movw	r24, r30
 10e:	b8 01       	movw	r22, r16
 110:	88 d3       	rcall	.+1808   	; 0x822 <__udivmodhi4>
 112:	cb 01       	movw	r24, r22
 114:	ab 01       	movw	r20, r22
 116:	44 0f       	add	r20, r20
 118:	55 1f       	adc	r21, r21
 11a:	b3 e0       	ldi	r27, 0x03	; 3
 11c:	88 0f       	add	r24, r24
 11e:	99 1f       	adc	r25, r25
 120:	ba 95       	dec	r27
 122:	e1 f7       	brne	.-8      	; 0x11c <BCDsendNumber+0x2e>
 124:	48 0f       	add	r20, r24
 126:	59 1f       	adc	r21, r25
 128:	e4 1b       	sub	r30, r20
 12a:	f5 0b       	sbc	r31, r21
 12c:	e0 5a       	subi	r30, 0xA0	; 160
 12e:	ff 4f       	sbci	r31, 0xFF	; 255
 130:	80 81       	ld	r24, Z
 132:	88 83       	st	Y, r24
 134:	19 82       	std	Y+1, r1	; 0x01
 136:	fb 01       	movw	r30, r22
 138:	02 c0       	rjmp	.+4      	; 0x13e <BCDsendNumber+0x50>
 13a:	19 82       	std	Y+1, r1	; 0x01
 13c:	18 82       	st	Y, r1
 13e:	3f 5f       	subi	r19, 0xFF	; 255
 140:	22 96       	adiw	r28, 0x02	; 2
 142:	34 30       	cpi	r19, 0x04	; 4
 144:	f9 f6       	brne	.-66     	; 0x104 <BCDsendNumber+0x16>
 146:	22 23       	and	r18, r18
 148:	59 f0       	breq	.+22     	; 0x160 <BCDsendNumber+0x72>
 14a:	e2 2f       	mov	r30, r18
 14c:	f0 e0       	ldi	r31, 0x00	; 0
 14e:	ee 0f       	add	r30, r30
 150:	ff 1f       	adc	r31, r31
 152:	ed 57       	subi	r30, 0x7D	; 125
 154:	ff 4f       	sbci	r31, 0xFF	; 255
 156:	80 81       	ld	r24, Z
 158:	91 81       	ldd	r25, Z+1	; 0x01
 15a:	81 60       	ori	r24, 0x01	; 1
 15c:	91 83       	std	Z+1, r25	; 0x01
 15e:	80 83       	st	Z, r24
 160:	df 91       	pop	r29
 162:	cf 91       	pop	r28
 164:	1f 91       	pop	r17
 166:	0f 91       	pop	r16
 168:	08 95       	ret

0000016a <BCDManage7segment>:
 16a:	cf 93       	push	r28
 16c:	90 91 8b 00 	lds	r25, 0x008B
 170:	99 23       	and	r25, r25
 172:	81 f0       	breq	.+32     	; 0x194 <BCDManage7segment+0x2a>
 174:	80 91 8c 00 	lds	r24, 0x008C
 178:	8f 5f       	subi	r24, 0xFF	; 255
 17a:	80 93 8c 00 	sts	0x008C, r24
 17e:	89 17       	cp	r24, r25
 180:	59 f4       	brne	.+22     	; 0x198 <BCDManage7segment+0x2e>
 182:	80 91 8d 00 	lds	r24, 0x008D
 186:	91 e0       	ldi	r25, 0x01	; 1
 188:	89 27       	eor	r24, r25
 18a:	80 93 8d 00 	sts	0x008D, r24
 18e:	10 92 8c 00 	sts	0x008C, r1
 192:	02 c0       	rjmp	.+4      	; 0x198 <BCDManage7segment+0x2e>
 194:	10 92 8d 00 	sts	0x008D, r1
 198:	80 91 8d 00 	lds	r24, 0x008D
 19c:	81 30       	cpi	r24, 0x01	; 1
 19e:	31 f4       	brne	.+12     	; 0x1ac <BCDManage7segment+0x42>
 1a0:	90 91 8e 00 	lds	r25, 0x008E
 1a4:	80 91 8f 00 	lds	r24, 0x008F
 1a8:	98 17       	cp	r25, r24
 1aa:	a9 f0       	breq	.+42     	; 0x1d6 <BCDManage7segment+0x6c>
 1ac:	e0 91 8e 00 	lds	r30, 0x008E
 1b0:	f0 e0       	ldi	r31, 0x00	; 0
 1b2:	83 e0       	ldi	r24, 0x03	; 3
 1b4:	90 e0       	ldi	r25, 0x00	; 0
 1b6:	8e 1b       	sub	r24, r30
 1b8:	9f 0b       	sbc	r25, r31
 1ba:	61 e0       	ldi	r22, 0x01	; 1
 1bc:	70 e0       	ldi	r23, 0x00	; 0
 1be:	02 c0       	rjmp	.+4      	; 0x1c4 <BCDManage7segment+0x5a>
 1c0:	66 0f       	add	r22, r22
 1c2:	77 1f       	adc	r23, r23
 1c4:	8a 95       	dec	r24
 1c6:	e2 f7       	brpl	.-8      	; 0x1c0 <BCDManage7segment+0x56>
 1c8:	60 95       	com	r22
 1ca:	ee 0f       	add	r30, r30
 1cc:	ff 1f       	adc	r31, r31
 1ce:	ed 57       	subi	r30, 0x7D	; 125
 1d0:	ff 4f       	sbci	r31, 0xFF	; 255
 1d2:	c0 81       	ld	r28, Z
 1d4:	02 c0       	rjmp	.+4      	; 0x1da <BCDManage7segment+0x70>
 1d6:	c0 e0       	ldi	r28, 0x00	; 0
 1d8:	6f e0       	ldi	r22, 0x0F	; 15
 1da:	80 91 82 00 	lds	r24, 0x0082
 1de:	81 30       	cpi	r24, 0x01	; 1
 1e0:	11 f4       	brne	.+4      	; 0x1e6 <BCDManage7segment+0x7c>
 1e2:	60 95       	com	r22
 1e4:	c0 95       	com	r28
 1e6:	80 e0       	ldi	r24, 0x00	; 0
 1e8:	0f d2       	rcall	.+1054   	; 0x608 <HWI_4Digit_WRITE>
 1ea:	81 e0       	ldi	r24, 0x01	; 1
 1ec:	6c 2f       	mov	r22, r28
 1ee:	25 d2       	rcall	.+1098   	; 0x63a <HWI_8Digit_WRITE>
 1f0:	80 91 8e 00 	lds	r24, 0x008E
 1f4:	8f 5f       	subi	r24, 0xFF	; 255
 1f6:	80 93 8e 00 	sts	0x008E, r24
 1fa:	84 30       	cpi	r24, 0x04	; 4
 1fc:	11 f4       	brne	.+4      	; 0x202 <BCDManage7segment+0x98>
 1fe:	10 92 8e 00 	sts	0x008E, r1
 202:	cf 91       	pop	r28
 204:	08 95       	ret

00000206 <BlinkDigit>:
 206:	80 93 8f 00 	sts	0x008F, r24
 20a:	60 93 8b 00 	sts	0x008B, r22
 20e:	08 95       	ret

00000210 <KeyInitialize>:
 210:	86 e0       	ldi	r24, 0x06	; 6
 212:	e0 e9       	ldi	r30, 0x90	; 144
 214:	f0 e0       	ldi	r31, 0x00	; 0
 216:	df 01       	movw	r26, r30
 218:	1d 92       	st	X+, r1
 21a:	8a 95       	dec	r24
 21c:	e9 f7       	brne	.-6      	; 0x218 <KeyInitialize+0x8>
 21e:	08 95       	ret

00000220 <GetKeyStatus>:
 220:	90 e0       	ldi	r25, 0x00	; 0
 222:	fc 01       	movw	r30, r24
 224:	ee 0f       	add	r30, r30
 226:	ff 1f       	adc	r31, r31
 228:	e8 0f       	add	r30, r24
 22a:	f9 1f       	adc	r31, r25
 22c:	e0 57       	subi	r30, 0x70	; 112
 22e:	ff 4f       	sbci	r31, 0xFF	; 255
 230:	80 81       	ld	r24, Z
 232:	98 2f       	mov	r25, r24
 234:	9f 77       	andi	r25, 0x7F	; 127
 236:	90 83       	st	Z, r25
 238:	08 95       	ret

0000023a <MangeKeys>:
 23a:	ef 92       	push	r14
 23c:	ff 92       	push	r15
 23e:	0f 93       	push	r16
 240:	1f 93       	push	r17
 242:	cf 93       	push	r28
 244:	df 93       	push	r29
 246:	0f 92       	push	r0
 248:	cd b7       	in	r28, 0x3d	; 61
 24a:	de b7       	in	r29, 0x3e	; 62
 24c:	90 e0       	ldi	r25, 0x00	; 0
 24e:	7c 01       	movw	r14, r24
 250:	ee 0c       	add	r14, r14
 252:	ff 1c       	adc	r15, r15
 254:	e8 0e       	add	r14, r24
 256:	f9 1e       	adc	r15, r25
 258:	20 e9       	ldi	r18, 0x90	; 144
 25a:	30 e0       	ldi	r19, 0x00	; 0
 25c:	e2 0e       	add	r14, r18
 25e:	f3 1e       	adc	r15, r19
 260:	f7 01       	movw	r30, r14
 262:	20 81       	ld	r18, Z
 264:	2f 77       	andi	r18, 0x7F	; 127
 266:	8c 01       	movw	r16, r24
 268:	43 e0       	ldi	r20, 0x03	; 3
 26a:	00 0f       	add	r16, r16
 26c:	11 1f       	adc	r17, r17
 26e:	4a 95       	dec	r20
 270:	e1 f7       	brne	.-8      	; 0x26a <MangeKeys+0x30>
 272:	05 59       	subi	r16, 0x95	; 149
 274:	1f 4f       	sbci	r17, 0xFF	; 255
 276:	f8 01       	movw	r30, r16
 278:	80 81       	ld	r24, Z
 27a:	29 83       	std	Y+1, r18	; 0x01
 27c:	b7 d1       	rcall	.+878    	; 0x5ec <HWI_DIGI_READ>
 27e:	29 81       	ldd	r18, Y+1	; 0x01
 280:	21 30       	cpi	r18, 0x01	; 1
 282:	f9 f0       	breq	.+62     	; 0x2c2 <MangeKeys+0x88>
 284:	21 30       	cpi	r18, 0x01	; 1
 286:	20 f0       	brcs	.+8      	; 0x290 <MangeKeys+0x56>
 288:	22 30       	cpi	r18, 0x02	; 2
 28a:	09 f0       	breq	.+2      	; 0x28e <MangeKeys+0x54>
 28c:	5b c0       	rjmp	.+182    	; 0x344 <MangeKeys+0x10a>
 28e:	45 c0       	rjmp	.+138    	; 0x31a <MangeKeys+0xe0>
 290:	f8 01       	movw	r30, r16
 292:	91 81       	ldd	r25, Z+1	; 0x01
 294:	f7 01       	movw	r30, r14
 296:	98 17       	cp	r25, r24
 298:	89 f4       	brne	.+34     	; 0x2bc <MangeKeys+0x82>
 29a:	81 81       	ldd	r24, Z+1	; 0x01
 29c:	92 81       	ldd	r25, Z+2	; 0x02
 29e:	01 96       	adiw	r24, 0x01	; 1
 2a0:	92 83       	std	Z+2, r25	; 0x02
 2a2:	81 83       	std	Z+1, r24	; 0x01
 2a4:	f8 01       	movw	r30, r16
 2a6:	24 81       	ldd	r18, Z+4	; 0x04
 2a8:	35 81       	ldd	r19, Z+5	; 0x05
 2aa:	28 17       	cp	r18, r24
 2ac:	39 07       	cpc	r19, r25
 2ae:	09 f0       	breq	.+2      	; 0x2b2 <MangeKeys+0x78>
 2b0:	4b c0       	rjmp	.+150    	; 0x348 <MangeKeys+0x10e>
 2b2:	81 e8       	ldi	r24, 0x81	; 129
 2b4:	f7 01       	movw	r30, r14
 2b6:	80 83       	st	Z, r24
 2b8:	f8 01       	movw	r30, r16
 2ba:	33 c0       	rjmp	.+102    	; 0x322 <MangeKeys+0xe8>
 2bc:	12 82       	std	Z+2, r1	; 0x02
 2be:	11 82       	std	Z+1, r1	; 0x01
 2c0:	43 c0       	rjmp	.+134    	; 0x348 <MangeKeys+0x10e>
 2c2:	f8 01       	movw	r30, r16
 2c4:	91 81       	ldd	r25, Z+1	; 0x01
 2c6:	f7 01       	movw	r30, r14
 2c8:	21 81       	ldd	r18, Z+1	; 0x01
 2ca:	32 81       	ldd	r19, Z+2	; 0x02
 2cc:	f8 01       	movw	r30, r16
 2ce:	42 81       	ldd	r20, Z+2	; 0x02
 2d0:	53 81       	ldd	r21, Z+3	; 0x03
 2d2:	98 17       	cp	r25, r24
 2d4:	b1 f4       	brne	.+44     	; 0x302 <MangeKeys+0xc8>
 2d6:	24 17       	cp	r18, r20
 2d8:	35 07       	cpc	r19, r21
 2da:	78 f0       	brcs	.+30     	; 0x2fa <MangeKeys+0xc0>
 2dc:	2f 5f       	subi	r18, 0xFF	; 255
 2de:	3f 4f       	sbci	r19, 0xFF	; 255
 2e0:	f7 01       	movw	r30, r14
 2e2:	32 83       	std	Z+2, r19	; 0x02
 2e4:	21 83       	std	Z+1, r18	; 0x01
 2e6:	f8 01       	movw	r30, r16
 2e8:	86 81       	ldd	r24, Z+6	; 0x06
 2ea:	97 81       	ldd	r25, Z+7	; 0x07
 2ec:	82 17       	cp	r24, r18
 2ee:	93 07       	cpc	r25, r19
 2f0:	59 f5       	brne	.+86     	; 0x348 <MangeKeys+0x10e>
 2f2:	82 e8       	ldi	r24, 0x82	; 130
 2f4:	f7 01       	movw	r30, r14
 2f6:	80 83       	st	Z, r24
 2f8:	01 c0       	rjmp	.+2      	; 0x2fc <MangeKeys+0xc2>
 2fa:	f7 01       	movw	r30, r14
 2fc:	52 83       	std	Z+2, r21	; 0x02
 2fe:	41 83       	std	Z+1, r20	; 0x01
 300:	23 c0       	rjmp	.+70     	; 0x348 <MangeKeys+0x10e>
 302:	42 17       	cp	r20, r18
 304:	53 07       	cpc	r21, r19
 306:	c8 f3       	brcs	.-14     	; 0x2fa <MangeKeys+0xc0>
 308:	21 50       	subi	r18, 0x01	; 1
 30a:	30 40       	sbci	r19, 0x00	; 0
 30c:	f7 01       	movw	r30, r14
 30e:	32 83       	std	Z+2, r19	; 0x02
 310:	21 83       	std	Z+1, r18	; 0x01
 312:	21 15       	cp	r18, r1
 314:	31 05       	cpc	r19, r1
 316:	c1 f4       	brne	.+48     	; 0x348 <MangeKeys+0x10e>
 318:	12 c0       	rjmp	.+36     	; 0x33e <MangeKeys+0x104>
 31a:	f8 01       	movw	r30, r16
 31c:	91 81       	ldd	r25, Z+1	; 0x01
 31e:	98 17       	cp	r25, r24
 320:	31 f4       	brne	.+12     	; 0x32e <MangeKeys+0xf4>
 322:	82 81       	ldd	r24, Z+2	; 0x02
 324:	93 81       	ldd	r25, Z+3	; 0x03
 326:	f7 01       	movw	r30, r14
 328:	92 83       	std	Z+2, r25	; 0x02
 32a:	81 83       	std	Z+1, r24	; 0x01
 32c:	0d c0       	rjmp	.+26     	; 0x348 <MangeKeys+0x10e>
 32e:	f7 01       	movw	r30, r14
 330:	81 81       	ldd	r24, Z+1	; 0x01
 332:	92 81       	ldd	r25, Z+2	; 0x02
 334:	01 97       	sbiw	r24, 0x01	; 1
 336:	92 83       	std	Z+2, r25	; 0x02
 338:	81 83       	std	Z+1, r24	; 0x01
 33a:	00 97       	sbiw	r24, 0x00	; 0
 33c:	29 f4       	brne	.+10     	; 0x348 <MangeKeys+0x10e>
 33e:	80 e8       	ldi	r24, 0x80	; 128
 340:	80 83       	st	Z, r24
 342:	02 c0       	rjmp	.+4      	; 0x348 <MangeKeys+0x10e>
 344:	f7 01       	movw	r30, r14
 346:	10 82       	st	Z, r1
 348:	0f 90       	pop	r0
 34a:	df 91       	pop	r29
 34c:	cf 91       	pop	r28
 34e:	1f 91       	pop	r17
 350:	0f 91       	pop	r16
 352:	ff 90       	pop	r15
 354:	ef 90       	pop	r14
 356:	08 95       	ret

00000358 <SpeedCalcNotifyInitialize>:
 358:	08 95       	ret

0000035a <SensorOneNotify>:
 35a:	80 91 9a 00 	lds	r24, 0x009A
 35e:	81 30       	cpi	r24, 0x01	; 1
 360:	19 f4       	brne	.+6      	; 0x368 <SensorOneNotify+0xe>
 362:	10 92 9a 00 	sts	0x009A, r1
 366:	08 95       	ret
 368:	80 91 99 00 	lds	r24, 0x0099
 36c:	88 23       	and	r24, r24
 36e:	29 f0       	breq	.+10     	; 0x37a <SensorOneNotify+0x20>
 370:	80 91 99 00 	lds	r24, 0x0099
 374:	81 50       	subi	r24, 0x01	; 1
 376:	80 93 99 00 	sts	0x0099, r24
 37a:	08 95       	ret

0000037c <SensorTwoNotify>:
 37c:	80 91 9a 00 	lds	r24, 0x009A
 380:	88 23       	and	r24, r24
 382:	a9 f4       	brne	.+42     	; 0x3ae <SensorTwoNotify+0x32>
 384:	81 e0       	ldi	r24, 0x01	; 1
 386:	80 93 9a 00 	sts	0x009A, r24
 38a:	80 91 99 00 	lds	r24, 0x0099
 38e:	8f 5f       	subi	r24, 0xFF	; 255
 390:	80 93 99 00 	sts	0x0099, r24
 394:	81 e0       	ldi	r24, 0x01	; 1
 396:	80 d1       	rcall	.+768    	; 0x698 <ReloadHWtimer>
 398:	90 93 98 00 	sts	0x0098, r25
 39c:	80 93 97 00 	sts	0x0097, r24
 3a0:	80 91 96 00 	lds	r24, 0x0096
 3a4:	80 93 9b 00 	sts	0x009B, r24
 3a8:	10 92 96 00 	sts	0x0096, r1
 3ac:	08 95       	ret
 3ae:	80 91 99 00 	lds	r24, 0x0099
 3b2:	88 23       	and	r24, r24
 3b4:	29 f0       	breq	.+10     	; 0x3c0 <SensorTwoNotify+0x44>
 3b6:	80 91 99 00 	lds	r24, 0x0099
 3ba:	81 50       	subi	r24, 0x01	; 1
 3bc:	80 93 99 00 	sts	0x0099, r24
 3c0:	08 95       	ret

000003c2 <SpeedCalcManage>:
 3c2:	cf 93       	push	r28
 3c4:	df 93       	push	r29
 3c6:	40 91 97 00 	lds	r20, 0x0097
 3ca:	50 91 98 00 	lds	r21, 0x0098
 3ce:	20 91 9b 00 	lds	r18, 0x009B
 3d2:	30 e0       	ldi	r19, 0x00	; 0
 3d4:	8f e8       	ldi	r24, 0x8F	; 143
 3d6:	92 e0       	ldi	r25, 0x02	; 2
 3d8:	28 9f       	mul	r18, r24
 3da:	f0 01       	movw	r30, r0
 3dc:	29 9f       	mul	r18, r25
 3de:	f0 0d       	add	r31, r0
 3e0:	38 9f       	mul	r19, r24
 3e2:	f0 0d       	add	r31, r0
 3e4:	11 24       	eor	r1, r1
 3e6:	ca 01       	movw	r24, r20
 3e8:	64 e6       	ldi	r22, 0x64	; 100
 3ea:	70 e0       	ldi	r23, 0x00	; 0
 3ec:	1a d2       	rcall	.+1076   	; 0x822 <__udivmodhi4>
 3ee:	e6 0f       	add	r30, r22
 3f0:	f7 1f       	adc	r31, r23
 3f2:	f0 93 9d 00 	sts	0x009D, r31
 3f6:	e0 93 9c 00 	sts	0x009C, r30
 3fa:	80 91 99 00 	lds	r24, 0x0099
 3fe:	c0 91 9e 00 	lds	r28, 0x009E
 402:	d0 91 9f 00 	lds	r29, 0x009F
 406:	c8 0f       	add	r28, r24
 408:	d1 1d       	adc	r29, r1
 40a:	d0 93 9f 00 	sts	0x009F, r29
 40e:	c0 93 9e 00 	sts	0x009E, r28
 412:	10 92 99 00 	sts	0x0099, r1
 416:	20 91 7b 00 	lds	r18, 0x007B
 41a:	30 91 7c 00 	lds	r19, 0x007C
 41e:	40 e0       	ldi	r20, 0x00	; 0
 420:	50 e0       	ldi	r21, 0x00	; 0
 422:	60 ea       	ldi	r22, 0xA0	; 160
 424:	76 e8       	ldi	r23, 0x86	; 134
 426:	81 e0       	ldi	r24, 0x01	; 1
 428:	90 e0       	ldi	r25, 0x00	; 0
 42a:	0f d2       	rcall	.+1054   	; 0x84a <__udivmodsi4>
 42c:	c2 17       	cp	r28, r18
 42e:	d3 07       	cpc	r29, r19
 430:	c8 f0       	brcs	.+50     	; 0x464 <__stack+0x5>
 432:	80 91 a0 00 	lds	r24, 0x00A0
 436:	90 91 a1 00 	lds	r25, 0x00A1
 43a:	a0 91 a2 00 	lds	r26, 0x00A2
 43e:	b0 91 a3 00 	lds	r27, 0x00A3
 442:	01 96       	adiw	r24, 0x01	; 1
 444:	a1 1d       	adc	r26, r1
 446:	b1 1d       	adc	r27, r1
 448:	80 93 a0 00 	sts	0x00A0, r24
 44c:	90 93 a1 00 	sts	0x00A1, r25
 450:	a0 93 a2 00 	sts	0x00A2, r26
 454:	b0 93 a3 00 	sts	0x00A3, r27
 458:	c2 1b       	sub	r28, r18
 45a:	d3 0b       	sbc	r29, r19
 45c:	d0 93 9f 00 	sts	0x009F, r29
 460:	c0 93 9e 00 	sts	0x009E, r28
 464:	df 91       	pop	r29
 466:	cf 91       	pop	r28
 468:	08 95       	ret

0000046a <SetDistance>:
 46a:	dc 01       	movw	r26, r24
 46c:	cb 01       	movw	r24, r22
 46e:	80 93 a0 00 	sts	0x00A0, r24
 472:	90 93 a1 00 	sts	0x00A1, r25
 476:	a0 93 a2 00 	sts	0x00A2, r26
 47a:	b0 93 a3 00 	sts	0x00A3, r27
 47e:	08 95       	ret

00000480 <GetDistance>:
 480:	60 91 a0 00 	lds	r22, 0x00A0
 484:	70 91 a1 00 	lds	r23, 0x00A1
 488:	80 91 a2 00 	lds	r24, 0x00A2
 48c:	90 91 a3 00 	lds	r25, 0x00A3
 490:	08 95       	ret

00000492 <SetCircumfirunce>:
 492:	90 93 7c 00 	sts	0x007C, r25
 496:	80 93 7b 00 	sts	0x007B, r24
 49a:	08 95       	ret

0000049c <GetAvgSpeed>:
 49c:	cf 93       	push	r28
 49e:	df 93       	push	r29
 4a0:	81 30       	cpi	r24, 0x01	; 1
 4a2:	29 f4       	brne	.+10     	; 0x4ae <GetAvgSpeed+0x12>
 4a4:	68 e6       	ldi	r22, 0x68	; 104
 4a6:	71 e0       	ldi	r23, 0x01	; 1
 4a8:	80 e0       	ldi	r24, 0x00	; 0
 4aa:	90 e0       	ldi	r25, 0x00	; 0
 4ac:	04 c0       	rjmp	.+8      	; 0x4b6 <GetAvgSpeed+0x1a>
 4ae:	61 ee       	ldi	r22, 0xE1	; 225
 4b0:	70 e0       	ldi	r23, 0x00	; 0
 4b2:	80 e0       	ldi	r24, 0x00	; 0
 4b4:	90 e0       	ldi	r25, 0x00	; 0
 4b6:	c0 91 9c 00 	lds	r28, 0x009C
 4ba:	d0 91 9d 00 	lds	r29, 0x009D
 4be:	20 97       	sbiw	r28, 0x00	; 0
 4c0:	69 f0       	breq	.+26     	; 0x4dc <GetAvgSpeed+0x40>
 4c2:	20 91 7b 00 	lds	r18, 0x007B
 4c6:	30 91 7c 00 	lds	r19, 0x007C
 4ca:	40 e0       	ldi	r20, 0x00	; 0
 4cc:	50 e0       	ldi	r21, 0x00	; 0
 4ce:	8a d1       	rcall	.+788    	; 0x7e4 <__mulsi3>
 4d0:	9e 01       	movw	r18, r28
 4d2:	40 e0       	ldi	r20, 0x00	; 0
 4d4:	50 e0       	ldi	r21, 0x00	; 0
 4d6:	b9 d1       	rcall	.+882    	; 0x84a <__udivmodsi4>
 4d8:	c9 01       	movw	r24, r18
 4da:	02 c0       	rjmp	.+4      	; 0x4e0 <GetAvgSpeed+0x44>
 4dc:	80 e0       	ldi	r24, 0x00	; 0
 4de:	90 e0       	ldi	r25, 0x00	; 0
 4e0:	20 91 96 00 	lds	r18, 0x0096
 4e4:	20 34       	cpi	r18, 0x40	; 64
 4e6:	11 f4       	brne	.+4      	; 0x4ec <GetAvgSpeed+0x50>
 4e8:	80 e0       	ldi	r24, 0x00	; 0
 4ea:	90 e0       	ldi	r25, 0x00	; 0
 4ec:	df 91       	pop	r29
 4ee:	cf 91       	pop	r28
 4f0:	08 95       	ret

000004f2 <HWtimerCallback>:
 4f2:	80 91 96 00 	lds	r24, 0x0096
 4f6:	80 34       	cpi	r24, 0x40	; 64
 4f8:	28 f4       	brcc	.+10     	; 0x504 <HWtimerCallback+0x12>
 4fa:	80 91 96 00 	lds	r24, 0x0096
 4fe:	8f 5f       	subi	r24, 0xFF	; 255
 500:	80 93 96 00 	sts	0x0096, r24
 504:	08 95       	ret

00000506 <APP_ISR1>:
 506:	29 df       	rcall	.-430    	; 0x35a <SensorOneNotify>
 508:	08 95       	ret

0000050a <APP_ISR2>:
 50a:	38 df       	rcall	.-400    	; 0x37c <SensorTwoNotify>
 50c:	08 95       	ret

0000050e <APP_ISR3>:
 50e:	f1 df       	rcall	.-30     	; 0x4f2 <HWtimerCallback>
 510:	08 95       	ret

00000512 <ManageDrivers>:
 512:	80 e0       	ldi	r24, 0x00	; 0
 514:	92 de       	rcall	.-732    	; 0x23a <MangeKeys>
 516:	81 e0       	ldi	r24, 0x01	; 1
 518:	90 de       	rcall	.-736    	; 0x23a <MangeKeys>
 51a:	08 95       	ret

0000051c <ManageSpeedCalc>:
 51c:	52 df       	rcall	.-348    	; 0x3c2 <SpeedCalcManage>
 51e:	08 95       	ret

00000520 <ManageApplication>:
 520:	9f dd       	rcall	.-1218   	; 0x60 <APP_MANAGE>
 522:	08 95       	ret

00000524 <DisplayAlphaNumeric>:
 524:	22 de       	rcall	.-956    	; 0x16a <BCDManage7segment>
 526:	08 95       	ret

00000528 <Start_App>:
 528:	94 d0       	rcall	.+296    	; 0x652 <HWI_INTERRUPTS_INTITALIZE>
 52a:	5a d0       	rcall	.+180    	; 0x5e0 <HWI_DIGITAL_INITIALIZE>
 52c:	15 df       	rcall	.-470    	; 0x358 <SpeedCalcNotifyInitialize>
 52e:	97 dd       	rcall	.-1234   	; 0x5e <APP_INITIALIZE>
 530:	81 e0       	ldi	r24, 0x01	; 1
 532:	da dd       	rcall	.-1100   	; 0xe8 <BCDInitialize>
 534:	8e e8       	ldi	r24, 0x8E	; 142
 536:	92 e0       	ldi	r25, 0x02	; 2
 538:	60 e0       	ldi	r22, 0x00	; 0
 53a:	44 e1       	ldi	r20, 0x14	; 20
 53c:	11 d0       	rcall	.+34     	; 0x560 <CreateTask>
 53e:	80 e9       	ldi	r24, 0x90	; 144
 540:	92 e0       	ldi	r25, 0x02	; 2
 542:	62 e0       	ldi	r22, 0x02	; 2
 544:	44 e6       	ldi	r20, 0x64	; 100
 546:	0c d0       	rcall	.+24     	; 0x560 <CreateTask>
 548:	82 e9       	ldi	r24, 0x92	; 146
 54a:	92 e0       	ldi	r25, 0x02	; 2
 54c:	61 e0       	ldi	r22, 0x01	; 1
 54e:	44 e0       	ldi	r20, 0x04	; 4
 550:	07 d0       	rcall	.+14     	; 0x560 <CreateTask>
 552:	89 e8       	ldi	r24, 0x89	; 137
 554:	92 e0       	ldi	r25, 0x02	; 2
 556:	63 e0       	ldi	r22, 0x03	; 3
 558:	4a e0       	ldi	r20, 0x0A	; 10
 55a:	02 d0       	rcall	.+4      	; 0x560 <CreateTask>
 55c:	1b d0       	rcall	.+54     	; 0x594 <RunScheduler>
 55e:	08 95       	ret

00000560 <CreateTask>:
 560:	64 30       	cpi	r22, 0x04	; 4
 562:	60 f4       	brcc	.+24     	; 0x57c <CreateTask+0x1c>
 564:	e6 2f       	mov	r30, r22
 566:	f0 e0       	ldi	r31, 0x00	; 0
 568:	ee 0f       	add	r30, r30
 56a:	ff 1f       	adc	r31, r31
 56c:	ee 0f       	add	r30, r30
 56e:	ff 1f       	adc	r31, r31
 570:	ec 55       	subi	r30, 0x5C	; 92
 572:	ff 4f       	sbci	r31, 0xFF	; 255
 574:	91 83       	std	Z+1, r25	; 0x01
 576:	80 83       	st	Z, r24
 578:	42 83       	std	Z+2, r20	; 0x02
 57a:	13 82       	std	Z+3, r1	; 0x03
 57c:	08 95       	ret

0000057e <SchedulerTick>:
 57e:	e7 ea       	ldi	r30, 0xA7	; 167
 580:	f0 e0       	ldi	r31, 0x00	; 0
 582:	84 e0       	ldi	r24, 0x04	; 4
 584:	90 81       	ld	r25, Z
 586:	9f 5f       	subi	r25, 0xFF	; 255
 588:	90 83       	st	Z, r25
 58a:	81 50       	subi	r24, 0x01	; 1
 58c:	34 96       	adiw	r30, 0x04	; 4
 58e:	88 23       	and	r24, r24
 590:	c9 f7       	brne	.-14     	; 0x584 <SchedulerTick+0x6>
 592:	08 95       	ret

00000594 <RunScheduler>:
 594:	10 92 b4 00 	sts	0x00B4, r1
 598:	1e c0       	rjmp	.+60     	; 0x5d6 <RunScheduler+0x42>
 59a:	f0 e0       	ldi	r31, 0x00	; 0
 59c:	ee 0f       	add	r30, r30
 59e:	ff 1f       	adc	r31, r31
 5a0:	ee 0f       	add	r30, r30
 5a2:	ff 1f       	adc	r31, r31
 5a4:	ec 55       	subi	r30, 0x5C	; 92
 5a6:	ff 4f       	sbci	r31, 0xFF	; 255
 5a8:	92 81       	ldd	r25, Z+2	; 0x02
 5aa:	83 81       	ldd	r24, Z+3	; 0x03
 5ac:	89 17       	cp	r24, r25
 5ae:	70 f0       	brcs	.+28     	; 0x5cc <RunScheduler+0x38>
 5b0:	01 90       	ld	r0, Z+
 5b2:	f0 81       	ld	r31, Z
 5b4:	e0 2d       	mov	r30, r0
 5b6:	09 95       	icall
 5b8:	e0 91 b4 00 	lds	r30, 0x00B4
 5bc:	f0 e0       	ldi	r31, 0x00	; 0
 5be:	ee 0f       	add	r30, r30
 5c0:	ff 1f       	adc	r31, r31
 5c2:	ee 0f       	add	r30, r30
 5c4:	ff 1f       	adc	r31, r31
 5c6:	ec 55       	subi	r30, 0x5C	; 92
 5c8:	ff 4f       	sbci	r31, 0xFF	; 255
 5ca:	13 82       	std	Z+3, r1	; 0x03
 5cc:	80 91 b4 00 	lds	r24, 0x00B4
 5d0:	8f 5f       	subi	r24, 0xFF	; 255
 5d2:	80 93 b4 00 	sts	0x00B4, r24
 5d6:	e0 91 b4 00 	lds	r30, 0x00B4
 5da:	e4 30       	cpi	r30, 0x04	; 4
 5dc:	d8 f6       	brcc	.-74     	; 0x594 <RunScheduler>
 5de:	dd cf       	rjmp	.-70     	; 0x59a <RunScheduler+0x6>

000005e0 <HWI_DIGITAL_INITIALIZE>:
 5e0:	8f ef       	ldi	r24, 0xFF	; 255
 5e2:	87 bb       	out	0x17, r24	; 23
 5e4:	84 bb       	out	0x14, r24	; 20
 5e6:	11 ba       	out	0x11, r1	; 17
 5e8:	82 bb       	out	0x12, r24	; 18
 5ea:	08 95       	ret

000005ec <HWI_DIGI_READ>:
 5ec:	8f 30       	cpi	r24, 0x0F	; 15
 5ee:	19 f0       	breq	.+6      	; 0x5f6 <HWI_DIGI_READ+0xa>
 5f0:	80 31       	cpi	r24, 0x10	; 16
 5f2:	39 f4       	brne	.+14     	; 0x602 <HWI_DIGI_READ+0x16>
 5f4:	03 c0       	rjmp	.+6      	; 0x5fc <HWI_DIGI_READ+0x10>
 5f6:	80 b3       	in	r24, 0x10	; 16
 5f8:	80 71       	andi	r24, 0x10	; 16
 5fa:	08 95       	ret
 5fc:	80 b3       	in	r24, 0x10	; 16
 5fe:	80 72       	andi	r24, 0x20	; 32
 600:	08 95       	ret
 602:	80 e0       	ldi	r24, 0x00	; 0
 604:	08 95       	ret

00000606 <HWI_DIGI_WRITE>:
 606:	08 95       	ret

00000608 <HWI_4Digit_WRITE>:
 608:	88 23       	and	r24, r24
 60a:	29 f4       	brne	.+10     	; 0x616 <HWI_4Digit_WRITE+0xe>
 60c:	85 b3       	in	r24, 0x15	; 21
 60e:	80 7f       	andi	r24, 0xF0	; 240
 610:	86 2b       	or	r24, r22
 612:	85 bb       	out	0x15, r24	; 21
 614:	08 95       	ret
 616:	88 b3       	in	r24, 0x18	; 24
 618:	80 7f       	andi	r24, 0xF0	; 240
 61a:	86 2b       	or	r24, r22
 61c:	88 bb       	out	0x18, r24	; 24
 61e:	08 95       	ret

00000620 <HWI_4Digit_READ>:
 620:	88 23       	and	r24, r24
 622:	19 f0       	breq	.+6      	; 0x62a <HWI_4Digit_READ+0xa>
 624:	81 30       	cpi	r24, 0x01	; 1
 626:	31 f4       	brne	.+12     	; 0x634 <HWI_4Digit_READ+0x14>
 628:	02 c0       	rjmp	.+4      	; 0x62e <HWI_4Digit_READ+0xe>
 62a:	83 b3       	in	r24, 0x13	; 19
 62c:	01 c0       	rjmp	.+2      	; 0x630 <HWI_4Digit_READ+0x10>
 62e:	86 b3       	in	r24, 0x16	; 22
 630:	8f 70       	andi	r24, 0x0F	; 15
 632:	08 95       	ret
 634:	86 b3       	in	r24, 0x16	; 22
 636:	8f 70       	andi	r24, 0x0F	; 15
 638:	08 95       	ret

0000063a <HWI_8Digit_WRITE>:
 63a:	88 23       	and	r24, r24
 63c:	11 f4       	brne	.+4      	; 0x642 <HWI_8Digit_WRITE+0x8>
 63e:	65 bb       	out	0x15, r22	; 21
 640:	08 95       	ret
 642:	68 bb       	out	0x18, r22	; 24
 644:	08 95       	ret

00000646 <HWI8Digit_READ>:
 646:	88 23       	and	r24, r24
 648:	11 f0       	breq	.+4      	; 0x64e <HWI8Digit_READ+0x8>
 64a:	86 b3       	in	r24, 0x16	; 22
 64c:	08 95       	ret
 64e:	83 b3       	in	r24, 0x13	; 19
 650:	08 95       	ret

00000652 <HWI_INTERRUPTS_INTITALIZE>:
 652:	8e b5       	in	r24, 0x2e	; 46
 654:	82 60       	ori	r24, 0x02	; 2
 656:	8e bd       	out	0x2e, r24	; 46
 658:	8f ef       	ldi	r24, 0xFF	; 255
 65a:	9f e7       	ldi	r25, 0x7F	; 127
 65c:	9d bd       	out	0x2d, r25	; 45
 65e:	8c bd       	out	0x2c, r24	; 44
 660:	83 b7       	in	r24, 0x33	; 51
 662:	83 60       	ori	r24, 0x03	; 3
 664:	83 bf       	out	0x33, r24	; 51
 666:	82 ec       	ldi	r24, 0xC2	; 194
 668:	82 bf       	out	0x32, r24	; 50
 66a:	89 b7       	in	r24, 0x39	; 57
 66c:	81 60       	ori	r24, 0x01	; 1
 66e:	89 bf       	out	0x39, r24	; 57
 670:	89 b7       	in	r24, 0x39	; 57
 672:	84 60       	ori	r24, 0x04	; 4
 674:	89 bf       	out	0x39, r24	; 57
 676:	8b b7       	in	r24, 0x3b	; 59
 678:	80 64       	ori	r24, 0x40	; 64
 67a:	8b bf       	out	0x3b, r24	; 59
 67c:	85 b7       	in	r24, 0x35	; 53
 67e:	83 60       	ori	r24, 0x03	; 3
 680:	85 bf       	out	0x35, r24	; 53
 682:	8b b7       	in	r24, 0x3b	; 59
 684:	80 68       	ori	r24, 0x80	; 128
 686:	8b bf       	out	0x3b, r24	; 59
 688:	85 b7       	in	r24, 0x35	; 53
 68a:	8c 60       	ori	r24, 0x0C	; 12
 68c:	85 bf       	out	0x35, r24	; 53
 68e:	81 b3       	in	r24, 0x11	; 17
 690:	8c 60       	ori	r24, 0x0C	; 12
 692:	81 bb       	out	0x11, r24	; 17
 694:	78 94       	sei
 696:	08 95       	ret

00000698 <ReloadHWtimer>:
 698:	83 30       	cpi	r24, 0x03	; 3
 69a:	58 f4       	brcc	.+22     	; 0x6b2 <ReloadHWtimer+0x1a>
 69c:	8c b5       	in	r24, 0x2c	; 44
 69e:	9d b5       	in	r25, 0x2d	; 45
 6a0:	8f 5f       	subi	r24, 0xFF	; 255
 6a2:	9f 47       	sbci	r25, 0x7F	; 127
 6a4:	88 0f       	add	r24, r24
 6a6:	99 1f       	adc	r25, r25
 6a8:	2f ef       	ldi	r18, 0xFF	; 255
 6aa:	3f e7       	ldi	r19, 0x7F	; 127
 6ac:	3d bd       	out	0x2d, r19	; 45
 6ae:	2c bd       	out	0x2c, r18	; 44
 6b0:	08 95       	ret
 6b2:	80 e0       	ldi	r24, 0x00	; 0
 6b4:	90 e0       	ldi	r25, 0x00	; 0
 6b6:	08 95       	ret

000006b8 <__vector_9>:
 6b8:	1f 92       	push	r1
 6ba:	0f 92       	push	r0
 6bc:	0f b6       	in	r0, 0x3f	; 63
 6be:	0f 92       	push	r0
 6c0:	11 24       	eor	r1, r1
 6c2:	2f 93       	push	r18
 6c4:	3f 93       	push	r19
 6c6:	4f 93       	push	r20
 6c8:	5f 93       	push	r21
 6ca:	6f 93       	push	r22
 6cc:	7f 93       	push	r23
 6ce:	8f 93       	push	r24
 6d0:	9f 93       	push	r25
 6d2:	af 93       	push	r26
 6d4:	bf 93       	push	r27
 6d6:	ef 93       	push	r30
 6d8:	ff 93       	push	r31
 6da:	82 ec       	ldi	r24, 0xC2	; 194
 6dc:	82 bf       	out	0x32, r24	; 50
 6de:	4f df       	rcall	.-354    	; 0x57e <SchedulerTick>
 6e0:	ff 91       	pop	r31
 6e2:	ef 91       	pop	r30
 6e4:	bf 91       	pop	r27
 6e6:	af 91       	pop	r26
 6e8:	9f 91       	pop	r25
 6ea:	8f 91       	pop	r24
 6ec:	7f 91       	pop	r23
 6ee:	6f 91       	pop	r22
 6f0:	5f 91       	pop	r21
 6f2:	4f 91       	pop	r20
 6f4:	3f 91       	pop	r19
 6f6:	2f 91       	pop	r18
 6f8:	0f 90       	pop	r0
 6fa:	0f be       	out	0x3f, r0	; 63
 6fc:	0f 90       	pop	r0
 6fe:	1f 90       	pop	r1
 700:	18 95       	reti

00000702 <__vector_8>:
 702:	1f 92       	push	r1
 704:	0f 92       	push	r0
 706:	0f b6       	in	r0, 0x3f	; 63
 708:	0f 92       	push	r0
 70a:	11 24       	eor	r1, r1
 70c:	2f 93       	push	r18
 70e:	3f 93       	push	r19
 710:	4f 93       	push	r20
 712:	5f 93       	push	r21
 714:	6f 93       	push	r22
 716:	7f 93       	push	r23
 718:	8f 93       	push	r24
 71a:	9f 93       	push	r25
 71c:	af 93       	push	r26
 71e:	bf 93       	push	r27
 720:	ef 93       	push	r30
 722:	ff 93       	push	r31
 724:	8f ef       	ldi	r24, 0xFF	; 255
 726:	9f e7       	ldi	r25, 0x7F	; 127
 728:	9d bd       	out	0x2d, r25	; 45
 72a:	8c bd       	out	0x2c, r24	; 44
 72c:	f0 de       	rcall	.-544    	; 0x50e <APP_ISR3>
 72e:	ff 91       	pop	r31
 730:	ef 91       	pop	r30
 732:	bf 91       	pop	r27
 734:	af 91       	pop	r26
 736:	9f 91       	pop	r25
 738:	8f 91       	pop	r24
 73a:	7f 91       	pop	r23
 73c:	6f 91       	pop	r22
 73e:	5f 91       	pop	r21
 740:	4f 91       	pop	r20
 742:	3f 91       	pop	r19
 744:	2f 91       	pop	r18
 746:	0f 90       	pop	r0
 748:	0f be       	out	0x3f, r0	; 63
 74a:	0f 90       	pop	r0
 74c:	1f 90       	pop	r1
 74e:	18 95       	reti

00000750 <__vector_1>:
 750:	1f 92       	push	r1
 752:	0f 92       	push	r0
 754:	0f b6       	in	r0, 0x3f	; 63
 756:	0f 92       	push	r0
 758:	11 24       	eor	r1, r1
 75a:	2f 93       	push	r18
 75c:	3f 93       	push	r19
 75e:	4f 93       	push	r20
 760:	5f 93       	push	r21
 762:	6f 93       	push	r22
 764:	7f 93       	push	r23
 766:	8f 93       	push	r24
 768:	9f 93       	push	r25
 76a:	af 93       	push	r26
 76c:	bf 93       	push	r27
 76e:	ef 93       	push	r30
 770:	ff 93       	push	r31
 772:	c9 de       	rcall	.-622    	; 0x506 <APP_ISR1>
 774:	ff 91       	pop	r31
 776:	ef 91       	pop	r30
 778:	bf 91       	pop	r27
 77a:	af 91       	pop	r26
 77c:	9f 91       	pop	r25
 77e:	8f 91       	pop	r24
 780:	7f 91       	pop	r23
 782:	6f 91       	pop	r22
 784:	5f 91       	pop	r21
 786:	4f 91       	pop	r20
 788:	3f 91       	pop	r19
 78a:	2f 91       	pop	r18
 78c:	0f 90       	pop	r0
 78e:	0f be       	out	0x3f, r0	; 63
 790:	0f 90       	pop	r0
 792:	1f 90       	pop	r1
 794:	18 95       	reti

00000796 <__vector_2>:
 796:	1f 92       	push	r1
 798:	0f 92       	push	r0
 79a:	0f b6       	in	r0, 0x3f	; 63
 79c:	0f 92       	push	r0
 79e:	11 24       	eor	r1, r1
 7a0:	2f 93       	push	r18
 7a2:	3f 93       	push	r19
 7a4:	4f 93       	push	r20
 7a6:	5f 93       	push	r21
 7a8:	6f 93       	push	r22
 7aa:	7f 93       	push	r23
 7ac:	8f 93       	push	r24
 7ae:	9f 93       	push	r25
 7b0:	af 93       	push	r26
 7b2:	bf 93       	push	r27
 7b4:	ef 93       	push	r30
 7b6:	ff 93       	push	r31
 7b8:	a8 de       	rcall	.-688    	; 0x50a <APP_ISR2>
 7ba:	ff 91       	pop	r31
 7bc:	ef 91       	pop	r30
 7be:	bf 91       	pop	r27
 7c0:	af 91       	pop	r26
 7c2:	9f 91       	pop	r25
 7c4:	8f 91       	pop	r24
 7c6:	7f 91       	pop	r23
 7c8:	6f 91       	pop	r22
 7ca:	5f 91       	pop	r21
 7cc:	4f 91       	pop	r20
 7ce:	3f 91       	pop	r19
 7d0:	2f 91       	pop	r18
 7d2:	0f 90       	pop	r0
 7d4:	0f be       	out	0x3f, r0	; 63
 7d6:	0f 90       	pop	r0
 7d8:	1f 90       	pop	r1
 7da:	18 95       	reti

000007dc <main>:
 7dc:	a5 de       	rcall	.-694    	; 0x528 <Start_App>
 7de:	80 e0       	ldi	r24, 0x00	; 0
 7e0:	90 e0       	ldi	r25, 0x00	; 0
 7e2:	08 95       	ret

000007e4 <__mulsi3>:
 7e4:	62 9f       	mul	r22, r18
 7e6:	d0 01       	movw	r26, r0
 7e8:	73 9f       	mul	r23, r19
 7ea:	f0 01       	movw	r30, r0
 7ec:	82 9f       	mul	r24, r18
 7ee:	e0 0d       	add	r30, r0
 7f0:	f1 1d       	adc	r31, r1
 7f2:	64 9f       	mul	r22, r20
 7f4:	e0 0d       	add	r30, r0
 7f6:	f1 1d       	adc	r31, r1
 7f8:	92 9f       	mul	r25, r18
 7fa:	f0 0d       	add	r31, r0
 7fc:	83 9f       	mul	r24, r19
 7fe:	f0 0d       	add	r31, r0
 800:	74 9f       	mul	r23, r20
 802:	f0 0d       	add	r31, r0
 804:	65 9f       	mul	r22, r21
 806:	f0 0d       	add	r31, r0
 808:	99 27       	eor	r25, r25
 80a:	72 9f       	mul	r23, r18
 80c:	b0 0d       	add	r27, r0
 80e:	e1 1d       	adc	r30, r1
 810:	f9 1f       	adc	r31, r25
 812:	63 9f       	mul	r22, r19
 814:	b0 0d       	add	r27, r0
 816:	e1 1d       	adc	r30, r1
 818:	f9 1f       	adc	r31, r25
 81a:	bd 01       	movw	r22, r26
 81c:	cf 01       	movw	r24, r30
 81e:	11 24       	eor	r1, r1
 820:	08 95       	ret

00000822 <__udivmodhi4>:
 822:	aa 1b       	sub	r26, r26
 824:	bb 1b       	sub	r27, r27
 826:	51 e1       	ldi	r21, 0x11	; 17
 828:	07 c0       	rjmp	.+14     	; 0x838 <__udivmodhi4_ep>

0000082a <__udivmodhi4_loop>:
 82a:	aa 1f       	adc	r26, r26
 82c:	bb 1f       	adc	r27, r27
 82e:	a6 17       	cp	r26, r22
 830:	b7 07       	cpc	r27, r23
 832:	10 f0       	brcs	.+4      	; 0x838 <__udivmodhi4_ep>
 834:	a6 1b       	sub	r26, r22
 836:	b7 0b       	sbc	r27, r23

00000838 <__udivmodhi4_ep>:
 838:	88 1f       	adc	r24, r24
 83a:	99 1f       	adc	r25, r25
 83c:	5a 95       	dec	r21
 83e:	a9 f7       	brne	.-22     	; 0x82a <__udivmodhi4_loop>
 840:	80 95       	com	r24
 842:	90 95       	com	r25
 844:	bc 01       	movw	r22, r24
 846:	cd 01       	movw	r24, r26
 848:	08 95       	ret

0000084a <__udivmodsi4>:
 84a:	a1 e2       	ldi	r26, 0x21	; 33
 84c:	1a 2e       	mov	r1, r26
 84e:	aa 1b       	sub	r26, r26
 850:	bb 1b       	sub	r27, r27
 852:	fd 01       	movw	r30, r26
 854:	0d c0       	rjmp	.+26     	; 0x870 <__udivmodsi4_ep>

00000856 <__udivmodsi4_loop>:
 856:	aa 1f       	adc	r26, r26
 858:	bb 1f       	adc	r27, r27
 85a:	ee 1f       	adc	r30, r30
 85c:	ff 1f       	adc	r31, r31
 85e:	a2 17       	cp	r26, r18
 860:	b3 07       	cpc	r27, r19
 862:	e4 07       	cpc	r30, r20
 864:	f5 07       	cpc	r31, r21
 866:	20 f0       	brcs	.+8      	; 0x870 <__udivmodsi4_ep>
 868:	a2 1b       	sub	r26, r18
 86a:	b3 0b       	sbc	r27, r19
 86c:	e4 0b       	sbc	r30, r20
 86e:	f5 0b       	sbc	r31, r21

00000870 <__udivmodsi4_ep>:
 870:	66 1f       	adc	r22, r22
 872:	77 1f       	adc	r23, r23
 874:	88 1f       	adc	r24, r24
 876:	99 1f       	adc	r25, r25
 878:	1a 94       	dec	r1
 87a:	69 f7       	brne	.-38     	; 0x856 <__udivmodsi4_loop>
 87c:	60 95       	com	r22
 87e:	70 95       	com	r23
 880:	80 95       	com	r24
 882:	90 95       	com	r25
 884:	9b 01       	movw	r18, r22
 886:	ac 01       	movw	r20, r24
 888:	bd 01       	movw	r22, r26
 88a:	cf 01       	movw	r24, r30
 88c:	08 95       	ret

0000088e <_exit>:
 88e:	f8 94       	cli

00000890 <__stop_program>:
 890:	ff cf       	rjmp	.-2      	; 0x890 <__stop_program>
