
BicMeter.elf:     file format elf32-avr

Sections:
Idx Name          Size      VMA       LMA       File off  Algn
  0 .text         000014fa  00000000  00000000  00000094  2**1
                  CONTENTS, ALLOC, LOAD, READONLY, CODE
  1 .data         00000044  00800060  000014fa  0000158e  2**0
                  CONTENTS, ALLOC, LOAD, DATA
  2 .bss          000000b3  008000a4  008000a4  000015d2  2**0
                  ALLOC
  3 .stab         000006cc  00000000  00000000  000015d4  2**2
                  CONTENTS, READONLY, DEBUGGING
  4 .stabstr      00000085  00000000  00000000  00001ca0  2**0
                  CONTENTS, READONLY, DEBUGGING
  5 .debug_aranges 000000c0  00000000  00000000  00001d28  2**3
                  CONTENTS, READONLY, DEBUGGING
  6 .debug_info   0000052e  00000000  00000000  00001de8  2**0
                  CONTENTS, READONLY, DEBUGGING
  7 .debug_abbrev 00000078  00000000  00000000  00002316  2**0
                  CONTENTS, READONLY, DEBUGGING
  8 .debug_line   0000038e  00000000  00000000  0000238e  2**0
                  CONTENTS, READONLY, DEBUGGING

Disassembly of section .text:

00000000 <__vectors>:
       0:	12 c0       	rjmp	.+36     	; 0x26 <__ctors_end>
       2:	b5 c9       	rjmp	.-3222   	; 0xfffff36e <__eeprom_end+0xff7ef36e>
       4:	da c9       	rjmp	.-3148   	; 0xfffff3ba <__eeprom_end+0xff7ef3ba>
       6:	2a c0       	rjmp	.+84     	; 0x5c <__bad_interrupt>
       8:	29 c0       	rjmp	.+82     	; 0x5c <__bad_interrupt>
       a:	28 c0       	rjmp	.+80     	; 0x5c <__bad_interrupt>
       c:	27 c0       	rjmp	.+78     	; 0x5c <__bad_interrupt>
       e:	26 c0       	rjmp	.+76     	; 0x5c <__bad_interrupt>
      10:	87 c9       	rjmp	.-3314   	; 0xfffff320 <__eeprom_end+0xff7ef320>
      12:	61 c9       	rjmp	.-3390   	; 0xfffff2d6 <__eeprom_end+0xff7ef2d6>
      14:	23 c0       	rjmp	.+70     	; 0x5c <__bad_interrupt>
      16:	22 c0       	rjmp	.+68     	; 0x5c <__bad_interrupt>
      18:	21 c0       	rjmp	.+66     	; 0x5c <__bad_interrupt>
      1a:	20 c0       	rjmp	.+64     	; 0x5c <__bad_interrupt>
      1c:	1f c0       	rjmp	.+62     	; 0x5c <__bad_interrupt>
      1e:	1e c0       	rjmp	.+60     	; 0x5c <__bad_interrupt>
      20:	1d c0       	rjmp	.+58     	; 0x5c <__bad_interrupt>
      22:	1c c0       	rjmp	.+56     	; 0x5c <__bad_interrupt>
      24:	1b c0       	rjmp	.+54     	; 0x5c <__bad_interrupt>

00000026 <__ctors_end>:
      26:	11 24       	eor	r1, r1
      28:	1f be       	out	0x3f, r1	; 63
      2a:	cf e5       	ldi	r28, 0x5F	; 95
      2c:	d4 e0       	ldi	r29, 0x04	; 4
      2e:	de bf       	out	0x3e, r29	; 62
      30:	cd bf       	out	0x3d, r28	; 61

00000032 <__do_copy_data>:
      32:	10 e0       	ldi	r17, 0x00	; 0
      34:	a0 e6       	ldi	r26, 0x60	; 96
      36:	b0 e0       	ldi	r27, 0x00	; 0
      38:	ea ef       	ldi	r30, 0xFA	; 250
      3a:	f4 e1       	ldi	r31, 0x14	; 20
      3c:	02 c0       	rjmp	.+4      	; 0x42 <__SREG__+0x3>
      3e:	05 90       	lpm	r0, Z+
      40:	0d 92       	st	X+, r0
      42:	a4 3a       	cpi	r26, 0xA4	; 164
      44:	b1 07       	cpc	r27, r17
      46:	d9 f7       	brne	.-10     	; 0x3e <__SP_H__>

00000048 <__do_clear_bss>:
      48:	11 e0       	ldi	r17, 0x01	; 1
      4a:	a4 ea       	ldi	r26, 0xA4	; 164
      4c:	b0 e0       	ldi	r27, 0x00	; 0
      4e:	01 c0       	rjmp	.+2      	; 0x52 <.do_clear_bss_start>

00000050 <.do_clear_bss_loop>:
      50:	1d 92       	st	X+, r1

00000052 <.do_clear_bss_start>:
      52:	a7 35       	cpi	r26, 0x57	; 87
      54:	b1 07       	cpc	r27, r17
      56:	e1 f7       	brne	.-8      	; 0x50 <.do_clear_bss_loop>
      58:	f5 d9       	rcall	.-3094   	; 0xfffff444 <__eeprom_end+0xff7ef444>
      5a:	4d ca       	rjmp	.-2918   	; 0xfffff4f6 <__eeprom_end+0xff7ef4f6>

0000005c <__bad_interrupt>:
      5c:	d1 cf       	rjmp	.-94     	; 0x0 <__vectors>

0000005e <IncrementDecrementSingleDigit>:
      5e:	cf 92       	push	r12
      60:	df 92       	push	r13
      62:	ef 92       	push	r14
      64:	ff 92       	push	r15
      66:	0f 93       	push	r16
      68:	1f 93       	push	r17
      6a:	cf 93       	push	r28
      6c:	df 93       	push	r29
      6e:	00 d0       	rcall	.+0      	; 0x70 <IncrementDecrementSingleDigit+0x12>
      70:	00 d0       	rcall	.+0      	; 0x72 <IncrementDecrementSingleDigit+0x14>
      72:	cd b7       	in	r28, 0x3d	; 61
      74:	de b7       	in	r29, 0x3e	; 62
      76:	9c 01       	movw	r18, r24
      78:	16 2f       	mov	r17, r22
      7a:	04 2f       	mov	r16, r20
      7c:	6e 01       	movw	r12, r28
      7e:	08 94       	sec
      80:	c1 1c       	adc	r12, r1
      82:	d1 1c       	adc	r13, r1
      84:	f6 01       	movw	r30, r12
      86:	44 e0       	ldi	r20, 0x04	; 4
      88:	aa e0       	ldi	r26, 0x0A	; 10
      8a:	ea 2e       	mov	r14, r26
      8c:	f1 2c       	mov	r15, r1
      8e:	21 15       	cp	r18, r1
      90:	31 05       	cpc	r19, r1
      92:	69 f0       	breq	.+26     	; 0xae <IncrementDecrementSingleDigit+0x50>
      94:	c9 01       	movw	r24, r18
      96:	b7 01       	movw	r22, r14
      98:	f8 d9       	rcall	.-3088   	; 0xfffff48a <__eeprom_end+0xff7ef48a>
      9a:	96 2f       	mov	r25, r22
      9c:	99 0f       	add	r25, r25
      9e:	89 2f       	mov	r24, r25
      a0:	88 0f       	add	r24, r24
      a2:	88 0f       	add	r24, r24
      a4:	89 0f       	add	r24, r25
      a6:	28 1b       	sub	r18, r24
      a8:	20 83       	st	Z, r18
      aa:	9b 01       	movw	r18, r22
      ac:	01 c0       	rjmp	.+2      	; 0xb0 <IncrementDecrementSingleDigit+0x52>
      ae:	10 82       	st	Z, r1
      b0:	41 50       	subi	r20, 0x01	; 1
      b2:	31 96       	adiw	r30, 0x01	; 1
      b4:	44 23       	and	r20, r20
      b6:	59 f7       	brne	.-42     	; 0x8e <IncrementDecrementSingleDigit+0x30>
      b8:	e1 2f       	mov	r30, r17
      ba:	f0 e0       	ldi	r31, 0x00	; 0
      bc:	00 23       	and	r16, r16
      be:	69 f4       	brne	.+26     	; 0xda <IncrementDecrementSingleDigit+0x7c>
      c0:	81 e0       	ldi	r24, 0x01	; 1
      c2:	90 e0       	ldi	r25, 0x00	; 0
      c4:	8c 0f       	add	r24, r28
      c6:	9d 1f       	adc	r25, r29
      c8:	e8 0f       	add	r30, r24
      ca:	f9 1f       	adc	r31, r25
      cc:	80 81       	ld	r24, Z
      ce:	88 23       	and	r24, r24
      d0:	11 f4       	brne	.+4      	; 0xd6 <IncrementDecrementSingleDigit+0x78>
      d2:	89 e0       	ldi	r24, 0x09	; 9
      d4:	0e c0       	rjmp	.+28     	; 0xf2 <IncrementDecrementSingleDigit+0x94>
      d6:	81 50       	subi	r24, 0x01	; 1
      d8:	0c c0       	rjmp	.+24     	; 0xf2 <IncrementDecrementSingleDigit+0x94>
      da:	a1 e0       	ldi	r26, 0x01	; 1
      dc:	b0 e0       	ldi	r27, 0x00	; 0
      de:	ac 0f       	add	r26, r28
      e0:	bd 1f       	adc	r27, r29
      e2:	ea 0f       	add	r30, r26
      e4:	fb 1f       	adc	r31, r27
      e6:	80 81       	ld	r24, Z
      e8:	89 30       	cpi	r24, 0x09	; 9
      ea:	11 f4       	brne	.+4      	; 0xf0 <IncrementDecrementSingleDigit+0x92>
      ec:	10 82       	st	Z, r1
      ee:	02 c0       	rjmp	.+4      	; 0xf4 <IncrementDecrementSingleDigit+0x96>
      f0:	8f 5f       	subi	r24, 0xFF	; 255
      f2:	80 83       	st	Z, r24
      f4:	20 e0       	ldi	r18, 0x00	; 0
      f6:	60 e0       	ldi	r22, 0x00	; 0
      f8:	70 e0       	ldi	r23, 0x00	; 0
      fa:	1e c0       	rjmp	.+60     	; 0x138 <IncrementDecrementSingleDigit+0xda>
      fc:	ca 01       	movw	r24, r20
      fe:	88 0f       	add	r24, r24
     100:	99 1f       	adc	r25, r25
     102:	f3 e0       	ldi	r31, 0x03	; 3
     104:	44 0f       	add	r20, r20
     106:	55 1f       	adc	r21, r21
     108:	fa 95       	dec	r31
     10a:	e1 f7       	brne	.-8      	; 0x104 <IncrementDecrementSingleDigit+0xa6>
     10c:	48 0f       	add	r20, r24
     10e:	59 1f       	adc	r21, r25
     110:	ef 5f       	subi	r30, 0xFF	; 255
     112:	e2 17       	cp	r30, r18
     114:	99 f7       	brne	.-26     	; 0xfc <IncrementDecrementSingleDigit+0x9e>
     116:	d6 01       	movw	r26, r12
     118:	8d 91       	ld	r24, X+
     11a:	6d 01       	movw	r12, r26
     11c:	90 e0       	ldi	r25, 0x00	; 0
     11e:	48 9f       	mul	r20, r24
     120:	90 01       	movw	r18, r0
     122:	49 9f       	mul	r20, r25
     124:	30 0d       	add	r19, r0
     126:	58 9f       	mul	r21, r24
     128:	30 0d       	add	r19, r0
     12a:	11 24       	eor	r1, r1
     12c:	62 0f       	add	r22, r18
     12e:	73 1f       	adc	r23, r19
     130:	2e 2f       	mov	r18, r30
     132:	2f 5f       	subi	r18, 0xFF	; 255
     134:	24 30       	cpi	r18, 0x04	; 4
     136:	21 f0       	breq	.+8      	; 0x140 <IncrementDecrementSingleDigit+0xe2>
     138:	41 e0       	ldi	r20, 0x01	; 1
     13a:	50 e0       	ldi	r21, 0x00	; 0
     13c:	e0 e0       	ldi	r30, 0x00	; 0
     13e:	e9 cf       	rjmp	.-46     	; 0x112 <IncrementDecrementSingleDigit+0xb4>
     140:	cb 01       	movw	r24, r22
     142:	0f 90       	pop	r0
     144:	0f 90       	pop	r0
     146:	0f 90       	pop	r0
     148:	0f 90       	pop	r0
     14a:	df 91       	pop	r29
     14c:	cf 91       	pop	r28
     14e:	1f 91       	pop	r17
     150:	0f 91       	pop	r16
     152:	ff 90       	pop	r15
     154:	ef 90       	pop	r14
     156:	df 90       	pop	r13
     158:	cf 90       	pop	r12
     15a:	08 95       	ret

0000015c <APP_INITIALIZE>:
     15c:	81 e0       	ldi	r24, 0x01	; 1
     15e:	64 ea       	ldi	r22, 0xA4	; 164
     160:	70 e0       	ldi	r23, 0x00	; 0
     162:	4f e0       	ldi	r20, 0x0F	; 15
     164:	15 d5       	rcall	.+2602   	; 0xb90 <Eeprom_Read_Block>
     166:	80 91 a4 00 	lds	r24, 0x00A4
     16a:	90 91 a5 00 	lds	r25, 0x00A5
     16e:	27 e2       	ldi	r18, 0x27	; 39
     170:	80 31       	cpi	r24, 0x10	; 16
     172:	92 07       	cpc	r25, r18
     174:	30 f0       	brcs	.+12     	; 0x182 <APP_INITIALIZE+0x26>
     176:	80 ed       	ldi	r24, 0xD0	; 208
     178:	97 e0       	ldi	r25, 0x07	; 7
     17a:	90 93 a5 00 	sts	0x00A5, r25
     17e:	80 93 a4 00 	sts	0x00A4, r24
     182:	80 91 a9 00 	lds	r24, 0x00A9
     186:	90 91 aa 00 	lds	r25, 0x00AA
     18a:	a0 91 ab 00 	lds	r26, 0x00AB
     18e:	b0 91 ac 00 	lds	r27, 0x00AC
     192:	80 31       	cpi	r24, 0x10	; 16
     194:	27 e2       	ldi	r18, 0x27	; 39
     196:	92 07       	cpc	r25, r18
     198:	20 e0       	ldi	r18, 0x00	; 0
     19a:	a2 07       	cpc	r26, r18
     19c:	20 e0       	ldi	r18, 0x00	; 0
     19e:	b2 07       	cpc	r27, r18
     1a0:	40 f0       	brcs	.+16     	; 0x1b2 <APP_INITIALIZE+0x56>
     1a2:	10 92 a9 00 	sts	0x00A9, r1
     1a6:	10 92 aa 00 	sts	0x00AA, r1
     1aa:	10 92 ab 00 	sts	0x00AB, r1
     1ae:	10 92 ac 00 	sts	0x00AC, r1
     1b2:	80 91 a9 00 	lds	r24, 0x00A9
     1b6:	90 91 aa 00 	lds	r25, 0x00AA
     1ba:	a0 91 ab 00 	lds	r26, 0x00AB
     1be:	b0 91 ac 00 	lds	r27, 0x00AC
     1c2:	80 31       	cpi	r24, 0x10	; 16
     1c4:	27 e2       	ldi	r18, 0x27	; 39
     1c6:	92 07       	cpc	r25, r18
     1c8:	20 e0       	ldi	r18, 0x00	; 0
     1ca:	a2 07       	cpc	r26, r18
     1cc:	20 e0       	ldi	r18, 0x00	; 0
     1ce:	b2 07       	cpc	r27, r18
     1d0:	40 f0       	brcs	.+16     	; 0x1e2 <APP_INITIALIZE+0x86>
     1d2:	10 92 ad 00 	sts	0x00AD, r1
     1d6:	10 92 ae 00 	sts	0x00AE, r1
     1da:	10 92 af 00 	sts	0x00AF, r1
     1de:	10 92 b0 00 	sts	0x00B0, r1
     1e2:	80 91 b1 00 	lds	r24, 0x00B1
     1e6:	90 91 b2 00 	lds	r25, 0x00B2
     1ea:	27 e2       	ldi	r18, 0x27	; 39
     1ec:	80 31       	cpi	r24, 0x10	; 16
     1ee:	92 07       	cpc	r25, r18
     1f0:	20 f0       	brcs	.+8      	; 0x1fa <APP_INITIALIZE+0x9e>
     1f2:	10 92 b2 00 	sts	0x00B2, r1
     1f6:	10 92 b1 00 	sts	0x00B1, r1
     1fa:	80 91 a6 00 	lds	r24, 0x00A6
     1fe:	84 30       	cpi	r24, 0x04	; 4
     200:	10 f0       	brcs	.+4      	; 0x206 <APP_INITIALIZE+0xaa>
     202:	10 92 a6 00 	sts	0x00A6, r1
     206:	80 91 a4 00 	lds	r24, 0x00A4
     20a:	90 91 a5 00 	lds	r25, 0x00A5
     20e:	d4 d6       	rcall	.+3496   	; 0xfb8 <SetCircumfirunce>
     210:	60 91 a9 00 	lds	r22, 0x00A9
     214:	70 91 aa 00 	lds	r23, 0x00AA
     218:	80 91 ab 00 	lds	r24, 0x00AB
     21c:	90 91 ac 00 	lds	r25, 0x00AC
     220:	b3 d6       	rcall	.+3430   	; 0xf88 <SetDistance>
     222:	60 91 ad 00 	lds	r22, 0x00AD
     226:	70 91 ae 00 	lds	r23, 0x00AE
     22a:	80 91 af 00 	lds	r24, 0x00AF
     22e:	90 91 b0 00 	lds	r25, 0x00B0
     232:	27 d2       	rcall	.+1102   	; 0x682 <APP_CALC_TIMEsetTravelTime>
     234:	80 91 b1 00 	lds	r24, 0x00B1
     238:	90 91 b2 00 	lds	r25, 0x00B2
     23c:	09 d2       	rcall	.+1042   	; 0x650 <APP_CALC_MAXSPDmanage_Set>
     23e:	08 95       	ret

00000240 <ConvertMinutesHM>:
     240:	cf 93       	push	r28
     242:	c6 2f       	mov	r28, r22
     244:	2c e3       	ldi	r18, 0x3C	; 60
     246:	30 e0       	ldi	r19, 0x00	; 0
     248:	40 e0       	ldi	r20, 0x00	; 0
     24a:	50 e0       	ldi	r21, 0x00	; 0
     24c:	32 d9       	rcall	.-3484   	; 0xfffff4b2 <__eeprom_end+0xff7ef4b2>
     24e:	8c e3       	ldi	r24, 0x3C	; 60
     250:	28 9f       	mul	r18, r24
     252:	80 2d       	mov	r24, r0
     254:	11 24       	eor	r1, r1
     256:	c8 1b       	sub	r28, r24
     258:	44 e6       	ldi	r20, 0x64	; 100
     25a:	50 e0       	ldi	r21, 0x00	; 0
     25c:	24 9f       	mul	r18, r20
     25e:	c0 01       	movw	r24, r0
     260:	25 9f       	mul	r18, r21
     262:	90 0d       	add	r25, r0
     264:	34 9f       	mul	r19, r20
     266:	90 0d       	add	r25, r0
     268:	11 24       	eor	r1, r1
     26a:	8c 0f       	add	r24, r28
     26c:	91 1d       	adc	r25, r1
     26e:	cf 91       	pop	r28
     270:	08 95       	ret

00000272 <APP_MANAGE>:
     272:	8f 92       	push	r8
     274:	9f 92       	push	r9
     276:	af 92       	push	r10
     278:	bf 92       	push	r11
     27a:	cf 92       	push	r12
     27c:	df 92       	push	r13
     27e:	ef 92       	push	r14
     280:	ff 92       	push	r15
     282:	0f 93       	push	r16
     284:	1f 93       	push	r17
     286:	cf 93       	push	r28
     288:	df 93       	push	r29
     28a:	00 d0       	rcall	.+0      	; 0x28c <APP_MANAGE+0x1a>
     28c:	cd b7       	in	r28, 0x3d	; 61
     28e:	de b7       	in	r29, 0x3e	; 62
     290:	80 91 a7 00 	lds	r24, 0x00A7
     294:	90 91 a8 00 	lds	r25, 0x00A8
     298:	9a 83       	std	Y+2, r25	; 0x02
     29a:	89 83       	std	Y+1, r24	; 0x01
     29c:	8a 81       	ldd	r24, Y+2	; 0x02
     29e:	8d 7f       	andi	r24, 0xFD	; 253
     2a0:	8a 83       	std	Y+2, r24	; 0x02
     2a2:	ce 01       	movw	r24, r28
     2a4:	01 96       	adiw	r24, 0x01	; 1
     2a6:	32 d2       	rcall	.+1124   	; 0x70c <APP_HMImanage>
     2a8:	8a 81       	ldd	r24, Y+2	; 0x02
     2aa:	82 95       	swap	r24
     2ac:	81 70       	andi	r24, 0x01	; 1
     2ae:	69 d6       	rcall	.+3282   	; 0xf82 <DisableDistanceCntr>
     2b0:	7a d6       	rcall	.+3316   	; 0xfa6 <GetDistance>
     2b2:	dc 01       	movw	r26, r24
     2b4:	cb 01       	movw	r24, r22
     2b6:	80 93 a9 00 	sts	0x00A9, r24
     2ba:	90 93 aa 00 	sts	0x00AA, r25
     2be:	a0 93 ab 00 	sts	0x00AB, r26
     2c2:	b0 93 ac 00 	sts	0x00AC, r27
     2c6:	81 e0       	ldi	r24, 0x01	; 1
     2c8:	7c d6       	rcall	.+3320   	; 0xfc2 <GetAvgSpeed>
     2ca:	7c 01       	movw	r14, r24
     2cc:	00 97       	sbiw	r24, 0x00	; 0
     2ce:	81 f0       	breq	.+32     	; 0x2f0 <APP_MANAGE+0x7e>
     2d0:	ce 01       	movw	r24, r28
     2d2:	01 96       	adiw	r24, 0x01	; 1
     2d4:	e5 d1       	rcall	.+970    	; 0x6a0 <APP_CALC_TIMEmanage>
     2d6:	dc 01       	movw	r26, r24
     2d8:	cb 01       	movw	r24, r22
     2da:	80 93 ad 00 	sts	0x00AD, r24
     2de:	90 93 ae 00 	sts	0x00AE, r25
     2e2:	a0 93 af 00 	sts	0x00AF, r26
     2e6:	b0 93 b0 00 	sts	0x00B0, r27
     2ea:	8a 81       	ldd	r24, Y+2	; 0x02
     2ec:	8d 7f       	andi	r24, 0xFD	; 253
     2ee:	8a 83       	std	Y+2, r24	; 0x02
     2f0:	40 91 ad 00 	lds	r20, 0x00AD
     2f4:	50 91 ae 00 	lds	r21, 0x00AE
     2f8:	60 91 af 00 	lds	r22, 0x00AF
     2fc:	70 91 b0 00 	lds	r23, 0x00B0
     300:	00 91 a9 00 	lds	r16, 0x00A9
     304:	10 91 aa 00 	lds	r17, 0x00AA
     308:	20 91 ab 00 	lds	r18, 0x00AB
     30c:	30 91 ac 00 	lds	r19, 0x00AC
     310:	ce 01       	movw	r24, r28
     312:	01 96       	adiw	r24, 0x01	; 1
     314:	7b d1       	rcall	.+758    	; 0x60c <APP_CALC_AVGSPDmanage>
     316:	8c 01       	movw	r16, r24
     318:	ce 01       	movw	r24, r28
     31a:	01 96       	adiw	r24, 0x01	; 1
     31c:	b7 01       	movw	r22, r14
     31e:	9d d1       	rcall	.+826    	; 0x65a <APP_CALC_MAXSPDmanage>
     320:	90 93 b2 00 	sts	0x00B2, r25
     324:	80 93 b1 00 	sts	0x00B1, r24
     328:	ce 01       	movw	r24, r28
     32a:	01 96       	adiw	r24, 0x01	; 1
     32c:	64 ea       	ldi	r22, 0xA4	; 164
     32e:	70 e0       	ldi	r23, 0x00	; 0
     330:	94 d2       	rcall	.+1320   	; 0x85a <APP_SLEEPmanage>
     332:	80 90 a9 00 	lds	r8, 0x00A9
     336:	90 90 aa 00 	lds	r9, 0x00AA
     33a:	a0 90 ab 00 	lds	r10, 0x00AB
     33e:	b0 90 ac 00 	lds	r11, 0x00AC
     342:	c0 90 b1 00 	lds	r12, 0x00B1
     346:	d0 90 b2 00 	lds	r13, 0x00B2
     34a:	8a 81       	ldd	r24, Y+2	; 0x02
     34c:	82 fd       	sbrc	r24, 2
     34e:	4f c0       	rjmp	.+158    	; 0x3ee <APP_MANAGE+0x17c>
     350:	c6 01       	movw	r24, r12
     352:	88 0f       	add	r24, r24
     354:	99 1f       	adc	r25, r25
     356:	23 e0       	ldi	r18, 0x03	; 3
     358:	cc 0c       	add	r12, r12
     35a:	dd 1c       	adc	r13, r13
     35c:	2a 95       	dec	r18
     35e:	e1 f7       	brne	.-8      	; 0x358 <APP_MANAGE+0xe6>
     360:	c8 0e       	add	r12, r24
     362:	d9 1e       	adc	r13, r25
     364:	88 e0       	ldi	r24, 0x08	; 8
     366:	90 e0       	ldi	r25, 0x00	; 0
     368:	c8 0e       	add	r12, r24
     36a:	d9 1e       	adc	r13, r25
     36c:	34 e0       	ldi	r19, 0x04	; 4
     36e:	d6 94       	lsr	r13
     370:	c7 94       	ror	r12
     372:	3a 95       	dec	r19
     374:	e1 f7       	brne	.-8      	; 0x36e <APP_MANAGE+0xfc>
     376:	c7 01       	movw	r24, r14
     378:	88 0f       	add	r24, r24
     37a:	99 1f       	adc	r25, r25
     37c:	53 e0       	ldi	r21, 0x03	; 3
     37e:	ee 0c       	add	r14, r14
     380:	ff 1c       	adc	r15, r15
     382:	5a 95       	dec	r21
     384:	e1 f7       	brne	.-8      	; 0x37e <APP_MANAGE+0x10c>
     386:	e8 0e       	add	r14, r24
     388:	f9 1e       	adc	r15, r25
     38a:	a8 e0       	ldi	r26, 0x08	; 8
     38c:	b0 e0       	ldi	r27, 0x00	; 0
     38e:	ea 0e       	add	r14, r26
     390:	fb 1e       	adc	r15, r27
     392:	64 e0       	ldi	r22, 0x04	; 4
     394:	f6 94       	lsr	r15
     396:	e7 94       	ror	r14
     398:	6a 95       	dec	r22
     39a:	e1 f7       	brne	.-8      	; 0x394 <APP_MANAGE+0x122>
     39c:	c8 01       	movw	r24, r16
     39e:	88 0f       	add	r24, r24
     3a0:	99 1f       	adc	r25, r25
     3a2:	e3 e0       	ldi	r30, 0x03	; 3
     3a4:	00 0f       	add	r16, r16
     3a6:	11 1f       	adc	r17, r17
     3a8:	ea 95       	dec	r30
     3aa:	e1 f7       	brne	.-8      	; 0x3a4 <APP_MANAGE+0x132>
     3ac:	08 0f       	add	r16, r24
     3ae:	19 1f       	adc	r17, r25
     3b0:	08 5f       	subi	r16, 0xF8	; 248
     3b2:	1f 4f       	sbci	r17, 0xFF	; 255
     3b4:	f4 e0       	ldi	r31, 0x04	; 4
     3b6:	16 95       	lsr	r17
     3b8:	07 95       	ror	r16
     3ba:	fa 95       	dec	r31
     3bc:	e1 f7       	brne	.-8      	; 0x3b6 <APP_MANAGE+0x144>
     3be:	c5 01       	movw	r24, r10
     3c0:	b4 01       	movw	r22, r8
     3c2:	2a e0       	ldi	r18, 0x0A	; 10
     3c4:	30 e0       	ldi	r19, 0x00	; 0
     3c6:	40 e0       	ldi	r20, 0x00	; 0
     3c8:	50 e0       	ldi	r21, 0x00	; 0
     3ca:	40 d8       	rcall	.-3968   	; 0xfffff44c <__eeprom_end+0xff7ef44c>
     3cc:	4b 01       	movw	r8, r22
     3ce:	5c 01       	movw	r10, r24
     3d0:	88 e0       	ldi	r24, 0x08	; 8
     3d2:	90 e0       	ldi	r25, 0x00	; 0
     3d4:	a0 e0       	ldi	r26, 0x00	; 0
     3d6:	b0 e0       	ldi	r27, 0x00	; 0
     3d8:	88 0e       	add	r8, r24
     3da:	99 1e       	adc	r9, r25
     3dc:	aa 1e       	adc	r10, r26
     3de:	bb 1e       	adc	r11, r27
     3e0:	e4 e0       	ldi	r30, 0x04	; 4
     3e2:	b6 94       	lsr	r11
     3e4:	a7 94       	ror	r10
     3e6:	97 94       	ror	r9
     3e8:	87 94       	ror	r8
     3ea:	ea 95       	dec	r30
     3ec:	d1 f7       	brne	.-12     	; 0x3e2 <APP_MANAGE+0x170>
     3ee:	69 81       	ldd	r22, Y+1	; 0x01
     3f0:	67 70       	andi	r22, 0x07	; 7
     3f2:	81 e0       	ldi	r24, 0x01	; 1
     3f4:	c8 d4       	rcall	.+2448   	; 0xd86 <ExclusiveSwitchLedOnOff>
     3f6:	89 81       	ldd	r24, Y+1	; 0x01
     3f8:	4a 81       	ldd	r20, Y+2	; 0x02
     3fa:	42 95       	swap	r20
     3fc:	41 70       	andi	r20, 0x01	; 1
     3fe:	87 70       	andi	r24, 0x07	; 7
     400:	64 e1       	ldi	r22, 0x14	; 20
     402:	d3 d4       	rcall	.+2470   	; 0xdaa <BlinkLedOnOff>
     404:	8a 81       	ldd	r24, Y+2	; 0x02
     406:	86 95       	lsr	r24
     408:	86 95       	lsr	r24
     40a:	81 70       	andi	r24, 0x01	; 1
     40c:	66 e0       	ldi	r22, 0x06	; 6
     40e:	b5 d4       	rcall	.+2410   	; 0xd7a <SwitchLedOnOff>
     410:	8a 81       	ldd	r24, Y+2	; 0x02
     412:	86 95       	lsr	r24
     414:	86 95       	lsr	r24
     416:	80 95       	com	r24
     418:	81 70       	andi	r24, 0x01	; 1
     41a:	65 e0       	ldi	r22, 0x05	; 5
     41c:	ae d4       	rcall	.+2396   	; 0xd7a <SwitchLedOnOff>
     41e:	29 81       	ldd	r18, Y+1	; 0x01
     420:	82 2f       	mov	r24, r18
     422:	87 70       	andi	r24, 0x07	; 7
     424:	90 e0       	ldi	r25, 0x00	; 0
     426:	82 30       	cpi	r24, 0x02	; 2
     428:	91 05       	cpc	r25, r1
     42a:	09 f4       	brne	.+2      	; 0x42e <APP_MANAGE+0x1bc>
     42c:	5a c0       	rjmp	.+180    	; 0x4e2 <__stack+0x83>
     42e:	83 30       	cpi	r24, 0x03	; 3
     430:	91 05       	cpc	r25, r1
     432:	3c f4       	brge	.+14     	; 0x442 <APP_MANAGE+0x1d0>
     434:	00 97       	sbiw	r24, 0x00	; 0
     436:	71 f0       	breq	.+28     	; 0x454 <APP_MANAGE+0x1e2>
     438:	81 30       	cpi	r24, 0x01	; 1
     43a:	91 05       	cpc	r25, r1
     43c:	09 f0       	breq	.+2      	; 0x440 <APP_MANAGE+0x1ce>
     43e:	b7 c0       	rjmp	.+366    	; 0x5ae <__stack+0x14f>
     440:	26 c0       	rjmp	.+76     	; 0x48e <__stack+0x2f>
     442:	83 30       	cpi	r24, 0x03	; 3
     444:	91 05       	cpc	r25, r1
     446:	09 f4       	brne	.+2      	; 0x44a <APP_MANAGE+0x1d8>
     448:	59 c0       	rjmp	.+178    	; 0x4fc <__stack+0x9d>
     44a:	84 30       	cpi	r24, 0x04	; 4
     44c:	91 05       	cpc	r25, r1
     44e:	09 f0       	breq	.+2      	; 0x452 <APP_MANAGE+0x1e0>
     450:	ae c0       	rjmp	.+348    	; 0x5ae <__stack+0x14f>
     452:	5b c0       	rjmp	.+182    	; 0x50a <__stack+0xab>
     454:	26 ff       	sbrs	r18, 6
     456:	10 c0       	rjmp	.+32     	; 0x478 <__stack+0x19>
     458:	60 e0       	ldi	r22, 0x00	; 0
     45a:	70 e0       	ldi	r23, 0x00	; 0
     45c:	cb 01       	movw	r24, r22
     45e:	11 d1       	rcall	.+546    	; 0x682 <APP_CALC_TIMEsetTravelTime>
     460:	60 e0       	ldi	r22, 0x00	; 0
     462:	70 e0       	ldi	r23, 0x00	; 0
     464:	cb 01       	movw	r24, r22
     466:	90 d5       	rcall	.+2848   	; 0xf88 <SetDistance>
     468:	10 92 ad 00 	sts	0x00AD, r1
     46c:	10 92 ae 00 	sts	0x00AE, r1
     470:	10 92 af 00 	sts	0x00AF, r1
     474:	10 92 b0 00 	sts	0x00B0, r1
     478:	b7 01       	movw	r22, r14
     47a:	80 e0       	ldi	r24, 0x00	; 0
     47c:	90 e0       	ldi	r25, 0x00	; 0
     47e:	40 e0       	ldi	r20, 0x00	; 0
     480:	21 e0       	ldi	r18, 0x01	; 1
     482:	01 e0       	ldi	r16, 0x01	; 1
     484:	0d d2       	rcall	.+1050   	; 0x8a0 <BCDsendNumber>
     486:	c5 01       	movw	r24, r10
     488:	b4 01       	movw	r22, r8
     48a:	41 e0       	ldi	r20, 0x01	; 1
     48c:	35 c0       	rjmp	.+106    	; 0x4f8 <__stack+0x99>
     48e:	26 ff       	sbrs	r18, 6
     490:	10 c0       	rjmp	.+32     	; 0x4b2 <__stack+0x53>
     492:	60 e0       	ldi	r22, 0x00	; 0
     494:	70 e0       	ldi	r23, 0x00	; 0
     496:	cb 01       	movw	r24, r22
     498:	f4 d0       	rcall	.+488    	; 0x682 <APP_CALC_TIMEsetTravelTime>
     49a:	60 e0       	ldi	r22, 0x00	; 0
     49c:	70 e0       	ldi	r23, 0x00	; 0
     49e:	cb 01       	movw	r24, r22
     4a0:	73 d5       	rcall	.+2790   	; 0xf88 <SetDistance>
     4a2:	10 92 ad 00 	sts	0x00AD, r1
     4a6:	10 92 ae 00 	sts	0x00AE, r1
     4aa:	10 92 af 00 	sts	0x00AF, r1
     4ae:	10 92 b0 00 	sts	0x00B0, r1
     4b2:	60 91 ad 00 	lds	r22, 0x00AD
     4b6:	70 91 ae 00 	lds	r23, 0x00AE
     4ba:	80 91 af 00 	lds	r24, 0x00AF
     4be:	90 91 b0 00 	lds	r25, 0x00B0
     4c2:	be de       	rcall	.-644    	; 0x240 <ConvertMinutesHM>
     4c4:	bc 01       	movw	r22, r24
     4c6:	80 e0       	ldi	r24, 0x00	; 0
     4c8:	90 e0       	ldi	r25, 0x00	; 0
     4ca:	41 e0       	ldi	r20, 0x01	; 1
     4cc:	22 e0       	ldi	r18, 0x02	; 2
     4ce:	00 e0       	ldi	r16, 0x00	; 0
     4d0:	e7 d1       	rcall	.+974    	; 0x8a0 <BCDsendNumber>
     4d2:	b7 01       	movw	r22, r14
     4d4:	80 e0       	ldi	r24, 0x00	; 0
     4d6:	90 e0       	ldi	r25, 0x00	; 0
     4d8:	40 e0       	ldi	r20, 0x00	; 0
     4da:	21 e0       	ldi	r18, 0x01	; 1
     4dc:	01 e0       	ldi	r16, 0x01	; 1
     4de:	e0 d1       	rcall	.+960    	; 0x8a0 <BCDsendNumber>
     4e0:	6f c0       	rjmp	.+222    	; 0x5c0 <__stack+0x161>
     4e2:	b8 01       	movw	r22, r16
     4e4:	80 e0       	ldi	r24, 0x00	; 0
     4e6:	90 e0       	ldi	r25, 0x00	; 0
     4e8:	41 e0       	ldi	r20, 0x01	; 1
     4ea:	21 e0       	ldi	r18, 0x01	; 1
     4ec:	01 e0       	ldi	r16, 0x01	; 1
     4ee:	d8 d1       	rcall	.+944    	; 0x8a0 <BCDsendNumber>
     4f0:	b7 01       	movw	r22, r14
     4f2:	80 e0       	ldi	r24, 0x00	; 0
     4f4:	90 e0       	ldi	r25, 0x00	; 0
     4f6:	40 e0       	ldi	r20, 0x00	; 0
     4f8:	21 e0       	ldi	r18, 0x01	; 1
     4fa:	f1 cf       	rjmp	.-30     	; 0x4de <__stack+0x7f>
     4fc:	26 ff       	sbrs	r18, 6
     4fe:	03 c0       	rjmp	.+6      	; 0x506 <__stack+0xa7>
     500:	80 e0       	ldi	r24, 0x00	; 0
     502:	90 e0       	ldi	r25, 0x00	; 0
     504:	a5 d0       	rcall	.+330    	; 0x650 <APP_CALC_MAXSPDmanage_Set>
     506:	b6 01       	movw	r22, r12
     508:	ed cf       	rjmp	.-38     	; 0x4e4 <__stack+0x85>
     50a:	8a 81       	ldd	r24, Y+2	; 0x02
     50c:	83 ff       	sbrs	r24, 3
     50e:	34 c0       	rjmp	.+104    	; 0x578 <__stack+0x119>
     510:	26 ff       	sbrs	r18, 6
     512:	09 c0       	rjmp	.+18     	; 0x526 <__stack+0xc7>
     514:	80 91 a6 00 	lds	r24, 0x00A6
     518:	83 30       	cpi	r24, 0x03	; 3
     51a:	19 f4       	brne	.+6      	; 0x522 <__stack+0xc3>
     51c:	10 92 a6 00 	sts	0x00A6, r1
     520:	26 c0       	rjmp	.+76     	; 0x56e <__stack+0x10f>
     522:	8f 5f       	subi	r24, 0xFF	; 255
     524:	09 c0       	rjmp	.+18     	; 0x538 <__stack+0xd9>
     526:	27 ff       	sbrs	r18, 7
     528:	0a c0       	rjmp	.+20     	; 0x53e <__stack+0xdf>
     52a:	80 91 a6 00 	lds	r24, 0x00A6
     52e:	88 23       	and	r24, r24
     530:	11 f4       	brne	.+4      	; 0x536 <__stack+0xd7>
     532:	83 e0       	ldi	r24, 0x03	; 3
     534:	01 c0       	rjmp	.+2      	; 0x538 <__stack+0xd9>
     536:	81 50       	subi	r24, 0x01	; 1
     538:	80 93 a6 00 	sts	0x00A6, r24
     53c:	18 c0       	rjmp	.+48     	; 0x56e <__stack+0x10f>
     53e:	24 ff       	sbrs	r18, 4
     540:	08 c0       	rjmp	.+16     	; 0x552 <__stack+0xf3>
     542:	80 91 a4 00 	lds	r24, 0x00A4
     546:	90 91 a5 00 	lds	r25, 0x00A5
     54a:	60 91 a6 00 	lds	r22, 0x00A6
     54e:	40 e0       	ldi	r20, 0x00	; 0
     550:	09 c0       	rjmp	.+18     	; 0x564 <__stack+0x105>
     552:	25 ff       	sbrs	r18, 5
     554:	0c c0       	rjmp	.+24     	; 0x56e <__stack+0x10f>
     556:	80 91 a4 00 	lds	r24, 0x00A4
     55a:	90 91 a5 00 	lds	r25, 0x00A5
     55e:	60 91 a6 00 	lds	r22, 0x00A6
     562:	41 e0       	ldi	r20, 0x01	; 1
     564:	7c dd       	rcall	.-1288   	; 0x5e <IncrementDecrementSingleDigit>
     566:	90 93 a5 00 	sts	0x00A5, r25
     56a:	80 93 a4 00 	sts	0x00A4, r24
     56e:	80 91 a6 00 	lds	r24, 0x00A6
     572:	61 e0       	ldi	r22, 0x01	; 1
     574:	44 e6       	ldi	r20, 0x64	; 100
     576:	04 c0       	rjmp	.+8      	; 0x580 <__stack+0x121>
     578:	80 91 a6 00 	lds	r24, 0x00A6
     57c:	61 e0       	ldi	r22, 0x01	; 1
     57e:	40 e0       	ldi	r20, 0x00	; 0
     580:	89 d2       	rcall	.+1298   	; 0xa94 <BlinkDigit>
     582:	60 91 a4 00 	lds	r22, 0x00A4
     586:	70 91 a5 00 	lds	r23, 0x00A5
     58a:	80 e0       	ldi	r24, 0x00	; 0
     58c:	90 e0       	ldi	r25, 0x00	; 0
     58e:	41 e0       	ldi	r20, 0x01	; 1
     590:	20 e0       	ldi	r18, 0x00	; 0
     592:	00 e0       	ldi	r16, 0x00	; 0
     594:	85 d1       	rcall	.+778    	; 0x8a0 <BCDsendNumber>
     596:	80 91 a4 00 	lds	r24, 0x00A4
     59a:	90 91 a5 00 	lds	r25, 0x00A5
     59e:	0c d5       	rcall	.+2584   	; 0xfb8 <SetCircumfirunce>
     5a0:	80 e0       	ldi	r24, 0x00	; 0
     5a2:	60 e0       	ldi	r22, 0x00	; 0
     5a4:	40 e6       	ldi	r20, 0x60	; 96
     5a6:	50 e0       	ldi	r21, 0x00	; 0
     5a8:	24 e0       	ldi	r18, 0x04	; 4
     5aa:	a1 d2       	rcall	.+1346   	; 0xaee <DisplaySendString>
     5ac:	09 c0       	rjmp	.+18     	; 0x5c0 <__stack+0x161>
     5ae:	b7 01       	movw	r22, r14
     5b0:	80 e0       	ldi	r24, 0x00	; 0
     5b2:	90 e0       	ldi	r25, 0x00	; 0
     5b4:	40 e0       	ldi	r20, 0x00	; 0
     5b6:	21 e0       	ldi	r18, 0x01	; 1
     5b8:	01 e0       	ldi	r16, 0x01	; 1
     5ba:	72 d1       	rcall	.+740    	; 0x8a0 <BCDsendNumber>
     5bc:	1a 82       	std	Y+2, r1	; 0x02
     5be:	19 82       	std	Y+1, r1	; 0x01
     5c0:	89 81       	ldd	r24, Y+1	; 0x01
     5c2:	9a 81       	ldd	r25, Y+2	; 0x02
     5c4:	90 93 a8 00 	sts	0x00A8, r25
     5c8:	80 93 a7 00 	sts	0x00A7, r24
     5cc:	89 81       	ldd	r24, Y+1	; 0x01
     5ce:	83 ff       	sbrs	r24, 3
     5d0:	0e c0       	rjmp	.+28     	; 0x5ee <__stack+0x18f>
     5d2:	81 e0       	ldi	r24, 0x01	; 1
     5d4:	64 ea       	ldi	r22, 0xA4	; 164
     5d6:	70 e0       	ldi	r23, 0x00	; 0
     5d8:	4f e0       	ldi	r20, 0x0F	; 15
     5da:	20 e0       	ldi	r18, 0x00	; 0
     5dc:	30 e0       	ldi	r19, 0x00	; 0
     5de:	b7 d2       	rcall	.+1390   	; 0xb4e <Eeprom_Write_Block>
     5e0:	81 30       	cpi	r24, 0x01	; 1
     5e2:	29 f4       	brne	.+10     	; 0x5ee <__stack+0x18f>
     5e4:	80 91 a7 00 	lds	r24, 0x00A7
     5e8:	87 7f       	andi	r24, 0xF7	; 247
     5ea:	80 93 a7 00 	sts	0x00A7, r24
     5ee:	0f 90       	pop	r0
     5f0:	0f 90       	pop	r0
     5f2:	df 91       	pop	r29
     5f4:	cf 91       	pop	r28
     5f6:	1f 91       	pop	r17
     5f8:	0f 91       	pop	r16
     5fa:	ff 90       	pop	r15
     5fc:	ef 90       	pop	r14
     5fe:	df 90       	pop	r13
     600:	cf 90       	pop	r12
     602:	bf 90       	pop	r11
     604:	af 90       	pop	r10
     606:	9f 90       	pop	r9
     608:	8f 90       	pop	r8
     60a:	08 95       	ret

0000060c <APP_CALC_AVGSPDmanage>:
     60c:	cf 92       	push	r12
     60e:	df 92       	push	r13
     610:	ef 92       	push	r14
     612:	ff 92       	push	r15
     614:	0f 93       	push	r16
     616:	1f 93       	push	r17
     618:	6a 01       	movw	r12, r20
     61a:	7b 01       	movw	r14, r22
     61c:	c9 01       	movw	r24, r18
     61e:	b8 01       	movw	r22, r16
     620:	c1 14       	cp	r12, r1
     622:	d1 04       	cpc	r13, r1
     624:	e1 04       	cpc	r14, r1
     626:	f1 04       	cpc	r15, r1
     628:	51 f0       	breq	.+20     	; 0x63e <APP_CALC_AVGSPDmanage+0x32>
     62a:	2c e3       	ldi	r18, 0x3C	; 60
     62c:	30 e0       	ldi	r19, 0x00	; 0
     62e:	40 e0       	ldi	r20, 0x00	; 0
     630:	50 e0       	ldi	r21, 0x00	; 0
     632:	0c d7       	rcall	.+3608   	; 0x144c <__mulsi3>
     634:	a7 01       	movw	r20, r14
     636:	96 01       	movw	r18, r12
     638:	3c d7       	rcall	.+3704   	; 0x14b2 <__udivmodsi4>
     63a:	c9 01       	movw	r24, r18
     63c:	02 c0       	rjmp	.+4      	; 0x642 <APP_CALC_AVGSPDmanage+0x36>
     63e:	80 e0       	ldi	r24, 0x00	; 0
     640:	90 e0       	ldi	r25, 0x00	; 0
     642:	1f 91       	pop	r17
     644:	0f 91       	pop	r16
     646:	ff 90       	pop	r15
     648:	ef 90       	pop	r14
     64a:	df 90       	pop	r13
     64c:	cf 90       	pop	r12
     64e:	08 95       	ret

00000650 <APP_CALC_MAXSPDmanage_Set>:
     650:	90 93 b4 00 	sts	0x00B4, r25
     654:	80 93 b3 00 	sts	0x00B3, r24
     658:	08 95       	ret

0000065a <APP_CALC_MAXSPDmanage>:
     65a:	fc 01       	movw	r30, r24
     65c:	81 81       	ldd	r24, Z+1	; 0x01
     65e:	84 fd       	sbrc	r24, 4
     660:	0b c0       	rjmp	.+22     	; 0x678 <APP_CALC_MAXSPDmanage+0x1e>
     662:	80 91 b3 00 	lds	r24, 0x00B3
     666:	90 91 b4 00 	lds	r25, 0x00B4
     66a:	86 17       	cp	r24, r22
     66c:	97 07       	cpc	r25, r23
     66e:	20 f4       	brcc	.+8      	; 0x678 <APP_CALC_MAXSPDmanage+0x1e>
     670:	70 93 b4 00 	sts	0x00B4, r23
     674:	60 93 b3 00 	sts	0x00B3, r22
     678:	80 91 b3 00 	lds	r24, 0x00B3
     67c:	90 91 b4 00 	lds	r25, 0x00B4
     680:	08 95       	ret

00000682 <APP_CALC_TIMEsetTravelTime>:
     682:	dc 01       	movw	r26, r24
     684:	cb 01       	movw	r24, r22
     686:	80 93 b5 00 	sts	0x00B5, r24
     68a:	90 93 b6 00 	sts	0x00B6, r25
     68e:	a0 93 b7 00 	sts	0x00B7, r26
     692:	b0 93 b8 00 	sts	0x00B8, r27
     696:	10 92 ba 00 	sts	0x00BA, r1
     69a:	10 92 b9 00 	sts	0x00B9, r1
     69e:	08 95       	ret

000006a0 <APP_CALC_TIMEmanage>:
     6a0:	fc 01       	movw	r30, r24
     6a2:	80 91 b9 00 	lds	r24, 0x00B9
     6a6:	90 91 ba 00 	lds	r25, 0x00BA
     6aa:	24 e0       	ldi	r18, 0x04	; 4
     6ac:	80 3b       	cpi	r24, 0xB0	; 176
     6ae:	92 07       	cpc	r25, r18
     6b0:	e0 f0       	brcs	.+56     	; 0x6ea <APP_CALC_TIMEmanage+0x4a>
     6b2:	10 92 ba 00 	sts	0x00BA, r1
     6b6:	10 92 b9 00 	sts	0x00B9, r1
     6ba:	40 91 b5 00 	lds	r20, 0x00B5
     6be:	50 91 b6 00 	lds	r21, 0x00B6
     6c2:	60 91 b7 00 	lds	r22, 0x00B7
     6c6:	70 91 b8 00 	lds	r23, 0x00B8
     6ca:	4f 5f       	subi	r20, 0xFF	; 255
     6cc:	5f 4f       	sbci	r21, 0xFF	; 255
     6ce:	6f 4f       	sbci	r22, 0xFF	; 255
     6d0:	7f 4f       	sbci	r23, 0xFF	; 255
     6d2:	40 93 b5 00 	sts	0x00B5, r20
     6d6:	50 93 b6 00 	sts	0x00B6, r21
     6da:	60 93 b7 00 	sts	0x00B7, r22
     6de:	70 93 b8 00 	sts	0x00B8, r23
     6e2:	80 81       	ld	r24, Z
     6e4:	88 60       	ori	r24, 0x08	; 8
     6e6:	80 83       	st	Z, r24
     6e8:	08 c0       	rjmp	.+16     	; 0x6fa <APP_CALC_TIMEmanage+0x5a>
     6ea:	21 81       	ldd	r18, Z+1	; 0x01
     6ec:	24 fd       	sbrc	r18, 4
     6ee:	05 c0       	rjmp	.+10     	; 0x6fa <APP_CALC_TIMEmanage+0x5a>
     6f0:	01 96       	adiw	r24, 0x01	; 1
     6f2:	90 93 ba 00 	sts	0x00BA, r25
     6f6:	80 93 b9 00 	sts	0x00B9, r24
     6fa:	60 91 b5 00 	lds	r22, 0x00B5
     6fe:	70 91 b6 00 	lds	r23, 0x00B6
     702:	80 91 b7 00 	lds	r24, 0x00B7
     706:	90 91 b8 00 	lds	r25, 0x00B8
     70a:	08 95       	ret

0000070c <APP_HMImanage>:
     70c:	1f 93       	push	r17
     70e:	cf 93       	push	r28
     710:	df 93       	push	r29
     712:	ec 01       	movw	r28, r24
     714:	80 e0       	ldi	r24, 0x00	; 0
     716:	94 d2       	rcall	.+1320   	; 0xc40 <GetKeyStatus>
     718:	18 2f       	mov	r17, r24
     71a:	81 e0       	ldi	r24, 0x01	; 1
     71c:	91 d2       	rcall	.+1314   	; 0xc40 <GetKeyStatus>
     71e:	90 91 bb 00 	lds	r25, 0x00BB
     722:	91 30       	cpi	r25, 0x01	; 1
     724:	e9 f1       	breq	.+122    	; 0x7a0 <APP_HMImanage+0x94>
     726:	91 30       	cpi	r25, 0x01	; 1
     728:	38 f0       	brcs	.+14     	; 0x738 <APP_HMImanage+0x2c>
     72a:	92 30       	cpi	r25, 0x02	; 2
     72c:	09 f4       	brne	.+2      	; 0x730 <APP_HMImanage+0x24>
     72e:	74 c0       	rjmp	.+232    	; 0x818 <APP_HMImanage+0x10c>
     730:	93 30       	cpi	r25, 0x03	; 3
     732:	09 f0       	breq	.+2      	; 0x736 <APP_HMImanage+0x2a>
     734:	7e c0       	rjmp	.+252    	; 0x832 <APP_HMImanage+0x126>
     736:	75 c0       	rjmp	.+234    	; 0x822 <APP_HMImanage+0x116>
     738:	11 30       	cpi	r17, 0x01	; 1
     73a:	21 f4       	brne	.+8      	; 0x744 <APP_HMImanage+0x38>
     73c:	81 30       	cpi	r24, 0x01	; 1
     73e:	71 f4       	brne	.+28     	; 0x75c <APP_HMImanage+0x50>
     740:	83 e0       	ldi	r24, 0x03	; 3
     742:	74 c0       	rjmp	.+232    	; 0x82c <APP_HMImanage+0x120>
     744:	10 34       	cpi	r17, 0x40	; 64
     746:	51 f4       	brne	.+20     	; 0x75c <APP_HMImanage+0x50>
     748:	98 81       	ld	r25, Y
     74a:	89 2f       	mov	r24, r25
     74c:	87 70       	andi	r24, 0x07	; 7
     74e:	98 7f       	andi	r25, 0xF8	; 248
     750:	88 23       	and	r24, r24
     752:	11 f4       	brne	.+4      	; 0x758 <APP_HMImanage+0x4c>
     754:	94 60       	ori	r25, 0x04	; 4
     756:	0a c0       	rjmp	.+20     	; 0x76c <APP_HMImanage+0x60>
     758:	81 50       	subi	r24, 0x01	; 1
     75a:	0b c0       	rjmp	.+22     	; 0x772 <APP_HMImanage+0x66>
     75c:	80 34       	cpi	r24, 0x40	; 64
     75e:	69 f4       	brne	.+26     	; 0x77a <APP_HMImanage+0x6e>
     760:	98 81       	ld	r25, Y
     762:	89 2f       	mov	r24, r25
     764:	87 70       	andi	r24, 0x07	; 7
     766:	98 7f       	andi	r25, 0xF8	; 248
     768:	84 30       	cpi	r24, 0x04	; 4
     76a:	11 f4       	brne	.+4      	; 0x770 <APP_HMImanage+0x64>
     76c:	98 83       	st	Y, r25
     76e:	63 c0       	rjmp	.+198    	; 0x836 <APP_HMImanage+0x12a>
     770:	8f 5f       	subi	r24, 0xFF	; 255
     772:	87 70       	andi	r24, 0x07	; 7
     774:	89 2b       	or	r24, r25
     776:	88 83       	st	Y, r24
     778:	5e c0       	rjmp	.+188    	; 0x836 <APP_HMImanage+0x12a>
     77a:	99 81       	ldd	r25, Y+1	; 0x01
     77c:	12 38       	cpi	r17, 0x82	; 130
     77e:	29 f4       	brne	.+10     	; 0x78a <APP_HMImanage+0x7e>
     780:	89 2f       	mov	r24, r25
     782:	80 95       	com	r24
     784:	84 70       	andi	r24, 0x04	; 4
     786:	9b 7f       	andi	r25, 0xFB	; 251
     788:	06 c0       	rjmp	.+12     	; 0x796 <APP_HMImanage+0x8a>
     78a:	82 38       	cpi	r24, 0x82	; 130
     78c:	31 f4       	brne	.+12     	; 0x79a <APP_HMImanage+0x8e>
     78e:	89 2f       	mov	r24, r25
     790:	80 95       	com	r24
     792:	80 71       	andi	r24, 0x10	; 16
     794:	9f 7e       	andi	r25, 0xEF	; 239
     796:	98 2b       	or	r25, r24
     798:	01 c0       	rjmp	.+2      	; 0x79c <APP_HMImanage+0x90>
     79a:	92 60       	ori	r25, 0x02	; 2
     79c:	99 83       	std	Y+1, r25	; 0x01
     79e:	4b c0       	rjmp	.+150    	; 0x836 <APP_HMImanage+0x12a>
     7a0:	38 81       	ld	r19, Y
     7a2:	37 70       	andi	r19, 0x07	; 7
     7a4:	99 81       	ldd	r25, Y+1	; 0x01
     7a6:	29 2f       	mov	r18, r25
     7a8:	26 95       	lsr	r18
     7aa:	26 95       	lsr	r18
     7ac:	21 70       	andi	r18, 0x01	; 1
     7ae:	92 95       	swap	r25
     7b0:	91 70       	andi	r25, 0x01	; 1
     7b2:	19 82       	std	Y+1, r1	; 0x01
     7b4:	18 82       	st	Y, r1
     7b6:	11 30       	cpi	r17, 0x01	; 1
     7b8:	41 f4       	brne	.+16     	; 0x7ca <APP_HMImanage+0xbe>
     7ba:	81 30       	cpi	r24, 0x01	; 1
     7bc:	61 f4       	brne	.+24     	; 0x7d6 <APP_HMImanage+0xca>
     7be:	82 e0       	ldi	r24, 0x02	; 2
     7c0:	80 93 bb 00 	sts	0x00BB, r24
     7c4:	88 81       	ld	r24, Y
     7c6:	88 60       	ori	r24, 0x08	; 8
     7c8:	04 c0       	rjmp	.+8      	; 0x7d2 <APP_HMImanage+0xc6>
     7ca:	10 34       	cpi	r17, 0x40	; 64
     7cc:	21 f4       	brne	.+8      	; 0x7d6 <APP_HMImanage+0xca>
     7ce:	88 81       	ld	r24, Y
     7d0:	80 62       	ori	r24, 0x20	; 32
     7d2:	88 83       	st	Y, r24
     7d4:	11 c0       	rjmp	.+34     	; 0x7f8 <APP_HMImanage+0xec>
     7d6:	48 81       	ld	r20, Y
     7d8:	80 34       	cpi	r24, 0x40	; 64
     7da:	11 f4       	brne	.+4      	; 0x7e0 <APP_HMImanage+0xd4>
     7dc:	40 61       	ori	r20, 0x10	; 16
     7de:	07 c0       	rjmp	.+14     	; 0x7ee <APP_HMImanage+0xe2>
     7e0:	12 38       	cpi	r17, 0x82	; 130
     7e2:	11 f4       	brne	.+4      	; 0x7e8 <APP_HMImanage+0xdc>
     7e4:	40 68       	ori	r20, 0x80	; 128
     7e6:	03 c0       	rjmp	.+6      	; 0x7ee <APP_HMImanage+0xe2>
     7e8:	82 38       	cpi	r24, 0x82	; 130
     7ea:	19 f4       	brne	.+6      	; 0x7f2 <APP_HMImanage+0xe6>
     7ec:	40 64       	ori	r20, 0x40	; 64
     7ee:	48 83       	st	Y, r20
     7f0:	03 c0       	rjmp	.+6      	; 0x7f8 <APP_HMImanage+0xec>
     7f2:	89 81       	ldd	r24, Y+1	; 0x01
     7f4:	82 60       	ori	r24, 0x02	; 2
     7f6:	89 83       	std	Y+1, r24	; 0x01
     7f8:	88 81       	ld	r24, Y
     7fa:	88 7f       	andi	r24, 0xF8	; 248
     7fc:	83 2b       	or	r24, r19
     7fe:	88 83       	st	Y, r24
     800:	21 70       	andi	r18, 0x01	; 1
     802:	22 0f       	add	r18, r18
     804:	22 0f       	add	r18, r18
     806:	89 81       	ldd	r24, Y+1	; 0x01
     808:	8b 7e       	andi	r24, 0xEB	; 235
     80a:	91 70       	andi	r25, 0x01	; 1
     80c:	92 95       	swap	r25
     80e:	90 7f       	andi	r25, 0xF0	; 240
     810:	82 2b       	or	r24, r18
     812:	89 2b       	or	r24, r25
     814:	89 83       	std	Y+1, r24	; 0x01
     816:	0f c0       	rjmp	.+30     	; 0x836 <APP_HMImanage+0x12a>
     818:	11 23       	and	r17, r17
     81a:	69 f4       	brne	.+26     	; 0x836 <APP_HMImanage+0x12a>
     81c:	88 23       	and	r24, r24
     81e:	59 f4       	brne	.+22     	; 0x836 <APP_HMImanage+0x12a>
     820:	08 c0       	rjmp	.+16     	; 0x832 <APP_HMImanage+0x126>
     822:	11 23       	and	r17, r17
     824:	41 f4       	brne	.+16     	; 0x836 <APP_HMImanage+0x12a>
     826:	88 23       	and	r24, r24
     828:	31 f4       	brne	.+12     	; 0x836 <APP_HMImanage+0x12a>
     82a:	81 e0       	ldi	r24, 0x01	; 1
     82c:	80 93 bb 00 	sts	0x00BB, r24
     830:	02 c0       	rjmp	.+4      	; 0x836 <APP_HMImanage+0x12a>
     832:	10 92 bb 00 	sts	0x00BB, r1
     836:	90 91 bb 00 	lds	r25, 0x00BB
     83a:	91 70       	andi	r25, 0x01	; 1
     83c:	99 0f       	add	r25, r25
     83e:	99 0f       	add	r25, r25
     840:	99 0f       	add	r25, r25
     842:	89 81       	ldd	r24, Y+1	; 0x01
     844:	87 7f       	andi	r24, 0xF7	; 247
     846:	89 2b       	or	r24, r25
     848:	89 83       	std	Y+1, r24	; 0x01
     84a:	df 91       	pop	r29
     84c:	cf 91       	pop	r28
     84e:	1f 91       	pop	r17
     850:	08 95       	ret

00000852 <SleepAfterSave>:
     852:	85 d4       	rcall	.+2314   	; 0x115e <HWI_DIGITAL_SLEEP>
     854:	d5 d5       	rcall	.+2986   	; 0x1400 <SendMCUtoSleep>
     856:	7b d4       	rcall	.+2294   	; 0x114e <HWI_DIGITAL_INITIALIZE>
     858:	08 95       	ret

0000085a <APP_SLEEPmanage>:
     85a:	fc 01       	movw	r30, r24
     85c:	81 81       	ldd	r24, Z+1	; 0x01
     85e:	81 ff       	sbrs	r24, 1
     860:	17 c0       	rjmp	.+46     	; 0x890 <APP_SLEEPmanage+0x36>
     862:	80 91 bc 00 	lds	r24, 0x00BC
     866:	90 91 bd 00 	lds	r25, 0x00BD
     86a:	01 96       	adiw	r24, 0x01	; 1
     86c:	90 93 bd 00 	sts	0x00BD, r25
     870:	80 93 bc 00 	sts	0x00BC, r24
     874:	f2 e0       	ldi	r31, 0x02	; 2
     876:	88 35       	cpi	r24, 0x58	; 88
     878:	9f 07       	cpc	r25, r31
     87a:	71 f4       	brne	.+28     	; 0x898 <APP_SLEEPmanage+0x3e>
     87c:	10 92 bd 00 	sts	0x00BD, r1
     880:	10 92 bc 00 	sts	0x00BC, r1
     884:	81 e0       	ldi	r24, 0x01	; 1
     886:	4f e0       	ldi	r20, 0x0F	; 15
     888:	29 e2       	ldi	r18, 0x29	; 41
     88a:	34 e0       	ldi	r19, 0x04	; 4
     88c:	60 d1       	rcall	.+704    	; 0xb4e <Eeprom_Write_Block>
     88e:	08 95       	ret
     890:	10 92 bd 00 	sts	0x00BD, r1
     894:	10 92 bc 00 	sts	0x00BC, r1
     898:	08 95       	ret

0000089a <BCDInitialize>:
     89a:	80 93 be 00 	sts	0x00BE, r24
     89e:	08 95       	ret

000008a0 <BCDsendNumber>:
     8a0:	2f 92       	push	r2
     8a2:	3f 92       	push	r3
     8a4:	4f 92       	push	r4
     8a6:	5f 92       	push	r5
     8a8:	7f 92       	push	r7
     8aa:	8f 92       	push	r8
     8ac:	9f 92       	push	r9
     8ae:	af 92       	push	r10
     8b0:	bf 92       	push	r11
     8b2:	cf 92       	push	r12
     8b4:	df 92       	push	r13
     8b6:	ef 92       	push	r14
     8b8:	ff 92       	push	r15
     8ba:	0f 93       	push	r16
     8bc:	1f 93       	push	r17
     8be:	cf 93       	push	r28
     8c0:	df 93       	push	r29
     8c2:	00 d0       	rcall	.+0      	; 0x8c4 <BCDsendNumber+0x24>
     8c4:	00 d0       	rcall	.+0      	; 0x8c6 <BCDsendNumber+0x26>
     8c6:	cd b7       	in	r28, 0x3d	; 61
     8c8:	de b7       	in	r29, 0x3e	; 62
     8ca:	12 2f       	mov	r17, r18
     8cc:	70 2e       	mov	r7, r16
     8ce:	24 2f       	mov	r18, r20
     8d0:	30 e0       	ldi	r19, 0x00	; 0
     8d2:	3a 83       	std	Y+2, r19	; 0x02
     8d4:	29 83       	std	Y+1, r18	; 0x01
     8d6:	43 e0       	ldi	r20, 0x03	; 3
     8d8:	22 0f       	add	r18, r18
     8da:	33 1f       	adc	r19, r19
     8dc:	4a 95       	dec	r20
     8de:	e1 f7       	brne	.-8      	; 0x8d8 <BCDsendNumber+0x38>
     8e0:	21 54       	subi	r18, 0x41	; 65
     8e2:	3f 4f       	sbci	r19, 0xFF	; 255
     8e4:	6b 01       	movw	r12, r22
     8e6:	7c 01       	movw	r14, r24
     8e8:	88 24       	eor	r8, r8
     8ea:	5a e0       	ldi	r21, 0x0A	; 10
     8ec:	25 2e       	mov	r2, r21
     8ee:	31 2c       	mov	r3, r1
     8f0:	41 2c       	mov	r4, r1
     8f2:	51 2c       	mov	r5, r1
     8f4:	3c 83       	std	Y+4, r19	; 0x04
     8f6:	2b 83       	std	Y+3, r18	; 0x03
     8f8:	91 2e       	mov	r9, r17
     8fa:	c1 14       	cp	r12, r1
     8fc:	d1 04       	cpc	r13, r1
     8fe:	e1 04       	cpc	r14, r1
     900:	f1 04       	cpc	r15, r1
     902:	11 f4       	brne	.+4      	; 0x908 <BCDsendNumber+0x68>
     904:	98 14       	cp	r9, r8
     906:	38 f1       	brcs	.+78     	; 0x956 <BCDsendNumber+0xb6>
     908:	c7 01       	movw	r24, r14
     90a:	b6 01       	movw	r22, r12
     90c:	a2 01       	movw	r20, r4
     90e:	91 01       	movw	r18, r2
     910:	d0 d5       	rcall	.+2976   	; 0x14b2 <__udivmodsi4>
     912:	12 2f       	mov	r17, r18
     914:	03 2f       	mov	r16, r19
     916:	b4 2e       	mov	r11, r20
     918:	a5 2e       	mov	r10, r21
     91a:	62 2f       	mov	r22, r18
     91c:	73 2f       	mov	r23, r19
     91e:	84 2f       	mov	r24, r20
     920:	95 2f       	mov	r25, r21
     922:	2a e0       	ldi	r18, 0x0A	; 10
     924:	30 e0       	ldi	r19, 0x00	; 0
     926:	40 e0       	ldi	r20, 0x00	; 0
     928:	50 e0       	ldi	r21, 0x00	; 0
     92a:	90 d5       	rcall	.+2848   	; 0x144c <__mulsi3>
     92c:	dc 01       	movw	r26, r24
     92e:	cb 01       	movw	r24, r22
     930:	c8 1a       	sub	r12, r24
     932:	d9 0a       	sbc	r13, r25
     934:	ea 0a       	sbc	r14, r26
     936:	fb 0a       	sbc	r15, r27
     938:	f6 01       	movw	r30, r12
     93a:	eb 59       	subi	r30, 0x9B	; 155
     93c:	ff 4f       	sbci	r31, 0xFF	; 255
     93e:	80 81       	ld	r24, Z
     940:	ab 81       	ldd	r26, Y+3	; 0x03
     942:	bc 81       	ldd	r27, Y+4	; 0x04
     944:	8c 93       	st	X, r24
     946:	11 96       	adiw	r26, 0x01	; 1
     948:	1c 92       	st	X, r1
     94a:	11 97       	sbiw	r26, 0x01	; 1
     94c:	c1 2e       	mov	r12, r17
     94e:	d0 2e       	mov	r13, r16
     950:	eb 2c       	mov	r14, r11
     952:	fa 2c       	mov	r15, r10
     954:	0e c0       	rjmp	.+28     	; 0x972 <BCDsendNumber+0xd2>
     956:	77 20       	and	r7, r7
     958:	39 f4       	brne	.+14     	; 0x968 <BCDsendNumber+0xc8>
     95a:	2c ef       	ldi	r18, 0xFC	; 252
     95c:	30 e0       	ldi	r19, 0x00	; 0
     95e:	eb 81       	ldd	r30, Y+3	; 0x03
     960:	fc 81       	ldd	r31, Y+4	; 0x04
     962:	31 83       	std	Z+1, r19	; 0x01
     964:	20 83       	st	Z, r18
     966:	05 c0       	rjmp	.+10     	; 0x972 <BCDsendNumber+0xd2>
     968:	ab 81       	ldd	r26, Y+3	; 0x03
     96a:	bc 81       	ldd	r27, Y+4	; 0x04
     96c:	11 96       	adiw	r26, 0x01	; 1
     96e:	1c 92       	st	X, r1
     970:	1e 92       	st	-X, r1
     972:	83 94       	inc	r8
     974:	eb 81       	ldd	r30, Y+3	; 0x03
     976:	fc 81       	ldd	r31, Y+4	; 0x04
     978:	32 96       	adiw	r30, 0x02	; 2
     97a:	fc 83       	std	Y+4, r31	; 0x04
     97c:	eb 83       	std	Y+3, r30	; 0x03
     97e:	f4 e0       	ldi	r31, 0x04	; 4
     980:	8f 16       	cp	r8, r31
     982:	09 f0       	breq	.+2      	; 0x986 <BCDsendNumber+0xe6>
     984:	ba cf       	rjmp	.-140    	; 0x8fa <BCDsendNumber+0x5a>
     986:	99 20       	and	r9, r9
     988:	89 f0       	breq	.+34     	; 0x9ac <BCDsendNumber+0x10c>
     98a:	e9 81       	ldd	r30, Y+1	; 0x01
     98c:	fa 81       	ldd	r31, Y+2	; 0x02
     98e:	ee 0f       	add	r30, r30
     990:	ff 1f       	adc	r31, r31
     992:	ee 0f       	add	r30, r30
     994:	ff 1f       	adc	r31, r31
     996:	e9 0d       	add	r30, r9
     998:	f1 1d       	adc	r31, r1
     99a:	ee 0f       	add	r30, r30
     99c:	ff 1f       	adc	r31, r31
     99e:	e1 54       	subi	r30, 0x41	; 65
     9a0:	ff 4f       	sbci	r31, 0xFF	; 255
     9a2:	80 81       	ld	r24, Z
     9a4:	91 81       	ldd	r25, Z+1	; 0x01
     9a6:	81 60       	ori	r24, 0x01	; 1
     9a8:	91 83       	std	Z+1, r25	; 0x01
     9aa:	80 83       	st	Z, r24
     9ac:	0f 90       	pop	r0
     9ae:	0f 90       	pop	r0
     9b0:	0f 90       	pop	r0
     9b2:	0f 90       	pop	r0
     9b4:	df 91       	pop	r29
     9b6:	cf 91       	pop	r28
     9b8:	1f 91       	pop	r17
     9ba:	0f 91       	pop	r16
     9bc:	ff 90       	pop	r15
     9be:	ef 90       	pop	r14
     9c0:	df 90       	pop	r13
     9c2:	cf 90       	pop	r12
     9c4:	bf 90       	pop	r11
     9c6:	af 90       	pop	r10
     9c8:	9f 90       	pop	r9
     9ca:	8f 90       	pop	r8
     9cc:	7f 90       	pop	r7
     9ce:	5f 90       	pop	r5
     9d0:	4f 90       	pop	r4
     9d2:	3f 90       	pop	r3
     9d4:	2f 90       	pop	r2
     9d6:	08 95       	ret

000009d8 <BCDManage7segment>:
     9d8:	cf 93       	push	r28
     9da:	90 91 cf 00 	lds	r25, 0x00CF
     9de:	99 23       	and	r25, r25
     9e0:	81 f0       	breq	.+32     	; 0xa02 <BCDManage7segment+0x2a>
     9e2:	80 91 d0 00 	lds	r24, 0x00D0
     9e6:	8f 5f       	subi	r24, 0xFF	; 255
     9e8:	80 93 d0 00 	sts	0x00D0, r24
     9ec:	89 17       	cp	r24, r25
     9ee:	59 f4       	brne	.+22     	; 0xa06 <BCDManage7segment+0x2e>
     9f0:	80 91 d1 00 	lds	r24, 0x00D1
     9f4:	91 e0       	ldi	r25, 0x01	; 1
     9f6:	89 27       	eor	r24, r25
     9f8:	80 93 d1 00 	sts	0x00D1, r24
     9fc:	10 92 d0 00 	sts	0x00D0, r1
     a00:	02 c0       	rjmp	.+4      	; 0xa06 <BCDManage7segment+0x2e>
     a02:	10 92 d1 00 	sts	0x00D1, r1
     a06:	80 91 d1 00 	lds	r24, 0x00D1
     a0a:	81 30       	cpi	r24, 0x01	; 1
     a0c:	61 f4       	brne	.+24     	; 0xa26 <BCDManage7segment+0x4e>
     a0e:	90 91 d2 00 	lds	r25, 0x00D2
     a12:	80 91 d3 00 	lds	r24, 0x00D3
     a16:	98 17       	cp	r25, r24
     a18:	31 f4       	brne	.+12     	; 0xa26 <BCDManage7segment+0x4e>
     a1a:	90 91 d4 00 	lds	r25, 0x00D4
     a1e:	80 91 d5 00 	lds	r24, 0x00D5
     a22:	98 17       	cp	r25, r24
     a24:	89 f0       	breq	.+34     	; 0xa48 <BCDManage7segment+0x70>
     a26:	80 91 d2 00 	lds	r24, 0x00D2
     a2a:	e0 91 d5 00 	lds	r30, 0x00D5
     a2e:	f0 e0       	ldi	r31, 0x00	; 0
     a30:	ee 0f       	add	r30, r30
     a32:	ff 1f       	adc	r31, r31
     a34:	ee 0f       	add	r30, r30
     a36:	ff 1f       	adc	r31, r31
     a38:	e8 0f       	add	r30, r24
     a3a:	f1 1d       	adc	r31, r1
     a3c:	ee 0f       	add	r30, r30
     a3e:	ff 1f       	adc	r31, r31
     a40:	e1 54       	subi	r30, 0x41	; 65
     a42:	ff 4f       	sbci	r31, 0xFF	; 255
     a44:	c0 81       	ld	r28, Z
     a46:	01 c0       	rjmp	.+2      	; 0xa4a <BCDManage7segment+0x72>
     a48:	c0 e0       	ldi	r28, 0x00	; 0
     a4a:	80 91 be 00 	lds	r24, 0x00BE
     a4e:	81 30       	cpi	r24, 0x01	; 1
     a50:	09 f4       	brne	.+2      	; 0xa54 <BCDManage7segment+0x7c>
     a52:	c0 95       	com	r28
     a54:	60 91 d5 00 	lds	r22, 0x00D5
     a58:	66 0f       	add	r22, r22
     a5a:	66 0f       	add	r22, r22
     a5c:	80 91 d2 00 	lds	r24, 0x00D2
     a60:	68 0f       	add	r22, r24
     a62:	80 e0       	ldi	r24, 0x00	; 0
     a64:	e0 d3       	rcall	.+1984   	; 0x1226 <HWI_4Digit_WRITE>
     a66:	81 e0       	ldi	r24, 0x01	; 1
     a68:	6c 2f       	mov	r22, r28
     a6a:	f6 d3       	rcall	.+2028   	; 0x1258 <HWI_8Digit_WRITE>
     a6c:	80 91 d2 00 	lds	r24, 0x00D2
     a70:	8f 5f       	subi	r24, 0xFF	; 255
     a72:	80 93 d2 00 	sts	0x00D2, r24
     a76:	84 30       	cpi	r24, 0x04	; 4
     a78:	59 f4       	brne	.+22     	; 0xa90 <BCDManage7segment+0xb8>
     a7a:	10 92 d2 00 	sts	0x00D2, r1
     a7e:	80 91 d5 00 	lds	r24, 0x00D5
     a82:	8f 5f       	subi	r24, 0xFF	; 255
     a84:	80 93 d5 00 	sts	0x00D5, r24
     a88:	82 30       	cpi	r24, 0x02	; 2
     a8a:	11 f4       	brne	.+4      	; 0xa90 <BCDManage7segment+0xb8>
     a8c:	10 92 d5 00 	sts	0x00D5, r1
     a90:	cf 91       	pop	r28
     a92:	08 95       	ret

00000a94 <BlinkDigit>:
     a94:	80 93 d3 00 	sts	0x00D3, r24
     a98:	40 93 cf 00 	sts	0x00CF, r20
     a9c:	60 93 d4 00 	sts	0x00D4, r22
     aa0:	08 95       	ret

00000aa2 <Segment7SendString>:
     aa2:	cf 93       	push	r28
     aa4:	df 93       	push	r29
     aa6:	da 01       	movw	r26, r20
     aa8:	42 2f       	mov	r20, r18
     aaa:	50 e0       	ldi	r21, 0x00	; 0
     aac:	48 0f       	add	r20, r24
     aae:	51 1d       	adc	r21, r1
     ab0:	45 30       	cpi	r20, 0x05	; 5
     ab2:	51 05       	cpc	r21, r1
     ab4:	cc f4       	brge	.+50     	; 0xae8 <Segment7SendString+0x46>
     ab6:	70 e0       	ldi	r23, 0x00	; 0
     ab8:	66 0f       	add	r22, r22
     aba:	77 1f       	adc	r23, r23
     abc:	66 0f       	add	r22, r22
     abe:	77 1f       	adc	r23, r23
     ac0:	0e c0       	rjmp	.+28     	; 0xade <Segment7SendString+0x3c>
     ac2:	fb 01       	movw	r30, r22
     ac4:	e2 0f       	add	r30, r18
     ac6:	f3 1f       	adc	r31, r19
     ac8:	ee 0f       	add	r30, r30
     aca:	ff 1f       	adc	r31, r31
     acc:	e1 54       	subi	r30, 0x41	; 65
     ace:	ff 4f       	sbci	r31, 0xFF	; 255
     ad0:	2a 0f       	add	r18, r26
     ad2:	3b 1f       	adc	r19, r27
     ad4:	e9 01       	movw	r28, r18
     ad6:	98 81       	ld	r25, Y
     ad8:	90 83       	st	Z, r25
     ada:	11 82       	std	Z+1, r1	; 0x01
     adc:	8f 5f       	subi	r24, 0xFF	; 255
     ade:	28 2f       	mov	r18, r24
     ae0:	30 e0       	ldi	r19, 0x00	; 0
     ae2:	24 17       	cp	r18, r20
     ae4:	35 07       	cpc	r19, r21
     ae6:	6c f3       	brlt	.-38     	; 0xac2 <Segment7SendString+0x20>
     ae8:	df 91       	pop	r29
     aea:	cf 91       	pop	r28
     aec:	08 95       	ret

00000aee <DisplaySendString>:
     aee:	ef 92       	push	r14
     af0:	ff 92       	push	r15
     af2:	0f 93       	push	r16
     af4:	1f 93       	push	r17
     af6:	cf 93       	push	r28
     af8:	df 93       	push	r29
     afa:	00 d0       	rcall	.+0      	; 0xafc <DisplaySendString+0xe>
     afc:	00 d0       	rcall	.+0      	; 0xafe <DisplaySendString+0x10>
     afe:	cd b7       	in	r28, 0x3d	; 61
     b00:	de b7       	in	r29, 0x3e	; 62
     b02:	de 01       	movw	r26, r28
     b04:	a2 0f       	add	r26, r18
     b06:	b1 1d       	adc	r27, r1
     b08:	7a 01       	movw	r14, r20
     b0a:	0e c0       	rjmp	.+28     	; 0xb28 <DisplaySendString+0x3a>
     b0c:	f7 01       	movw	r30, r14
     b0e:	91 91       	ld	r25, Z+
     b10:	7f 01       	movw	r14, r30
     b12:	09 2f       	mov	r16, r25
     b14:	01 54       	subi	r16, 0x41	; 65
     b16:	06 32       	cpi	r16, 0x26	; 38
     b18:	28 f4       	brcc	.+10     	; 0xb24 <DisplaySendString+0x36>
     b1a:	10 e0       	ldi	r17, 0x00	; 0
     b1c:	00 59       	subi	r16, 0x90	; 144
     b1e:	1f 4f       	sbci	r17, 0xFF	; 255
     b20:	f8 01       	movw	r30, r16
     b22:	90 81       	ld	r25, Z
     b24:	9c 93       	st	X, r25
     b26:	11 97       	sbiw	r26, 0x01	; 1
     b28:	9e 2d       	mov	r25, r14
     b2a:	94 1b       	sub	r25, r20
     b2c:	92 17       	cp	r25, r18
     b2e:	70 f3       	brcs	.-36     	; 0xb0c <DisplaySendString+0x1e>
     b30:	ae 01       	movw	r20, r28
     b32:	4f 5f       	subi	r20, 0xFF	; 255
     b34:	5f 4f       	sbci	r21, 0xFF	; 255
     b36:	b5 df       	rcall	.-150    	; 0xaa2 <Segment7SendString>
     b38:	0f 90       	pop	r0
     b3a:	0f 90       	pop	r0
     b3c:	0f 90       	pop	r0
     b3e:	0f 90       	pop	r0
     b40:	df 91       	pop	r29
     b42:	cf 91       	pop	r28
     b44:	1f 91       	pop	r17
     b46:	0f 91       	pop	r16
     b48:	ff 90       	pop	r15
     b4a:	ef 90       	pop	r14
     b4c:	08 95       	ret

00000b4e <Eeprom_Write_Block>:
     b4e:	90 91 d6 00 	lds	r25, 0x00D6
     b52:	99 23       	and	r25, r25
     b54:	c9 f4       	brne	.+50     	; 0xb88 <Eeprom_Write_Block+0x3a>
     b56:	43 33       	cpi	r20, 0x33	; 51
     b58:	c8 f4       	brcc	.+50     	; 0xb8c <Eeprom_Write_Block+0x3e>
     b5a:	91 e0       	ldi	r25, 0x01	; 1
     b5c:	90 93 d6 00 	sts	0x00D6, r25
     b60:	a7 ed       	ldi	r26, 0xD7	; 215
     b62:	b0 e0       	ldi	r27, 0x00	; 0
     b64:	fb 01       	movw	r30, r22
     b66:	02 c0       	rjmp	.+4      	; 0xb6c <Eeprom_Write_Block+0x1e>
     b68:	91 91       	ld	r25, Z+
     b6a:	9d 93       	st	X+, r25
     b6c:	9e 2f       	mov	r25, r30
     b6e:	96 1b       	sub	r25, r22
     b70:	94 17       	cp	r25, r20
     b72:	d0 f3       	brcs	.-12     	; 0xb68 <Eeprom_Write_Block+0x1a>
     b74:	40 93 09 01 	sts	0x0109, r20
     b78:	80 93 0a 01 	sts	0x010A, r24
     b7c:	30 93 0c 01 	sts	0x010C, r19
     b80:	20 93 0b 01 	sts	0x010B, r18
     b84:	81 e0       	ldi	r24, 0x01	; 1
     b86:	08 95       	ret
     b88:	80 e0       	ldi	r24, 0x00	; 0
     b8a:	08 95       	ret
     b8c:	80 e0       	ldi	r24, 0x00	; 0
     b8e:	08 95       	ret

00000b90 <Eeprom_Read_Block>:
     b90:	ef 92       	push	r14
     b92:	ff 92       	push	r15
     b94:	0f 93       	push	r16
     b96:	1f 93       	push	r17
     b98:	cf 93       	push	r28
     b9a:	df 93       	push	r29
     b9c:	0f 92       	push	r0
     b9e:	cd b7       	in	r28, 0x3d	; 61
     ba0:	de b7       	in	r29, 0x3e	; 62
     ba2:	18 2f       	mov	r17, r24
     ba4:	7b 01       	movw	r14, r22
     ba6:	80 91 d6 00 	lds	r24, 0x00D6
     baa:	88 23       	and	r24, r24
     bac:	71 f0       	breq	.+28     	; 0xbca <Eeprom_Read_Block+0x3a>
     bae:	80 e0       	ldi	r24, 0x00	; 0
     bb0:	10 c0       	rjmp	.+32     	; 0xbd2 <Eeprom_Read_Block+0x42>
     bb2:	b7 01       	movw	r22, r14
     bb4:	60 0f       	add	r22, r16
     bb6:	71 1d       	adc	r23, r1
     bb8:	80 2f       	mov	r24, r16
     bba:	81 0f       	add	r24, r17
     bbc:	49 83       	std	Y+1, r20	; 0x01
     bbe:	ba d2       	rcall	.+1396   	; 0x1134 <HWIeeprom_Read>
     bc0:	49 81       	ldd	r20, Y+1	; 0x01
     bc2:	81 30       	cpi	r24, 0x01	; 1
     bc4:	19 f4       	brne	.+6      	; 0xbcc <Eeprom_Read_Block+0x3c>
     bc6:	0f 5f       	subi	r16, 0xFF	; 255
     bc8:	01 c0       	rjmp	.+2      	; 0xbcc <Eeprom_Read_Block+0x3c>
     bca:	00 e0       	ldi	r16, 0x00	; 0
     bcc:	04 17       	cp	r16, r20
     bce:	88 f3       	brcs	.-30     	; 0xbb2 <Eeprom_Read_Block+0x22>
     bd0:	81 e0       	ldi	r24, 0x01	; 1
     bd2:	0f 90       	pop	r0
     bd4:	df 91       	pop	r29
     bd6:	cf 91       	pop	r28
     bd8:	1f 91       	pop	r17
     bda:	0f 91       	pop	r16
     bdc:	ff 90       	pop	r15
     bde:	ef 90       	pop	r14
     be0:	08 95       	ret

00000be2 <EepromManage>:
     be2:	80 91 d6 00 	lds	r24, 0x00D6
     be6:	81 30       	cpi	r24, 0x01	; 1
     be8:	11 f5       	brne	.+68     	; 0xc2e <EepromManage+0x4c>
     bea:	80 91 0d 01 	lds	r24, 0x010D
     bee:	90 91 09 01 	lds	r25, 0x0109
     bf2:	89 17       	cp	r24, r25
     bf4:	61 f4       	brne	.+24     	; 0xc0e <EepromManage+0x2c>
     bf6:	10 92 0d 01 	sts	0x010D, r1
     bfa:	10 92 d6 00 	sts	0x00D6, r1
     bfe:	e0 91 0b 01 	lds	r30, 0x010B
     c02:	f0 91 0c 01 	lds	r31, 0x010C
     c06:	30 97       	sbiw	r30, 0x00	; 0
     c08:	91 f0       	breq	.+36     	; 0xc2e <EepromManage+0x4c>
     c0a:	09 95       	icall
     c0c:	08 95       	ret
     c0e:	90 91 0a 01 	lds	r25, 0x010A
     c12:	e8 2f       	mov	r30, r24
     c14:	f0 e0       	ldi	r31, 0x00	; 0
     c16:	e9 52       	subi	r30, 0x29	; 41
     c18:	ff 4f       	sbci	r31, 0xFF	; 255
     c1a:	89 0f       	add	r24, r25
     c1c:	60 81       	ld	r22, Z
     c1e:	7e d2       	rcall	.+1276   	; 0x111c <HWIeeprom_Write>
     c20:	81 30       	cpi	r24, 0x01	; 1
     c22:	29 f4       	brne	.+10     	; 0xc2e <EepromManage+0x4c>
     c24:	80 91 0d 01 	lds	r24, 0x010D
     c28:	8f 5f       	subi	r24, 0xFF	; 255
     c2a:	80 93 0d 01 	sts	0x010D, r24
     c2e:	08 95       	ret

00000c30 <KeyInitialize>:
     c30:	86 e0       	ldi	r24, 0x06	; 6
     c32:	ee e0       	ldi	r30, 0x0E	; 14
     c34:	f1 e0       	ldi	r31, 0x01	; 1
     c36:	df 01       	movw	r26, r30
     c38:	1d 92       	st	X+, r1
     c3a:	8a 95       	dec	r24
     c3c:	e9 f7       	brne	.-6      	; 0xc38 <KeyInitialize+0x8>
     c3e:	08 95       	ret

00000c40 <GetKeyStatus>:
     c40:	90 e0       	ldi	r25, 0x00	; 0
     c42:	fc 01       	movw	r30, r24
     c44:	ee 0f       	add	r30, r30
     c46:	ff 1f       	adc	r31, r31
     c48:	e8 0f       	add	r30, r24
     c4a:	f9 1f       	adc	r31, r25
     c4c:	e2 5f       	subi	r30, 0xF2	; 242
     c4e:	fe 4f       	sbci	r31, 0xFE	; 254
     c50:	80 81       	ld	r24, Z
     c52:	98 2f       	mov	r25, r24
     c54:	9f 73       	andi	r25, 0x3F	; 63
     c56:	90 83       	st	Z, r25
     c58:	08 95       	ret

00000c5a <MangeKeys>:
     c5a:	ef 92       	push	r14
     c5c:	ff 92       	push	r15
     c5e:	0f 93       	push	r16
     c60:	1f 93       	push	r17
     c62:	cf 93       	push	r28
     c64:	df 93       	push	r29
     c66:	0f 92       	push	r0
     c68:	cd b7       	in	r28, 0x3d	; 61
     c6a:	de b7       	in	r29, 0x3e	; 62
     c6c:	90 e0       	ldi	r25, 0x00	; 0
     c6e:	7c 01       	movw	r14, r24
     c70:	ee 0c       	add	r14, r14
     c72:	ff 1c       	adc	r15, r15
     c74:	e8 0e       	add	r14, r24
     c76:	f9 1e       	adc	r15, r25
     c78:	2e e0       	ldi	r18, 0x0E	; 14
     c7a:	31 e0       	ldi	r19, 0x01	; 1
     c7c:	e2 0e       	add	r14, r18
     c7e:	f3 1e       	adc	r15, r19
     c80:	f7 01       	movw	r30, r14
     c82:	20 81       	ld	r18, Z
     c84:	2f 73       	andi	r18, 0x3F	; 63
     c86:	8c 01       	movw	r16, r24
     c88:	43 e0       	ldi	r20, 0x03	; 3
     c8a:	00 0f       	add	r16, r16
     c8c:	11 1f       	adc	r17, r17
     c8e:	4a 95       	dec	r20
     c90:	e1 f7       	brne	.-8      	; 0xc8a <MangeKeys+0x30>
     c92:	06 57       	subi	r16, 0x76	; 118
     c94:	1f 4f       	sbci	r17, 0xFF	; 255
     c96:	f8 01       	movw	r30, r16
     c98:	80 81       	ld	r24, Z
     c9a:	29 83       	std	Y+1, r18	; 0x01
     c9c:	67 d2       	rcall	.+1230   	; 0x116c <HWI_DIGI_READ>
     c9e:	29 81       	ldd	r18, Y+1	; 0x01
     ca0:	21 30       	cpi	r18, 0x01	; 1
     ca2:	f9 f0       	breq	.+62     	; 0xce2 <MangeKeys+0x88>
     ca4:	21 30       	cpi	r18, 0x01	; 1
     ca6:	20 f0       	brcs	.+8      	; 0xcb0 <MangeKeys+0x56>
     ca8:	22 30       	cpi	r18, 0x02	; 2
     caa:	09 f0       	breq	.+2      	; 0xcae <MangeKeys+0x54>
     cac:	5c c0       	rjmp	.+184    	; 0xd66 <MangeKeys+0x10c>
     cae:	46 c0       	rjmp	.+140    	; 0xd3c <MangeKeys+0xe2>
     cb0:	f8 01       	movw	r30, r16
     cb2:	91 81       	ldd	r25, Z+1	; 0x01
     cb4:	f7 01       	movw	r30, r14
     cb6:	98 17       	cp	r25, r24
     cb8:	89 f4       	brne	.+34     	; 0xcdc <MangeKeys+0x82>
     cba:	81 81       	ldd	r24, Z+1	; 0x01
     cbc:	92 81       	ldd	r25, Z+2	; 0x02
     cbe:	01 96       	adiw	r24, 0x01	; 1
     cc0:	92 83       	std	Z+2, r25	; 0x02
     cc2:	81 83       	std	Z+1, r24	; 0x01
     cc4:	f8 01       	movw	r30, r16
     cc6:	24 81       	ldd	r18, Z+4	; 0x04
     cc8:	35 81       	ldd	r19, Z+5	; 0x05
     cca:	28 17       	cp	r18, r24
     ccc:	39 07       	cpc	r19, r25
     cce:	09 f0       	breq	.+2      	; 0xcd2 <MangeKeys+0x78>
     cd0:	4c c0       	rjmp	.+152    	; 0xd6a <MangeKeys+0x110>
     cd2:	81 e8       	ldi	r24, 0x81	; 129
     cd4:	f7 01       	movw	r30, r14
     cd6:	80 83       	st	Z, r24
     cd8:	f8 01       	movw	r30, r16
     cda:	34 c0       	rjmp	.+104    	; 0xd44 <MangeKeys+0xea>
     cdc:	12 82       	std	Z+2, r1	; 0x02
     cde:	11 82       	std	Z+1, r1	; 0x01
     ce0:	44 c0       	rjmp	.+136    	; 0xd6a <MangeKeys+0x110>
     ce2:	f8 01       	movw	r30, r16
     ce4:	91 81       	ldd	r25, Z+1	; 0x01
     ce6:	f7 01       	movw	r30, r14
     ce8:	21 81       	ldd	r18, Z+1	; 0x01
     cea:	32 81       	ldd	r19, Z+2	; 0x02
     cec:	f8 01       	movw	r30, r16
     cee:	42 81       	ldd	r20, Z+2	; 0x02
     cf0:	53 81       	ldd	r21, Z+3	; 0x03
     cf2:	98 17       	cp	r25, r24
     cf4:	b1 f4       	brne	.+44     	; 0xd22 <MangeKeys+0xc8>
     cf6:	24 17       	cp	r18, r20
     cf8:	35 07       	cpc	r19, r21
     cfa:	78 f0       	brcs	.+30     	; 0xd1a <MangeKeys+0xc0>
     cfc:	2f 5f       	subi	r18, 0xFF	; 255
     cfe:	3f 4f       	sbci	r19, 0xFF	; 255
     d00:	f7 01       	movw	r30, r14
     d02:	32 83       	std	Z+2, r19	; 0x02
     d04:	21 83       	std	Z+1, r18	; 0x01
     d06:	f8 01       	movw	r30, r16
     d08:	86 81       	ldd	r24, Z+6	; 0x06
     d0a:	97 81       	ldd	r25, Z+7	; 0x07
     d0c:	82 17       	cp	r24, r18
     d0e:	93 07       	cpc	r25, r19
     d10:	61 f5       	brne	.+88     	; 0xd6a <MangeKeys+0x110>
     d12:	82 e8       	ldi	r24, 0x82	; 130
     d14:	f7 01       	movw	r30, r14
     d16:	80 83       	st	Z, r24
     d18:	01 c0       	rjmp	.+2      	; 0xd1c <MangeKeys+0xc2>
     d1a:	f7 01       	movw	r30, r14
     d1c:	52 83       	std	Z+2, r21	; 0x02
     d1e:	41 83       	std	Z+1, r20	; 0x01
     d20:	24 c0       	rjmp	.+72     	; 0xd6a <MangeKeys+0x110>
     d22:	42 17       	cp	r20, r18
     d24:	53 07       	cpc	r21, r19
     d26:	c8 f3       	brcs	.-14     	; 0xd1a <MangeKeys+0xc0>
     d28:	21 50       	subi	r18, 0x01	; 1
     d2a:	30 40       	sbci	r19, 0x00	; 0
     d2c:	f7 01       	movw	r30, r14
     d2e:	32 83       	std	Z+2, r19	; 0x02
     d30:	21 83       	std	Z+1, r18	; 0x01
     d32:	21 15       	cp	r18, r1
     d34:	31 05       	cpc	r19, r1
     d36:	c9 f4       	brne	.+50     	; 0xd6a <MangeKeys+0x110>
     d38:	80 e4       	ldi	r24, 0x40	; 64
     d3a:	13 c0       	rjmp	.+38     	; 0xd62 <MangeKeys+0x108>
     d3c:	f8 01       	movw	r30, r16
     d3e:	91 81       	ldd	r25, Z+1	; 0x01
     d40:	98 17       	cp	r25, r24
     d42:	31 f4       	brne	.+12     	; 0xd50 <MangeKeys+0xf6>
     d44:	82 81       	ldd	r24, Z+2	; 0x02
     d46:	93 81       	ldd	r25, Z+3	; 0x03
     d48:	f7 01       	movw	r30, r14
     d4a:	92 83       	std	Z+2, r25	; 0x02
     d4c:	81 83       	std	Z+1, r24	; 0x01
     d4e:	0d c0       	rjmp	.+26     	; 0xd6a <MangeKeys+0x110>
     d50:	f7 01       	movw	r30, r14
     d52:	81 81       	ldd	r24, Z+1	; 0x01
     d54:	92 81       	ldd	r25, Z+2	; 0x02
     d56:	01 97       	sbiw	r24, 0x01	; 1
     d58:	92 83       	std	Z+2, r25	; 0x02
     d5a:	81 83       	std	Z+1, r24	; 0x01
     d5c:	00 97       	sbiw	r24, 0x00	; 0
     d5e:	29 f4       	brne	.+10     	; 0xd6a <MangeKeys+0x110>
     d60:	80 e8       	ldi	r24, 0x80	; 128
     d62:	80 83       	st	Z, r24
     d64:	02 c0       	rjmp	.+4      	; 0xd6a <MangeKeys+0x110>
     d66:	f7 01       	movw	r30, r14
     d68:	10 82       	st	Z, r1
     d6a:	0f 90       	pop	r0
     d6c:	df 91       	pop	r29
     d6e:	cf 91       	pop	r28
     d70:	1f 91       	pop	r17
     d72:	0f 91       	pop	r16
     d74:	ff 90       	pop	r15
     d76:	ef 90       	pop	r14
     d78:	08 95       	ret

00000d7a <SwitchLedOnOff>:
     d7a:	e4 e1       	ldi	r30, 0x14	; 20
     d7c:	f1 e0       	ldi	r31, 0x01	; 1
     d7e:	e6 0f       	add	r30, r22
     d80:	f1 1d       	adc	r31, r1
     d82:	80 83       	st	Z, r24
     d84:	08 95       	ret

00000d86 <ExclusiveSwitchLedOnOff>:
     d86:	98 2f       	mov	r25, r24
     d88:	90 95       	com	r25
     d8a:	91 70       	andi	r25, 0x01	; 1
     d8c:	e6 2f       	mov	r30, r22
     d8e:	f0 e0       	ldi	r31, 0x00	; 0
     d90:	ec 5e       	subi	r30, 0xEC	; 236
     d92:	fe 4f       	sbci	r31, 0xFE	; 254
     d94:	80 83       	st	Z, r24
     d96:	e4 e1       	ldi	r30, 0x14	; 20
     d98:	f1 e0       	ldi	r31, 0x01	; 1
     d9a:	80 e0       	ldi	r24, 0x00	; 0
     d9c:	86 13       	cpse	r24, r22
     d9e:	90 83       	st	Z, r25
     da0:	8f 5f       	subi	r24, 0xFF	; 255
     da2:	31 96       	adiw	r30, 0x01	; 1
     da4:	87 30       	cpi	r24, 0x07	; 7
     da6:	d1 f7       	brne	.-12     	; 0xd9c <ExclusiveSwitchLedOnOff+0x16>
     da8:	08 95       	ret

00000daa <BlinkLedOnOff>:
     daa:	90 e0       	ldi	r25, 0x00	; 0
     dac:	fc 01       	movw	r30, r24
     dae:	e5 5e       	subi	r30, 0xE5	; 229
     db0:	fe 4f       	sbci	r31, 0xFE	; 254
     db2:	60 83       	st	Z, r22
     db4:	8e 5d       	subi	r24, 0xDE	; 222
     db6:	9e 4f       	sbci	r25, 0xFE	; 254
     db8:	fc 01       	movw	r30, r24
     dba:	40 83       	st	Z, r20
     dbc:	08 95       	ret

00000dbe <InitializeLed>:
     dbe:	87 e0       	ldi	r24, 0x07	; 7
     dc0:	eb e1       	ldi	r30, 0x1B	; 27
     dc2:	f1 e0       	ldi	r31, 0x01	; 1
     dc4:	df 01       	movw	r26, r30
     dc6:	98 2f       	mov	r25, r24
     dc8:	1d 92       	st	X+, r1
     dca:	9a 95       	dec	r25
     dcc:	e9 f7       	brne	.-6      	; 0xdc8 <InitializeLed+0xa>
     dce:	e2 e2       	ldi	r30, 0x22	; 34
     dd0:	f1 e0       	ldi	r31, 0x01	; 1
     dd2:	df 01       	movw	r26, r30
     dd4:	98 2f       	mov	r25, r24
     dd6:	1d 92       	st	X+, r1
     dd8:	9a 95       	dec	r25
     dda:	e9 f7       	brne	.-6      	; 0xdd6 <InitializeLed+0x18>
     ddc:	e4 e1       	ldi	r30, 0x14	; 20
     dde:	f1 e0       	ldi	r31, 0x01	; 1
     de0:	df 01       	movw	r26, r30
     de2:	98 2f       	mov	r25, r24
     de4:	1d 92       	st	X+, r1
     de6:	9a 95       	dec	r25
     de8:	e9 f7       	brne	.-6      	; 0xde4 <InitializeLed+0x26>
     dea:	e9 e2       	ldi	r30, 0x29	; 41
     dec:	f1 e0       	ldi	r31, 0x01	; 1
     dee:	df 01       	movw	r26, r30
     df0:	98 2f       	mov	r25, r24
     df2:	1d 92       	st	X+, r1
     df4:	9a 95       	dec	r25
     df6:	e9 f7       	brne	.-6      	; 0xdf2 <InitializeLed+0x34>
     df8:	e0 e3       	ldi	r30, 0x30	; 48
     dfa:	f1 e0       	ldi	r31, 0x01	; 1
     dfc:	df 01       	movw	r26, r30
     dfe:	1d 92       	st	X+, r1
     e00:	8a 95       	dec	r24
     e02:	e9 f7       	brne	.-6      	; 0xdfe <InitializeLed+0x40>
     e04:	08 95       	ret

00000e06 <ManageLeds>:
     e06:	cf 93       	push	r28
     e08:	df 93       	push	r29
     e0a:	90 e0       	ldi	r25, 0x00	; 0
     e0c:	fc 01       	movw	r30, r24
     e0e:	ec 5e       	subi	r30, 0xEC	; 236
     e10:	fe 4f       	sbci	r31, 0xFE	; 254
     e12:	20 81       	ld	r18, Z
     e14:	dc 01       	movw	r26, r24
     e16:	a7 5d       	subi	r26, 0xD7	; 215
     e18:	be 4f       	sbci	r27, 0xFE	; 254
     e1a:	ec 01       	movw	r28, r24
     e1c:	c0 5d       	subi	r28, 0xD0	; 208
     e1e:	de 4f       	sbci	r29, 0xFE	; 254
     e20:	21 30       	cpi	r18, 0x01	; 1
     e22:	b9 f4       	brne	.+46     	; 0xe52 <ManageLeds+0x4c>
     e24:	fc 01       	movw	r30, r24
     e26:	ee 5d       	subi	r30, 0xDE	; 222
     e28:	fe 4f       	sbci	r31, 0xFE	; 254
     e2a:	30 81       	ld	r19, Z
     e2c:	31 30       	cpi	r19, 0x01	; 1
     e2e:	79 f4       	brne	.+30     	; 0xe4e <ManageLeds+0x48>
     e30:	2c 91       	ld	r18, X
     e32:	fc 01       	movw	r30, r24
     e34:	e5 5e       	subi	r30, 0xE5	; 229
     e36:	fe 4f       	sbci	r31, 0xFE	; 254
     e38:	40 81       	ld	r20, Z
     e3a:	24 17       	cp	r18, r20
     e3c:	28 f0       	brcs	.+10     	; 0xe48 <ManageLeds+0x42>
     e3e:	1c 92       	st	X, r1
     e40:	28 81       	ld	r18, Y
     e42:	23 27       	eor	r18, r19
     e44:	28 83       	st	Y, r18
     e46:	07 c0       	rjmp	.+14     	; 0xe56 <ManageLeds+0x50>
     e48:	2f 5f       	subi	r18, 0xFF	; 255
     e4a:	2c 93       	st	X, r18
     e4c:	04 c0       	rjmp	.+8      	; 0xe56 <ManageLeds+0x50>
     e4e:	28 83       	st	Y, r18
     e50:	01 c0       	rjmp	.+2      	; 0xe54 <ManageLeds+0x4e>
     e52:	18 82       	st	Y, r1
     e54:	1c 92       	st	X, r1
     e56:	86 56       	subi	r24, 0x66	; 102
     e58:	9f 4f       	sbci	r25, 0xFF	; 255
     e5a:	fc 01       	movw	r30, r24
     e5c:	80 81       	ld	r24, Z
     e5e:	68 81       	ld	r22, Y
     e60:	96 d1       	rcall	.+812    	; 0x118e <HWI_DIGI_WRITE>
     e62:	df 91       	pop	r29
     e64:	cf 91       	pop	r28
     e66:	08 95       	ret

00000e68 <SpeedCalcNotifyInitialize>:
     e68:	08 95       	ret

00000e6a <SensorOneNotify>:
     e6a:	80 91 3b 01 	lds	r24, 0x013B
     e6e:	81 30       	cpi	r24, 0x01	; 1
     e70:	19 f4       	brne	.+6      	; 0xe78 <SensorOneNotify+0xe>
     e72:	10 92 3b 01 	sts	0x013B, r1
     e76:	08 95       	ret
     e78:	80 91 3a 01 	lds	r24, 0x013A
     e7c:	88 23       	and	r24, r24
     e7e:	29 f0       	breq	.+10     	; 0xe8a <SensorOneNotify+0x20>
     e80:	80 91 3a 01 	lds	r24, 0x013A
     e84:	81 50       	subi	r24, 0x01	; 1
     e86:	80 93 3a 01 	sts	0x013A, r24
     e8a:	08 95       	ret

00000e8c <SensorTwoNotify>:
     e8c:	80 91 3b 01 	lds	r24, 0x013B
     e90:	88 23       	and	r24, r24
     e92:	a9 f4       	brne	.+42     	; 0xebe <SensorTwoNotify+0x32>
     e94:	81 e0       	ldi	r24, 0x01	; 1
     e96:	80 93 3b 01 	sts	0x013B, r24
     e9a:	80 91 3a 01 	lds	r24, 0x013A
     e9e:	8f 5f       	subi	r24, 0xFF	; 255
     ea0:	80 93 3a 01 	sts	0x013A, r24
     ea4:	81 e0       	ldi	r24, 0x01	; 1
     ea6:	07 d2       	rcall	.+1038   	; 0x12b6 <ReloadHWtimer>
     ea8:	90 93 39 01 	sts	0x0139, r25
     eac:	80 93 38 01 	sts	0x0138, r24
     eb0:	80 91 37 01 	lds	r24, 0x0137
     eb4:	80 93 3c 01 	sts	0x013C, r24
     eb8:	10 92 37 01 	sts	0x0137, r1
     ebc:	08 95       	ret
     ebe:	80 91 3a 01 	lds	r24, 0x013A
     ec2:	88 23       	and	r24, r24
     ec4:	29 f0       	breq	.+10     	; 0xed0 <SensorTwoNotify+0x44>
     ec6:	80 91 3a 01 	lds	r24, 0x013A
     eca:	81 50       	subi	r24, 0x01	; 1
     ecc:	80 93 3a 01 	sts	0x013A, r24
     ed0:	08 95       	ret

00000ed2 <SpeedCalcManage>:
     ed2:	40 91 38 01 	lds	r20, 0x0138
     ed6:	50 91 39 01 	lds	r21, 0x0139
     eda:	20 91 3c 01 	lds	r18, 0x013C
     ede:	30 e0       	ldi	r19, 0x00	; 0
     ee0:	8f e8       	ldi	r24, 0x8F	; 143
     ee2:	92 e0       	ldi	r25, 0x02	; 2
     ee4:	28 9f       	mul	r18, r24
     ee6:	f0 01       	movw	r30, r0
     ee8:	29 9f       	mul	r18, r25
     eea:	f0 0d       	add	r31, r0
     eec:	38 9f       	mul	r19, r24
     eee:	f0 0d       	add	r31, r0
     ef0:	11 24       	eor	r1, r1
     ef2:	ca 01       	movw	r24, r20
     ef4:	64 e6       	ldi	r22, 0x64	; 100
     ef6:	70 e0       	ldi	r23, 0x00	; 0
     ef8:	c8 d2       	rcall	.+1424   	; 0x148a <__udivmodhi4>
     efa:	e6 0f       	add	r30, r22
     efc:	f7 1f       	adc	r31, r23
     efe:	f0 93 3e 01 	sts	0x013E, r31
     f02:	e0 93 3d 01 	sts	0x013D, r30
     f06:	80 91 3f 01 	lds	r24, 0x013F
     f0a:	88 23       	and	r24, r24
     f0c:	b9 f5       	brne	.+110    	; 0xf7c <SpeedCalcManage+0xaa>
     f0e:	20 91 a1 00 	lds	r18, 0x00A1
     f12:	30 91 a2 00 	lds	r19, 0x00A2
     f16:	40 e0       	ldi	r20, 0x00	; 0
     f18:	50 e0       	ldi	r21, 0x00	; 0
     f1a:	60 ea       	ldi	r22, 0xA0	; 160
     f1c:	76 e8       	ldi	r23, 0x86	; 134
     f1e:	81 e0       	ldi	r24, 0x01	; 1
     f20:	90 e0       	ldi	r25, 0x00	; 0
     f22:	c7 d2       	rcall	.+1422   	; 0x14b2 <__udivmodsi4>
     f24:	40 91 3a 01 	lds	r20, 0x013A
     f28:	80 91 40 01 	lds	r24, 0x0140
     f2c:	90 91 41 01 	lds	r25, 0x0141
     f30:	84 0f       	add	r24, r20
     f32:	91 1d       	adc	r25, r1
     f34:	90 93 41 01 	sts	0x0141, r25
     f38:	80 93 40 01 	sts	0x0140, r24
     f3c:	10 92 3a 01 	sts	0x013A, r1
     f40:	82 17       	cp	r24, r18
     f42:	93 07       	cpc	r25, r19
     f44:	e8 f0       	brcs	.+58     	; 0xf80 <SpeedCalcManage+0xae>
     f46:	40 91 42 01 	lds	r20, 0x0142
     f4a:	50 91 43 01 	lds	r21, 0x0143
     f4e:	60 91 44 01 	lds	r22, 0x0144
     f52:	70 91 45 01 	lds	r23, 0x0145
     f56:	4f 5f       	subi	r20, 0xFF	; 255
     f58:	5f 4f       	sbci	r21, 0xFF	; 255
     f5a:	6f 4f       	sbci	r22, 0xFF	; 255
     f5c:	7f 4f       	sbci	r23, 0xFF	; 255
     f5e:	40 93 42 01 	sts	0x0142, r20
     f62:	50 93 43 01 	sts	0x0143, r21
     f66:	60 93 44 01 	sts	0x0144, r22
     f6a:	70 93 45 01 	sts	0x0145, r23
     f6e:	82 1b       	sub	r24, r18
     f70:	93 0b       	sbc	r25, r19
     f72:	90 93 41 01 	sts	0x0141, r25
     f76:	80 93 40 01 	sts	0x0140, r24
     f7a:	08 95       	ret
     f7c:	10 92 3a 01 	sts	0x013A, r1
     f80:	08 95       	ret

00000f82 <DisableDistanceCntr>:
     f82:	80 93 3f 01 	sts	0x013F, r24
     f86:	08 95       	ret

00000f88 <SetDistance>:
     f88:	dc 01       	movw	r26, r24
     f8a:	cb 01       	movw	r24, r22
     f8c:	80 93 42 01 	sts	0x0142, r24
     f90:	90 93 43 01 	sts	0x0143, r25
     f94:	a0 93 44 01 	sts	0x0144, r26
     f98:	b0 93 45 01 	sts	0x0145, r27
     f9c:	10 92 41 01 	sts	0x0141, r1
     fa0:	10 92 40 01 	sts	0x0140, r1
     fa4:	08 95       	ret

00000fa6 <GetDistance>:
     fa6:	60 91 42 01 	lds	r22, 0x0142
     faa:	70 91 43 01 	lds	r23, 0x0143
     fae:	80 91 44 01 	lds	r24, 0x0144
     fb2:	90 91 45 01 	lds	r25, 0x0145
     fb6:	08 95       	ret

00000fb8 <SetCircumfirunce>:
     fb8:	90 93 a2 00 	sts	0x00A2, r25
     fbc:	80 93 a1 00 	sts	0x00A1, r24
     fc0:	08 95       	ret

00000fc2 <GetAvgSpeed>:
     fc2:	cf 93       	push	r28
     fc4:	df 93       	push	r29
     fc6:	81 30       	cpi	r24, 0x01	; 1
     fc8:	29 f4       	brne	.+10     	; 0xfd4 <GetAvgSpeed+0x12>
     fca:	68 e6       	ldi	r22, 0x68	; 104
     fcc:	71 e0       	ldi	r23, 0x01	; 1
     fce:	80 e0       	ldi	r24, 0x00	; 0
     fd0:	90 e0       	ldi	r25, 0x00	; 0
     fd2:	04 c0       	rjmp	.+8      	; 0xfdc <GetAvgSpeed+0x1a>
     fd4:	61 ee       	ldi	r22, 0xE1	; 225
     fd6:	70 e0       	ldi	r23, 0x00	; 0
     fd8:	80 e0       	ldi	r24, 0x00	; 0
     fda:	90 e0       	ldi	r25, 0x00	; 0
     fdc:	c0 91 3d 01 	lds	r28, 0x013D
     fe0:	d0 91 3e 01 	lds	r29, 0x013E
     fe4:	20 97       	sbiw	r28, 0x00	; 0
     fe6:	69 f0       	breq	.+26     	; 0x1002 <GetAvgSpeed+0x40>
     fe8:	20 91 a1 00 	lds	r18, 0x00A1
     fec:	30 91 a2 00 	lds	r19, 0x00A2
     ff0:	40 e0       	ldi	r20, 0x00	; 0
     ff2:	50 e0       	ldi	r21, 0x00	; 0
     ff4:	2b d2       	rcall	.+1110   	; 0x144c <__mulsi3>
     ff6:	9e 01       	movw	r18, r28
     ff8:	40 e0       	ldi	r20, 0x00	; 0
     ffa:	50 e0       	ldi	r21, 0x00	; 0
     ffc:	5a d2       	rcall	.+1204   	; 0x14b2 <__udivmodsi4>
     ffe:	c9 01       	movw	r24, r18
    1000:	02 c0       	rjmp	.+4      	; 0x1006 <GetAvgSpeed+0x44>
    1002:	80 e0       	ldi	r24, 0x00	; 0
    1004:	90 e0       	ldi	r25, 0x00	; 0
    1006:	20 91 37 01 	lds	r18, 0x0137
    100a:	20 34       	cpi	r18, 0x40	; 64
    100c:	11 f4       	brne	.+4      	; 0x1012 <GetAvgSpeed+0x50>
    100e:	80 e0       	ldi	r24, 0x00	; 0
    1010:	90 e0       	ldi	r25, 0x00	; 0
    1012:	df 91       	pop	r29
    1014:	cf 91       	pop	r28
    1016:	08 95       	ret

00001018 <HWtimerCallback>:
    1018:	80 91 37 01 	lds	r24, 0x0137
    101c:	80 34       	cpi	r24, 0x40	; 64
    101e:	28 f4       	brcc	.+10     	; 0x102a <HWtimerCallback+0x12>
    1020:	80 91 37 01 	lds	r24, 0x0137
    1024:	8f 5f       	subi	r24, 0xFF	; 255
    1026:	80 93 37 01 	sts	0x0137, r24
    102a:	08 95       	ret

0000102c <APP_ISR1>:
    102c:	1e df       	rcall	.-452    	; 0xe6a <SensorOneNotify>
    102e:	08 95       	ret

00001030 <APP_ISR2>:
    1030:	2d df       	rcall	.-422    	; 0xe8c <SensorTwoNotify>
    1032:	08 95       	ret

00001034 <APP_ISR3>:
    1034:	f1 df       	rcall	.-30     	; 0x1018 <HWtimerCallback>
    1036:	08 95       	ret

00001038 <ManageDrivers>:
    1038:	cf 93       	push	r28
    103a:	80 e0       	ldi	r24, 0x00	; 0
    103c:	0e de       	rcall	.-996    	; 0xc5a <MangeKeys>
    103e:	81 e0       	ldi	r24, 0x01	; 1
    1040:	0c de       	rcall	.-1000   	; 0xc5a <MangeKeys>
    1042:	cf dd       	rcall	.-1122   	; 0xbe2 <EepromManage>
    1044:	c0 e0       	ldi	r28, 0x00	; 0
    1046:	8c 2f       	mov	r24, r28
    1048:	de de       	rcall	.-580    	; 0xe06 <ManageLeds>
    104a:	cf 5f       	subi	r28, 0xFF	; 255
    104c:	c7 30       	cpi	r28, 0x07	; 7
    104e:	d9 f7       	brne	.-10     	; 0x1046 <ManageDrivers+0xe>
    1050:	cf 91       	pop	r28
    1052:	08 95       	ret

00001054 <ManageSpeedCalc>:
    1054:	3e df       	rcall	.-388    	; 0xed2 <SpeedCalcManage>
    1056:	08 95       	ret

00001058 <ManageApplication>:
    1058:	0c d9       	rcall	.-3560   	; 0x272 <APP_MANAGE>
    105a:	08 95       	ret

0000105c <DisplayAlphaNumeric>:
    105c:	bd dc       	rcall	.-1670   	; 0x9d8 <BCDManage7segment>
    105e:	08 95       	ret

00001060 <Start_App>:
    1060:	df d1       	rcall	.+958    	; 0x1420 <HWI_InitOscilatorCalib>
    1062:	06 d1       	rcall	.+524    	; 0x1270 <HWI_INTERRUPTS_INTITALIZE>
    1064:	74 d0       	rcall	.+232    	; 0x114e <HWI_DIGITAL_INITIALIZE>
    1066:	00 df       	rcall	.-512    	; 0xe68 <SpeedCalcNotifyInitialize>
    1068:	79 d8       	rcall	.-3854   	; 0x15c <APP_INITIALIZE>
    106a:	81 e0       	ldi	r24, 0x01	; 1
    106c:	16 dc       	rcall	.-2004   	; 0x89a <BCDInitialize>
    106e:	a7 de       	rcall	.-690    	; 0xdbe <InitializeLed>
    1070:	8a e2       	ldi	r24, 0x2A	; 42
    1072:	98 e0       	ldi	r25, 0x08	; 8
    1074:	60 e0       	ldi	r22, 0x00	; 0
    1076:	44 e1       	ldi	r20, 0x14	; 20
    1078:	11 d0       	rcall	.+34     	; 0x109c <CreateTask>
    107a:	8c e2       	ldi	r24, 0x2C	; 44
    107c:	98 e0       	ldi	r25, 0x08	; 8
    107e:	62 e0       	ldi	r22, 0x02	; 2
    1080:	42 e3       	ldi	r20, 0x32	; 50
    1082:	0c d0       	rcall	.+24     	; 0x109c <CreateTask>
    1084:	8e e2       	ldi	r24, 0x2E	; 46
    1086:	98 e0       	ldi	r25, 0x08	; 8
    1088:	61 e0       	ldi	r22, 0x01	; 1
    108a:	42 e0       	ldi	r20, 0x02	; 2
    108c:	07 d0       	rcall	.+14     	; 0x109c <CreateTask>
    108e:	8c e1       	ldi	r24, 0x1C	; 28
    1090:	98 e0       	ldi	r25, 0x08	; 8
    1092:	63 e0       	ldi	r22, 0x03	; 3
    1094:	4a e0       	ldi	r20, 0x0A	; 10
    1096:	02 d0       	rcall	.+4      	; 0x109c <CreateTask>
    1098:	1b d0       	rcall	.+54     	; 0x10d0 <RunScheduler>
    109a:	08 95       	ret

0000109c <CreateTask>:
    109c:	64 30       	cpi	r22, 0x04	; 4
    109e:	60 f4       	brcc	.+24     	; 0x10b8 <CreateTask+0x1c>
    10a0:	e6 2f       	mov	r30, r22
    10a2:	f0 e0       	ldi	r31, 0x00	; 0
    10a4:	ee 0f       	add	r30, r30
    10a6:	ff 1f       	adc	r31, r31
    10a8:	ee 0f       	add	r30, r30
    10aa:	ff 1f       	adc	r31, r31
    10ac:	ea 5b       	subi	r30, 0xBA	; 186
    10ae:	fe 4f       	sbci	r31, 0xFE	; 254
    10b0:	91 83       	std	Z+1, r25	; 0x01
    10b2:	80 83       	st	Z, r24
    10b4:	42 83       	std	Z+2, r20	; 0x02
    10b6:	13 82       	std	Z+3, r1	; 0x03
    10b8:	08 95       	ret

000010ba <SchedulerTick>:
    10ba:	e9 e4       	ldi	r30, 0x49	; 73
    10bc:	f1 e0       	ldi	r31, 0x01	; 1
    10be:	84 e0       	ldi	r24, 0x04	; 4
    10c0:	90 81       	ld	r25, Z
    10c2:	9f 5f       	subi	r25, 0xFF	; 255
    10c4:	90 83       	st	Z, r25
    10c6:	81 50       	subi	r24, 0x01	; 1
    10c8:	34 96       	adiw	r30, 0x04	; 4
    10ca:	88 23       	and	r24, r24
    10cc:	c9 f7       	brne	.-14     	; 0x10c0 <SchedulerTick+0x6>
    10ce:	08 95       	ret

000010d0 <RunScheduler>:
    10d0:	10 92 56 01 	sts	0x0156, r1
    10d4:	1e c0       	rjmp	.+60     	; 0x1112 <RunScheduler+0x42>
    10d6:	f0 e0       	ldi	r31, 0x00	; 0
    10d8:	ee 0f       	add	r30, r30
    10da:	ff 1f       	adc	r31, r31
    10dc:	ee 0f       	add	r30, r30
    10de:	ff 1f       	adc	r31, r31
    10e0:	ea 5b       	subi	r30, 0xBA	; 186
    10e2:	fe 4f       	sbci	r31, 0xFE	; 254
    10e4:	92 81       	ldd	r25, Z+2	; 0x02
    10e6:	83 81       	ldd	r24, Z+3	; 0x03
    10e8:	89 17       	cp	r24, r25
    10ea:	70 f0       	brcs	.+28     	; 0x1108 <RunScheduler+0x38>
    10ec:	01 90       	ld	r0, Z+
    10ee:	f0 81       	ld	r31, Z
    10f0:	e0 2d       	mov	r30, r0
    10f2:	09 95       	icall
    10f4:	e0 91 56 01 	lds	r30, 0x0156
    10f8:	f0 e0       	ldi	r31, 0x00	; 0
    10fa:	ee 0f       	add	r30, r30
    10fc:	ff 1f       	adc	r31, r31
    10fe:	ee 0f       	add	r30, r30
    1100:	ff 1f       	adc	r31, r31
    1102:	ea 5b       	subi	r30, 0xBA	; 186
    1104:	fe 4f       	sbci	r31, 0xFE	; 254
    1106:	13 82       	std	Z+3, r1	; 0x03
    1108:	80 91 56 01 	lds	r24, 0x0156
    110c:	8f 5f       	subi	r24, 0xFF	; 255
    110e:	80 93 56 01 	sts	0x0156, r24
    1112:	e0 91 56 01 	lds	r30, 0x0156
    1116:	e4 30       	cpi	r30, 0x04	; 4
    1118:	d8 f6       	brcc	.-74     	; 0x10d0 <RunScheduler>
    111a:	dd cf       	rjmp	.-70     	; 0x10d6 <RunScheduler+0x6>

0000111c <HWIeeprom_Write>:
    111c:	e1 99       	sbic	0x1c, 1	; 28
    111e:	08 c0       	rjmp	.+16     	; 0x1130 <HWIeeprom_Write+0x14>
    1120:	90 e0       	ldi	r25, 0x00	; 0
    1122:	9f bb       	out	0x1f, r25	; 31
    1124:	8e bb       	out	0x1e, r24	; 30
    1126:	6d bb       	out	0x1d, r22	; 29
    1128:	e2 9a       	sbi	0x1c, 2	; 28
    112a:	e1 9a       	sbi	0x1c, 1	; 28
    112c:	81 e0       	ldi	r24, 0x01	; 1
    112e:	08 95       	ret
    1130:	80 e0       	ldi	r24, 0x00	; 0
    1132:	08 95       	ret

00001134 <HWIeeprom_Read>:
    1134:	e1 99       	sbic	0x1c, 1	; 28
    1136:	09 c0       	rjmp	.+18     	; 0x114a <HWIeeprom_Read+0x16>
    1138:	90 e0       	ldi	r25, 0x00	; 0
    113a:	9f bb       	out	0x1f, r25	; 31
    113c:	8e bb       	out	0x1e, r24	; 30
    113e:	e0 9a       	sbi	0x1c, 0	; 28
    1140:	8d b3       	in	r24, 0x1d	; 29
    1142:	fb 01       	movw	r30, r22
    1144:	80 83       	st	Z, r24
    1146:	81 e0       	ldi	r24, 0x01	; 1
    1148:	08 95       	ret
    114a:	80 e0       	ldi	r24, 0x00	; 0
    114c:	08 95       	ret

0000114e <HWI_DIGITAL_INITIALIZE>:
    114e:	8f ef       	ldi	r24, 0xFF	; 255
    1150:	87 bb       	out	0x17, r24	; 23
    1152:	84 bb       	out	0x14, r24	; 20
    1154:	83 e8       	ldi	r24, 0x83	; 131
    1156:	81 bb       	out	0x11, r24	; 17
    1158:	8c e7       	ldi	r24, 0x7C	; 124
    115a:	82 bb       	out	0x12, r24	; 18
    115c:	08 95       	ret

0000115e <HWI_DIGITAL_SLEEP>:
    115e:	17 ba       	out	0x17, r1	; 23
    1160:	14 ba       	out	0x14, r1	; 20
    1162:	11 ba       	out	0x11, r1	; 17
    1164:	18 ba       	out	0x18, r1	; 24
    1166:	15 ba       	out	0x15, r1	; 21
    1168:	12 ba       	out	0x12, r1	; 18
    116a:	08 95       	ret

0000116c <HWI_DIGI_READ>:
    116c:	80 31       	cpi	r24, 0x10	; 16
    116e:	39 f0       	breq	.+14     	; 0x117e <HWI_DIGI_READ+0x12>
    1170:	81 31       	cpi	r24, 0x11	; 17
    1172:	41 f0       	breq	.+16     	; 0x1184 <HWI_DIGI_READ+0x18>
    1174:	8f 30       	cpi	r24, 0x0F	; 15
    1176:	49 f4       	brne	.+18     	; 0x118a <HWI_DIGI_READ+0x1e>
    1178:	80 b3       	in	r24, 0x10	; 16
    117a:	80 71       	andi	r24, 0x10	; 16
    117c:	08 95       	ret
    117e:	80 b3       	in	r24, 0x10	; 16
    1180:	80 72       	andi	r24, 0x20	; 32
    1182:	08 95       	ret
    1184:	80 b3       	in	r24, 0x10	; 16
    1186:	80 74       	andi	r24, 0x40	; 64
    1188:	08 95       	ret
    118a:	80 e0       	ldi	r24, 0x00	; 0
    118c:	08 95       	ret

0000118e <HWI_DIGI_WRITE>:
    118e:	82 30       	cpi	r24, 0x02	; 2
    1190:	e9 f0       	breq	.+58     	; 0x11cc <HWI_DIGI_WRITE+0x3e>
    1192:	83 30       	cpi	r24, 0x03	; 3
    1194:	30 f4       	brcc	.+12     	; 0x11a2 <HWI_DIGI_WRITE+0x14>
    1196:	88 23       	and	r24, r24
    1198:	59 f0       	breq	.+22     	; 0x11b0 <HWI_DIGI_WRITE+0x22>
    119a:	81 30       	cpi	r24, 0x01	; 1
    119c:	09 f0       	breq	.+2      	; 0x11a0 <HWI_DIGI_WRITE+0x12>
    119e:	42 c0       	rjmp	.+132    	; 0x1224 <HWI_DIGI_WRITE+0x96>
    11a0:	0b c0       	rjmp	.+22     	; 0x11b8 <HWI_DIGI_WRITE+0x2a>
    11a2:	85 30       	cpi	r24, 0x05	; 5
    11a4:	31 f1       	breq	.+76     	; 0x11f2 <HWI_DIGI_WRITE+0x64>
    11a6:	86 30       	cpi	r24, 0x06	; 6
    11a8:	89 f1       	breq	.+98     	; 0x120c <HWI_DIGI_WRITE+0x7e>
    11aa:	83 30       	cpi	r24, 0x03	; 3
    11ac:	d9 f5       	brne	.+118    	; 0x1224 <HWI_DIGI_WRITE+0x96>
    11ae:	16 c0       	rjmp	.+44     	; 0x11dc <HWI_DIGI_WRITE+0x4e>
    11b0:	82 b3       	in	r24, 0x12	; 18
    11b2:	61 70       	andi	r22, 0x01	; 1
    11b4:	8e 7f       	andi	r24, 0xFE	; 254
    11b6:	0f c0       	rjmp	.+30     	; 0x11d6 <HWI_DIGI_WRITE+0x48>
    11b8:	82 b3       	in	r24, 0x12	; 18
    11ba:	70 e0       	ldi	r23, 0x00	; 0
    11bc:	61 70       	andi	r22, 0x01	; 1
    11be:	70 70       	andi	r23, 0x00	; 0
    11c0:	66 0f       	add	r22, r22
    11c2:	77 1f       	adc	r23, r23
    11c4:	8d 7f       	andi	r24, 0xFD	; 253
    11c6:	86 2b       	or	r24, r22
    11c8:	82 bb       	out	0x12, r24	; 18
    11ca:	08 95       	ret
    11cc:	82 b3       	in	r24, 0x12	; 18
    11ce:	67 95       	ror	r22
    11d0:	66 27       	eor	r22, r22
    11d2:	67 95       	ror	r22
    11d4:	8f 77       	andi	r24, 0x7F	; 127
    11d6:	68 2b       	or	r22, r24
    11d8:	62 bb       	out	0x12, r22	; 18
    11da:	08 95       	ret
    11dc:	85 b3       	in	r24, 0x15	; 21
    11de:	70 e0       	ldi	r23, 0x00	; 0
    11e0:	61 70       	andi	r22, 0x01	; 1
    11e2:	70 70       	andi	r23, 0x00	; 0
    11e4:	35 e0       	ldi	r19, 0x05	; 5
    11e6:	66 0f       	add	r22, r22
    11e8:	77 1f       	adc	r23, r23
    11ea:	3a 95       	dec	r19
    11ec:	e1 f7       	brne	.-8      	; 0x11e6 <HWI_DIGI_WRITE+0x58>
    11ee:	8f 7d       	andi	r24, 0xDF	; 223
    11f0:	0a c0       	rjmp	.+20     	; 0x1206 <HWI_DIGI_WRITE+0x78>
    11f2:	85 b3       	in	r24, 0x15	; 21
    11f4:	70 e0       	ldi	r23, 0x00	; 0
    11f6:	61 70       	andi	r22, 0x01	; 1
    11f8:	70 70       	andi	r23, 0x00	; 0
    11fa:	24 e0       	ldi	r18, 0x04	; 4
    11fc:	66 0f       	add	r22, r22
    11fe:	77 1f       	adc	r23, r23
    1200:	2a 95       	dec	r18
    1202:	e1 f7       	brne	.-8      	; 0x11fc <HWI_DIGI_WRITE+0x6e>
    1204:	8f 7e       	andi	r24, 0xEF	; 239
    1206:	86 2b       	or	r24, r22
    1208:	85 bb       	out	0x15, r24	; 21
    120a:	08 95       	ret
    120c:	85 b3       	in	r24, 0x15	; 21
    120e:	70 e0       	ldi	r23, 0x00	; 0
    1210:	61 70       	andi	r22, 0x01	; 1
    1212:	70 70       	andi	r23, 0x00	; 0
    1214:	93 e0       	ldi	r25, 0x03	; 3
    1216:	66 0f       	add	r22, r22
    1218:	77 1f       	adc	r23, r23
    121a:	9a 95       	dec	r25
    121c:	e1 f7       	brne	.-8      	; 0x1216 <HWI_DIGI_WRITE+0x88>
    121e:	87 7f       	andi	r24, 0xF7	; 247
    1220:	86 2b       	or	r24, r22
    1222:	85 bb       	out	0x15, r24	; 21
    1224:	08 95       	ret

00001226 <HWI_4Digit_WRITE>:
    1226:	88 23       	and	r24, r24
    1228:	29 f4       	brne	.+10     	; 0x1234 <HWI_4Digit_WRITE+0xe>
    122a:	85 b3       	in	r24, 0x15	; 21
    122c:	88 7f       	andi	r24, 0xF8	; 248
    122e:	86 2b       	or	r24, r22
    1230:	85 bb       	out	0x15, r24	; 21
    1232:	08 95       	ret
    1234:	88 b3       	in	r24, 0x18	; 24
    1236:	80 7f       	andi	r24, 0xF0	; 240
    1238:	86 2b       	or	r24, r22
    123a:	88 bb       	out	0x18, r24	; 24
    123c:	08 95       	ret

0000123e <HWI_4Digit_READ>:
    123e:	88 23       	and	r24, r24
    1240:	19 f0       	breq	.+6      	; 0x1248 <HWI_4Digit_READ+0xa>
    1242:	81 30       	cpi	r24, 0x01	; 1
    1244:	31 f4       	brne	.+12     	; 0x1252 <HWI_4Digit_READ+0x14>
    1246:	02 c0       	rjmp	.+4      	; 0x124c <HWI_4Digit_READ+0xe>
    1248:	83 b3       	in	r24, 0x13	; 19
    124a:	01 c0       	rjmp	.+2      	; 0x124e <HWI_4Digit_READ+0x10>
    124c:	86 b3       	in	r24, 0x16	; 22
    124e:	8f 70       	andi	r24, 0x0F	; 15
    1250:	08 95       	ret
    1252:	86 b3       	in	r24, 0x16	; 22
    1254:	8f 70       	andi	r24, 0x0F	; 15
    1256:	08 95       	ret

00001258 <HWI_8Digit_WRITE>:
    1258:	88 23       	and	r24, r24
    125a:	11 f4       	brne	.+4      	; 0x1260 <HWI_8Digit_WRITE+0x8>
    125c:	65 bb       	out	0x15, r22	; 21
    125e:	08 95       	ret
    1260:	68 bb       	out	0x18, r22	; 24
    1262:	08 95       	ret

00001264 <HWI8Digit_READ>:
    1264:	88 23       	and	r24, r24
    1266:	11 f0       	breq	.+4      	; 0x126c <HWI8Digit_READ+0x8>
    1268:	86 b3       	in	r24, 0x16	; 22
    126a:	08 95       	ret
    126c:	83 b3       	in	r24, 0x13	; 19
    126e:	08 95       	ret

00001270 <HWI_INTERRUPTS_INTITALIZE>:
    1270:	8e b5       	in	r24, 0x2e	; 46
    1272:	82 60       	ori	r24, 0x02	; 2
    1274:	8e bd       	out	0x2e, r24	; 46
    1276:	8f ef       	ldi	r24, 0xFF	; 255
    1278:	9f e7       	ldi	r25, 0x7F	; 127
    127a:	9d bd       	out	0x2d, r25	; 45
    127c:	8c bd       	out	0x2c, r24	; 44
    127e:	83 b7       	in	r24, 0x33	; 51
    1280:	83 60       	ori	r24, 0x03	; 3
    1282:	83 bf       	out	0x33, r24	; 51
    1284:	82 ec       	ldi	r24, 0xC2	; 194
    1286:	82 bf       	out	0x32, r24	; 50
    1288:	89 b7       	in	r24, 0x39	; 57
    128a:	81 60       	ori	r24, 0x01	; 1
    128c:	89 bf       	out	0x39, r24	; 57
    128e:	89 b7       	in	r24, 0x39	; 57
    1290:	84 60       	ori	r24, 0x04	; 4
    1292:	89 bf       	out	0x39, r24	; 57
    1294:	8b b7       	in	r24, 0x3b	; 59
    1296:	80 64       	ori	r24, 0x40	; 64
    1298:	8b bf       	out	0x3b, r24	; 59
    129a:	85 b7       	in	r24, 0x35	; 53
    129c:	83 60       	ori	r24, 0x03	; 3
    129e:	85 bf       	out	0x35, r24	; 53
    12a0:	8b b7       	in	r24, 0x3b	; 59
    12a2:	80 68       	ori	r24, 0x80	; 128
    12a4:	8b bf       	out	0x3b, r24	; 59
    12a6:	85 b7       	in	r24, 0x35	; 53
    12a8:	8c 60       	ori	r24, 0x0C	; 12
    12aa:	85 bf       	out	0x35, r24	; 53
    12ac:	81 b3       	in	r24, 0x11	; 17
    12ae:	8c 60       	ori	r24, 0x0C	; 12
    12b0:	81 bb       	out	0x11, r24	; 17
    12b2:	78 94       	sei
    12b4:	08 95       	ret

000012b6 <ReloadHWtimer>:
    12b6:	83 30       	cpi	r24, 0x03	; 3
    12b8:	58 f4       	brcc	.+22     	; 0x12d0 <ReloadHWtimer+0x1a>
    12ba:	8c b5       	in	r24, 0x2c	; 44
    12bc:	9d b5       	in	r25, 0x2d	; 45
    12be:	8f 5f       	subi	r24, 0xFF	; 255
    12c0:	9f 47       	sbci	r25, 0x7F	; 127
    12c2:	88 0f       	add	r24, r24
    12c4:	99 1f       	adc	r25, r25
    12c6:	2f ef       	ldi	r18, 0xFF	; 255
    12c8:	3f e7       	ldi	r19, 0x7F	; 127
    12ca:	3d bd       	out	0x2d, r19	; 45
    12cc:	2c bd       	out	0x2c, r18	; 44
    12ce:	08 95       	ret
    12d0:	80 e0       	ldi	r24, 0x00	; 0
    12d2:	90 e0       	ldi	r25, 0x00	; 0
    12d4:	08 95       	ret

000012d6 <__vector_9>:
    12d6:	1f 92       	push	r1
    12d8:	0f 92       	push	r0
    12da:	0f b6       	in	r0, 0x3f	; 63
    12dc:	0f 92       	push	r0
    12de:	11 24       	eor	r1, r1
    12e0:	2f 93       	push	r18
    12e2:	3f 93       	push	r19
    12e4:	4f 93       	push	r20
    12e6:	5f 93       	push	r21
    12e8:	6f 93       	push	r22
    12ea:	7f 93       	push	r23
    12ec:	8f 93       	push	r24
    12ee:	9f 93       	push	r25
    12f0:	af 93       	push	r26
    12f2:	bf 93       	push	r27
    12f4:	ef 93       	push	r30
    12f6:	ff 93       	push	r31
    12f8:	82 ec       	ldi	r24, 0xC2	; 194
    12fa:	82 bf       	out	0x32, r24	; 50
    12fc:	de de       	rcall	.-580    	; 0x10ba <SchedulerTick>
    12fe:	ff 91       	pop	r31
    1300:	ef 91       	pop	r30
    1302:	bf 91       	pop	r27
    1304:	af 91       	pop	r26
    1306:	9f 91       	pop	r25
    1308:	8f 91       	pop	r24
    130a:	7f 91       	pop	r23
    130c:	6f 91       	pop	r22
    130e:	5f 91       	pop	r21
    1310:	4f 91       	pop	r20
    1312:	3f 91       	pop	r19
    1314:	2f 91       	pop	r18
    1316:	0f 90       	pop	r0
    1318:	0f be       	out	0x3f, r0	; 63
    131a:	0f 90       	pop	r0
    131c:	1f 90       	pop	r1
    131e:	18 95       	reti

00001320 <__vector_8>:
    1320:	1f 92       	push	r1
    1322:	0f 92       	push	r0
    1324:	0f b6       	in	r0, 0x3f	; 63
    1326:	0f 92       	push	r0
    1328:	11 24       	eor	r1, r1
    132a:	2f 93       	push	r18
    132c:	3f 93       	push	r19
    132e:	4f 93       	push	r20
    1330:	5f 93       	push	r21
    1332:	6f 93       	push	r22
    1334:	7f 93       	push	r23
    1336:	8f 93       	push	r24
    1338:	9f 93       	push	r25
    133a:	af 93       	push	r26
    133c:	bf 93       	push	r27
    133e:	ef 93       	push	r30
    1340:	ff 93       	push	r31
    1342:	8f ef       	ldi	r24, 0xFF	; 255
    1344:	9f e7       	ldi	r25, 0x7F	; 127
    1346:	9d bd       	out	0x2d, r25	; 45
    1348:	8c bd       	out	0x2c, r24	; 44
    134a:	74 de       	rcall	.-792    	; 0x1034 <APP_ISR3>
    134c:	ff 91       	pop	r31
    134e:	ef 91       	pop	r30
    1350:	bf 91       	pop	r27
    1352:	af 91       	pop	r26
    1354:	9f 91       	pop	r25
    1356:	8f 91       	pop	r24
    1358:	7f 91       	pop	r23
    135a:	6f 91       	pop	r22
    135c:	5f 91       	pop	r21
    135e:	4f 91       	pop	r20
    1360:	3f 91       	pop	r19
    1362:	2f 91       	pop	r18
    1364:	0f 90       	pop	r0
    1366:	0f be       	out	0x3f, r0	; 63
    1368:	0f 90       	pop	r0
    136a:	1f 90       	pop	r1
    136c:	18 95       	reti

0000136e <__vector_1>:
    136e:	1f 92       	push	r1
    1370:	0f 92       	push	r0
    1372:	0f b6       	in	r0, 0x3f	; 63
    1374:	0f 92       	push	r0
    1376:	11 24       	eor	r1, r1
    1378:	2f 93       	push	r18
    137a:	3f 93       	push	r19
    137c:	4f 93       	push	r20
    137e:	5f 93       	push	r21
    1380:	6f 93       	push	r22
    1382:	7f 93       	push	r23
    1384:	8f 93       	push	r24
    1386:	9f 93       	push	r25
    1388:	af 93       	push	r26
    138a:	bf 93       	push	r27
    138c:	ef 93       	push	r30
    138e:	ff 93       	push	r31
    1390:	4d de       	rcall	.-870    	; 0x102c <APP_ISR1>
    1392:	85 b7       	in	r24, 0x35	; 53
    1394:	83 60       	ori	r24, 0x03	; 3
    1396:	85 bf       	out	0x35, r24	; 53
    1398:	ff 91       	pop	r31
    139a:	ef 91       	pop	r30
    139c:	bf 91       	pop	r27
    139e:	af 91       	pop	r26
    13a0:	9f 91       	pop	r25
    13a2:	8f 91       	pop	r24
    13a4:	7f 91       	pop	r23
    13a6:	6f 91       	pop	r22
    13a8:	5f 91       	pop	r21
    13aa:	4f 91       	pop	r20
    13ac:	3f 91       	pop	r19
    13ae:	2f 91       	pop	r18
    13b0:	0f 90       	pop	r0
    13b2:	0f be       	out	0x3f, r0	; 63
    13b4:	0f 90       	pop	r0
    13b6:	1f 90       	pop	r1
    13b8:	18 95       	reti

000013ba <__vector_2>:
    13ba:	1f 92       	push	r1
    13bc:	0f 92       	push	r0
    13be:	0f b6       	in	r0, 0x3f	; 63
    13c0:	0f 92       	push	r0
    13c2:	11 24       	eor	r1, r1
    13c4:	2f 93       	push	r18
    13c6:	3f 93       	push	r19
    13c8:	4f 93       	push	r20
    13ca:	5f 93       	push	r21
    13cc:	6f 93       	push	r22
    13ce:	7f 93       	push	r23
    13d0:	8f 93       	push	r24
    13d2:	9f 93       	push	r25
    13d4:	af 93       	push	r26
    13d6:	bf 93       	push	r27
    13d8:	ef 93       	push	r30
    13da:	ff 93       	push	r31
    13dc:	29 de       	rcall	.-942    	; 0x1030 <APP_ISR2>
    13de:	ff 91       	pop	r31
    13e0:	ef 91       	pop	r30
    13e2:	bf 91       	pop	r27
    13e4:	af 91       	pop	r26
    13e6:	9f 91       	pop	r25
    13e8:	8f 91       	pop	r24
    13ea:	7f 91       	pop	r23
    13ec:	6f 91       	pop	r22
    13ee:	5f 91       	pop	r21
    13f0:	4f 91       	pop	r20
    13f2:	3f 91       	pop	r19
    13f4:	2f 91       	pop	r18
    13f6:	0f 90       	pop	r0
    13f8:	0f be       	out	0x3f, r0	; 63
    13fa:	0f 90       	pop	r0
    13fc:	1f 90       	pop	r1
    13fe:	18 95       	reti

00001400 <SendMCUtoSleep>:
    1400:	85 b7       	in	r24, 0x35	; 53
    1402:	8c 7f       	andi	r24, 0xFC	; 252
    1404:	85 bf       	out	0x35, r24	; 53
    1406:	85 b7       	in	r24, 0x35	; 53
    1408:	80 62       	ori	r24, 0x20	; 32
    140a:	85 bf       	out	0x35, r24	; 53
    140c:	f8 94       	cli
    140e:	85 b7       	in	r24, 0x35	; 53
    1410:	80 68       	ori	r24, 0x80	; 128
    1412:	85 bf       	out	0x35, r24	; 53
    1414:	78 94       	sei
    1416:	88 95       	sleep
    1418:	85 b7       	in	r24, 0x35	; 53
    141a:	8f 77       	andi	r24, 0x7F	; 127
    141c:	85 bf       	out	0x35, r24	; 53
    141e:	08 95       	ret

00001420 <HWI_InitOscilatorCalib>:
    1420:	cf 93       	push	r28
    1422:	df 93       	push	r29
    1424:	0f 92       	push	r0
    1426:	cd b7       	in	r28, 0x3d	; 61
    1428:	de b7       	in	r29, 0x3e	; 62
    142a:	80 e0       	ldi	r24, 0x00	; 0
    142c:	be 01       	movw	r22, r28
    142e:	6f 5f       	subi	r22, 0xFF	; 255
    1430:	7f 4f       	sbci	r23, 0xFF	; 255
    1432:	80 de       	rcall	.-768    	; 0x1134 <HWIeeprom_Read>
    1434:	88 23       	and	r24, r24
    1436:	c9 f3       	breq	.-14     	; 0x142a <HWI_InitOscilatorCalib+0xa>
    1438:	89 81       	ldd	r24, Y+1	; 0x01
    143a:	81 bf       	out	0x31, r24	; 49
    143c:	0f 90       	pop	r0
    143e:	df 91       	pop	r29
    1440:	cf 91       	pop	r28
    1442:	08 95       	ret

00001444 <main>:
    1444:	0d de       	rcall	.-998    	; 0x1060 <Start_App>
    1446:	80 e0       	ldi	r24, 0x00	; 0
    1448:	90 e0       	ldi	r25, 0x00	; 0
    144a:	08 95       	ret

0000144c <__mulsi3>:
    144c:	62 9f       	mul	r22, r18
    144e:	d0 01       	movw	r26, r0
    1450:	73 9f       	mul	r23, r19
    1452:	f0 01       	movw	r30, r0
    1454:	82 9f       	mul	r24, r18
    1456:	e0 0d       	add	r30, r0
    1458:	f1 1d       	adc	r31, r1
    145a:	64 9f       	mul	r22, r20
    145c:	e0 0d       	add	r30, r0
    145e:	f1 1d       	adc	r31, r1
    1460:	92 9f       	mul	r25, r18
    1462:	f0 0d       	add	r31, r0
    1464:	83 9f       	mul	r24, r19
    1466:	f0 0d       	add	r31, r0
    1468:	74 9f       	mul	r23, r20
    146a:	f0 0d       	add	r31, r0
    146c:	65 9f       	mul	r22, r21
    146e:	f0 0d       	add	r31, r0
    1470:	99 27       	eor	r25, r25
    1472:	72 9f       	mul	r23, r18
    1474:	b0 0d       	add	r27, r0
    1476:	e1 1d       	adc	r30, r1
    1478:	f9 1f       	adc	r31, r25
    147a:	63 9f       	mul	r22, r19
    147c:	b0 0d       	add	r27, r0
    147e:	e1 1d       	adc	r30, r1
    1480:	f9 1f       	adc	r31, r25
    1482:	bd 01       	movw	r22, r26
    1484:	cf 01       	movw	r24, r30
    1486:	11 24       	eor	r1, r1
    1488:	08 95       	ret

0000148a <__udivmodhi4>:
    148a:	aa 1b       	sub	r26, r26
    148c:	bb 1b       	sub	r27, r27
    148e:	51 e1       	ldi	r21, 0x11	; 17
    1490:	07 c0       	rjmp	.+14     	; 0x14a0 <__udivmodhi4_ep>

00001492 <__udivmodhi4_loop>:
    1492:	aa 1f       	adc	r26, r26
    1494:	bb 1f       	adc	r27, r27
    1496:	a6 17       	cp	r26, r22
    1498:	b7 07       	cpc	r27, r23
    149a:	10 f0       	brcs	.+4      	; 0x14a0 <__udivmodhi4_ep>
    149c:	a6 1b       	sub	r26, r22
    149e:	b7 0b       	sbc	r27, r23

000014a0 <__udivmodhi4_ep>:
    14a0:	88 1f       	adc	r24, r24
    14a2:	99 1f       	adc	r25, r25
    14a4:	5a 95       	dec	r21
    14a6:	a9 f7       	brne	.-22     	; 0x1492 <__udivmodhi4_loop>
    14a8:	80 95       	com	r24
    14aa:	90 95       	com	r25
    14ac:	bc 01       	movw	r22, r24
    14ae:	cd 01       	movw	r24, r26
    14b0:	08 95       	ret

000014b2 <__udivmodsi4>:
    14b2:	a1 e2       	ldi	r26, 0x21	; 33
    14b4:	1a 2e       	mov	r1, r26
    14b6:	aa 1b       	sub	r26, r26
    14b8:	bb 1b       	sub	r27, r27
    14ba:	fd 01       	movw	r30, r26
    14bc:	0d c0       	rjmp	.+26     	; 0x14d8 <__udivmodsi4_ep>

000014be <__udivmodsi4_loop>:
    14be:	aa 1f       	adc	r26, r26
    14c0:	bb 1f       	adc	r27, r27
    14c2:	ee 1f       	adc	r30, r30
    14c4:	ff 1f       	adc	r31, r31
    14c6:	a2 17       	cp	r26, r18
    14c8:	b3 07       	cpc	r27, r19
    14ca:	e4 07       	cpc	r30, r20
    14cc:	f5 07       	cpc	r31, r21
    14ce:	20 f0       	brcs	.+8      	; 0x14d8 <__udivmodsi4_ep>
    14d0:	a2 1b       	sub	r26, r18
    14d2:	b3 0b       	sbc	r27, r19
    14d4:	e4 0b       	sbc	r30, r20
    14d6:	f5 0b       	sbc	r31, r21

000014d8 <__udivmodsi4_ep>:
    14d8:	66 1f       	adc	r22, r22
    14da:	77 1f       	adc	r23, r23
    14dc:	88 1f       	adc	r24, r24
    14de:	99 1f       	adc	r25, r25
    14e0:	1a 94       	dec	r1
    14e2:	69 f7       	brne	.-38     	; 0x14be <__udivmodsi4_loop>
    14e4:	60 95       	com	r22
    14e6:	70 95       	com	r23
    14e8:	80 95       	com	r24
    14ea:	90 95       	com	r25
    14ec:	9b 01       	movw	r18, r22
    14ee:	ac 01       	movw	r20, r24
    14f0:	bd 01       	movw	r22, r26
    14f2:	cf 01       	movw	r24, r30
    14f4:	08 95       	ret

000014f6 <_exit>:
    14f6:	f8 94       	cli

000014f8 <__stop_program>:
    14f8:	ff cf       	rjmp	.-2      	; 0x14f8 <__stop_program>
