
BicMeter.elf:     file format elf32-avr

Sections:
Idx Name          Size      VMA       LMA       File off  Algn
  0 .text         000013bc  00000000  00000000  00000094  2**1
                  CONTENTS, ALLOC, LOAD, READONLY, CODE
  1 .data         00000044  00800060  000013bc  00001450  2**0
                  CONTENTS, ALLOC, LOAD, DATA
  2 .bss          000000b1  008000a4  008000a4  00001494  2**0
                  ALLOC
  3 .stab         000006cc  00000000  00000000  00001494  2**2
                  CONTENTS, READONLY, DEBUGGING
  4 .stabstr      00000085  00000000  00000000  00001b60  2**0
                  CONTENTS, READONLY, DEBUGGING
  5 .debug_aranges 000000c0  00000000  00000000  00001be8  2**3
                  CONTENTS, READONLY, DEBUGGING
  6 .debug_info   0000052e  00000000  00000000  00001ca8  2**0
                  CONTENTS, READONLY, DEBUGGING
  7 .debug_abbrev 00000078  00000000  00000000  000021d6  2**0
                  CONTENTS, READONLY, DEBUGGING
  8 .debug_line   0000038e  00000000  00000000  0000224e  2**0
                  CONTENTS, READONLY, DEBUGGING

Disassembly of section .text:

00000000 <__vectors>:
       0:	12 c0       	rjmp	.+36     	; 0x26 <__ctors_end>
       2:	16 c9       	rjmp	.-3540   	; 0xfffff230 <__eeprom_end+0xff7ef230>
       4:	3b c9       	rjmp	.-3466   	; 0xfffff27c <__eeprom_end+0xff7ef27c>
       6:	2a c0       	rjmp	.+84     	; 0x5c <__bad_interrupt>
       8:	29 c0       	rjmp	.+82     	; 0x5c <__bad_interrupt>
       a:	28 c0       	rjmp	.+80     	; 0x5c <__bad_interrupt>
       c:	27 c0       	rjmp	.+78     	; 0x5c <__bad_interrupt>
       e:	26 c0       	rjmp	.+76     	; 0x5c <__bad_interrupt>
      10:	e8 c8       	rjmp	.-3632   	; 0xfffff1e2 <__eeprom_end+0xff7ef1e2>
      12:	c2 c8       	rjmp	.-3708   	; 0xfffff198 <__eeprom_end+0xff7ef198>
      14:	23 c0       	rjmp	.+70     	; 0x5c <__bad_interrupt>
      16:	22 c0       	rjmp	.+68     	; 0x5c <__bad_interrupt>
      18:	21 c0       	rjmp	.+66     	; 0x5c <__bad_interrupt>
      1a:	20 c0       	rjmp	.+64     	; 0x5c <__bad_interrupt>
      1c:	1f c0       	rjmp	.+62     	; 0x5c <__bad_interrupt>
      1e:	1e c0       	rjmp	.+60     	; 0x5c <__bad_interrupt>
      20:	1d c0       	rjmp	.+58     	; 0x5c <__bad_interrupt>
      22:	1c c0       	rjmp	.+56     	; 0x5c <__bad_interrupt>
      24:	1b c0       	rjmp	.+54     	; 0x5c <__bad_interrupt>

00000026 <__ctors_end>:
      26:	11 24       	eor	r1, r1
      28:	1f be       	out	0x3f, r1	; 63
      2a:	cf e5       	ldi	r28, 0x5F	; 95
      2c:	d4 e0       	ldi	r29, 0x04	; 4
      2e:	de bf       	out	0x3e, r29	; 62
      30:	cd bf       	out	0x3d, r28	; 61

00000032 <__do_copy_data>:
      32:	10 e0       	ldi	r17, 0x00	; 0
      34:	a0 e6       	ldi	r26, 0x60	; 96
      36:	b0 e0       	ldi	r27, 0x00	; 0
      38:	ec eb       	ldi	r30, 0xBC	; 188
      3a:	f3 e1       	ldi	r31, 0x13	; 19
      3c:	02 c0       	rjmp	.+4      	; 0x42 <__SREG__+0x3>
      3e:	05 90       	lpm	r0, Z+
      40:	0d 92       	st	X+, r0
      42:	a4 3a       	cpi	r26, 0xA4	; 164
      44:	b1 07       	cpc	r27, r17
      46:	d9 f7       	brne	.-10     	; 0x3e <__SP_H__>

00000048 <__do_clear_bss>:
      48:	11 e0       	ldi	r17, 0x01	; 1
      4a:	a4 ea       	ldi	r26, 0xA4	; 164
      4c:	b0 e0       	ldi	r27, 0x00	; 0
      4e:	01 c0       	rjmp	.+2      	; 0x52 <.do_clear_bss_start>

00000050 <.do_clear_bss_loop>:
      50:	1d 92       	st	X+, r1

00000052 <.do_clear_bss_start>:
      52:	a5 35       	cpi	r26, 0x55	; 85
      54:	b1 07       	cpc	r27, r17
      56:	e1 f7       	brne	.-8      	; 0x50 <.do_clear_bss_loop>
      58:	56 d9       	rcall	.-3412   	; 0xfffff306 <__eeprom_end+0xff7ef306>
      5a:	ae c9       	rjmp	.-3236   	; 0xfffff3b8 <__eeprom_end+0xff7ef3b8>

0000005c <__bad_interrupt>:
      5c:	d1 cf       	rjmp	.-94     	; 0x0 <__vectors>

0000005e <IncrementDecrementSingleDigit>:
      5e:	cf 92       	push	r12
      60:	df 92       	push	r13
      62:	ef 92       	push	r14
      64:	ff 92       	push	r15
      66:	0f 93       	push	r16
      68:	1f 93       	push	r17
      6a:	cf 93       	push	r28
      6c:	df 93       	push	r29
      6e:	00 d0       	rcall	.+0      	; 0x70 <IncrementDecrementSingleDigit+0x12>
      70:	00 d0       	rcall	.+0      	; 0x72 <IncrementDecrementSingleDigit+0x14>
      72:	cd b7       	in	r28, 0x3d	; 61
      74:	de b7       	in	r29, 0x3e	; 62
      76:	9c 01       	movw	r18, r24
      78:	16 2f       	mov	r17, r22
      7a:	04 2f       	mov	r16, r20
      7c:	6e 01       	movw	r12, r28
      7e:	08 94       	sec
      80:	c1 1c       	adc	r12, r1
      82:	d1 1c       	adc	r13, r1
      84:	f6 01       	movw	r30, r12
      86:	44 e0       	ldi	r20, 0x04	; 4
      88:	aa e0       	ldi	r26, 0x0A	; 10
      8a:	ea 2e       	mov	r14, r26
      8c:	f1 2c       	mov	r15, r1
      8e:	21 15       	cp	r18, r1
      90:	31 05       	cpc	r19, r1
      92:	69 f0       	breq	.+26     	; 0xae <IncrementDecrementSingleDigit+0x50>
      94:	c9 01       	movw	r24, r18
      96:	b7 01       	movw	r22, r14
      98:	59 d9       	rcall	.-3406   	; 0xfffff34c <__eeprom_end+0xff7ef34c>
      9a:	96 2f       	mov	r25, r22
      9c:	99 0f       	add	r25, r25
      9e:	89 2f       	mov	r24, r25
      a0:	88 0f       	add	r24, r24
      a2:	88 0f       	add	r24, r24
      a4:	89 0f       	add	r24, r25
      a6:	28 1b       	sub	r18, r24
      a8:	20 83       	st	Z, r18
      aa:	9b 01       	movw	r18, r22
      ac:	01 c0       	rjmp	.+2      	; 0xb0 <IncrementDecrementSingleDigit+0x52>
      ae:	10 82       	st	Z, r1
      b0:	41 50       	subi	r20, 0x01	; 1
      b2:	31 96       	adiw	r30, 0x01	; 1
      b4:	44 23       	and	r20, r20
      b6:	59 f7       	brne	.-42     	; 0x8e <IncrementDecrementSingleDigit+0x30>
      b8:	e1 2f       	mov	r30, r17
      ba:	f0 e0       	ldi	r31, 0x00	; 0
      bc:	00 23       	and	r16, r16
      be:	69 f4       	brne	.+26     	; 0xda <IncrementDecrementSingleDigit+0x7c>
      c0:	81 e0       	ldi	r24, 0x01	; 1
      c2:	90 e0       	ldi	r25, 0x00	; 0
      c4:	8c 0f       	add	r24, r28
      c6:	9d 1f       	adc	r25, r29
      c8:	e8 0f       	add	r30, r24
      ca:	f9 1f       	adc	r31, r25
      cc:	80 81       	ld	r24, Z
      ce:	88 23       	and	r24, r24
      d0:	11 f4       	brne	.+4      	; 0xd6 <IncrementDecrementSingleDigit+0x78>
      d2:	89 e0       	ldi	r24, 0x09	; 9
      d4:	0e c0       	rjmp	.+28     	; 0xf2 <IncrementDecrementSingleDigit+0x94>
      d6:	81 50       	subi	r24, 0x01	; 1
      d8:	0c c0       	rjmp	.+24     	; 0xf2 <IncrementDecrementSingleDigit+0x94>
      da:	a1 e0       	ldi	r26, 0x01	; 1
      dc:	b0 e0       	ldi	r27, 0x00	; 0
      de:	ac 0f       	add	r26, r28
      e0:	bd 1f       	adc	r27, r29
      e2:	ea 0f       	add	r30, r26
      e4:	fb 1f       	adc	r31, r27
      e6:	80 81       	ld	r24, Z
      e8:	89 30       	cpi	r24, 0x09	; 9
      ea:	11 f4       	brne	.+4      	; 0xf0 <IncrementDecrementSingleDigit+0x92>
      ec:	10 82       	st	Z, r1
      ee:	02 c0       	rjmp	.+4      	; 0xf4 <IncrementDecrementSingleDigit+0x96>
      f0:	8f 5f       	subi	r24, 0xFF	; 255
      f2:	80 83       	st	Z, r24
      f4:	20 e0       	ldi	r18, 0x00	; 0
      f6:	60 e0       	ldi	r22, 0x00	; 0
      f8:	70 e0       	ldi	r23, 0x00	; 0
      fa:	1e c0       	rjmp	.+60     	; 0x138 <IncrementDecrementSingleDigit+0xda>
      fc:	ca 01       	movw	r24, r20
      fe:	88 0f       	add	r24, r24
     100:	99 1f       	adc	r25, r25
     102:	f3 e0       	ldi	r31, 0x03	; 3
     104:	44 0f       	add	r20, r20
     106:	55 1f       	adc	r21, r21
     108:	fa 95       	dec	r31
     10a:	e1 f7       	brne	.-8      	; 0x104 <IncrementDecrementSingleDigit+0xa6>
     10c:	48 0f       	add	r20, r24
     10e:	59 1f       	adc	r21, r25
     110:	ef 5f       	subi	r30, 0xFF	; 255
     112:	e2 17       	cp	r30, r18
     114:	99 f7       	brne	.-26     	; 0xfc <IncrementDecrementSingleDigit+0x9e>
     116:	d6 01       	movw	r26, r12
     118:	8d 91       	ld	r24, X+
     11a:	6d 01       	movw	r12, r26
     11c:	90 e0       	ldi	r25, 0x00	; 0
     11e:	48 9f       	mul	r20, r24
     120:	90 01       	movw	r18, r0
     122:	49 9f       	mul	r20, r25
     124:	30 0d       	add	r19, r0
     126:	58 9f       	mul	r21, r24
     128:	30 0d       	add	r19, r0
     12a:	11 24       	eor	r1, r1
     12c:	62 0f       	add	r22, r18
     12e:	73 1f       	adc	r23, r19
     130:	2e 2f       	mov	r18, r30
     132:	2f 5f       	subi	r18, 0xFF	; 255
     134:	24 30       	cpi	r18, 0x04	; 4
     136:	21 f0       	breq	.+8      	; 0x140 <IncrementDecrementSingleDigit+0xe2>
     138:	41 e0       	ldi	r20, 0x01	; 1
     13a:	50 e0       	ldi	r21, 0x00	; 0
     13c:	e0 e0       	ldi	r30, 0x00	; 0
     13e:	e9 cf       	rjmp	.-46     	; 0x112 <IncrementDecrementSingleDigit+0xb4>
     140:	cb 01       	movw	r24, r22
     142:	0f 90       	pop	r0
     144:	0f 90       	pop	r0
     146:	0f 90       	pop	r0
     148:	0f 90       	pop	r0
     14a:	df 91       	pop	r29
     14c:	cf 91       	pop	r28
     14e:	1f 91       	pop	r17
     150:	0f 91       	pop	r16
     152:	ff 90       	pop	r15
     154:	ef 90       	pop	r14
     156:	df 90       	pop	r13
     158:	cf 90       	pop	r12
     15a:	08 95       	ret

0000015c <APP_INITIALIZE>:
     15c:	81 e0       	ldi	r24, 0x01	; 1
     15e:	64 ea       	ldi	r22, 0xA4	; 164
     160:	70 e0       	ldi	r23, 0x00	; 0
     162:	4f e0       	ldi	r20, 0x0F	; 15
     164:	7d d4       	rcall	.+2298   	; 0xa60 <Eeprom_Read_Block>
     166:	80 91 a4 00 	lds	r24, 0x00A4
     16a:	90 91 a5 00 	lds	r25, 0x00A5
     16e:	27 e2       	ldi	r18, 0x27	; 39
     170:	80 31       	cpi	r24, 0x10	; 16
     172:	92 07       	cpc	r25, r18
     174:	30 f0       	brcs	.+12     	; 0x182 <APP_INITIALIZE+0x26>
     176:	80 ed       	ldi	r24, 0xD0	; 208
     178:	97 e0       	ldi	r25, 0x07	; 7
     17a:	90 93 a5 00 	sts	0x00A5, r25
     17e:	80 93 a4 00 	sts	0x00A4, r24
     182:	80 91 a9 00 	lds	r24, 0x00A9
     186:	90 91 aa 00 	lds	r25, 0x00AA
     18a:	a0 91 ab 00 	lds	r26, 0x00AB
     18e:	b0 91 ac 00 	lds	r27, 0x00AC
     192:	80 31       	cpi	r24, 0x10	; 16
     194:	27 e2       	ldi	r18, 0x27	; 39
     196:	92 07       	cpc	r25, r18
     198:	20 e0       	ldi	r18, 0x00	; 0
     19a:	a2 07       	cpc	r26, r18
     19c:	20 e0       	ldi	r18, 0x00	; 0
     19e:	b2 07       	cpc	r27, r18
     1a0:	40 f0       	brcs	.+16     	; 0x1b2 <APP_INITIALIZE+0x56>
     1a2:	10 92 a9 00 	sts	0x00A9, r1
     1a6:	10 92 aa 00 	sts	0x00AA, r1
     1aa:	10 92 ab 00 	sts	0x00AB, r1
     1ae:	10 92 ac 00 	sts	0x00AC, r1
     1b2:	80 91 a9 00 	lds	r24, 0x00A9
     1b6:	90 91 aa 00 	lds	r25, 0x00AA
     1ba:	a0 91 ab 00 	lds	r26, 0x00AB
     1be:	b0 91 ac 00 	lds	r27, 0x00AC
     1c2:	80 31       	cpi	r24, 0x10	; 16
     1c4:	27 e2       	ldi	r18, 0x27	; 39
     1c6:	92 07       	cpc	r25, r18
     1c8:	20 e0       	ldi	r18, 0x00	; 0
     1ca:	a2 07       	cpc	r26, r18
     1cc:	20 e0       	ldi	r18, 0x00	; 0
     1ce:	b2 07       	cpc	r27, r18
     1d0:	40 f0       	brcs	.+16     	; 0x1e2 <APP_INITIALIZE+0x86>
     1d2:	10 92 ad 00 	sts	0x00AD, r1
     1d6:	10 92 ae 00 	sts	0x00AE, r1
     1da:	10 92 af 00 	sts	0x00AF, r1
     1de:	10 92 b0 00 	sts	0x00B0, r1
     1e2:	80 91 b1 00 	lds	r24, 0x00B1
     1e6:	90 91 b2 00 	lds	r25, 0x00B2
     1ea:	27 e2       	ldi	r18, 0x27	; 39
     1ec:	80 31       	cpi	r24, 0x10	; 16
     1ee:	92 07       	cpc	r25, r18
     1f0:	20 f0       	brcs	.+8      	; 0x1fa <APP_INITIALIZE+0x9e>
     1f2:	10 92 b2 00 	sts	0x00B2, r1
     1f6:	10 92 b1 00 	sts	0x00B1, r1
     1fa:	80 91 a6 00 	lds	r24, 0x00A6
     1fe:	84 30       	cpi	r24, 0x04	; 4
     200:	10 f0       	brcs	.+4      	; 0x206 <APP_INITIALIZE+0xaa>
     202:	10 92 a6 00 	sts	0x00A6, r1
     206:	80 91 a4 00 	lds	r24, 0x00A4
     20a:	90 91 a5 00 	lds	r25, 0x00A5
     20e:	3c d6       	rcall	.+3192   	; 0xe88 <SetCircumfirunce>
     210:	60 91 a9 00 	lds	r22, 0x00A9
     214:	70 91 aa 00 	lds	r23, 0x00AA
     218:	80 91 ab 00 	lds	r24, 0x00AB
     21c:	90 91 ac 00 	lds	r25, 0x00AC
     220:	1b d6       	rcall	.+3126   	; 0xe58 <SetDistance>
     222:	60 91 ad 00 	lds	r22, 0x00AD
     226:	70 91 ae 00 	lds	r23, 0x00AE
     22a:	80 91 af 00 	lds	r24, 0x00AF
     22e:	90 91 b0 00 	lds	r25, 0x00B0
     232:	bd d1       	rcall	.+890    	; 0x5ae <APP_CALC_TIMEsetTravelTime>
     234:	80 91 b1 00 	lds	r24, 0x00B1
     238:	90 91 b2 00 	lds	r25, 0x00B2
     23c:	9f d1       	rcall	.+830    	; 0x57c <APP_CALC_MAXSPDmanage_Set>
     23e:	08 95       	ret

00000240 <APP_MANAGE>:
     240:	8f 92       	push	r8
     242:	9f 92       	push	r9
     244:	af 92       	push	r10
     246:	bf 92       	push	r11
     248:	cf 92       	push	r12
     24a:	df 92       	push	r13
     24c:	ef 92       	push	r14
     24e:	ff 92       	push	r15
     250:	0f 93       	push	r16
     252:	1f 93       	push	r17
     254:	cf 93       	push	r28
     256:	df 93       	push	r29
     258:	00 d0       	rcall	.+0      	; 0x25a <APP_MANAGE+0x1a>
     25a:	cd b7       	in	r28, 0x3d	; 61
     25c:	de b7       	in	r29, 0x3e	; 62
     25e:	80 91 a7 00 	lds	r24, 0x00A7
     262:	90 91 a8 00 	lds	r25, 0x00A8
     266:	9a 83       	std	Y+2, r25	; 0x02
     268:	89 83       	std	Y+1, r24	; 0x01
     26a:	ce 01       	movw	r24, r28
     26c:	01 96       	adiw	r24, 0x01	; 1
     26e:	f3 d1       	rcall	.+998    	; 0x656 <APP_HMImanage>
     270:	8a 81       	ldd	r24, Y+2	; 0x02
     272:	82 95       	swap	r24
     274:	81 70       	andi	r24, 0x01	; 1
     276:	ed d5       	rcall	.+3034   	; 0xe52 <DisableDistanceCntr>
     278:	fe d5       	rcall	.+3068   	; 0xe76 <GetDistance>
     27a:	dc 01       	movw	r26, r24
     27c:	cb 01       	movw	r24, r22
     27e:	80 93 a9 00 	sts	0x00A9, r24
     282:	90 93 aa 00 	sts	0x00AA, r25
     286:	a0 93 ab 00 	sts	0x00AB, r26
     28a:	b0 93 ac 00 	sts	0x00AC, r27
     28e:	ce 01       	movw	r24, r28
     290:	01 96       	adiw	r24, 0x01	; 1
     292:	9c d1       	rcall	.+824    	; 0x5cc <APP_CALC_TIMEmanage>
     294:	ab 01       	movw	r20, r22
     296:	bc 01       	movw	r22, r24
     298:	40 93 ad 00 	sts	0x00AD, r20
     29c:	50 93 ae 00 	sts	0x00AE, r21
     2a0:	60 93 af 00 	sts	0x00AF, r22
     2a4:	70 93 b0 00 	sts	0x00B0, r23
     2a8:	00 91 a9 00 	lds	r16, 0x00A9
     2ac:	10 91 aa 00 	lds	r17, 0x00AA
     2b0:	20 91 ab 00 	lds	r18, 0x00AB
     2b4:	30 91 ac 00 	lds	r19, 0x00AC
     2b8:	ce 01       	movw	r24, r28
     2ba:	01 96       	adiw	r24, 0x01	; 1
     2bc:	5c d1       	rcall	.+696    	; 0x576 <APP_CALC_AVGSPDmanage>
     2be:	6c 01       	movw	r12, r24
     2c0:	ce 01       	movw	r24, r28
     2c2:	01 96       	adiw	r24, 0x01	; 1
     2c4:	51 d2       	rcall	.+1186   	; 0x768 <APP_SLEEPmanage>
     2c6:	81 e0       	ldi	r24, 0x01	; 1
     2c8:	e4 d5       	rcall	.+3016   	; 0xe92 <GetAvgSpeed>
     2ca:	7c 01       	movw	r14, r24
     2cc:	ce 01       	movw	r24, r28
     2ce:	01 96       	adiw	r24, 0x01	; 1
     2d0:	b7 01       	movw	r22, r14
     2d2:	59 d1       	rcall	.+690    	; 0x586 <APP_CALC_MAXSPDmanage>
     2d4:	8c 01       	movw	r16, r24
     2d6:	90 93 b2 00 	sts	0x00B2, r25
     2da:	80 93 b1 00 	sts	0x00B1, r24
     2de:	80 90 a9 00 	lds	r8, 0x00A9
     2e2:	90 90 aa 00 	lds	r9, 0x00AA
     2e6:	a0 90 ab 00 	lds	r10, 0x00AB
     2ea:	b0 90 ac 00 	lds	r11, 0x00AC
     2ee:	8a 81       	ldd	r24, Y+2	; 0x02
     2f0:	82 fd       	sbrc	r24, 2
     2f2:	4f c0       	rjmp	.+158    	; 0x392 <APP_MANAGE+0x152>
     2f4:	c8 01       	movw	r24, r16
     2f6:	88 0f       	add	r24, r24
     2f8:	99 1f       	adc	r25, r25
     2fa:	23 e0       	ldi	r18, 0x03	; 3
     2fc:	00 0f       	add	r16, r16
     2fe:	11 1f       	adc	r17, r17
     300:	2a 95       	dec	r18
     302:	e1 f7       	brne	.-8      	; 0x2fc <APP_MANAGE+0xbc>
     304:	08 0f       	add	r16, r24
     306:	19 1f       	adc	r17, r25
     308:	08 5f       	subi	r16, 0xF8	; 248
     30a:	1f 4f       	sbci	r17, 0xFF	; 255
     30c:	34 e0       	ldi	r19, 0x04	; 4
     30e:	16 95       	lsr	r17
     310:	07 95       	ror	r16
     312:	3a 95       	dec	r19
     314:	e1 f7       	brne	.-8      	; 0x30e <APP_MANAGE+0xce>
     316:	c7 01       	movw	r24, r14
     318:	88 0f       	add	r24, r24
     31a:	99 1f       	adc	r25, r25
     31c:	53 e0       	ldi	r21, 0x03	; 3
     31e:	ee 0c       	add	r14, r14
     320:	ff 1c       	adc	r15, r15
     322:	5a 95       	dec	r21
     324:	e1 f7       	brne	.-8      	; 0x31e <APP_MANAGE+0xde>
     326:	e8 0e       	add	r14, r24
     328:	f9 1e       	adc	r15, r25
     32a:	88 e0       	ldi	r24, 0x08	; 8
     32c:	90 e0       	ldi	r25, 0x00	; 0
     32e:	e8 0e       	add	r14, r24
     330:	f9 1e       	adc	r15, r25
     332:	64 e0       	ldi	r22, 0x04	; 4
     334:	f6 94       	lsr	r15
     336:	e7 94       	ror	r14
     338:	6a 95       	dec	r22
     33a:	e1 f7       	brne	.-8      	; 0x334 <APP_MANAGE+0xf4>
     33c:	c6 01       	movw	r24, r12
     33e:	88 0f       	add	r24, r24
     340:	99 1f       	adc	r25, r25
     342:	e3 e0       	ldi	r30, 0x03	; 3
     344:	cc 0c       	add	r12, r12
     346:	dd 1c       	adc	r13, r13
     348:	ea 95       	dec	r30
     34a:	e1 f7       	brne	.-8      	; 0x344 <APP_MANAGE+0x104>
     34c:	c8 0e       	add	r12, r24
     34e:	d9 1e       	adc	r13, r25
     350:	a8 e0       	ldi	r26, 0x08	; 8
     352:	b0 e0       	ldi	r27, 0x00	; 0
     354:	ca 0e       	add	r12, r26
     356:	db 1e       	adc	r13, r27
     358:	f4 e0       	ldi	r31, 0x04	; 4
     35a:	d6 94       	lsr	r13
     35c:	c7 94       	ror	r12
     35e:	fa 95       	dec	r31
     360:	e1 f7       	brne	.-8      	; 0x35a <APP_MANAGE+0x11a>
     362:	c5 01       	movw	r24, r10
     364:	b4 01       	movw	r22, r8
     366:	2a e0       	ldi	r18, 0x0A	; 10
     368:	30 e0       	ldi	r19, 0x00	; 0
     36a:	40 e0       	ldi	r20, 0x00	; 0
     36c:	50 e0       	ldi	r21, 0x00	; 0
     36e:	cf d7       	rcall	.+3998   	; 0x130e <__mulsi3>
     370:	4b 01       	movw	r8, r22
     372:	5c 01       	movw	r10, r24
     374:	88 e0       	ldi	r24, 0x08	; 8
     376:	90 e0       	ldi	r25, 0x00	; 0
     378:	a0 e0       	ldi	r26, 0x00	; 0
     37a:	b0 e0       	ldi	r27, 0x00	; 0
     37c:	88 0e       	add	r8, r24
     37e:	99 1e       	adc	r9, r25
     380:	aa 1e       	adc	r10, r26
     382:	bb 1e       	adc	r11, r27
     384:	e4 e0       	ldi	r30, 0x04	; 4
     386:	b6 94       	lsr	r11
     388:	a7 94       	ror	r10
     38a:	97 94       	ror	r9
     38c:	87 94       	ror	r8
     38e:	ea 95       	dec	r30
     390:	d1 f7       	brne	.-12     	; 0x386 <APP_MANAGE+0x146>
     392:	69 81       	ldd	r22, Y+1	; 0x01
     394:	67 70       	andi	r22, 0x07	; 7
     396:	81 e0       	ldi	r24, 0x01	; 1
     398:	5e d4       	rcall	.+2236   	; 0xc56 <ExclusiveSwitchLedOnOff>
     39a:	89 81       	ldd	r24, Y+1	; 0x01
     39c:	4a 81       	ldd	r20, Y+2	; 0x02
     39e:	42 95       	swap	r20
     3a0:	41 70       	andi	r20, 0x01	; 1
     3a2:	87 70       	andi	r24, 0x07	; 7
     3a4:	64 e1       	ldi	r22, 0x14	; 20
     3a6:	69 d4       	rcall	.+2258   	; 0xc7a <BlinkLedOnOff>
     3a8:	8a 81       	ldd	r24, Y+2	; 0x02
     3aa:	86 95       	lsr	r24
     3ac:	86 95       	lsr	r24
     3ae:	81 70       	andi	r24, 0x01	; 1
     3b0:	66 e0       	ldi	r22, 0x06	; 6
     3b2:	4b d4       	rcall	.+2198   	; 0xc4a <SwitchLedOnOff>
     3b4:	8a 81       	ldd	r24, Y+2	; 0x02
     3b6:	86 95       	lsr	r24
     3b8:	86 95       	lsr	r24
     3ba:	80 95       	com	r24
     3bc:	81 70       	andi	r24, 0x01	; 1
     3be:	65 e0       	ldi	r22, 0x05	; 5
     3c0:	44 d4       	rcall	.+2184   	; 0xc4a <SwitchLedOnOff>
     3c2:	29 81       	ldd	r18, Y+1	; 0x01
     3c4:	82 2f       	mov	r24, r18
     3c6:	87 70       	andi	r24, 0x07	; 7
     3c8:	90 e0       	ldi	r25, 0x00	; 0
     3ca:	82 30       	cpi	r24, 0x02	; 2
     3cc:	91 05       	cpc	r25, r1
     3ce:	09 f4       	brne	.+2      	; 0x3d2 <APP_MANAGE+0x192>
     3d0:	44 c0       	rjmp	.+136    	; 0x45a <APP_MANAGE+0x21a>
     3d2:	83 30       	cpi	r24, 0x03	; 3
     3d4:	91 05       	cpc	r25, r1
     3d6:	3c f4       	brge	.+14     	; 0x3e6 <APP_MANAGE+0x1a6>
     3d8:	00 97       	sbiw	r24, 0x00	; 0
     3da:	69 f0       	breq	.+26     	; 0x3f6 <APP_MANAGE+0x1b6>
     3dc:	81 30       	cpi	r24, 0x01	; 1
     3de:	91 05       	cpc	r25, r1
     3e0:	09 f0       	breq	.+2      	; 0x3e4 <APP_MANAGE+0x1a4>
     3e2:	9a c0       	rjmp	.+308    	; 0x518 <__stack+0xb9>
     3e4:	1d c0       	rjmp	.+58     	; 0x420 <APP_MANAGE+0x1e0>
     3e6:	83 30       	cpi	r24, 0x03	; 3
     3e8:	91 05       	cpc	r25, r1
     3ea:	c9 f1       	breq	.+114    	; 0x45e <APP_MANAGE+0x21e>
     3ec:	84 30       	cpi	r24, 0x04	; 4
     3ee:	91 05       	cpc	r25, r1
     3f0:	09 f0       	breq	.+2      	; 0x3f4 <APP_MANAGE+0x1b4>
     3f2:	92 c0       	rjmp	.+292    	; 0x518 <__stack+0xb9>
     3f4:	3f c0       	rjmp	.+126    	; 0x474 <__stack+0x15>
     3f6:	26 ff       	sbrs	r18, 6
     3f8:	08 c0       	rjmp	.+16     	; 0x40a <APP_MANAGE+0x1ca>
     3fa:	60 e0       	ldi	r22, 0x00	; 0
     3fc:	70 e0       	ldi	r23, 0x00	; 0
     3fe:	cb 01       	movw	r24, r22
     400:	d6 d0       	rcall	.+428    	; 0x5ae <APP_CALC_TIMEsetTravelTime>
     402:	60 e0       	ldi	r22, 0x00	; 0
     404:	70 e0       	ldi	r23, 0x00	; 0
     406:	cb 01       	movw	r24, r22
     408:	27 d5       	rcall	.+2638   	; 0xe58 <SetDistance>
     40a:	b7 01       	movw	r22, r14
     40c:	80 e0       	ldi	r24, 0x00	; 0
     40e:	90 e0       	ldi	r25, 0x00	; 0
     410:	40 e0       	ldi	r20, 0x00	; 0
     412:	21 e0       	ldi	r18, 0x01	; 1
     414:	01 e0       	ldi	r16, 0x01	; 1
     416:	ac d1       	rcall	.+856    	; 0x770 <BCDsendNumber>
     418:	c5 01       	movw	r24, r10
     41a:	b4 01       	movw	r22, r8
     41c:	41 e0       	ldi	r20, 0x01	; 1
     41e:	1a c0       	rjmp	.+52     	; 0x454 <APP_MANAGE+0x214>
     420:	26 ff       	sbrs	r18, 6
     422:	08 c0       	rjmp	.+16     	; 0x434 <APP_MANAGE+0x1f4>
     424:	60 e0       	ldi	r22, 0x00	; 0
     426:	70 e0       	ldi	r23, 0x00	; 0
     428:	cb 01       	movw	r24, r22
     42a:	c1 d0       	rcall	.+386    	; 0x5ae <APP_CALC_TIMEsetTravelTime>
     42c:	60 e0       	ldi	r22, 0x00	; 0
     42e:	70 e0       	ldi	r23, 0x00	; 0
     430:	cb 01       	movw	r24, r22
     432:	12 d5       	rcall	.+2596   	; 0xe58 <SetDistance>
     434:	60 91 ad 00 	lds	r22, 0x00AD
     438:	70 91 ae 00 	lds	r23, 0x00AE
     43c:	80 91 af 00 	lds	r24, 0x00AF
     440:	90 91 b0 00 	lds	r25, 0x00B0
     444:	41 e0       	ldi	r20, 0x01	; 1
     446:	20 e0       	ldi	r18, 0x00	; 0
     448:	01 e0       	ldi	r16, 0x01	; 1
     44a:	92 d1       	rcall	.+804    	; 0x770 <BCDsendNumber>
     44c:	b7 01       	movw	r22, r14
     44e:	80 e0       	ldi	r24, 0x00	; 0
     450:	90 e0       	ldi	r25, 0x00	; 0
     452:	40 e0       	ldi	r20, 0x00	; 0
     454:	21 e0       	ldi	r18, 0x01	; 1
     456:	8c d1       	rcall	.+792    	; 0x770 <BCDsendNumber>
     458:	68 c0       	rjmp	.+208    	; 0x52a <__stack+0xcb>
     45a:	b6 01       	movw	r22, r12
     45c:	06 c0       	rjmp	.+12     	; 0x46a <__stack+0xb>
     45e:	26 ff       	sbrs	r18, 6
     460:	03 c0       	rjmp	.+6      	; 0x468 <__stack+0x9>
     462:	80 e0       	ldi	r24, 0x00	; 0
     464:	90 e0       	ldi	r25, 0x00	; 0
     466:	8a d0       	rcall	.+276    	; 0x57c <APP_CALC_MAXSPDmanage_Set>
     468:	b8 01       	movw	r22, r16
     46a:	80 e0       	ldi	r24, 0x00	; 0
     46c:	90 e0       	ldi	r25, 0x00	; 0
     46e:	41 e0       	ldi	r20, 0x01	; 1
     470:	21 e0       	ldi	r18, 0x01	; 1
     472:	ea cf       	rjmp	.-44     	; 0x448 <APP_MANAGE+0x208>
     474:	8a 81       	ldd	r24, Y+2	; 0x02
     476:	83 ff       	sbrs	r24, 3
     478:	34 c0       	rjmp	.+104    	; 0x4e2 <__stack+0x83>
     47a:	26 ff       	sbrs	r18, 6
     47c:	09 c0       	rjmp	.+18     	; 0x490 <__stack+0x31>
     47e:	80 91 a6 00 	lds	r24, 0x00A6
     482:	83 30       	cpi	r24, 0x03	; 3
     484:	19 f4       	brne	.+6      	; 0x48c <__stack+0x2d>
     486:	10 92 a6 00 	sts	0x00A6, r1
     48a:	26 c0       	rjmp	.+76     	; 0x4d8 <__stack+0x79>
     48c:	8f 5f       	subi	r24, 0xFF	; 255
     48e:	09 c0       	rjmp	.+18     	; 0x4a2 <__stack+0x43>
     490:	27 ff       	sbrs	r18, 7
     492:	0a c0       	rjmp	.+20     	; 0x4a8 <__stack+0x49>
     494:	80 91 a6 00 	lds	r24, 0x00A6
     498:	88 23       	and	r24, r24
     49a:	11 f4       	brne	.+4      	; 0x4a0 <__stack+0x41>
     49c:	83 e0       	ldi	r24, 0x03	; 3
     49e:	01 c0       	rjmp	.+2      	; 0x4a2 <__stack+0x43>
     4a0:	81 50       	subi	r24, 0x01	; 1
     4a2:	80 93 a6 00 	sts	0x00A6, r24
     4a6:	18 c0       	rjmp	.+48     	; 0x4d8 <__stack+0x79>
     4a8:	24 ff       	sbrs	r18, 4
     4aa:	08 c0       	rjmp	.+16     	; 0x4bc <__stack+0x5d>
     4ac:	80 91 a4 00 	lds	r24, 0x00A4
     4b0:	90 91 a5 00 	lds	r25, 0x00A5
     4b4:	60 91 a6 00 	lds	r22, 0x00A6
     4b8:	40 e0       	ldi	r20, 0x00	; 0
     4ba:	09 c0       	rjmp	.+18     	; 0x4ce <__stack+0x6f>
     4bc:	25 ff       	sbrs	r18, 5
     4be:	0c c0       	rjmp	.+24     	; 0x4d8 <__stack+0x79>
     4c0:	80 91 a4 00 	lds	r24, 0x00A4
     4c4:	90 91 a5 00 	lds	r25, 0x00A5
     4c8:	60 91 a6 00 	lds	r22, 0x00A6
     4cc:	41 e0       	ldi	r20, 0x01	; 1
     4ce:	c7 dd       	rcall	.-1138   	; 0x5e <IncrementDecrementSingleDigit>
     4d0:	90 93 a5 00 	sts	0x00A5, r25
     4d4:	80 93 a4 00 	sts	0x00A4, r24
     4d8:	80 91 a6 00 	lds	r24, 0x00A6
     4dc:	61 e0       	ldi	r22, 0x01	; 1
     4de:	44 e6       	ldi	r20, 0x64	; 100
     4e0:	04 c0       	rjmp	.+8      	; 0x4ea <__stack+0x8b>
     4e2:	80 91 a6 00 	lds	r24, 0x00A6
     4e6:	61 e0       	ldi	r22, 0x01	; 1
     4e8:	40 e0       	ldi	r20, 0x00	; 0
     4ea:	3c d2       	rcall	.+1144   	; 0x964 <BlinkDigit>
     4ec:	60 91 a4 00 	lds	r22, 0x00A4
     4f0:	70 91 a5 00 	lds	r23, 0x00A5
     4f4:	80 e0       	ldi	r24, 0x00	; 0
     4f6:	90 e0       	ldi	r25, 0x00	; 0
     4f8:	41 e0       	ldi	r20, 0x01	; 1
     4fa:	20 e0       	ldi	r18, 0x00	; 0
     4fc:	00 e0       	ldi	r16, 0x00	; 0
     4fe:	38 d1       	rcall	.+624    	; 0x770 <BCDsendNumber>
     500:	80 91 a4 00 	lds	r24, 0x00A4
     504:	90 91 a5 00 	lds	r25, 0x00A5
     508:	bf d4       	rcall	.+2430   	; 0xe88 <SetCircumfirunce>
     50a:	80 e0       	ldi	r24, 0x00	; 0
     50c:	60 e0       	ldi	r22, 0x00	; 0
     50e:	40 e6       	ldi	r20, 0x60	; 96
     510:	50 e0       	ldi	r21, 0x00	; 0
     512:	24 e0       	ldi	r18, 0x04	; 4
     514:	54 d2       	rcall	.+1192   	; 0x9be <DisplaySendString>
     516:	09 c0       	rjmp	.+18     	; 0x52a <__stack+0xcb>
     518:	b7 01       	movw	r22, r14
     51a:	80 e0       	ldi	r24, 0x00	; 0
     51c:	90 e0       	ldi	r25, 0x00	; 0
     51e:	40 e0       	ldi	r20, 0x00	; 0
     520:	21 e0       	ldi	r18, 0x01	; 1
     522:	01 e0       	ldi	r16, 0x01	; 1
     524:	25 d1       	rcall	.+586    	; 0x770 <BCDsendNumber>
     526:	1a 82       	std	Y+2, r1	; 0x02
     528:	19 82       	std	Y+1, r1	; 0x01
     52a:	89 81       	ldd	r24, Y+1	; 0x01
     52c:	9a 81       	ldd	r25, Y+2	; 0x02
     52e:	90 93 a8 00 	sts	0x00A8, r25
     532:	80 93 a7 00 	sts	0x00A7, r24
     536:	89 81       	ldd	r24, Y+1	; 0x01
     538:	83 ff       	sbrs	r24, 3
     53a:	0e c0       	rjmp	.+28     	; 0x558 <__stack+0xf9>
     53c:	81 e0       	ldi	r24, 0x01	; 1
     53e:	64 ea       	ldi	r22, 0xA4	; 164
     540:	70 e0       	ldi	r23, 0x00	; 0
     542:	4f e0       	ldi	r20, 0x0F	; 15
     544:	20 e0       	ldi	r18, 0x00	; 0
     546:	30 e0       	ldi	r19, 0x00	; 0
     548:	6a d2       	rcall	.+1236   	; 0xa1e <Eeprom_Write_Block>
     54a:	81 30       	cpi	r24, 0x01	; 1
     54c:	29 f4       	brne	.+10     	; 0x558 <__stack+0xf9>
     54e:	80 91 a7 00 	lds	r24, 0x00A7
     552:	87 7f       	andi	r24, 0xF7	; 247
     554:	80 93 a7 00 	sts	0x00A7, r24
     558:	0f 90       	pop	r0
     55a:	0f 90       	pop	r0
     55c:	df 91       	pop	r29
     55e:	cf 91       	pop	r28
     560:	1f 91       	pop	r17
     562:	0f 91       	pop	r16
     564:	ff 90       	pop	r15
     566:	ef 90       	pop	r14
     568:	df 90       	pop	r13
     56a:	cf 90       	pop	r12
     56c:	bf 90       	pop	r11
     56e:	af 90       	pop	r10
     570:	9f 90       	pop	r9
     572:	8f 90       	pop	r8
     574:	08 95       	ret

00000576 <APP_CALC_AVGSPDmanage>:
     576:	81 ee       	ldi	r24, 0xE1	; 225
     578:	90 e1       	ldi	r25, 0x10	; 16
     57a:	08 95       	ret

0000057c <APP_CALC_MAXSPDmanage_Set>:
     57c:	90 93 b4 00 	sts	0x00B4, r25
     580:	80 93 b3 00 	sts	0x00B3, r24
     584:	08 95       	ret

00000586 <APP_CALC_MAXSPDmanage>:
     586:	fc 01       	movw	r30, r24
     588:	81 81       	ldd	r24, Z+1	; 0x01
     58a:	84 fd       	sbrc	r24, 4
     58c:	0b c0       	rjmp	.+22     	; 0x5a4 <APP_CALC_MAXSPDmanage+0x1e>
     58e:	80 91 b3 00 	lds	r24, 0x00B3
     592:	90 91 b4 00 	lds	r25, 0x00B4
     596:	86 17       	cp	r24, r22
     598:	97 07       	cpc	r25, r23
     59a:	20 f4       	brcc	.+8      	; 0x5a4 <APP_CALC_MAXSPDmanage+0x1e>
     59c:	70 93 b4 00 	sts	0x00B4, r23
     5a0:	60 93 b3 00 	sts	0x00B3, r22
     5a4:	80 91 b3 00 	lds	r24, 0x00B3
     5a8:	90 91 b4 00 	lds	r25, 0x00B4
     5ac:	08 95       	ret

000005ae <APP_CALC_TIMEsetTravelTime>:
     5ae:	dc 01       	movw	r26, r24
     5b0:	cb 01       	movw	r24, r22
     5b2:	80 93 b5 00 	sts	0x00B5, r24
     5b6:	90 93 b6 00 	sts	0x00B6, r25
     5ba:	a0 93 b7 00 	sts	0x00B7, r26
     5be:	b0 93 b8 00 	sts	0x00B8, r27
     5c2:	10 92 ba 00 	sts	0x00BA, r1
     5c6:	10 92 b9 00 	sts	0x00B9, r1
     5ca:	08 95       	ret

000005cc <APP_CALC_TIMEmanage>:
     5cc:	fc 01       	movw	r30, r24
     5ce:	21 81       	ldd	r18, Z+1	; 0x01
     5d0:	20 ff       	sbrs	r18, 0
     5d2:	0d c0       	rjmp	.+26     	; 0x5ee <APP_CALC_TIMEmanage+0x22>
     5d4:	10 92 ba 00 	sts	0x00BA, r1
     5d8:	10 92 b9 00 	sts	0x00B9, r1
     5dc:	10 92 b5 00 	sts	0x00B5, r1
     5e0:	10 92 b6 00 	sts	0x00B6, r1
     5e4:	10 92 b7 00 	sts	0x00B7, r1
     5e8:	10 92 b8 00 	sts	0x00B8, r1
     5ec:	2b c0       	rjmp	.+86     	; 0x644 <APP_CALC_TIMEmanage+0x78>
     5ee:	80 91 b9 00 	lds	r24, 0x00B9
     5f2:	90 91 ba 00 	lds	r25, 0x00BA
     5f6:	34 e0       	ldi	r19, 0x04	; 4
     5f8:	80 3b       	cpi	r24, 0xB0	; 176
     5fa:	93 07       	cpc	r25, r19
     5fc:	e0 f0       	brcs	.+56     	; 0x636 <APP_CALC_TIMEmanage+0x6a>
     5fe:	10 92 ba 00 	sts	0x00BA, r1
     602:	10 92 b9 00 	sts	0x00B9, r1
     606:	40 91 b5 00 	lds	r20, 0x00B5
     60a:	50 91 b6 00 	lds	r21, 0x00B6
     60e:	60 91 b7 00 	lds	r22, 0x00B7
     612:	70 91 b8 00 	lds	r23, 0x00B8
     616:	4f 5f       	subi	r20, 0xFF	; 255
     618:	5f 4f       	sbci	r21, 0xFF	; 255
     61a:	6f 4f       	sbci	r22, 0xFF	; 255
     61c:	7f 4f       	sbci	r23, 0xFF	; 255
     61e:	40 93 b5 00 	sts	0x00B5, r20
     622:	50 93 b6 00 	sts	0x00B6, r21
     626:	60 93 b7 00 	sts	0x00B7, r22
     62a:	70 93 b8 00 	sts	0x00B8, r23
     62e:	80 81       	ld	r24, Z
     630:	88 60       	ori	r24, 0x08	; 8
     632:	80 83       	st	Z, r24
     634:	07 c0       	rjmp	.+14     	; 0x644 <APP_CALC_TIMEmanage+0x78>
     636:	24 fd       	sbrc	r18, 4
     638:	05 c0       	rjmp	.+10     	; 0x644 <APP_CALC_TIMEmanage+0x78>
     63a:	01 96       	adiw	r24, 0x01	; 1
     63c:	90 93 ba 00 	sts	0x00BA, r25
     640:	80 93 b9 00 	sts	0x00B9, r24
     644:	60 91 b5 00 	lds	r22, 0x00B5
     648:	70 91 b6 00 	lds	r23, 0x00B6
     64c:	80 91 b7 00 	lds	r24, 0x00B7
     650:	90 91 b8 00 	lds	r25, 0x00B8
     654:	08 95       	ret

00000656 <APP_HMImanage>:
     656:	1f 93       	push	r17
     658:	cf 93       	push	r28
     65a:	df 93       	push	r29
     65c:	ec 01       	movw	r28, r24
     65e:	80 e0       	ldi	r24, 0x00	; 0
     660:	57 d2       	rcall	.+1198   	; 0xb10 <GetKeyStatus>
     662:	18 2f       	mov	r17, r24
     664:	81 e0       	ldi	r24, 0x01	; 1
     666:	54 d2       	rcall	.+1192   	; 0xb10 <GetKeyStatus>
     668:	90 91 bb 00 	lds	r25, 0x00BB
     66c:	91 30       	cpi	r25, 0x01	; 1
     66e:	d9 f1       	breq	.+118    	; 0x6e6 <APP_HMImanage+0x90>
     670:	91 30       	cpi	r25, 0x01	; 1
     672:	38 f0       	brcs	.+14     	; 0x682 <APP_HMImanage+0x2c>
     674:	92 30       	cpi	r25, 0x02	; 2
     676:	09 f4       	brne	.+2      	; 0x67a <APP_HMImanage+0x24>
     678:	5a c0       	rjmp	.+180    	; 0x72e <APP_HMImanage+0xd8>
     67a:	93 30       	cpi	r25, 0x03	; 3
     67c:	09 f0       	breq	.+2      	; 0x680 <APP_HMImanage+0x2a>
     67e:	64 c0       	rjmp	.+200    	; 0x748 <APP_HMImanage+0xf2>
     680:	5b c0       	rjmp	.+182    	; 0x738 <APP_HMImanage+0xe2>
     682:	11 30       	cpi	r17, 0x01	; 1
     684:	21 f4       	brne	.+8      	; 0x68e <APP_HMImanage+0x38>
     686:	81 30       	cpi	r24, 0x01	; 1
     688:	71 f4       	brne	.+28     	; 0x6a6 <APP_HMImanage+0x50>
     68a:	83 e0       	ldi	r24, 0x03	; 3
     68c:	5a c0       	rjmp	.+180    	; 0x742 <APP_HMImanage+0xec>
     68e:	10 34       	cpi	r17, 0x40	; 64
     690:	51 f4       	brne	.+20     	; 0x6a6 <APP_HMImanage+0x50>
     692:	98 81       	ld	r25, Y
     694:	89 2f       	mov	r24, r25
     696:	87 70       	andi	r24, 0x07	; 7
     698:	98 7f       	andi	r25, 0xF8	; 248
     69a:	88 23       	and	r24, r24
     69c:	11 f4       	brne	.+4      	; 0x6a2 <APP_HMImanage+0x4c>
     69e:	94 60       	ori	r25, 0x04	; 4
     6a0:	0a c0       	rjmp	.+20     	; 0x6b6 <APP_HMImanage+0x60>
     6a2:	81 50       	subi	r24, 0x01	; 1
     6a4:	0b c0       	rjmp	.+22     	; 0x6bc <APP_HMImanage+0x66>
     6a6:	80 34       	cpi	r24, 0x40	; 64
     6a8:	69 f4       	brne	.+26     	; 0x6c4 <APP_HMImanage+0x6e>
     6aa:	98 81       	ld	r25, Y
     6ac:	89 2f       	mov	r24, r25
     6ae:	87 70       	andi	r24, 0x07	; 7
     6b0:	98 7f       	andi	r25, 0xF8	; 248
     6b2:	84 30       	cpi	r24, 0x04	; 4
     6b4:	11 f4       	brne	.+4      	; 0x6ba <APP_HMImanage+0x64>
     6b6:	98 83       	st	Y, r25
     6b8:	49 c0       	rjmp	.+146    	; 0x74c <APP_HMImanage+0xf6>
     6ba:	8f 5f       	subi	r24, 0xFF	; 255
     6bc:	87 70       	andi	r24, 0x07	; 7
     6be:	89 2b       	or	r24, r25
     6c0:	88 83       	st	Y, r24
     6c2:	44 c0       	rjmp	.+136    	; 0x74c <APP_HMImanage+0xf6>
     6c4:	99 81       	ldd	r25, Y+1	; 0x01
     6c6:	12 38       	cpi	r17, 0x82	; 130
     6c8:	29 f4       	brne	.+10     	; 0x6d4 <APP_HMImanage+0x7e>
     6ca:	89 2f       	mov	r24, r25
     6cc:	80 95       	com	r24
     6ce:	84 70       	andi	r24, 0x04	; 4
     6d0:	9b 7f       	andi	r25, 0xFB	; 251
     6d2:	06 c0       	rjmp	.+12     	; 0x6e0 <APP_HMImanage+0x8a>
     6d4:	82 38       	cpi	r24, 0x82	; 130
     6d6:	d1 f5       	brne	.+116    	; 0x74c <APP_HMImanage+0xf6>
     6d8:	89 2f       	mov	r24, r25
     6da:	80 95       	com	r24
     6dc:	80 71       	andi	r24, 0x10	; 16
     6de:	9f 7e       	andi	r25, 0xEF	; 239
     6e0:	98 2b       	or	r25, r24
     6e2:	99 83       	std	Y+1, r25	; 0x01
     6e4:	33 c0       	rjmp	.+102    	; 0x74c <APP_HMImanage+0xf6>
     6e6:	98 81       	ld	r25, Y
     6e8:	97 70       	andi	r25, 0x07	; 7
     6ea:	19 82       	std	Y+1, r1	; 0x01
     6ec:	18 82       	st	Y, r1
     6ee:	11 30       	cpi	r17, 0x01	; 1
     6f0:	41 f4       	brne	.+16     	; 0x702 <APP_HMImanage+0xac>
     6f2:	81 30       	cpi	r24, 0x01	; 1
     6f4:	61 f4       	brne	.+24     	; 0x70e <APP_HMImanage+0xb8>
     6f6:	82 e0       	ldi	r24, 0x02	; 2
     6f8:	80 93 bb 00 	sts	0x00BB, r24
     6fc:	88 81       	ld	r24, Y
     6fe:	88 60       	ori	r24, 0x08	; 8
     700:	04 c0       	rjmp	.+8      	; 0x70a <APP_HMImanage+0xb4>
     702:	10 34       	cpi	r17, 0x40	; 64
     704:	21 f4       	brne	.+8      	; 0x70e <APP_HMImanage+0xb8>
     706:	88 81       	ld	r24, Y
     708:	80 62       	ori	r24, 0x20	; 32
     70a:	88 83       	st	Y, r24
     70c:	0d c0       	rjmp	.+26     	; 0x728 <APP_HMImanage+0xd2>
     70e:	28 81       	ld	r18, Y
     710:	80 34       	cpi	r24, 0x40	; 64
     712:	11 f4       	brne	.+4      	; 0x718 <APP_HMImanage+0xc2>
     714:	20 61       	ori	r18, 0x10	; 16
     716:	07 c0       	rjmp	.+14     	; 0x726 <APP_HMImanage+0xd0>
     718:	12 38       	cpi	r17, 0x82	; 130
     71a:	11 f4       	brne	.+4      	; 0x720 <APP_HMImanage+0xca>
     71c:	20 68       	ori	r18, 0x80	; 128
     71e:	03 c0       	rjmp	.+6      	; 0x726 <APP_HMImanage+0xd0>
     720:	82 38       	cpi	r24, 0x82	; 130
     722:	11 f4       	brne	.+4      	; 0x728 <APP_HMImanage+0xd2>
     724:	20 64       	ori	r18, 0x40	; 64
     726:	28 83       	st	Y, r18
     728:	88 81       	ld	r24, Y
     72a:	88 7f       	andi	r24, 0xF8	; 248
     72c:	c8 cf       	rjmp	.-112    	; 0x6be <APP_HMImanage+0x68>
     72e:	11 23       	and	r17, r17
     730:	69 f4       	brne	.+26     	; 0x74c <APP_HMImanage+0xf6>
     732:	88 23       	and	r24, r24
     734:	59 f4       	brne	.+22     	; 0x74c <APP_HMImanage+0xf6>
     736:	08 c0       	rjmp	.+16     	; 0x748 <APP_HMImanage+0xf2>
     738:	11 23       	and	r17, r17
     73a:	41 f4       	brne	.+16     	; 0x74c <APP_HMImanage+0xf6>
     73c:	88 23       	and	r24, r24
     73e:	31 f4       	brne	.+12     	; 0x74c <APP_HMImanage+0xf6>
     740:	81 e0       	ldi	r24, 0x01	; 1
     742:	80 93 bb 00 	sts	0x00BB, r24
     746:	02 c0       	rjmp	.+4      	; 0x74c <APP_HMImanage+0xf6>
     748:	10 92 bb 00 	sts	0x00BB, r1
     74c:	90 91 bb 00 	lds	r25, 0x00BB
     750:	91 70       	andi	r25, 0x01	; 1
     752:	99 0f       	add	r25, r25
     754:	99 0f       	add	r25, r25
     756:	99 0f       	add	r25, r25
     758:	89 81       	ldd	r24, Y+1	; 0x01
     75a:	87 7f       	andi	r24, 0xF7	; 247
     75c:	89 2b       	or	r24, r25
     75e:	89 83       	std	Y+1, r24	; 0x01
     760:	df 91       	pop	r29
     762:	cf 91       	pop	r28
     764:	1f 91       	pop	r17
     766:	08 95       	ret

00000768 <APP_SLEEPmanage>:
     768:	08 95       	ret

0000076a <BCDInitialize>:
     76a:	80 93 bc 00 	sts	0x00BC, r24
     76e:	08 95       	ret

00000770 <BCDsendNumber>:
     770:	2f 92       	push	r2
     772:	3f 92       	push	r3
     774:	4f 92       	push	r4
     776:	5f 92       	push	r5
     778:	7f 92       	push	r7
     77a:	8f 92       	push	r8
     77c:	9f 92       	push	r9
     77e:	af 92       	push	r10
     780:	bf 92       	push	r11
     782:	cf 92       	push	r12
     784:	df 92       	push	r13
     786:	ef 92       	push	r14
     788:	ff 92       	push	r15
     78a:	0f 93       	push	r16
     78c:	1f 93       	push	r17
     78e:	cf 93       	push	r28
     790:	df 93       	push	r29
     792:	00 d0       	rcall	.+0      	; 0x794 <BCDsendNumber+0x24>
     794:	00 d0       	rcall	.+0      	; 0x796 <BCDsendNumber+0x26>
     796:	cd b7       	in	r28, 0x3d	; 61
     798:	de b7       	in	r29, 0x3e	; 62
     79a:	12 2f       	mov	r17, r18
     79c:	70 2e       	mov	r7, r16
     79e:	24 2f       	mov	r18, r20
     7a0:	30 e0       	ldi	r19, 0x00	; 0
     7a2:	3a 83       	std	Y+2, r19	; 0x02
     7a4:	29 83       	std	Y+1, r18	; 0x01
     7a6:	43 e0       	ldi	r20, 0x03	; 3
     7a8:	22 0f       	add	r18, r18
     7aa:	33 1f       	adc	r19, r19
     7ac:	4a 95       	dec	r20
     7ae:	e1 f7       	brne	.-8      	; 0x7a8 <BCDsendNumber+0x38>
     7b0:	23 54       	subi	r18, 0x43	; 67
     7b2:	3f 4f       	sbci	r19, 0xFF	; 255
     7b4:	6b 01       	movw	r12, r22
     7b6:	7c 01       	movw	r14, r24
     7b8:	88 24       	eor	r8, r8
     7ba:	5a e0       	ldi	r21, 0x0A	; 10
     7bc:	25 2e       	mov	r2, r21
     7be:	31 2c       	mov	r3, r1
     7c0:	41 2c       	mov	r4, r1
     7c2:	51 2c       	mov	r5, r1
     7c4:	3c 83       	std	Y+4, r19	; 0x04
     7c6:	2b 83       	std	Y+3, r18	; 0x03
     7c8:	91 2e       	mov	r9, r17
     7ca:	c1 14       	cp	r12, r1
     7cc:	d1 04       	cpc	r13, r1
     7ce:	e1 04       	cpc	r14, r1
     7d0:	f1 04       	cpc	r15, r1
     7d2:	11 f4       	brne	.+4      	; 0x7d8 <BCDsendNumber+0x68>
     7d4:	98 14       	cp	r9, r8
     7d6:	38 f1       	brcs	.+78     	; 0x826 <BCDsendNumber+0xb6>
     7d8:	c7 01       	movw	r24, r14
     7da:	b6 01       	movw	r22, r12
     7dc:	a2 01       	movw	r20, r4
     7de:	91 01       	movw	r18, r2
     7e0:	c9 d5       	rcall	.+2962   	; 0x1374 <__udivmodsi4>
     7e2:	12 2f       	mov	r17, r18
     7e4:	03 2f       	mov	r16, r19
     7e6:	b4 2e       	mov	r11, r20
     7e8:	a5 2e       	mov	r10, r21
     7ea:	62 2f       	mov	r22, r18
     7ec:	73 2f       	mov	r23, r19
     7ee:	84 2f       	mov	r24, r20
     7f0:	95 2f       	mov	r25, r21
     7f2:	2a e0       	ldi	r18, 0x0A	; 10
     7f4:	30 e0       	ldi	r19, 0x00	; 0
     7f6:	40 e0       	ldi	r20, 0x00	; 0
     7f8:	50 e0       	ldi	r21, 0x00	; 0
     7fa:	89 d5       	rcall	.+2834   	; 0x130e <__mulsi3>
     7fc:	dc 01       	movw	r26, r24
     7fe:	cb 01       	movw	r24, r22
     800:	c8 1a       	sub	r12, r24
     802:	d9 0a       	sbc	r13, r25
     804:	ea 0a       	sbc	r14, r26
     806:	fb 0a       	sbc	r15, r27
     808:	f6 01       	movw	r30, r12
     80a:	eb 59       	subi	r30, 0x9B	; 155
     80c:	ff 4f       	sbci	r31, 0xFF	; 255
     80e:	80 81       	ld	r24, Z
     810:	ab 81       	ldd	r26, Y+3	; 0x03
     812:	bc 81       	ldd	r27, Y+4	; 0x04
     814:	8c 93       	st	X, r24
     816:	11 96       	adiw	r26, 0x01	; 1
     818:	1c 92       	st	X, r1
     81a:	11 97       	sbiw	r26, 0x01	; 1
     81c:	c1 2e       	mov	r12, r17
     81e:	d0 2e       	mov	r13, r16
     820:	eb 2c       	mov	r14, r11
     822:	fa 2c       	mov	r15, r10
     824:	0e c0       	rjmp	.+28     	; 0x842 <BCDsendNumber+0xd2>
     826:	77 20       	and	r7, r7
     828:	39 f4       	brne	.+14     	; 0x838 <BCDsendNumber+0xc8>
     82a:	2c ef       	ldi	r18, 0xFC	; 252
     82c:	30 e0       	ldi	r19, 0x00	; 0
     82e:	eb 81       	ldd	r30, Y+3	; 0x03
     830:	fc 81       	ldd	r31, Y+4	; 0x04
     832:	31 83       	std	Z+1, r19	; 0x01
     834:	20 83       	st	Z, r18
     836:	05 c0       	rjmp	.+10     	; 0x842 <BCDsendNumber+0xd2>
     838:	ab 81       	ldd	r26, Y+3	; 0x03
     83a:	bc 81       	ldd	r27, Y+4	; 0x04
     83c:	11 96       	adiw	r26, 0x01	; 1
     83e:	1c 92       	st	X, r1
     840:	1e 92       	st	-X, r1
     842:	83 94       	inc	r8
     844:	eb 81       	ldd	r30, Y+3	; 0x03
     846:	fc 81       	ldd	r31, Y+4	; 0x04
     848:	32 96       	adiw	r30, 0x02	; 2
     84a:	fc 83       	std	Y+4, r31	; 0x04
     84c:	eb 83       	std	Y+3, r30	; 0x03
     84e:	f4 e0       	ldi	r31, 0x04	; 4
     850:	8f 16       	cp	r8, r31
     852:	09 f0       	breq	.+2      	; 0x856 <BCDsendNumber+0xe6>
     854:	ba cf       	rjmp	.-140    	; 0x7ca <BCDsendNumber+0x5a>
     856:	99 20       	and	r9, r9
     858:	89 f0       	breq	.+34     	; 0x87c <BCDsendNumber+0x10c>
     85a:	e9 81       	ldd	r30, Y+1	; 0x01
     85c:	fa 81       	ldd	r31, Y+2	; 0x02
     85e:	ee 0f       	add	r30, r30
     860:	ff 1f       	adc	r31, r31
     862:	ee 0f       	add	r30, r30
     864:	ff 1f       	adc	r31, r31
     866:	e9 0d       	add	r30, r9
     868:	f1 1d       	adc	r31, r1
     86a:	ee 0f       	add	r30, r30
     86c:	ff 1f       	adc	r31, r31
     86e:	e3 54       	subi	r30, 0x43	; 67
     870:	ff 4f       	sbci	r31, 0xFF	; 255
     872:	80 81       	ld	r24, Z
     874:	91 81       	ldd	r25, Z+1	; 0x01
     876:	81 60       	ori	r24, 0x01	; 1
     878:	91 83       	std	Z+1, r25	; 0x01
     87a:	80 83       	st	Z, r24
     87c:	0f 90       	pop	r0
     87e:	0f 90       	pop	r0
     880:	0f 90       	pop	r0
     882:	0f 90       	pop	r0
     884:	df 91       	pop	r29
     886:	cf 91       	pop	r28
     888:	1f 91       	pop	r17
     88a:	0f 91       	pop	r16
     88c:	ff 90       	pop	r15
     88e:	ef 90       	pop	r14
     890:	df 90       	pop	r13
     892:	cf 90       	pop	r12
     894:	bf 90       	pop	r11
     896:	af 90       	pop	r10
     898:	9f 90       	pop	r9
     89a:	8f 90       	pop	r8
     89c:	7f 90       	pop	r7
     89e:	5f 90       	pop	r5
     8a0:	4f 90       	pop	r4
     8a2:	3f 90       	pop	r3
     8a4:	2f 90       	pop	r2
     8a6:	08 95       	ret

000008a8 <BCDManage7segment>:
     8a8:	cf 93       	push	r28
     8aa:	90 91 cd 00 	lds	r25, 0x00CD
     8ae:	99 23       	and	r25, r25
     8b0:	81 f0       	breq	.+32     	; 0x8d2 <BCDManage7segment+0x2a>
     8b2:	80 91 ce 00 	lds	r24, 0x00CE
     8b6:	8f 5f       	subi	r24, 0xFF	; 255
     8b8:	80 93 ce 00 	sts	0x00CE, r24
     8bc:	89 17       	cp	r24, r25
     8be:	59 f4       	brne	.+22     	; 0x8d6 <BCDManage7segment+0x2e>
     8c0:	80 91 cf 00 	lds	r24, 0x00CF
     8c4:	91 e0       	ldi	r25, 0x01	; 1
     8c6:	89 27       	eor	r24, r25
     8c8:	80 93 cf 00 	sts	0x00CF, r24
     8cc:	10 92 ce 00 	sts	0x00CE, r1
     8d0:	02 c0       	rjmp	.+4      	; 0x8d6 <BCDManage7segment+0x2e>
     8d2:	10 92 cf 00 	sts	0x00CF, r1
     8d6:	80 91 cf 00 	lds	r24, 0x00CF
     8da:	81 30       	cpi	r24, 0x01	; 1
     8dc:	61 f4       	brne	.+24     	; 0x8f6 <BCDManage7segment+0x4e>
     8de:	90 91 d0 00 	lds	r25, 0x00D0
     8e2:	80 91 d1 00 	lds	r24, 0x00D1
     8e6:	98 17       	cp	r25, r24
     8e8:	31 f4       	brne	.+12     	; 0x8f6 <BCDManage7segment+0x4e>
     8ea:	90 91 d2 00 	lds	r25, 0x00D2
     8ee:	80 91 d3 00 	lds	r24, 0x00D3
     8f2:	98 17       	cp	r25, r24
     8f4:	89 f0       	breq	.+34     	; 0x918 <BCDManage7segment+0x70>
     8f6:	80 91 d0 00 	lds	r24, 0x00D0
     8fa:	e0 91 d3 00 	lds	r30, 0x00D3
     8fe:	f0 e0       	ldi	r31, 0x00	; 0
     900:	ee 0f       	add	r30, r30
     902:	ff 1f       	adc	r31, r31
     904:	ee 0f       	add	r30, r30
     906:	ff 1f       	adc	r31, r31
     908:	e8 0f       	add	r30, r24
     90a:	f1 1d       	adc	r31, r1
     90c:	ee 0f       	add	r30, r30
     90e:	ff 1f       	adc	r31, r31
     910:	e3 54       	subi	r30, 0x43	; 67
     912:	ff 4f       	sbci	r31, 0xFF	; 255
     914:	c0 81       	ld	r28, Z
     916:	01 c0       	rjmp	.+2      	; 0x91a <BCDManage7segment+0x72>
     918:	c0 e0       	ldi	r28, 0x00	; 0
     91a:	80 91 bc 00 	lds	r24, 0x00BC
     91e:	81 30       	cpi	r24, 0x01	; 1
     920:	09 f4       	brne	.+2      	; 0x924 <BCDManage7segment+0x7c>
     922:	c0 95       	com	r28
     924:	60 91 d3 00 	lds	r22, 0x00D3
     928:	66 0f       	add	r22, r22
     92a:	66 0f       	add	r22, r22
     92c:	80 91 d0 00 	lds	r24, 0x00D0
     930:	68 0f       	add	r22, r24
     932:	80 e0       	ldi	r24, 0x00	; 0
     934:	d9 d3       	rcall	.+1970   	; 0x10e8 <HWI_4Digit_WRITE>
     936:	81 e0       	ldi	r24, 0x01	; 1
     938:	6c 2f       	mov	r22, r28
     93a:	ef d3       	rcall	.+2014   	; 0x111a <HWI_8Digit_WRITE>
     93c:	80 91 d0 00 	lds	r24, 0x00D0
     940:	8f 5f       	subi	r24, 0xFF	; 255
     942:	80 93 d0 00 	sts	0x00D0, r24
     946:	84 30       	cpi	r24, 0x04	; 4
     948:	59 f4       	brne	.+22     	; 0x960 <BCDManage7segment+0xb8>
     94a:	10 92 d0 00 	sts	0x00D0, r1
     94e:	80 91 d3 00 	lds	r24, 0x00D3
     952:	8f 5f       	subi	r24, 0xFF	; 255
     954:	80 93 d3 00 	sts	0x00D3, r24
     958:	82 30       	cpi	r24, 0x02	; 2
     95a:	11 f4       	brne	.+4      	; 0x960 <BCDManage7segment+0xb8>
     95c:	10 92 d3 00 	sts	0x00D3, r1
     960:	cf 91       	pop	r28
     962:	08 95       	ret

00000964 <BlinkDigit>:
     964:	80 93 d1 00 	sts	0x00D1, r24
     968:	40 93 cd 00 	sts	0x00CD, r20
     96c:	60 93 d2 00 	sts	0x00D2, r22
     970:	08 95       	ret

00000972 <Segment7SendString>:
     972:	cf 93       	push	r28
     974:	df 93       	push	r29
     976:	da 01       	movw	r26, r20
     978:	42 2f       	mov	r20, r18
     97a:	50 e0       	ldi	r21, 0x00	; 0
     97c:	48 0f       	add	r20, r24
     97e:	51 1d       	adc	r21, r1
     980:	45 30       	cpi	r20, 0x05	; 5
     982:	51 05       	cpc	r21, r1
     984:	cc f4       	brge	.+50     	; 0x9b8 <Segment7SendString+0x46>
     986:	70 e0       	ldi	r23, 0x00	; 0
     988:	66 0f       	add	r22, r22
     98a:	77 1f       	adc	r23, r23
     98c:	66 0f       	add	r22, r22
     98e:	77 1f       	adc	r23, r23
     990:	0e c0       	rjmp	.+28     	; 0x9ae <Segment7SendString+0x3c>
     992:	fb 01       	movw	r30, r22
     994:	e2 0f       	add	r30, r18
     996:	f3 1f       	adc	r31, r19
     998:	ee 0f       	add	r30, r30
     99a:	ff 1f       	adc	r31, r31
     99c:	e3 54       	subi	r30, 0x43	; 67
     99e:	ff 4f       	sbci	r31, 0xFF	; 255
     9a0:	2a 0f       	add	r18, r26
     9a2:	3b 1f       	adc	r19, r27
     9a4:	e9 01       	movw	r28, r18
     9a6:	98 81       	ld	r25, Y
     9a8:	90 83       	st	Z, r25
     9aa:	11 82       	std	Z+1, r1	; 0x01
     9ac:	8f 5f       	subi	r24, 0xFF	; 255
     9ae:	28 2f       	mov	r18, r24
     9b0:	30 e0       	ldi	r19, 0x00	; 0
     9b2:	24 17       	cp	r18, r20
     9b4:	35 07       	cpc	r19, r21
     9b6:	6c f3       	brlt	.-38     	; 0x992 <Segment7SendString+0x20>
     9b8:	df 91       	pop	r29
     9ba:	cf 91       	pop	r28
     9bc:	08 95       	ret

000009be <DisplaySendString>:
     9be:	ef 92       	push	r14
     9c0:	ff 92       	push	r15
     9c2:	0f 93       	push	r16
     9c4:	1f 93       	push	r17
     9c6:	cf 93       	push	r28
     9c8:	df 93       	push	r29
     9ca:	00 d0       	rcall	.+0      	; 0x9cc <DisplaySendString+0xe>
     9cc:	00 d0       	rcall	.+0      	; 0x9ce <DisplaySendString+0x10>
     9ce:	cd b7       	in	r28, 0x3d	; 61
     9d0:	de b7       	in	r29, 0x3e	; 62
     9d2:	de 01       	movw	r26, r28
     9d4:	a2 0f       	add	r26, r18
     9d6:	b1 1d       	adc	r27, r1
     9d8:	7a 01       	movw	r14, r20
     9da:	0e c0       	rjmp	.+28     	; 0x9f8 <DisplaySendString+0x3a>
     9dc:	f7 01       	movw	r30, r14
     9de:	91 91       	ld	r25, Z+
     9e0:	7f 01       	movw	r14, r30
     9e2:	09 2f       	mov	r16, r25
     9e4:	01 54       	subi	r16, 0x41	; 65
     9e6:	06 32       	cpi	r16, 0x26	; 38
     9e8:	28 f4       	brcc	.+10     	; 0x9f4 <DisplaySendString+0x36>
     9ea:	10 e0       	ldi	r17, 0x00	; 0
     9ec:	00 59       	subi	r16, 0x90	; 144
     9ee:	1f 4f       	sbci	r17, 0xFF	; 255
     9f0:	f8 01       	movw	r30, r16
     9f2:	90 81       	ld	r25, Z
     9f4:	9c 93       	st	X, r25
     9f6:	11 97       	sbiw	r26, 0x01	; 1
     9f8:	9e 2d       	mov	r25, r14
     9fa:	94 1b       	sub	r25, r20
     9fc:	92 17       	cp	r25, r18
     9fe:	70 f3       	brcs	.-36     	; 0x9dc <DisplaySendString+0x1e>
     a00:	ae 01       	movw	r20, r28
     a02:	4f 5f       	subi	r20, 0xFF	; 255
     a04:	5f 4f       	sbci	r21, 0xFF	; 255
     a06:	b5 df       	rcall	.-150    	; 0x972 <Segment7SendString>
     a08:	0f 90       	pop	r0
     a0a:	0f 90       	pop	r0
     a0c:	0f 90       	pop	r0
     a0e:	0f 90       	pop	r0
     a10:	df 91       	pop	r29
     a12:	cf 91       	pop	r28
     a14:	1f 91       	pop	r17
     a16:	0f 91       	pop	r16
     a18:	ff 90       	pop	r15
     a1a:	ef 90       	pop	r14
     a1c:	08 95       	ret

00000a1e <Eeprom_Write_Block>:
     a1e:	90 91 d4 00 	lds	r25, 0x00D4
     a22:	99 23       	and	r25, r25
     a24:	c9 f4       	brne	.+50     	; 0xa58 <Eeprom_Write_Block+0x3a>
     a26:	43 33       	cpi	r20, 0x33	; 51
     a28:	c8 f4       	brcc	.+50     	; 0xa5c <Eeprom_Write_Block+0x3e>
     a2a:	91 e0       	ldi	r25, 0x01	; 1
     a2c:	90 93 d4 00 	sts	0x00D4, r25
     a30:	a5 ed       	ldi	r26, 0xD5	; 213
     a32:	b0 e0       	ldi	r27, 0x00	; 0
     a34:	fb 01       	movw	r30, r22
     a36:	02 c0       	rjmp	.+4      	; 0xa3c <Eeprom_Write_Block+0x1e>
     a38:	91 91       	ld	r25, Z+
     a3a:	9d 93       	st	X+, r25
     a3c:	9e 2f       	mov	r25, r30
     a3e:	96 1b       	sub	r25, r22
     a40:	94 17       	cp	r25, r20
     a42:	d0 f3       	brcs	.-12     	; 0xa38 <Eeprom_Write_Block+0x1a>
     a44:	40 93 07 01 	sts	0x0107, r20
     a48:	80 93 08 01 	sts	0x0108, r24
     a4c:	30 93 0a 01 	sts	0x010A, r19
     a50:	20 93 09 01 	sts	0x0109, r18
     a54:	81 e0       	ldi	r24, 0x01	; 1
     a56:	08 95       	ret
     a58:	80 e0       	ldi	r24, 0x00	; 0
     a5a:	08 95       	ret
     a5c:	80 e0       	ldi	r24, 0x00	; 0
     a5e:	08 95       	ret

00000a60 <Eeprom_Read_Block>:
     a60:	ef 92       	push	r14
     a62:	ff 92       	push	r15
     a64:	0f 93       	push	r16
     a66:	1f 93       	push	r17
     a68:	cf 93       	push	r28
     a6a:	df 93       	push	r29
     a6c:	0f 92       	push	r0
     a6e:	cd b7       	in	r28, 0x3d	; 61
     a70:	de b7       	in	r29, 0x3e	; 62
     a72:	18 2f       	mov	r17, r24
     a74:	7b 01       	movw	r14, r22
     a76:	80 91 d4 00 	lds	r24, 0x00D4
     a7a:	88 23       	and	r24, r24
     a7c:	71 f0       	breq	.+28     	; 0xa9a <Eeprom_Read_Block+0x3a>
     a7e:	80 e0       	ldi	r24, 0x00	; 0
     a80:	10 c0       	rjmp	.+32     	; 0xaa2 <Eeprom_Read_Block+0x42>
     a82:	b7 01       	movw	r22, r14
     a84:	60 0f       	add	r22, r16
     a86:	71 1d       	adc	r23, r1
     a88:	80 2f       	mov	r24, r16
     a8a:	81 0f       	add	r24, r17
     a8c:	49 83       	std	Y+1, r20	; 0x01
     a8e:	ba d2       	rcall	.+1396   	; 0x1004 <HWIeeprom_Read>
     a90:	49 81       	ldd	r20, Y+1	; 0x01
     a92:	81 30       	cpi	r24, 0x01	; 1
     a94:	19 f4       	brne	.+6      	; 0xa9c <Eeprom_Read_Block+0x3c>
     a96:	0f 5f       	subi	r16, 0xFF	; 255
     a98:	01 c0       	rjmp	.+2      	; 0xa9c <Eeprom_Read_Block+0x3c>
     a9a:	00 e0       	ldi	r16, 0x00	; 0
     a9c:	04 17       	cp	r16, r20
     a9e:	88 f3       	brcs	.-30     	; 0xa82 <Eeprom_Read_Block+0x22>
     aa0:	81 e0       	ldi	r24, 0x01	; 1
     aa2:	0f 90       	pop	r0
     aa4:	df 91       	pop	r29
     aa6:	cf 91       	pop	r28
     aa8:	1f 91       	pop	r17
     aaa:	0f 91       	pop	r16
     aac:	ff 90       	pop	r15
     aae:	ef 90       	pop	r14
     ab0:	08 95       	ret

00000ab2 <EepromManage>:
     ab2:	80 91 d4 00 	lds	r24, 0x00D4
     ab6:	81 30       	cpi	r24, 0x01	; 1
     ab8:	11 f5       	brne	.+68     	; 0xafe <EepromManage+0x4c>
     aba:	80 91 0b 01 	lds	r24, 0x010B
     abe:	90 91 07 01 	lds	r25, 0x0107
     ac2:	89 17       	cp	r24, r25
     ac4:	61 f4       	brne	.+24     	; 0xade <EepromManage+0x2c>
     ac6:	10 92 0b 01 	sts	0x010B, r1
     aca:	10 92 d4 00 	sts	0x00D4, r1
     ace:	e0 91 09 01 	lds	r30, 0x0109
     ad2:	f0 91 0a 01 	lds	r31, 0x010A
     ad6:	30 97       	sbiw	r30, 0x00	; 0
     ad8:	91 f0       	breq	.+36     	; 0xafe <EepromManage+0x4c>
     ada:	09 95       	icall
     adc:	08 95       	ret
     ade:	90 91 08 01 	lds	r25, 0x0108
     ae2:	e8 2f       	mov	r30, r24
     ae4:	f0 e0       	ldi	r31, 0x00	; 0
     ae6:	eb 52       	subi	r30, 0x2B	; 43
     ae8:	ff 4f       	sbci	r31, 0xFF	; 255
     aea:	89 0f       	add	r24, r25
     aec:	60 81       	ld	r22, Z
     aee:	7e d2       	rcall	.+1276   	; 0xfec <HWIeeprom_Write>
     af0:	81 30       	cpi	r24, 0x01	; 1
     af2:	29 f4       	brne	.+10     	; 0xafe <EepromManage+0x4c>
     af4:	80 91 0b 01 	lds	r24, 0x010B
     af8:	8f 5f       	subi	r24, 0xFF	; 255
     afa:	80 93 0b 01 	sts	0x010B, r24
     afe:	08 95       	ret

00000b00 <KeyInitialize>:
     b00:	86 e0       	ldi	r24, 0x06	; 6
     b02:	ec e0       	ldi	r30, 0x0C	; 12
     b04:	f1 e0       	ldi	r31, 0x01	; 1
     b06:	df 01       	movw	r26, r30
     b08:	1d 92       	st	X+, r1
     b0a:	8a 95       	dec	r24
     b0c:	e9 f7       	brne	.-6      	; 0xb08 <KeyInitialize+0x8>
     b0e:	08 95       	ret

00000b10 <GetKeyStatus>:
     b10:	90 e0       	ldi	r25, 0x00	; 0
     b12:	fc 01       	movw	r30, r24
     b14:	ee 0f       	add	r30, r30
     b16:	ff 1f       	adc	r31, r31
     b18:	e8 0f       	add	r30, r24
     b1a:	f9 1f       	adc	r31, r25
     b1c:	e4 5f       	subi	r30, 0xF4	; 244
     b1e:	fe 4f       	sbci	r31, 0xFE	; 254
     b20:	80 81       	ld	r24, Z
     b22:	98 2f       	mov	r25, r24
     b24:	9f 73       	andi	r25, 0x3F	; 63
     b26:	90 83       	st	Z, r25
     b28:	08 95       	ret

00000b2a <MangeKeys>:
     b2a:	ef 92       	push	r14
     b2c:	ff 92       	push	r15
     b2e:	0f 93       	push	r16
     b30:	1f 93       	push	r17
     b32:	cf 93       	push	r28
     b34:	df 93       	push	r29
     b36:	0f 92       	push	r0
     b38:	cd b7       	in	r28, 0x3d	; 61
     b3a:	de b7       	in	r29, 0x3e	; 62
     b3c:	90 e0       	ldi	r25, 0x00	; 0
     b3e:	7c 01       	movw	r14, r24
     b40:	ee 0c       	add	r14, r14
     b42:	ff 1c       	adc	r15, r15
     b44:	e8 0e       	add	r14, r24
     b46:	f9 1e       	adc	r15, r25
     b48:	2c e0       	ldi	r18, 0x0C	; 12
     b4a:	31 e0       	ldi	r19, 0x01	; 1
     b4c:	e2 0e       	add	r14, r18
     b4e:	f3 1e       	adc	r15, r19
     b50:	f7 01       	movw	r30, r14
     b52:	20 81       	ld	r18, Z
     b54:	2f 73       	andi	r18, 0x3F	; 63
     b56:	8c 01       	movw	r16, r24
     b58:	43 e0       	ldi	r20, 0x03	; 3
     b5a:	00 0f       	add	r16, r16
     b5c:	11 1f       	adc	r17, r17
     b5e:	4a 95       	dec	r20
     b60:	e1 f7       	brne	.-8      	; 0xb5a <MangeKeys+0x30>
     b62:	06 57       	subi	r16, 0x76	; 118
     b64:	1f 4f       	sbci	r17, 0xFF	; 255
     b66:	f8 01       	movw	r30, r16
     b68:	80 81       	ld	r24, Z
     b6a:	29 83       	std	Y+1, r18	; 0x01
     b6c:	60 d2       	rcall	.+1216   	; 0x102e <HWI_DIGI_READ>
     b6e:	29 81       	ldd	r18, Y+1	; 0x01
     b70:	21 30       	cpi	r18, 0x01	; 1
     b72:	f9 f0       	breq	.+62     	; 0xbb2 <MangeKeys+0x88>
     b74:	21 30       	cpi	r18, 0x01	; 1
     b76:	20 f0       	brcs	.+8      	; 0xb80 <MangeKeys+0x56>
     b78:	22 30       	cpi	r18, 0x02	; 2
     b7a:	09 f0       	breq	.+2      	; 0xb7e <MangeKeys+0x54>
     b7c:	5c c0       	rjmp	.+184    	; 0xc36 <MangeKeys+0x10c>
     b7e:	46 c0       	rjmp	.+140    	; 0xc0c <MangeKeys+0xe2>
     b80:	f8 01       	movw	r30, r16
     b82:	91 81       	ldd	r25, Z+1	; 0x01
     b84:	f7 01       	movw	r30, r14
     b86:	98 17       	cp	r25, r24
     b88:	89 f4       	brne	.+34     	; 0xbac <MangeKeys+0x82>
     b8a:	81 81       	ldd	r24, Z+1	; 0x01
     b8c:	92 81       	ldd	r25, Z+2	; 0x02
     b8e:	01 96       	adiw	r24, 0x01	; 1
     b90:	92 83       	std	Z+2, r25	; 0x02
     b92:	81 83       	std	Z+1, r24	; 0x01
     b94:	f8 01       	movw	r30, r16
     b96:	24 81       	ldd	r18, Z+4	; 0x04
     b98:	35 81       	ldd	r19, Z+5	; 0x05
     b9a:	28 17       	cp	r18, r24
     b9c:	39 07       	cpc	r19, r25
     b9e:	09 f0       	breq	.+2      	; 0xba2 <MangeKeys+0x78>
     ba0:	4c c0       	rjmp	.+152    	; 0xc3a <MangeKeys+0x110>
     ba2:	81 e8       	ldi	r24, 0x81	; 129
     ba4:	f7 01       	movw	r30, r14
     ba6:	80 83       	st	Z, r24
     ba8:	f8 01       	movw	r30, r16
     baa:	34 c0       	rjmp	.+104    	; 0xc14 <MangeKeys+0xea>
     bac:	12 82       	std	Z+2, r1	; 0x02
     bae:	11 82       	std	Z+1, r1	; 0x01
     bb0:	44 c0       	rjmp	.+136    	; 0xc3a <MangeKeys+0x110>
     bb2:	f8 01       	movw	r30, r16
     bb4:	91 81       	ldd	r25, Z+1	; 0x01
     bb6:	f7 01       	movw	r30, r14
     bb8:	21 81       	ldd	r18, Z+1	; 0x01
     bba:	32 81       	ldd	r19, Z+2	; 0x02
     bbc:	f8 01       	movw	r30, r16
     bbe:	42 81       	ldd	r20, Z+2	; 0x02
     bc0:	53 81       	ldd	r21, Z+3	; 0x03
     bc2:	98 17       	cp	r25, r24
     bc4:	b1 f4       	brne	.+44     	; 0xbf2 <MangeKeys+0xc8>
     bc6:	24 17       	cp	r18, r20
     bc8:	35 07       	cpc	r19, r21
     bca:	78 f0       	brcs	.+30     	; 0xbea <MangeKeys+0xc0>
     bcc:	2f 5f       	subi	r18, 0xFF	; 255
     bce:	3f 4f       	sbci	r19, 0xFF	; 255
     bd0:	f7 01       	movw	r30, r14
     bd2:	32 83       	std	Z+2, r19	; 0x02
     bd4:	21 83       	std	Z+1, r18	; 0x01
     bd6:	f8 01       	movw	r30, r16
     bd8:	86 81       	ldd	r24, Z+6	; 0x06
     bda:	97 81       	ldd	r25, Z+7	; 0x07
     bdc:	82 17       	cp	r24, r18
     bde:	93 07       	cpc	r25, r19
     be0:	61 f5       	brne	.+88     	; 0xc3a <MangeKeys+0x110>
     be2:	82 e8       	ldi	r24, 0x82	; 130
     be4:	f7 01       	movw	r30, r14
     be6:	80 83       	st	Z, r24
     be8:	01 c0       	rjmp	.+2      	; 0xbec <MangeKeys+0xc2>
     bea:	f7 01       	movw	r30, r14
     bec:	52 83       	std	Z+2, r21	; 0x02
     bee:	41 83       	std	Z+1, r20	; 0x01
     bf0:	24 c0       	rjmp	.+72     	; 0xc3a <MangeKeys+0x110>
     bf2:	42 17       	cp	r20, r18
     bf4:	53 07       	cpc	r21, r19
     bf6:	c8 f3       	brcs	.-14     	; 0xbea <MangeKeys+0xc0>
     bf8:	21 50       	subi	r18, 0x01	; 1
     bfa:	30 40       	sbci	r19, 0x00	; 0
     bfc:	f7 01       	movw	r30, r14
     bfe:	32 83       	std	Z+2, r19	; 0x02
     c00:	21 83       	std	Z+1, r18	; 0x01
     c02:	21 15       	cp	r18, r1
     c04:	31 05       	cpc	r19, r1
     c06:	c9 f4       	brne	.+50     	; 0xc3a <MangeKeys+0x110>
     c08:	80 e4       	ldi	r24, 0x40	; 64
     c0a:	13 c0       	rjmp	.+38     	; 0xc32 <MangeKeys+0x108>
     c0c:	f8 01       	movw	r30, r16
     c0e:	91 81       	ldd	r25, Z+1	; 0x01
     c10:	98 17       	cp	r25, r24
     c12:	31 f4       	brne	.+12     	; 0xc20 <MangeKeys+0xf6>
     c14:	82 81       	ldd	r24, Z+2	; 0x02
     c16:	93 81       	ldd	r25, Z+3	; 0x03
     c18:	f7 01       	movw	r30, r14
     c1a:	92 83       	std	Z+2, r25	; 0x02
     c1c:	81 83       	std	Z+1, r24	; 0x01
     c1e:	0d c0       	rjmp	.+26     	; 0xc3a <MangeKeys+0x110>
     c20:	f7 01       	movw	r30, r14
     c22:	81 81       	ldd	r24, Z+1	; 0x01
     c24:	92 81       	ldd	r25, Z+2	; 0x02
     c26:	01 97       	sbiw	r24, 0x01	; 1
     c28:	92 83       	std	Z+2, r25	; 0x02
     c2a:	81 83       	std	Z+1, r24	; 0x01
     c2c:	00 97       	sbiw	r24, 0x00	; 0
     c2e:	29 f4       	brne	.+10     	; 0xc3a <MangeKeys+0x110>
     c30:	80 e8       	ldi	r24, 0x80	; 128
     c32:	80 83       	st	Z, r24
     c34:	02 c0       	rjmp	.+4      	; 0xc3a <MangeKeys+0x110>
     c36:	f7 01       	movw	r30, r14
     c38:	10 82       	st	Z, r1
     c3a:	0f 90       	pop	r0
     c3c:	df 91       	pop	r29
     c3e:	cf 91       	pop	r28
     c40:	1f 91       	pop	r17
     c42:	0f 91       	pop	r16
     c44:	ff 90       	pop	r15
     c46:	ef 90       	pop	r14
     c48:	08 95       	ret

00000c4a <SwitchLedOnOff>:
     c4a:	e2 e1       	ldi	r30, 0x12	; 18
     c4c:	f1 e0       	ldi	r31, 0x01	; 1
     c4e:	e6 0f       	add	r30, r22
     c50:	f1 1d       	adc	r31, r1
     c52:	80 83       	st	Z, r24
     c54:	08 95       	ret

00000c56 <ExclusiveSwitchLedOnOff>:
     c56:	98 2f       	mov	r25, r24
     c58:	90 95       	com	r25
     c5a:	91 70       	andi	r25, 0x01	; 1
     c5c:	e6 2f       	mov	r30, r22
     c5e:	f0 e0       	ldi	r31, 0x00	; 0
     c60:	ee 5e       	subi	r30, 0xEE	; 238
     c62:	fe 4f       	sbci	r31, 0xFE	; 254
     c64:	80 83       	st	Z, r24
     c66:	e2 e1       	ldi	r30, 0x12	; 18
     c68:	f1 e0       	ldi	r31, 0x01	; 1
     c6a:	80 e0       	ldi	r24, 0x00	; 0
     c6c:	86 13       	cpse	r24, r22
     c6e:	90 83       	st	Z, r25
     c70:	8f 5f       	subi	r24, 0xFF	; 255
     c72:	31 96       	adiw	r30, 0x01	; 1
     c74:	87 30       	cpi	r24, 0x07	; 7
     c76:	d1 f7       	brne	.-12     	; 0xc6c <ExclusiveSwitchLedOnOff+0x16>
     c78:	08 95       	ret

00000c7a <BlinkLedOnOff>:
     c7a:	90 e0       	ldi	r25, 0x00	; 0
     c7c:	fc 01       	movw	r30, r24
     c7e:	e7 5e       	subi	r30, 0xE7	; 231
     c80:	fe 4f       	sbci	r31, 0xFE	; 254
     c82:	60 83       	st	Z, r22
     c84:	80 5e       	subi	r24, 0xE0	; 224
     c86:	9e 4f       	sbci	r25, 0xFE	; 254
     c88:	fc 01       	movw	r30, r24
     c8a:	40 83       	st	Z, r20
     c8c:	08 95       	ret

00000c8e <InitializeLed>:
     c8e:	87 e0       	ldi	r24, 0x07	; 7
     c90:	e9 e1       	ldi	r30, 0x19	; 25
     c92:	f1 e0       	ldi	r31, 0x01	; 1
     c94:	df 01       	movw	r26, r30
     c96:	98 2f       	mov	r25, r24
     c98:	1d 92       	st	X+, r1
     c9a:	9a 95       	dec	r25
     c9c:	e9 f7       	brne	.-6      	; 0xc98 <InitializeLed+0xa>
     c9e:	e0 e2       	ldi	r30, 0x20	; 32
     ca0:	f1 e0       	ldi	r31, 0x01	; 1
     ca2:	df 01       	movw	r26, r30
     ca4:	98 2f       	mov	r25, r24
     ca6:	1d 92       	st	X+, r1
     ca8:	9a 95       	dec	r25
     caa:	e9 f7       	brne	.-6      	; 0xca6 <InitializeLed+0x18>
     cac:	e2 e1       	ldi	r30, 0x12	; 18
     cae:	f1 e0       	ldi	r31, 0x01	; 1
     cb0:	df 01       	movw	r26, r30
     cb2:	98 2f       	mov	r25, r24
     cb4:	1d 92       	st	X+, r1
     cb6:	9a 95       	dec	r25
     cb8:	e9 f7       	brne	.-6      	; 0xcb4 <InitializeLed+0x26>
     cba:	e7 e2       	ldi	r30, 0x27	; 39
     cbc:	f1 e0       	ldi	r31, 0x01	; 1
     cbe:	df 01       	movw	r26, r30
     cc0:	98 2f       	mov	r25, r24
     cc2:	1d 92       	st	X+, r1
     cc4:	9a 95       	dec	r25
     cc6:	e9 f7       	brne	.-6      	; 0xcc2 <InitializeLed+0x34>
     cc8:	ee e2       	ldi	r30, 0x2E	; 46
     cca:	f1 e0       	ldi	r31, 0x01	; 1
     ccc:	df 01       	movw	r26, r30
     cce:	1d 92       	st	X+, r1
     cd0:	8a 95       	dec	r24
     cd2:	e9 f7       	brne	.-6      	; 0xcce <InitializeLed+0x40>
     cd4:	08 95       	ret

00000cd6 <ManageLeds>:
     cd6:	cf 93       	push	r28
     cd8:	df 93       	push	r29
     cda:	90 e0       	ldi	r25, 0x00	; 0
     cdc:	fc 01       	movw	r30, r24
     cde:	ee 5e       	subi	r30, 0xEE	; 238
     ce0:	fe 4f       	sbci	r31, 0xFE	; 254
     ce2:	20 81       	ld	r18, Z
     ce4:	dc 01       	movw	r26, r24
     ce6:	a9 5d       	subi	r26, 0xD9	; 217
     ce8:	be 4f       	sbci	r27, 0xFE	; 254
     cea:	ec 01       	movw	r28, r24
     cec:	c2 5d       	subi	r28, 0xD2	; 210
     cee:	de 4f       	sbci	r29, 0xFE	; 254
     cf0:	21 30       	cpi	r18, 0x01	; 1
     cf2:	b9 f4       	brne	.+46     	; 0xd22 <ManageLeds+0x4c>
     cf4:	fc 01       	movw	r30, r24
     cf6:	e0 5e       	subi	r30, 0xE0	; 224
     cf8:	fe 4f       	sbci	r31, 0xFE	; 254
     cfa:	30 81       	ld	r19, Z
     cfc:	31 30       	cpi	r19, 0x01	; 1
     cfe:	79 f4       	brne	.+30     	; 0xd1e <ManageLeds+0x48>
     d00:	2c 91       	ld	r18, X
     d02:	fc 01       	movw	r30, r24
     d04:	e7 5e       	subi	r30, 0xE7	; 231
     d06:	fe 4f       	sbci	r31, 0xFE	; 254
     d08:	40 81       	ld	r20, Z
     d0a:	24 17       	cp	r18, r20
     d0c:	28 f0       	brcs	.+10     	; 0xd18 <ManageLeds+0x42>
     d0e:	1c 92       	st	X, r1
     d10:	28 81       	ld	r18, Y
     d12:	23 27       	eor	r18, r19
     d14:	28 83       	st	Y, r18
     d16:	07 c0       	rjmp	.+14     	; 0xd26 <ManageLeds+0x50>
     d18:	2f 5f       	subi	r18, 0xFF	; 255
     d1a:	2c 93       	st	X, r18
     d1c:	04 c0       	rjmp	.+8      	; 0xd26 <ManageLeds+0x50>
     d1e:	28 83       	st	Y, r18
     d20:	01 c0       	rjmp	.+2      	; 0xd24 <ManageLeds+0x4e>
     d22:	18 82       	st	Y, r1
     d24:	1c 92       	st	X, r1
     d26:	86 56       	subi	r24, 0x66	; 102
     d28:	9f 4f       	sbci	r25, 0xFF	; 255
     d2a:	fc 01       	movw	r30, r24
     d2c:	80 81       	ld	r24, Z
     d2e:	68 81       	ld	r22, Y
     d30:	8f d1       	rcall	.+798    	; 0x1050 <HWI_DIGI_WRITE>
     d32:	df 91       	pop	r29
     d34:	cf 91       	pop	r28
     d36:	08 95       	ret

00000d38 <SpeedCalcNotifyInitialize>:
     d38:	08 95       	ret

00000d3a <SensorOneNotify>:
     d3a:	80 91 39 01 	lds	r24, 0x0139
     d3e:	81 30       	cpi	r24, 0x01	; 1
     d40:	19 f4       	brne	.+6      	; 0xd48 <SensorOneNotify+0xe>
     d42:	10 92 39 01 	sts	0x0139, r1
     d46:	08 95       	ret
     d48:	80 91 38 01 	lds	r24, 0x0138
     d4c:	88 23       	and	r24, r24
     d4e:	29 f0       	breq	.+10     	; 0xd5a <SensorOneNotify+0x20>
     d50:	80 91 38 01 	lds	r24, 0x0138
     d54:	81 50       	subi	r24, 0x01	; 1
     d56:	80 93 38 01 	sts	0x0138, r24
     d5a:	08 95       	ret

00000d5c <SensorTwoNotify>:
     d5c:	80 91 39 01 	lds	r24, 0x0139
     d60:	88 23       	and	r24, r24
     d62:	a9 f4       	brne	.+42     	; 0xd8e <SensorTwoNotify+0x32>
     d64:	81 e0       	ldi	r24, 0x01	; 1
     d66:	80 93 39 01 	sts	0x0139, r24
     d6a:	80 91 38 01 	lds	r24, 0x0138
     d6e:	8f 5f       	subi	r24, 0xFF	; 255
     d70:	80 93 38 01 	sts	0x0138, r24
     d74:	81 e0       	ldi	r24, 0x01	; 1
     d76:	00 d2       	rcall	.+1024   	; 0x1178 <ReloadHWtimer>
     d78:	90 93 37 01 	sts	0x0137, r25
     d7c:	80 93 36 01 	sts	0x0136, r24
     d80:	80 91 35 01 	lds	r24, 0x0135
     d84:	80 93 3a 01 	sts	0x013A, r24
     d88:	10 92 35 01 	sts	0x0135, r1
     d8c:	08 95       	ret
     d8e:	80 91 38 01 	lds	r24, 0x0138
     d92:	88 23       	and	r24, r24
     d94:	29 f0       	breq	.+10     	; 0xda0 <SensorTwoNotify+0x44>
     d96:	80 91 38 01 	lds	r24, 0x0138
     d9a:	81 50       	subi	r24, 0x01	; 1
     d9c:	80 93 38 01 	sts	0x0138, r24
     da0:	08 95       	ret

00000da2 <SpeedCalcManage>:
     da2:	40 91 36 01 	lds	r20, 0x0136
     da6:	50 91 37 01 	lds	r21, 0x0137
     daa:	20 91 3a 01 	lds	r18, 0x013A
     dae:	30 e0       	ldi	r19, 0x00	; 0
     db0:	8f e8       	ldi	r24, 0x8F	; 143
     db2:	92 e0       	ldi	r25, 0x02	; 2
     db4:	28 9f       	mul	r18, r24
     db6:	f0 01       	movw	r30, r0
     db8:	29 9f       	mul	r18, r25
     dba:	f0 0d       	add	r31, r0
     dbc:	38 9f       	mul	r19, r24
     dbe:	f0 0d       	add	r31, r0
     dc0:	11 24       	eor	r1, r1
     dc2:	ca 01       	movw	r24, r20
     dc4:	64 e6       	ldi	r22, 0x64	; 100
     dc6:	70 e0       	ldi	r23, 0x00	; 0
     dc8:	c1 d2       	rcall	.+1410   	; 0x134c <__udivmodhi4>
     dca:	e6 0f       	add	r30, r22
     dcc:	f7 1f       	adc	r31, r23
     dce:	f0 93 3c 01 	sts	0x013C, r31
     dd2:	e0 93 3b 01 	sts	0x013B, r30
     dd6:	80 91 3d 01 	lds	r24, 0x013D
     dda:	88 23       	and	r24, r24
     ddc:	b9 f5       	brne	.+110    	; 0xe4c <SpeedCalcManage+0xaa>
     dde:	20 91 a1 00 	lds	r18, 0x00A1
     de2:	30 91 a2 00 	lds	r19, 0x00A2
     de6:	40 e0       	ldi	r20, 0x00	; 0
     de8:	50 e0       	ldi	r21, 0x00	; 0
     dea:	60 ea       	ldi	r22, 0xA0	; 160
     dec:	76 e8       	ldi	r23, 0x86	; 134
     dee:	81 e0       	ldi	r24, 0x01	; 1
     df0:	90 e0       	ldi	r25, 0x00	; 0
     df2:	c0 d2       	rcall	.+1408   	; 0x1374 <__udivmodsi4>
     df4:	40 91 38 01 	lds	r20, 0x0138
     df8:	80 91 3e 01 	lds	r24, 0x013E
     dfc:	90 91 3f 01 	lds	r25, 0x013F
     e00:	84 0f       	add	r24, r20
     e02:	91 1d       	adc	r25, r1
     e04:	90 93 3f 01 	sts	0x013F, r25
     e08:	80 93 3e 01 	sts	0x013E, r24
     e0c:	10 92 38 01 	sts	0x0138, r1
     e10:	82 17       	cp	r24, r18
     e12:	93 07       	cpc	r25, r19
     e14:	e8 f0       	brcs	.+58     	; 0xe50 <SpeedCalcManage+0xae>
     e16:	40 91 40 01 	lds	r20, 0x0140
     e1a:	50 91 41 01 	lds	r21, 0x0141
     e1e:	60 91 42 01 	lds	r22, 0x0142
     e22:	70 91 43 01 	lds	r23, 0x0143
     e26:	4f 5f       	subi	r20, 0xFF	; 255
     e28:	5f 4f       	sbci	r21, 0xFF	; 255
     e2a:	6f 4f       	sbci	r22, 0xFF	; 255
     e2c:	7f 4f       	sbci	r23, 0xFF	; 255
     e2e:	40 93 40 01 	sts	0x0140, r20
     e32:	50 93 41 01 	sts	0x0141, r21
     e36:	60 93 42 01 	sts	0x0142, r22
     e3a:	70 93 43 01 	sts	0x0143, r23
     e3e:	82 1b       	sub	r24, r18
     e40:	93 0b       	sbc	r25, r19
     e42:	90 93 3f 01 	sts	0x013F, r25
     e46:	80 93 3e 01 	sts	0x013E, r24
     e4a:	08 95       	ret
     e4c:	10 92 38 01 	sts	0x0138, r1
     e50:	08 95       	ret

00000e52 <DisableDistanceCntr>:
     e52:	80 93 3d 01 	sts	0x013D, r24
     e56:	08 95       	ret

00000e58 <SetDistance>:
     e58:	dc 01       	movw	r26, r24
     e5a:	cb 01       	movw	r24, r22
     e5c:	80 93 40 01 	sts	0x0140, r24
     e60:	90 93 41 01 	sts	0x0141, r25
     e64:	a0 93 42 01 	sts	0x0142, r26
     e68:	b0 93 43 01 	sts	0x0143, r27
     e6c:	10 92 3f 01 	sts	0x013F, r1
     e70:	10 92 3e 01 	sts	0x013E, r1
     e74:	08 95       	ret

00000e76 <GetDistance>:
     e76:	60 91 40 01 	lds	r22, 0x0140
     e7a:	70 91 41 01 	lds	r23, 0x0141
     e7e:	80 91 42 01 	lds	r24, 0x0142
     e82:	90 91 43 01 	lds	r25, 0x0143
     e86:	08 95       	ret

00000e88 <SetCircumfirunce>:
     e88:	90 93 a2 00 	sts	0x00A2, r25
     e8c:	80 93 a1 00 	sts	0x00A1, r24
     e90:	08 95       	ret

00000e92 <GetAvgSpeed>:
     e92:	cf 93       	push	r28
     e94:	df 93       	push	r29
     e96:	81 30       	cpi	r24, 0x01	; 1
     e98:	29 f4       	brne	.+10     	; 0xea4 <GetAvgSpeed+0x12>
     e9a:	68 e6       	ldi	r22, 0x68	; 104
     e9c:	71 e0       	ldi	r23, 0x01	; 1
     e9e:	80 e0       	ldi	r24, 0x00	; 0
     ea0:	90 e0       	ldi	r25, 0x00	; 0
     ea2:	04 c0       	rjmp	.+8      	; 0xeac <GetAvgSpeed+0x1a>
     ea4:	61 ee       	ldi	r22, 0xE1	; 225
     ea6:	70 e0       	ldi	r23, 0x00	; 0
     ea8:	80 e0       	ldi	r24, 0x00	; 0
     eaa:	90 e0       	ldi	r25, 0x00	; 0
     eac:	c0 91 3b 01 	lds	r28, 0x013B
     eb0:	d0 91 3c 01 	lds	r29, 0x013C
     eb4:	20 97       	sbiw	r28, 0x00	; 0
     eb6:	69 f0       	breq	.+26     	; 0xed2 <GetAvgSpeed+0x40>
     eb8:	20 91 a1 00 	lds	r18, 0x00A1
     ebc:	30 91 a2 00 	lds	r19, 0x00A2
     ec0:	40 e0       	ldi	r20, 0x00	; 0
     ec2:	50 e0       	ldi	r21, 0x00	; 0
     ec4:	24 d2       	rcall	.+1096   	; 0x130e <__mulsi3>
     ec6:	9e 01       	movw	r18, r28
     ec8:	40 e0       	ldi	r20, 0x00	; 0
     eca:	50 e0       	ldi	r21, 0x00	; 0
     ecc:	53 d2       	rcall	.+1190   	; 0x1374 <__udivmodsi4>
     ece:	c9 01       	movw	r24, r18
     ed0:	02 c0       	rjmp	.+4      	; 0xed6 <GetAvgSpeed+0x44>
     ed2:	80 e0       	ldi	r24, 0x00	; 0
     ed4:	90 e0       	ldi	r25, 0x00	; 0
     ed6:	20 91 35 01 	lds	r18, 0x0135
     eda:	20 34       	cpi	r18, 0x40	; 64
     edc:	11 f4       	brne	.+4      	; 0xee2 <GetAvgSpeed+0x50>
     ede:	80 e0       	ldi	r24, 0x00	; 0
     ee0:	90 e0       	ldi	r25, 0x00	; 0
     ee2:	df 91       	pop	r29
     ee4:	cf 91       	pop	r28
     ee6:	08 95       	ret

00000ee8 <HWtimerCallback>:
     ee8:	80 91 35 01 	lds	r24, 0x0135
     eec:	80 34       	cpi	r24, 0x40	; 64
     eee:	28 f4       	brcc	.+10     	; 0xefa <HWtimerCallback+0x12>
     ef0:	80 91 35 01 	lds	r24, 0x0135
     ef4:	8f 5f       	subi	r24, 0xFF	; 255
     ef6:	80 93 35 01 	sts	0x0135, r24
     efa:	08 95       	ret

00000efc <APP_ISR1>:
     efc:	1e df       	rcall	.-452    	; 0xd3a <SensorOneNotify>
     efe:	08 95       	ret

00000f00 <APP_ISR2>:
     f00:	2d df       	rcall	.-422    	; 0xd5c <SensorTwoNotify>
     f02:	08 95       	ret

00000f04 <APP_ISR3>:
     f04:	f1 df       	rcall	.-30     	; 0xee8 <HWtimerCallback>
     f06:	08 95       	ret

00000f08 <ManageDrivers>:
     f08:	cf 93       	push	r28
     f0a:	80 e0       	ldi	r24, 0x00	; 0
     f0c:	0e de       	rcall	.-996    	; 0xb2a <MangeKeys>
     f0e:	81 e0       	ldi	r24, 0x01	; 1
     f10:	0c de       	rcall	.-1000   	; 0xb2a <MangeKeys>
     f12:	cf dd       	rcall	.-1122   	; 0xab2 <EepromManage>
     f14:	c0 e0       	ldi	r28, 0x00	; 0
     f16:	8c 2f       	mov	r24, r28
     f18:	de de       	rcall	.-580    	; 0xcd6 <ManageLeds>
     f1a:	cf 5f       	subi	r28, 0xFF	; 255
     f1c:	c7 30       	cpi	r28, 0x07	; 7
     f1e:	d9 f7       	brne	.-10     	; 0xf16 <ManageDrivers+0xe>
     f20:	cf 91       	pop	r28
     f22:	08 95       	ret

00000f24 <ManageSpeedCalc>:
     f24:	3e df       	rcall	.-388    	; 0xda2 <SpeedCalcManage>
     f26:	08 95       	ret

00000f28 <ManageApplication>:
     f28:	8b d9       	rcall	.-3306   	; 0x240 <APP_MANAGE>
     f2a:	08 95       	ret

00000f2c <DisplayAlphaNumeric>:
     f2c:	bd dc       	rcall	.-1670   	; 0x8a8 <BCDManage7segment>
     f2e:	08 95       	ret

00000f30 <Start_App>:
     f30:	d8 d1       	rcall	.+944    	; 0x12e2 <HWI_InitOscilatorCalib>
     f32:	ff d0       	rcall	.+510    	; 0x1132 <HWI_INTERRUPTS_INTITALIZE>
     f34:	74 d0       	rcall	.+232    	; 0x101e <HWI_DIGITAL_INITIALIZE>
     f36:	00 df       	rcall	.-512    	; 0xd38 <SpeedCalcNotifyInitialize>
     f38:	11 d9       	rcall	.-3550   	; 0x15c <APP_INITIALIZE>
     f3a:	81 e0       	ldi	r24, 0x01	; 1
     f3c:	16 dc       	rcall	.-2004   	; 0x76a <BCDInitialize>
     f3e:	a7 de       	rcall	.-690    	; 0xc8e <InitializeLed>
     f40:	82 e9       	ldi	r24, 0x92	; 146
     f42:	97 e0       	ldi	r25, 0x07	; 7
     f44:	60 e0       	ldi	r22, 0x00	; 0
     f46:	44 e1       	ldi	r20, 0x14	; 20
     f48:	11 d0       	rcall	.+34     	; 0xf6c <CreateTask>
     f4a:	84 e9       	ldi	r24, 0x94	; 148
     f4c:	97 e0       	ldi	r25, 0x07	; 7
     f4e:	62 e0       	ldi	r22, 0x02	; 2
     f50:	42 e3       	ldi	r20, 0x32	; 50
     f52:	0c d0       	rcall	.+24     	; 0xf6c <CreateTask>
     f54:	86 e9       	ldi	r24, 0x96	; 150
     f56:	97 e0       	ldi	r25, 0x07	; 7
     f58:	61 e0       	ldi	r22, 0x01	; 1
     f5a:	42 e0       	ldi	r20, 0x02	; 2
     f5c:	07 d0       	rcall	.+14     	; 0xf6c <CreateTask>
     f5e:	84 e8       	ldi	r24, 0x84	; 132
     f60:	97 e0       	ldi	r25, 0x07	; 7
     f62:	63 e0       	ldi	r22, 0x03	; 3
     f64:	4a e0       	ldi	r20, 0x0A	; 10
     f66:	02 d0       	rcall	.+4      	; 0xf6c <CreateTask>
     f68:	1b d0       	rcall	.+54     	; 0xfa0 <RunScheduler>
     f6a:	08 95       	ret

00000f6c <CreateTask>:
     f6c:	64 30       	cpi	r22, 0x04	; 4
     f6e:	60 f4       	brcc	.+24     	; 0xf88 <CreateTask+0x1c>
     f70:	e6 2f       	mov	r30, r22
     f72:	f0 e0       	ldi	r31, 0x00	; 0
     f74:	ee 0f       	add	r30, r30
     f76:	ff 1f       	adc	r31, r31
     f78:	ee 0f       	add	r30, r30
     f7a:	ff 1f       	adc	r31, r31
     f7c:	ec 5b       	subi	r30, 0xBC	; 188
     f7e:	fe 4f       	sbci	r31, 0xFE	; 254
     f80:	91 83       	std	Z+1, r25	; 0x01
     f82:	80 83       	st	Z, r24
     f84:	42 83       	std	Z+2, r20	; 0x02
     f86:	13 82       	std	Z+3, r1	; 0x03
     f88:	08 95       	ret

00000f8a <SchedulerTick>:
     f8a:	e7 e4       	ldi	r30, 0x47	; 71
     f8c:	f1 e0       	ldi	r31, 0x01	; 1
     f8e:	84 e0       	ldi	r24, 0x04	; 4
     f90:	90 81       	ld	r25, Z
     f92:	9f 5f       	subi	r25, 0xFF	; 255
     f94:	90 83       	st	Z, r25
     f96:	81 50       	subi	r24, 0x01	; 1
     f98:	34 96       	adiw	r30, 0x04	; 4
     f9a:	88 23       	and	r24, r24
     f9c:	c9 f7       	brne	.-14     	; 0xf90 <SchedulerTick+0x6>
     f9e:	08 95       	ret

00000fa0 <RunScheduler>:
     fa0:	10 92 54 01 	sts	0x0154, r1
     fa4:	1e c0       	rjmp	.+60     	; 0xfe2 <RunScheduler+0x42>
     fa6:	f0 e0       	ldi	r31, 0x00	; 0
     fa8:	ee 0f       	add	r30, r30
     faa:	ff 1f       	adc	r31, r31
     fac:	ee 0f       	add	r30, r30
     fae:	ff 1f       	adc	r31, r31
     fb0:	ec 5b       	subi	r30, 0xBC	; 188
     fb2:	fe 4f       	sbci	r31, 0xFE	; 254
     fb4:	92 81       	ldd	r25, Z+2	; 0x02
     fb6:	83 81       	ldd	r24, Z+3	; 0x03
     fb8:	89 17       	cp	r24, r25
     fba:	70 f0       	brcs	.+28     	; 0xfd8 <RunScheduler+0x38>
     fbc:	01 90       	ld	r0, Z+
     fbe:	f0 81       	ld	r31, Z
     fc0:	e0 2d       	mov	r30, r0
     fc2:	09 95       	icall
     fc4:	e0 91 54 01 	lds	r30, 0x0154
     fc8:	f0 e0       	ldi	r31, 0x00	; 0
     fca:	ee 0f       	add	r30, r30
     fcc:	ff 1f       	adc	r31, r31
     fce:	ee 0f       	add	r30, r30
     fd0:	ff 1f       	adc	r31, r31
     fd2:	ec 5b       	subi	r30, 0xBC	; 188
     fd4:	fe 4f       	sbci	r31, 0xFE	; 254
     fd6:	13 82       	std	Z+3, r1	; 0x03
     fd8:	80 91 54 01 	lds	r24, 0x0154
     fdc:	8f 5f       	subi	r24, 0xFF	; 255
     fde:	80 93 54 01 	sts	0x0154, r24
     fe2:	e0 91 54 01 	lds	r30, 0x0154
     fe6:	e4 30       	cpi	r30, 0x04	; 4
     fe8:	d8 f6       	brcc	.-74     	; 0xfa0 <RunScheduler>
     fea:	dd cf       	rjmp	.-70     	; 0xfa6 <RunScheduler+0x6>

00000fec <HWIeeprom_Write>:
     fec:	e1 99       	sbic	0x1c, 1	; 28
     fee:	08 c0       	rjmp	.+16     	; 0x1000 <HWIeeprom_Write+0x14>
     ff0:	90 e0       	ldi	r25, 0x00	; 0
     ff2:	9f bb       	out	0x1f, r25	; 31
     ff4:	8e bb       	out	0x1e, r24	; 30
     ff6:	6d bb       	out	0x1d, r22	; 29
     ff8:	e2 9a       	sbi	0x1c, 2	; 28
     ffa:	e1 9a       	sbi	0x1c, 1	; 28
     ffc:	81 e0       	ldi	r24, 0x01	; 1
     ffe:	08 95       	ret
    1000:	80 e0       	ldi	r24, 0x00	; 0
    1002:	08 95       	ret

00001004 <HWIeeprom_Read>:
    1004:	e1 99       	sbic	0x1c, 1	; 28
    1006:	09 c0       	rjmp	.+18     	; 0x101a <HWIeeprom_Read+0x16>
    1008:	90 e0       	ldi	r25, 0x00	; 0
    100a:	9f bb       	out	0x1f, r25	; 31
    100c:	8e bb       	out	0x1e, r24	; 30
    100e:	e0 9a       	sbi	0x1c, 0	; 28
    1010:	8d b3       	in	r24, 0x1d	; 29
    1012:	fb 01       	movw	r30, r22
    1014:	80 83       	st	Z, r24
    1016:	81 e0       	ldi	r24, 0x01	; 1
    1018:	08 95       	ret
    101a:	80 e0       	ldi	r24, 0x00	; 0
    101c:	08 95       	ret

0000101e <HWI_DIGITAL_INITIALIZE>:
    101e:	8f ef       	ldi	r24, 0xFF	; 255
    1020:	87 bb       	out	0x17, r24	; 23
    1022:	84 bb       	out	0x14, r24	; 20
    1024:	83 e8       	ldi	r24, 0x83	; 131
    1026:	81 bb       	out	0x11, r24	; 17
    1028:	8c e7       	ldi	r24, 0x7C	; 124
    102a:	82 bb       	out	0x12, r24	; 18
    102c:	08 95       	ret

0000102e <HWI_DIGI_READ>:
    102e:	80 31       	cpi	r24, 0x10	; 16
    1030:	39 f0       	breq	.+14     	; 0x1040 <HWI_DIGI_READ+0x12>
    1032:	81 31       	cpi	r24, 0x11	; 17
    1034:	41 f0       	breq	.+16     	; 0x1046 <HWI_DIGI_READ+0x18>
    1036:	8f 30       	cpi	r24, 0x0F	; 15
    1038:	49 f4       	brne	.+18     	; 0x104c <HWI_DIGI_READ+0x1e>
    103a:	80 b3       	in	r24, 0x10	; 16
    103c:	80 71       	andi	r24, 0x10	; 16
    103e:	08 95       	ret
    1040:	80 b3       	in	r24, 0x10	; 16
    1042:	80 72       	andi	r24, 0x20	; 32
    1044:	08 95       	ret
    1046:	80 b3       	in	r24, 0x10	; 16
    1048:	80 74       	andi	r24, 0x40	; 64
    104a:	08 95       	ret
    104c:	80 e0       	ldi	r24, 0x00	; 0
    104e:	08 95       	ret

00001050 <HWI_DIGI_WRITE>:
    1050:	82 30       	cpi	r24, 0x02	; 2
    1052:	e9 f0       	breq	.+58     	; 0x108e <HWI_DIGI_WRITE+0x3e>
    1054:	83 30       	cpi	r24, 0x03	; 3
    1056:	30 f4       	brcc	.+12     	; 0x1064 <HWI_DIGI_WRITE+0x14>
    1058:	88 23       	and	r24, r24
    105a:	59 f0       	breq	.+22     	; 0x1072 <HWI_DIGI_WRITE+0x22>
    105c:	81 30       	cpi	r24, 0x01	; 1
    105e:	09 f0       	breq	.+2      	; 0x1062 <HWI_DIGI_WRITE+0x12>
    1060:	42 c0       	rjmp	.+132    	; 0x10e6 <HWI_DIGI_WRITE+0x96>
    1062:	0b c0       	rjmp	.+22     	; 0x107a <HWI_DIGI_WRITE+0x2a>
    1064:	85 30       	cpi	r24, 0x05	; 5
    1066:	31 f1       	breq	.+76     	; 0x10b4 <HWI_DIGI_WRITE+0x64>
    1068:	86 30       	cpi	r24, 0x06	; 6
    106a:	89 f1       	breq	.+98     	; 0x10ce <HWI_DIGI_WRITE+0x7e>
    106c:	83 30       	cpi	r24, 0x03	; 3
    106e:	d9 f5       	brne	.+118    	; 0x10e6 <HWI_DIGI_WRITE+0x96>
    1070:	16 c0       	rjmp	.+44     	; 0x109e <HWI_DIGI_WRITE+0x4e>
    1072:	82 b3       	in	r24, 0x12	; 18
    1074:	61 70       	andi	r22, 0x01	; 1
    1076:	8e 7f       	andi	r24, 0xFE	; 254
    1078:	0f c0       	rjmp	.+30     	; 0x1098 <HWI_DIGI_WRITE+0x48>
    107a:	82 b3       	in	r24, 0x12	; 18
    107c:	70 e0       	ldi	r23, 0x00	; 0
    107e:	61 70       	andi	r22, 0x01	; 1
    1080:	70 70       	andi	r23, 0x00	; 0
    1082:	66 0f       	add	r22, r22
    1084:	77 1f       	adc	r23, r23
    1086:	8d 7f       	andi	r24, 0xFD	; 253
    1088:	86 2b       	or	r24, r22
    108a:	82 bb       	out	0x12, r24	; 18
    108c:	08 95       	ret
    108e:	82 b3       	in	r24, 0x12	; 18
    1090:	67 95       	ror	r22
    1092:	66 27       	eor	r22, r22
    1094:	67 95       	ror	r22
    1096:	8f 77       	andi	r24, 0x7F	; 127
    1098:	68 2b       	or	r22, r24
    109a:	62 bb       	out	0x12, r22	; 18
    109c:	08 95       	ret
    109e:	85 b3       	in	r24, 0x15	; 21
    10a0:	70 e0       	ldi	r23, 0x00	; 0
    10a2:	61 70       	andi	r22, 0x01	; 1
    10a4:	70 70       	andi	r23, 0x00	; 0
    10a6:	35 e0       	ldi	r19, 0x05	; 5
    10a8:	66 0f       	add	r22, r22
    10aa:	77 1f       	adc	r23, r23
    10ac:	3a 95       	dec	r19
    10ae:	e1 f7       	brne	.-8      	; 0x10a8 <HWI_DIGI_WRITE+0x58>
    10b0:	8f 7d       	andi	r24, 0xDF	; 223
    10b2:	0a c0       	rjmp	.+20     	; 0x10c8 <HWI_DIGI_WRITE+0x78>
    10b4:	85 b3       	in	r24, 0x15	; 21
    10b6:	70 e0       	ldi	r23, 0x00	; 0
    10b8:	61 70       	andi	r22, 0x01	; 1
    10ba:	70 70       	andi	r23, 0x00	; 0
    10bc:	24 e0       	ldi	r18, 0x04	; 4
    10be:	66 0f       	add	r22, r22
    10c0:	77 1f       	adc	r23, r23
    10c2:	2a 95       	dec	r18
    10c4:	e1 f7       	brne	.-8      	; 0x10be <HWI_DIGI_WRITE+0x6e>
    10c6:	8f 7e       	andi	r24, 0xEF	; 239
    10c8:	86 2b       	or	r24, r22
    10ca:	85 bb       	out	0x15, r24	; 21
    10cc:	08 95       	ret
    10ce:	85 b3       	in	r24, 0x15	; 21
    10d0:	70 e0       	ldi	r23, 0x00	; 0
    10d2:	61 70       	andi	r22, 0x01	; 1
    10d4:	70 70       	andi	r23, 0x00	; 0
    10d6:	93 e0       	ldi	r25, 0x03	; 3
    10d8:	66 0f       	add	r22, r22
    10da:	77 1f       	adc	r23, r23
    10dc:	9a 95       	dec	r25
    10de:	e1 f7       	brne	.-8      	; 0x10d8 <HWI_DIGI_WRITE+0x88>
    10e0:	87 7f       	andi	r24, 0xF7	; 247
    10e2:	86 2b       	or	r24, r22
    10e4:	85 bb       	out	0x15, r24	; 21
    10e6:	08 95       	ret

000010e8 <HWI_4Digit_WRITE>:
    10e8:	88 23       	and	r24, r24
    10ea:	29 f4       	brne	.+10     	; 0x10f6 <HWI_4Digit_WRITE+0xe>
    10ec:	85 b3       	in	r24, 0x15	; 21
    10ee:	88 7f       	andi	r24, 0xF8	; 248
    10f0:	86 2b       	or	r24, r22
    10f2:	85 bb       	out	0x15, r24	; 21
    10f4:	08 95       	ret
    10f6:	88 b3       	in	r24, 0x18	; 24
    10f8:	80 7f       	andi	r24, 0xF0	; 240
    10fa:	86 2b       	or	r24, r22
    10fc:	88 bb       	out	0x18, r24	; 24
    10fe:	08 95       	ret

00001100 <HWI_4Digit_READ>:
    1100:	88 23       	and	r24, r24
    1102:	19 f0       	breq	.+6      	; 0x110a <HWI_4Digit_READ+0xa>
    1104:	81 30       	cpi	r24, 0x01	; 1
    1106:	31 f4       	brne	.+12     	; 0x1114 <HWI_4Digit_READ+0x14>
    1108:	02 c0       	rjmp	.+4      	; 0x110e <HWI_4Digit_READ+0xe>
    110a:	83 b3       	in	r24, 0x13	; 19
    110c:	01 c0       	rjmp	.+2      	; 0x1110 <HWI_4Digit_READ+0x10>
    110e:	86 b3       	in	r24, 0x16	; 22
    1110:	8f 70       	andi	r24, 0x0F	; 15
    1112:	08 95       	ret
    1114:	86 b3       	in	r24, 0x16	; 22
    1116:	8f 70       	andi	r24, 0x0F	; 15
    1118:	08 95       	ret

0000111a <HWI_8Digit_WRITE>:
    111a:	88 23       	and	r24, r24
    111c:	11 f4       	brne	.+4      	; 0x1122 <HWI_8Digit_WRITE+0x8>
    111e:	65 bb       	out	0x15, r22	; 21
    1120:	08 95       	ret
    1122:	68 bb       	out	0x18, r22	; 24
    1124:	08 95       	ret

00001126 <HWI8Digit_READ>:
    1126:	88 23       	and	r24, r24
    1128:	11 f0       	breq	.+4      	; 0x112e <HWI8Digit_READ+0x8>
    112a:	86 b3       	in	r24, 0x16	; 22
    112c:	08 95       	ret
    112e:	83 b3       	in	r24, 0x13	; 19
    1130:	08 95       	ret

00001132 <HWI_INTERRUPTS_INTITALIZE>:
    1132:	8e b5       	in	r24, 0x2e	; 46
    1134:	82 60       	ori	r24, 0x02	; 2
    1136:	8e bd       	out	0x2e, r24	; 46
    1138:	8f ef       	ldi	r24, 0xFF	; 255
    113a:	9f e7       	ldi	r25, 0x7F	; 127
    113c:	9d bd       	out	0x2d, r25	; 45
    113e:	8c bd       	out	0x2c, r24	; 44
    1140:	83 b7       	in	r24, 0x33	; 51
    1142:	83 60       	ori	r24, 0x03	; 3
    1144:	83 bf       	out	0x33, r24	; 51
    1146:	82 ec       	ldi	r24, 0xC2	; 194
    1148:	82 bf       	out	0x32, r24	; 50
    114a:	89 b7       	in	r24, 0x39	; 57
    114c:	81 60       	ori	r24, 0x01	; 1
    114e:	89 bf       	out	0x39, r24	; 57
    1150:	89 b7       	in	r24, 0x39	; 57
    1152:	84 60       	ori	r24, 0x04	; 4
    1154:	89 bf       	out	0x39, r24	; 57
    1156:	8b b7       	in	r24, 0x3b	; 59
    1158:	80 64       	ori	r24, 0x40	; 64
    115a:	8b bf       	out	0x3b, r24	; 59
    115c:	85 b7       	in	r24, 0x35	; 53
    115e:	83 60       	ori	r24, 0x03	; 3
    1160:	85 bf       	out	0x35, r24	; 53
    1162:	8b b7       	in	r24, 0x3b	; 59
    1164:	80 68       	ori	r24, 0x80	; 128
    1166:	8b bf       	out	0x3b, r24	; 59
    1168:	85 b7       	in	r24, 0x35	; 53
    116a:	8c 60       	ori	r24, 0x0C	; 12
    116c:	85 bf       	out	0x35, r24	; 53
    116e:	81 b3       	in	r24, 0x11	; 17
    1170:	8c 60       	ori	r24, 0x0C	; 12
    1172:	81 bb       	out	0x11, r24	; 17
    1174:	78 94       	sei
    1176:	08 95       	ret

00001178 <ReloadHWtimer>:
    1178:	83 30       	cpi	r24, 0x03	; 3
    117a:	58 f4       	brcc	.+22     	; 0x1192 <ReloadHWtimer+0x1a>
    117c:	8c b5       	in	r24, 0x2c	; 44
    117e:	9d b5       	in	r25, 0x2d	; 45
    1180:	8f 5f       	subi	r24, 0xFF	; 255
    1182:	9f 47       	sbci	r25, 0x7F	; 127
    1184:	88 0f       	add	r24, r24
    1186:	99 1f       	adc	r25, r25
    1188:	2f ef       	ldi	r18, 0xFF	; 255
    118a:	3f e7       	ldi	r19, 0x7F	; 127
    118c:	3d bd       	out	0x2d, r19	; 45
    118e:	2c bd       	out	0x2c, r18	; 44
    1190:	08 95       	ret
    1192:	80 e0       	ldi	r24, 0x00	; 0
    1194:	90 e0       	ldi	r25, 0x00	; 0
    1196:	08 95       	ret

00001198 <__vector_9>:
    1198:	1f 92       	push	r1
    119a:	0f 92       	push	r0
    119c:	0f b6       	in	r0, 0x3f	; 63
    119e:	0f 92       	push	r0
    11a0:	11 24       	eor	r1, r1
    11a2:	2f 93       	push	r18
    11a4:	3f 93       	push	r19
    11a6:	4f 93       	push	r20
    11a8:	5f 93       	push	r21
    11aa:	6f 93       	push	r22
    11ac:	7f 93       	push	r23
    11ae:	8f 93       	push	r24
    11b0:	9f 93       	push	r25
    11b2:	af 93       	push	r26
    11b4:	bf 93       	push	r27
    11b6:	ef 93       	push	r30
    11b8:	ff 93       	push	r31
    11ba:	82 ec       	ldi	r24, 0xC2	; 194
    11bc:	82 bf       	out	0x32, r24	; 50
    11be:	e5 de       	rcall	.-566    	; 0xf8a <SchedulerTick>
    11c0:	ff 91       	pop	r31
    11c2:	ef 91       	pop	r30
    11c4:	bf 91       	pop	r27
    11c6:	af 91       	pop	r26
    11c8:	9f 91       	pop	r25
    11ca:	8f 91       	pop	r24
    11cc:	7f 91       	pop	r23
    11ce:	6f 91       	pop	r22
    11d0:	5f 91       	pop	r21
    11d2:	4f 91       	pop	r20
    11d4:	3f 91       	pop	r19
    11d6:	2f 91       	pop	r18
    11d8:	0f 90       	pop	r0
    11da:	0f be       	out	0x3f, r0	; 63
    11dc:	0f 90       	pop	r0
    11de:	1f 90       	pop	r1
    11e0:	18 95       	reti

000011e2 <__vector_8>:
    11e2:	1f 92       	push	r1
    11e4:	0f 92       	push	r0
    11e6:	0f b6       	in	r0, 0x3f	; 63
    11e8:	0f 92       	push	r0
    11ea:	11 24       	eor	r1, r1
    11ec:	2f 93       	push	r18
    11ee:	3f 93       	push	r19
    11f0:	4f 93       	push	r20
    11f2:	5f 93       	push	r21
    11f4:	6f 93       	push	r22
    11f6:	7f 93       	push	r23
    11f8:	8f 93       	push	r24
    11fa:	9f 93       	push	r25
    11fc:	af 93       	push	r26
    11fe:	bf 93       	push	r27
    1200:	ef 93       	push	r30
    1202:	ff 93       	push	r31
    1204:	8f ef       	ldi	r24, 0xFF	; 255
    1206:	9f e7       	ldi	r25, 0x7F	; 127
    1208:	9d bd       	out	0x2d, r25	; 45
    120a:	8c bd       	out	0x2c, r24	; 44
    120c:	7b de       	rcall	.-778    	; 0xf04 <APP_ISR3>
    120e:	ff 91       	pop	r31
    1210:	ef 91       	pop	r30
    1212:	bf 91       	pop	r27
    1214:	af 91       	pop	r26
    1216:	9f 91       	pop	r25
    1218:	8f 91       	pop	r24
    121a:	7f 91       	pop	r23
    121c:	6f 91       	pop	r22
    121e:	5f 91       	pop	r21
    1220:	4f 91       	pop	r20
    1222:	3f 91       	pop	r19
    1224:	2f 91       	pop	r18
    1226:	0f 90       	pop	r0
    1228:	0f be       	out	0x3f, r0	; 63
    122a:	0f 90       	pop	r0
    122c:	1f 90       	pop	r1
    122e:	18 95       	reti

00001230 <__vector_1>:
    1230:	1f 92       	push	r1
    1232:	0f 92       	push	r0
    1234:	0f b6       	in	r0, 0x3f	; 63
    1236:	0f 92       	push	r0
    1238:	11 24       	eor	r1, r1
    123a:	2f 93       	push	r18
    123c:	3f 93       	push	r19
    123e:	4f 93       	push	r20
    1240:	5f 93       	push	r21
    1242:	6f 93       	push	r22
    1244:	7f 93       	push	r23
    1246:	8f 93       	push	r24
    1248:	9f 93       	push	r25
    124a:	af 93       	push	r26
    124c:	bf 93       	push	r27
    124e:	ef 93       	push	r30
    1250:	ff 93       	push	r31
    1252:	54 de       	rcall	.-856    	; 0xefc <APP_ISR1>
    1254:	85 b7       	in	r24, 0x35	; 53
    1256:	83 60       	ori	r24, 0x03	; 3
    1258:	85 bf       	out	0x35, r24	; 53
    125a:	ff 91       	pop	r31
    125c:	ef 91       	pop	r30
    125e:	bf 91       	pop	r27
    1260:	af 91       	pop	r26
    1262:	9f 91       	pop	r25
    1264:	8f 91       	pop	r24
    1266:	7f 91       	pop	r23
    1268:	6f 91       	pop	r22
    126a:	5f 91       	pop	r21
    126c:	4f 91       	pop	r20
    126e:	3f 91       	pop	r19
    1270:	2f 91       	pop	r18
    1272:	0f 90       	pop	r0
    1274:	0f be       	out	0x3f, r0	; 63
    1276:	0f 90       	pop	r0
    1278:	1f 90       	pop	r1
    127a:	18 95       	reti

0000127c <__vector_2>:
    127c:	1f 92       	push	r1
    127e:	0f 92       	push	r0
    1280:	0f b6       	in	r0, 0x3f	; 63
    1282:	0f 92       	push	r0
    1284:	11 24       	eor	r1, r1
    1286:	2f 93       	push	r18
    1288:	3f 93       	push	r19
    128a:	4f 93       	push	r20
    128c:	5f 93       	push	r21
    128e:	6f 93       	push	r22
    1290:	7f 93       	push	r23
    1292:	8f 93       	push	r24
    1294:	9f 93       	push	r25
    1296:	af 93       	push	r26
    1298:	bf 93       	push	r27
    129a:	ef 93       	push	r30
    129c:	ff 93       	push	r31
    129e:	30 de       	rcall	.-928    	; 0xf00 <APP_ISR2>
    12a0:	ff 91       	pop	r31
    12a2:	ef 91       	pop	r30
    12a4:	bf 91       	pop	r27
    12a6:	af 91       	pop	r26
    12a8:	9f 91       	pop	r25
    12aa:	8f 91       	pop	r24
    12ac:	7f 91       	pop	r23
    12ae:	6f 91       	pop	r22
    12b0:	5f 91       	pop	r21
    12b2:	4f 91       	pop	r20
    12b4:	3f 91       	pop	r19
    12b6:	2f 91       	pop	r18
    12b8:	0f 90       	pop	r0
    12ba:	0f be       	out	0x3f, r0	; 63
    12bc:	0f 90       	pop	r0
    12be:	1f 90       	pop	r1
    12c0:	18 95       	reti

000012c2 <SendMCUtoSleep>:
    12c2:	85 b7       	in	r24, 0x35	; 53
    12c4:	8c 7f       	andi	r24, 0xFC	; 252
    12c6:	85 bf       	out	0x35, r24	; 53
    12c8:	85 b7       	in	r24, 0x35	; 53
    12ca:	80 62       	ori	r24, 0x20	; 32
    12cc:	85 bf       	out	0x35, r24	; 53
    12ce:	f8 94       	cli
    12d0:	85 b7       	in	r24, 0x35	; 53
    12d2:	80 68       	ori	r24, 0x80	; 128
    12d4:	85 bf       	out	0x35, r24	; 53
    12d6:	78 94       	sei
    12d8:	88 95       	sleep
    12da:	85 b7       	in	r24, 0x35	; 53
    12dc:	8f 77       	andi	r24, 0x7F	; 127
    12de:	85 bf       	out	0x35, r24	; 53
    12e0:	08 95       	ret

000012e2 <HWI_InitOscilatorCalib>:
    12e2:	cf 93       	push	r28
    12e4:	df 93       	push	r29
    12e6:	0f 92       	push	r0
    12e8:	cd b7       	in	r28, 0x3d	; 61
    12ea:	de b7       	in	r29, 0x3e	; 62
    12ec:	80 e0       	ldi	r24, 0x00	; 0
    12ee:	be 01       	movw	r22, r28
    12f0:	6f 5f       	subi	r22, 0xFF	; 255
    12f2:	7f 4f       	sbci	r23, 0xFF	; 255
    12f4:	87 de       	rcall	.-754    	; 0x1004 <HWIeeprom_Read>
    12f6:	88 23       	and	r24, r24
    12f8:	c9 f3       	breq	.-14     	; 0x12ec <HWI_InitOscilatorCalib+0xa>
    12fa:	89 81       	ldd	r24, Y+1	; 0x01
    12fc:	81 bf       	out	0x31, r24	; 49
    12fe:	0f 90       	pop	r0
    1300:	df 91       	pop	r29
    1302:	cf 91       	pop	r28
    1304:	08 95       	ret

00001306 <main>:
    1306:	14 de       	rcall	.-984    	; 0xf30 <Start_App>
    1308:	80 e0       	ldi	r24, 0x00	; 0
    130a:	90 e0       	ldi	r25, 0x00	; 0
    130c:	08 95       	ret

0000130e <__mulsi3>:
    130e:	62 9f       	mul	r22, r18
    1310:	d0 01       	movw	r26, r0
    1312:	73 9f       	mul	r23, r19
    1314:	f0 01       	movw	r30, r0
    1316:	82 9f       	mul	r24, r18
    1318:	e0 0d       	add	r30, r0
    131a:	f1 1d       	adc	r31, r1
    131c:	64 9f       	mul	r22, r20
    131e:	e0 0d       	add	r30, r0
    1320:	f1 1d       	adc	r31, r1
    1322:	92 9f       	mul	r25, r18
    1324:	f0 0d       	add	r31, r0
    1326:	83 9f       	mul	r24, r19
    1328:	f0 0d       	add	r31, r0
    132a:	74 9f       	mul	r23, r20
    132c:	f0 0d       	add	r31, r0
    132e:	65 9f       	mul	r22, r21
    1330:	f0 0d       	add	r31, r0
    1332:	99 27       	eor	r25, r25
    1334:	72 9f       	mul	r23, r18
    1336:	b0 0d       	add	r27, r0
    1338:	e1 1d       	adc	r30, r1
    133a:	f9 1f       	adc	r31, r25
    133c:	63 9f       	mul	r22, r19
    133e:	b0 0d       	add	r27, r0
    1340:	e1 1d       	adc	r30, r1
    1342:	f9 1f       	adc	r31, r25
    1344:	bd 01       	movw	r22, r26
    1346:	cf 01       	movw	r24, r30
    1348:	11 24       	eor	r1, r1
    134a:	08 95       	ret

0000134c <__udivmodhi4>:
    134c:	aa 1b       	sub	r26, r26
    134e:	bb 1b       	sub	r27, r27
    1350:	51 e1       	ldi	r21, 0x11	; 17
    1352:	07 c0       	rjmp	.+14     	; 0x1362 <__udivmodhi4_ep>

00001354 <__udivmodhi4_loop>:
    1354:	aa 1f       	adc	r26, r26
    1356:	bb 1f       	adc	r27, r27
    1358:	a6 17       	cp	r26, r22
    135a:	b7 07       	cpc	r27, r23
    135c:	10 f0       	brcs	.+4      	; 0x1362 <__udivmodhi4_ep>
    135e:	a6 1b       	sub	r26, r22
    1360:	b7 0b       	sbc	r27, r23

00001362 <__udivmodhi4_ep>:
    1362:	88 1f       	adc	r24, r24
    1364:	99 1f       	adc	r25, r25
    1366:	5a 95       	dec	r21
    1368:	a9 f7       	brne	.-22     	; 0x1354 <__udivmodhi4_loop>
    136a:	80 95       	com	r24
    136c:	90 95       	com	r25
    136e:	bc 01       	movw	r22, r24
    1370:	cd 01       	movw	r24, r26
    1372:	08 95       	ret

00001374 <__udivmodsi4>:
    1374:	a1 e2       	ldi	r26, 0x21	; 33
    1376:	1a 2e       	mov	r1, r26
    1378:	aa 1b       	sub	r26, r26
    137a:	bb 1b       	sub	r27, r27
    137c:	fd 01       	movw	r30, r26
    137e:	0d c0       	rjmp	.+26     	; 0x139a <__udivmodsi4_ep>

00001380 <__udivmodsi4_loop>:
    1380:	aa 1f       	adc	r26, r26
    1382:	bb 1f       	adc	r27, r27
    1384:	ee 1f       	adc	r30, r30
    1386:	ff 1f       	adc	r31, r31
    1388:	a2 17       	cp	r26, r18
    138a:	b3 07       	cpc	r27, r19
    138c:	e4 07       	cpc	r30, r20
    138e:	f5 07       	cpc	r31, r21
    1390:	20 f0       	brcs	.+8      	; 0x139a <__udivmodsi4_ep>
    1392:	a2 1b       	sub	r26, r18
    1394:	b3 0b       	sbc	r27, r19
    1396:	e4 0b       	sbc	r30, r20
    1398:	f5 0b       	sbc	r31, r21

0000139a <__udivmodsi4_ep>:
    139a:	66 1f       	adc	r22, r22
    139c:	77 1f       	adc	r23, r23
    139e:	88 1f       	adc	r24, r24
    13a0:	99 1f       	adc	r25, r25
    13a2:	1a 94       	dec	r1
    13a4:	69 f7       	brne	.-38     	; 0x1380 <__udivmodsi4_loop>
    13a6:	60 95       	com	r22
    13a8:	70 95       	com	r23
    13aa:	80 95       	com	r24
    13ac:	90 95       	com	r25
    13ae:	9b 01       	movw	r18, r22
    13b0:	ac 01       	movw	r20, r24
    13b2:	bd 01       	movw	r22, r26
    13b4:	cf 01       	movw	r24, r30
    13b6:	08 95       	ret

000013b8 <_exit>:
    13b8:	f8 94       	cli

000013ba <__stop_program>:
    13ba:	ff cf       	rjmp	.-2      	; 0x13ba <__stop_program>
