
BicMeter.elf:     file format elf32-avr

Sections:
Idx Name          Size      VMA       LMA       File off  Algn
  0 .text         000009d2  00000000  00000000  00000094  2**1
                  CONTENTS, ALLOC, LOAD, READONLY, CODE
  1 .data         0000001e  00800060  000009d2  00000a66  2**0
                  CONTENTS, ALLOC, LOAD, DATA
  2 .bss          00000045  0080007e  0080007e  00000a84  2**0
                  ALLOC
  3 .stab         000006cc  00000000  00000000  00000a84  2**2
                  CONTENTS, READONLY, DEBUGGING
  4 .stabstr      00000085  00000000  00000000  00001150  2**0
                  CONTENTS, READONLY, DEBUGGING
  5 .debug_aranges 000000c0  00000000  00000000  000011d8  2**3
                  CONTENTS, READONLY, DEBUGGING
  6 .debug_info   0000052e  00000000  00000000  00001298  2**0
                  CONTENTS, READONLY, DEBUGGING
  7 .debug_abbrev 00000078  00000000  00000000  000017c6  2**0
                  CONTENTS, READONLY, DEBUGGING
  8 .debug_line   0000038e  00000000  00000000  0000183e  2**0
                  CONTENTS, READONLY, DEBUGGING

Disassembly of section .text:

00000000 <__vectors>:
   0:	12 c0       	rjmp	.+36     	; 0x26 <__ctors_end>
   2:	46 c4       	rjmp	.+2188   	; 0x890 <__vector_1>
   4:	68 c4       	rjmp	.+2256   	; 0x8d6 <__vector_2>
   6:	2a c0       	rjmp	.+84     	; 0x5c <__bad_interrupt>
   8:	29 c0       	rjmp	.+82     	; 0x5c <__bad_interrupt>
   a:	28 c0       	rjmp	.+80     	; 0x5c <__bad_interrupt>
   c:	27 c0       	rjmp	.+78     	; 0x5c <__bad_interrupt>
   e:	26 c0       	rjmp	.+76     	; 0x5c <__bad_interrupt>
  10:	18 c4       	rjmp	.+2096   	; 0x842 <__vector_8>
  12:	f2 c3       	rjmp	.+2020   	; 0x7f8 <__vector_9>
  14:	23 c0       	rjmp	.+70     	; 0x5c <__bad_interrupt>
  16:	22 c0       	rjmp	.+68     	; 0x5c <__bad_interrupt>
  18:	21 c0       	rjmp	.+66     	; 0x5c <__bad_interrupt>
  1a:	20 c0       	rjmp	.+64     	; 0x5c <__bad_interrupt>
  1c:	1f c0       	rjmp	.+62     	; 0x5c <__bad_interrupt>
  1e:	1e c0       	rjmp	.+60     	; 0x5c <__bad_interrupt>
  20:	1d c0       	rjmp	.+58     	; 0x5c <__bad_interrupt>
  22:	1c c0       	rjmp	.+56     	; 0x5c <__bad_interrupt>
  24:	1b c0       	rjmp	.+54     	; 0x5c <__bad_interrupt>

00000026 <__ctors_end>:
  26:	11 24       	eor	r1, r1
  28:	1f be       	out	0x3f, r1	; 63
  2a:	cf e5       	ldi	r28, 0x5F	; 95
  2c:	d4 e0       	ldi	r29, 0x04	; 4
  2e:	de bf       	out	0x3e, r29	; 62
  30:	cd bf       	out	0x3d, r28	; 61

00000032 <__do_copy_data>:
  32:	10 e0       	ldi	r17, 0x00	; 0
  34:	a0 e6       	ldi	r26, 0x60	; 96
  36:	b0 e0       	ldi	r27, 0x00	; 0
  38:	e2 ed       	ldi	r30, 0xD2	; 210
  3a:	f9 e0       	ldi	r31, 0x09	; 9
  3c:	02 c0       	rjmp	.+4      	; 0x42 <__SREG__+0x3>
  3e:	05 90       	lpm	r0, Z+
  40:	0d 92       	st	X+, r0
  42:	ae 37       	cpi	r26, 0x7E	; 126
  44:	b1 07       	cpc	r27, r17
  46:	d9 f7       	brne	.-10     	; 0x3e <__SP_H__>

00000048 <__do_clear_bss>:
  48:	10 e0       	ldi	r17, 0x00	; 0
  4a:	ae e7       	ldi	r26, 0x7E	; 126
  4c:	b0 e0       	ldi	r27, 0x00	; 0
  4e:	01 c0       	rjmp	.+2      	; 0x52 <.do_clear_bss_start>

00000050 <.do_clear_bss_loop>:
  50:	1d 92       	st	X+, r1

00000052 <.do_clear_bss_start>:
  52:	a3 3c       	cpi	r26, 0xC3	; 195
  54:	b1 07       	cpc	r27, r17
  56:	e1 f7       	brne	.-8      	; 0x50 <.do_clear_bss_loop>
  58:	61 d4       	rcall	.+2242   	; 0x91c <main>
  5a:	b9 c4       	rjmp	.+2418   	; 0x9ce <_exit>

0000005c <__bad_interrupt>:
  5c:	d1 cf       	rjmp	.-94     	; 0x0 <__vectors>

0000005e <APP_INITIALIZE>:
  5e:	08 95       	ret

00000060 <APP_MANAGE>:
  60:	cf 93       	push	r28
  62:	df 93       	push	r29
  64:	00 d0       	rcall	.+0      	; 0x66 <APP_MANAGE+0x6>
  66:	00 d0       	rcall	.+0      	; 0x68 <APP_MANAGE+0x8>
  68:	00 d0       	rcall	.+0      	; 0x6a <APP_MANAGE+0xa>
  6a:	cd b7       	in	r28, 0x3d	; 61
  6c:	de b7       	in	r29, 0x3e	; 62
  6e:	88 e0       	ldi	r24, 0x08	; 8
  70:	98 e0       	ldi	r25, 0x08	; 8
  72:	95 d2       	rcall	.+1322   	; 0x59e <SetCircumfirunce>
  74:	81 e0       	ldi	r24, 0x01	; 1
  76:	98 d2       	rcall	.+1328   	; 0x5a8 <GetAvgSpeed>
  78:	9a 83       	std	Y+2, r25	; 0x02
  7a:	89 83       	std	Y+1, r24	; 0x01
  7c:	87 d2       	rcall	.+1294   	; 0x58c <GetDistance>
  7e:	2a e0       	ldi	r18, 0x0A	; 10
  80:	30 e0       	ldi	r19, 0x00	; 0
  82:	40 e0       	ldi	r20, 0x00	; 0
  84:	50 e0       	ldi	r21, 0x00	; 0
  86:	4e d4       	rcall	.+2204   	; 0x924 <__mulsi3>
  88:	dc 01       	movw	r26, r24
  8a:	cb 01       	movw	r24, r22
  8c:	e4 e0       	ldi	r30, 0x04	; 4
  8e:	b6 95       	lsr	r27
  90:	a7 95       	ror	r26
  92:	97 95       	ror	r25
  94:	87 95       	ror	r24
  96:	ea 95       	dec	r30
  98:	d1 f7       	brne	.-12     	; 0x8e <APP_MANAGE+0x2e>
  9a:	8b 83       	std	Y+3, r24	; 0x03
  9c:	9c 83       	std	Y+4, r25	; 0x04
  9e:	ad 83       	std	Y+5, r26	; 0x05
  a0:	be 83       	std	Y+6, r27	; 0x06
  a2:	81 e0       	ldi	r24, 0x01	; 1
  a4:	be 01       	movw	r22, r28
  a6:	6d 5f       	subi	r22, 0xFD	; 253
  a8:	7f 4f       	sbci	r23, 0xFF	; 255
  aa:	44 e0       	ldi	r20, 0x04	; 4
  ac:	dc d0       	rcall	.+440    	; 0x266 <Eeprom_Write_Block>
  ae:	81 e0       	ldi	r24, 0x01	; 1
  b0:	be 01       	movw	r22, r28
  b2:	6f 5f       	subi	r22, 0xFF	; 255
  b4:	7f 4f       	sbci	r23, 0xFF	; 255
  b6:	44 e0       	ldi	r20, 0x04	; 4
  b8:	ef d0       	rcall	.+478    	; 0x298 <Eeprom_Read_Block>
  ba:	89 81       	ldd	r24, Y+1	; 0x01
  bc:	9a 81       	ldd	r25, Y+2	; 0x02
  be:	61 e0       	ldi	r22, 0x01	; 1
  c0:	41 d0       	rcall	.+130    	; 0x144 <BCDsendNumber>
  c2:	80 91 7e 00 	lds	r24, 0x007E
  c6:	90 91 7f 00 	lds	r25, 0x007F
  ca:	00 97       	sbiw	r24, 0x00	; 0
  cc:	59 f4       	brne	.+22     	; 0xe4 <APP_MANAGE+0x84>
  ce:	80 e0       	ldi	r24, 0x00	; 0
  d0:	2d d1       	rcall	.+602    	; 0x32c <GetKeyStatus>
  d2:	82 38       	cpi	r24, 0x82	; 130
  d4:	59 f5       	brne	.+86     	; 0x12c <APP_MANAGE+0xcc>
  d6:	81 e0       	ldi	r24, 0x01	; 1
  d8:	90 e0       	ldi	r25, 0x00	; 0
  da:	90 93 7f 00 	sts	0x007F, r25
  de:	80 93 7e 00 	sts	0x007E, r24
  e2:	24 c0       	rjmp	.+72     	; 0x12c <APP_MANAGE+0xcc>
  e4:	80 91 80 00 	lds	r24, 0x0080
  e8:	64 e6       	ldi	r22, 0x64	; 100
  ea:	b8 d0       	rcall	.+368    	; 0x25c <BlinkDigit>
  ec:	80 e0       	ldi	r24, 0x00	; 0
  ee:	1e d1       	rcall	.+572    	; 0x32c <GetKeyStatus>
  f0:	81 38       	cpi	r24, 0x81	; 129
  f2:	89 f4       	brne	.+34     	; 0x116 <APP_MANAGE+0xb6>
  f4:	80 91 80 00 	lds	r24, 0x0080
  f8:	90 91 81 00 	lds	r25, 0x0081
  fc:	01 96       	adiw	r24, 0x01	; 1
  fe:	90 93 81 00 	sts	0x0081, r25
 102:	80 93 80 00 	sts	0x0080, r24
 106:	84 30       	cpi	r24, 0x04	; 4
 108:	91 05       	cpc	r25, r1
 10a:	81 f4       	brne	.+32     	; 0x12c <APP_MANAGE+0xcc>
 10c:	10 92 81 00 	sts	0x0081, r1
 110:	10 92 80 00 	sts	0x0080, r1
 114:	0b c0       	rjmp	.+22     	; 0x12c <APP_MANAGE+0xcc>
 116:	81 e0       	ldi	r24, 0x01	; 1
 118:	09 d1       	rcall	.+530    	; 0x32c <GetKeyStatus>
 11a:	82 38       	cpi	r24, 0x82	; 130
 11c:	39 f4       	brne	.+14     	; 0x12c <APP_MANAGE+0xcc>
 11e:	81 e0       	ldi	r24, 0x01	; 1
 120:	60 e0       	ldi	r22, 0x00	; 0
 122:	9c d0       	rcall	.+312    	; 0x25c <BlinkDigit>
 124:	10 92 7f 00 	sts	0x007F, r1
 128:	10 92 7e 00 	sts	0x007E, r1
 12c:	26 96       	adiw	r28, 0x06	; 6
 12e:	0f b6       	in	r0, 0x3f	; 63
 130:	f8 94       	cli
 132:	de bf       	out	0x3e, r29	; 62
 134:	0f be       	out	0x3f, r0	; 63
 136:	cd bf       	out	0x3d, r28	; 61
 138:	df 91       	pop	r29
 13a:	cf 91       	pop	r28
 13c:	08 95       	ret

0000013e <BCDInitialize>:
 13e:	80 93 82 00 	sts	0x0082, r24
 142:	08 95       	ret

00000144 <BCDsendNumber>:
 144:	0f 93       	push	r16
 146:	1f 93       	push	r17
 148:	cf 93       	push	r28
 14a:	df 93       	push	r29
 14c:	26 2f       	mov	r18, r22
 14e:	c3 e8       	ldi	r28, 0x83	; 131
 150:	d0 e0       	ldi	r29, 0x00	; 0
 152:	fc 01       	movw	r30, r24
 154:	30 e0       	ldi	r19, 0x00	; 0
 156:	0a e0       	ldi	r16, 0x0A	; 10
 158:	10 e0       	ldi	r17, 0x00	; 0
 15a:	30 97       	sbiw	r30, 0x00	; 0
 15c:	11 f4       	brne	.+4      	; 0x162 <BCDsendNumber+0x1e>
 15e:	23 17       	cp	r18, r19
 160:	b8 f0       	brcs	.+46     	; 0x190 <BCDsendNumber+0x4c>
 162:	cf 01       	movw	r24, r30
 164:	b8 01       	movw	r22, r16
 166:	fd d3       	rcall	.+2042   	; 0x962 <__udivmodhi4>
 168:	cb 01       	movw	r24, r22
 16a:	ab 01       	movw	r20, r22
 16c:	44 0f       	add	r20, r20
 16e:	55 1f       	adc	r21, r21
 170:	b3 e0       	ldi	r27, 0x03	; 3
 172:	88 0f       	add	r24, r24
 174:	99 1f       	adc	r25, r25
 176:	ba 95       	dec	r27
 178:	e1 f7       	brne	.-8      	; 0x172 <BCDsendNumber+0x2e>
 17a:	48 0f       	add	r20, r24
 17c:	59 1f       	adc	r21, r25
 17e:	e4 1b       	sub	r30, r20
 180:	f5 0b       	sbc	r31, r21
 182:	e0 5a       	subi	r30, 0xA0	; 160
 184:	ff 4f       	sbci	r31, 0xFF	; 255
 186:	80 81       	ld	r24, Z
 188:	88 83       	st	Y, r24
 18a:	19 82       	std	Y+1, r1	; 0x01
 18c:	fb 01       	movw	r30, r22
 18e:	02 c0       	rjmp	.+4      	; 0x194 <BCDsendNumber+0x50>
 190:	19 82       	std	Y+1, r1	; 0x01
 192:	18 82       	st	Y, r1
 194:	3f 5f       	subi	r19, 0xFF	; 255
 196:	22 96       	adiw	r28, 0x02	; 2
 198:	34 30       	cpi	r19, 0x04	; 4
 19a:	f9 f6       	brne	.-66     	; 0x15a <BCDsendNumber+0x16>
 19c:	22 23       	and	r18, r18
 19e:	59 f0       	breq	.+22     	; 0x1b6 <BCDsendNumber+0x72>
 1a0:	e2 2f       	mov	r30, r18
 1a2:	f0 e0       	ldi	r31, 0x00	; 0
 1a4:	ee 0f       	add	r30, r30
 1a6:	ff 1f       	adc	r31, r31
 1a8:	ed 57       	subi	r30, 0x7D	; 125
 1aa:	ff 4f       	sbci	r31, 0xFF	; 255
 1ac:	80 81       	ld	r24, Z
 1ae:	91 81       	ldd	r25, Z+1	; 0x01
 1b0:	81 60       	ori	r24, 0x01	; 1
 1b2:	91 83       	std	Z+1, r25	; 0x01
 1b4:	80 83       	st	Z, r24
 1b6:	df 91       	pop	r29
 1b8:	cf 91       	pop	r28
 1ba:	1f 91       	pop	r17
 1bc:	0f 91       	pop	r16
 1be:	08 95       	ret

000001c0 <BCDManage7segment>:
 1c0:	cf 93       	push	r28
 1c2:	90 91 8b 00 	lds	r25, 0x008B
 1c6:	99 23       	and	r25, r25
 1c8:	81 f0       	breq	.+32     	; 0x1ea <BCDManage7segment+0x2a>
 1ca:	80 91 8c 00 	lds	r24, 0x008C
 1ce:	8f 5f       	subi	r24, 0xFF	; 255
 1d0:	80 93 8c 00 	sts	0x008C, r24
 1d4:	89 17       	cp	r24, r25
 1d6:	59 f4       	brne	.+22     	; 0x1ee <BCDManage7segment+0x2e>
 1d8:	80 91 8d 00 	lds	r24, 0x008D
 1dc:	91 e0       	ldi	r25, 0x01	; 1
 1de:	89 27       	eor	r24, r25
 1e0:	80 93 8d 00 	sts	0x008D, r24
 1e4:	10 92 8c 00 	sts	0x008C, r1
 1e8:	02 c0       	rjmp	.+4      	; 0x1ee <BCDManage7segment+0x2e>
 1ea:	10 92 8d 00 	sts	0x008D, r1
 1ee:	80 91 8d 00 	lds	r24, 0x008D
 1f2:	81 30       	cpi	r24, 0x01	; 1
 1f4:	31 f4       	brne	.+12     	; 0x202 <BCDManage7segment+0x42>
 1f6:	90 91 8e 00 	lds	r25, 0x008E
 1fa:	80 91 8f 00 	lds	r24, 0x008F
 1fe:	98 17       	cp	r25, r24
 200:	a9 f0       	breq	.+42     	; 0x22c <BCDManage7segment+0x6c>
 202:	e0 91 8e 00 	lds	r30, 0x008E
 206:	f0 e0       	ldi	r31, 0x00	; 0
 208:	83 e0       	ldi	r24, 0x03	; 3
 20a:	90 e0       	ldi	r25, 0x00	; 0
 20c:	8e 1b       	sub	r24, r30
 20e:	9f 0b       	sbc	r25, r31
 210:	61 e0       	ldi	r22, 0x01	; 1
 212:	70 e0       	ldi	r23, 0x00	; 0
 214:	02 c0       	rjmp	.+4      	; 0x21a <BCDManage7segment+0x5a>
 216:	66 0f       	add	r22, r22
 218:	77 1f       	adc	r23, r23
 21a:	8a 95       	dec	r24
 21c:	e2 f7       	brpl	.-8      	; 0x216 <BCDManage7segment+0x56>
 21e:	60 95       	com	r22
 220:	ee 0f       	add	r30, r30
 222:	ff 1f       	adc	r31, r31
 224:	ed 57       	subi	r30, 0x7D	; 125
 226:	ff 4f       	sbci	r31, 0xFF	; 255
 228:	c0 81       	ld	r28, Z
 22a:	02 c0       	rjmp	.+4      	; 0x230 <BCDManage7segment+0x70>
 22c:	c0 e0       	ldi	r28, 0x00	; 0
 22e:	6f e0       	ldi	r22, 0x0F	; 15
 230:	80 91 82 00 	lds	r24, 0x0082
 234:	81 30       	cpi	r24, 0x01	; 1
 236:	11 f4       	brne	.+4      	; 0x23c <BCDManage7segment+0x7c>
 238:	60 95       	com	r22
 23a:	c0 95       	com	r28
 23c:	80 e0       	ldi	r24, 0x00	; 0
 23e:	84 d2       	rcall	.+1288   	; 0x748 <HWI_4Digit_WRITE>
 240:	81 e0       	ldi	r24, 0x01	; 1
 242:	6c 2f       	mov	r22, r28
 244:	9a d2       	rcall	.+1332   	; 0x77a <HWI_8Digit_WRITE>
 246:	80 91 8e 00 	lds	r24, 0x008E
 24a:	8f 5f       	subi	r24, 0xFF	; 255
 24c:	80 93 8e 00 	sts	0x008E, r24
 250:	84 30       	cpi	r24, 0x04	; 4
 252:	11 f4       	brne	.+4      	; 0x258 <BCDManage7segment+0x98>
 254:	10 92 8e 00 	sts	0x008E, r1
 258:	cf 91       	pop	r28
 25a:	08 95       	ret

0000025c <BlinkDigit>:
 25c:	80 93 8f 00 	sts	0x008F, r24
 260:	60 93 8b 00 	sts	0x008B, r22
 264:	08 95       	ret

00000266 <Eeprom_Write_Block>:
 266:	90 91 90 00 	lds	r25, 0x0090
 26a:	99 23       	and	r25, r25
 26c:	99 f4       	brne	.+38     	; 0x294 <Eeprom_Write_Block+0x2e>
 26e:	91 e0       	ldi	r25, 0x01	; 1
 270:	90 93 90 00 	sts	0x0090, r25
 274:	a1 e9       	ldi	r26, 0x91	; 145
 276:	b0 e0       	ldi	r27, 0x00	; 0
 278:	fb 01       	movw	r30, r22
 27a:	02 c0       	rjmp	.+4      	; 0x280 <Eeprom_Write_Block+0x1a>
 27c:	91 91       	ld	r25, Z+
 27e:	9d 93       	st	X+, r25
 280:	9e 2f       	mov	r25, r30
 282:	96 1b       	sub	r25, r22
 284:	94 17       	cp	r25, r20
 286:	d0 f3       	brcs	.-12     	; 0x27c <Eeprom_Write_Block+0x16>
 288:	40 93 9b 00 	sts	0x009B, r20
 28c:	80 93 9c 00 	sts	0x009C, r24
 290:	81 e0       	ldi	r24, 0x01	; 1
 292:	08 95       	ret
 294:	80 e0       	ldi	r24, 0x00	; 0
 296:	08 95       	ret

00000298 <Eeprom_Read_Block>:
 298:	ef 92       	push	r14
 29a:	ff 92       	push	r15
 29c:	0f 93       	push	r16
 29e:	1f 93       	push	r17
 2a0:	cf 93       	push	r28
 2a2:	df 93       	push	r29
 2a4:	0f 92       	push	r0
 2a6:	cd b7       	in	r28, 0x3d	; 61
 2a8:	de b7       	in	r29, 0x3e	; 62
 2aa:	18 2f       	mov	r17, r24
 2ac:	7b 01       	movw	r14, r22
 2ae:	00 e0       	ldi	r16, 0x00	; 0
 2b0:	0b c0       	rjmp	.+22     	; 0x2c8 <Eeprom_Read_Block+0x30>
 2b2:	b7 01       	movw	r22, r14
 2b4:	60 0f       	add	r22, r16
 2b6:	71 1d       	adc	r23, r1
 2b8:	80 2f       	mov	r24, r16
 2ba:	81 0f       	add	r24, r17
 2bc:	49 83       	std	Y+1, r20	; 0x01
 2be:	23 d2       	rcall	.+1094   	; 0x706 <HWIeeprom_Read>
 2c0:	49 81       	ldd	r20, Y+1	; 0x01
 2c2:	81 30       	cpi	r24, 0x01	; 1
 2c4:	09 f4       	brne	.+2      	; 0x2c8 <Eeprom_Read_Block+0x30>
 2c6:	0f 5f       	subi	r16, 0xFF	; 255
 2c8:	04 17       	cp	r16, r20
 2ca:	98 f3       	brcs	.-26     	; 0x2b2 <Eeprom_Read_Block+0x1a>
 2cc:	0f 90       	pop	r0
 2ce:	df 91       	pop	r29
 2d0:	cf 91       	pop	r28
 2d2:	1f 91       	pop	r17
 2d4:	0f 91       	pop	r16
 2d6:	ff 90       	pop	r15
 2d8:	ef 90       	pop	r14
 2da:	08 95       	ret

000002dc <EepromManage>:
 2dc:	80 91 90 00 	lds	r24, 0x0090
 2e0:	81 30       	cpi	r24, 0x01	; 1
 2e2:	d9 f4       	brne	.+54     	; 0x31a <EepromManage+0x3e>
 2e4:	80 91 9d 00 	lds	r24, 0x009D
 2e8:	90 91 9b 00 	lds	r25, 0x009B
 2ec:	89 17       	cp	r24, r25
 2ee:	29 f4       	brne	.+10     	; 0x2fa <EepromManage+0x1e>
 2f0:	10 92 9d 00 	sts	0x009D, r1
 2f4:	10 92 90 00 	sts	0x0090, r1
 2f8:	08 95       	ret
 2fa:	90 91 9c 00 	lds	r25, 0x009C
 2fe:	e8 2f       	mov	r30, r24
 300:	f0 e0       	ldi	r31, 0x00	; 0
 302:	ef 56       	subi	r30, 0x6F	; 111
 304:	ff 4f       	sbci	r31, 0xFF	; 255
 306:	89 0f       	add	r24, r25
 308:	60 81       	ld	r22, Z
 30a:	f1 d1       	rcall	.+994    	; 0x6ee <HWIeeprom_Write>
 30c:	81 30       	cpi	r24, 0x01	; 1
 30e:	29 f4       	brne	.+10     	; 0x31a <EepromManage+0x3e>
 310:	80 91 9d 00 	lds	r24, 0x009D
 314:	8f 5f       	subi	r24, 0xFF	; 255
 316:	80 93 9d 00 	sts	0x009D, r24
 31a:	08 95       	ret

0000031c <KeyInitialize>:
 31c:	86 e0       	ldi	r24, 0x06	; 6
 31e:	ee e9       	ldi	r30, 0x9E	; 158
 320:	f0 e0       	ldi	r31, 0x00	; 0
 322:	df 01       	movw	r26, r30
 324:	1d 92       	st	X+, r1
 326:	8a 95       	dec	r24
 328:	e9 f7       	brne	.-6      	; 0x324 <KeyInitialize+0x8>
 32a:	08 95       	ret

0000032c <GetKeyStatus>:
 32c:	90 e0       	ldi	r25, 0x00	; 0
 32e:	fc 01       	movw	r30, r24
 330:	ee 0f       	add	r30, r30
 332:	ff 1f       	adc	r31, r31
 334:	e8 0f       	add	r30, r24
 336:	f9 1f       	adc	r31, r25
 338:	e2 56       	subi	r30, 0x62	; 98
 33a:	ff 4f       	sbci	r31, 0xFF	; 255
 33c:	80 81       	ld	r24, Z
 33e:	98 2f       	mov	r25, r24
 340:	9f 77       	andi	r25, 0x7F	; 127
 342:	90 83       	st	Z, r25
 344:	08 95       	ret

00000346 <MangeKeys>:
 346:	ef 92       	push	r14
 348:	ff 92       	push	r15
 34a:	0f 93       	push	r16
 34c:	1f 93       	push	r17
 34e:	cf 93       	push	r28
 350:	df 93       	push	r29
 352:	0f 92       	push	r0
 354:	cd b7       	in	r28, 0x3d	; 61
 356:	de b7       	in	r29, 0x3e	; 62
 358:	90 e0       	ldi	r25, 0x00	; 0
 35a:	7c 01       	movw	r14, r24
 35c:	ee 0c       	add	r14, r14
 35e:	ff 1c       	adc	r15, r15
 360:	e8 0e       	add	r14, r24
 362:	f9 1e       	adc	r15, r25
 364:	2e e9       	ldi	r18, 0x9E	; 158
 366:	30 e0       	ldi	r19, 0x00	; 0
 368:	e2 0e       	add	r14, r18
 36a:	f3 1e       	adc	r15, r19
 36c:	f7 01       	movw	r30, r14
 36e:	20 81       	ld	r18, Z
 370:	2f 77       	andi	r18, 0x7F	; 127
 372:	8c 01       	movw	r16, r24
 374:	43 e0       	ldi	r20, 0x03	; 3
 376:	00 0f       	add	r16, r16
 378:	11 1f       	adc	r17, r17
 37a:	4a 95       	dec	r20
 37c:	e1 f7       	brne	.-8      	; 0x376 <MangeKeys+0x30>
 37e:	05 59       	subi	r16, 0x95	; 149
 380:	1f 4f       	sbci	r17, 0xFF	; 255
 382:	f8 01       	movw	r30, r16
 384:	80 81       	ld	r24, Z
 386:	29 83       	std	Y+1, r18	; 0x01
 388:	d1 d1       	rcall	.+930    	; 0x72c <HWI_DIGI_READ>
 38a:	29 81       	ldd	r18, Y+1	; 0x01
 38c:	21 30       	cpi	r18, 0x01	; 1
 38e:	f9 f0       	breq	.+62     	; 0x3ce <MangeKeys+0x88>
 390:	21 30       	cpi	r18, 0x01	; 1
 392:	20 f0       	brcs	.+8      	; 0x39c <MangeKeys+0x56>
 394:	22 30       	cpi	r18, 0x02	; 2
 396:	09 f0       	breq	.+2      	; 0x39a <MangeKeys+0x54>
 398:	5b c0       	rjmp	.+182    	; 0x450 <MangeKeys+0x10a>
 39a:	45 c0       	rjmp	.+138    	; 0x426 <MangeKeys+0xe0>
 39c:	f8 01       	movw	r30, r16
 39e:	91 81       	ldd	r25, Z+1	; 0x01
 3a0:	f7 01       	movw	r30, r14
 3a2:	98 17       	cp	r25, r24
 3a4:	89 f4       	brne	.+34     	; 0x3c8 <MangeKeys+0x82>
 3a6:	81 81       	ldd	r24, Z+1	; 0x01
 3a8:	92 81       	ldd	r25, Z+2	; 0x02
 3aa:	01 96       	adiw	r24, 0x01	; 1
 3ac:	92 83       	std	Z+2, r25	; 0x02
 3ae:	81 83       	std	Z+1, r24	; 0x01
 3b0:	f8 01       	movw	r30, r16
 3b2:	24 81       	ldd	r18, Z+4	; 0x04
 3b4:	35 81       	ldd	r19, Z+5	; 0x05
 3b6:	28 17       	cp	r18, r24
 3b8:	39 07       	cpc	r19, r25
 3ba:	09 f0       	breq	.+2      	; 0x3be <MangeKeys+0x78>
 3bc:	4b c0       	rjmp	.+150    	; 0x454 <MangeKeys+0x10e>
 3be:	81 e8       	ldi	r24, 0x81	; 129
 3c0:	f7 01       	movw	r30, r14
 3c2:	80 83       	st	Z, r24
 3c4:	f8 01       	movw	r30, r16
 3c6:	33 c0       	rjmp	.+102    	; 0x42e <MangeKeys+0xe8>
 3c8:	12 82       	std	Z+2, r1	; 0x02
 3ca:	11 82       	std	Z+1, r1	; 0x01
 3cc:	43 c0       	rjmp	.+134    	; 0x454 <MangeKeys+0x10e>
 3ce:	f8 01       	movw	r30, r16
 3d0:	91 81       	ldd	r25, Z+1	; 0x01
 3d2:	f7 01       	movw	r30, r14
 3d4:	21 81       	ldd	r18, Z+1	; 0x01
 3d6:	32 81       	ldd	r19, Z+2	; 0x02
 3d8:	f8 01       	movw	r30, r16
 3da:	42 81       	ldd	r20, Z+2	; 0x02
 3dc:	53 81       	ldd	r21, Z+3	; 0x03
 3de:	98 17       	cp	r25, r24
 3e0:	b1 f4       	brne	.+44     	; 0x40e <MangeKeys+0xc8>
 3e2:	24 17       	cp	r18, r20
 3e4:	35 07       	cpc	r19, r21
 3e6:	78 f0       	brcs	.+30     	; 0x406 <MangeKeys+0xc0>
 3e8:	2f 5f       	subi	r18, 0xFF	; 255
 3ea:	3f 4f       	sbci	r19, 0xFF	; 255
 3ec:	f7 01       	movw	r30, r14
 3ee:	32 83       	std	Z+2, r19	; 0x02
 3f0:	21 83       	std	Z+1, r18	; 0x01
 3f2:	f8 01       	movw	r30, r16
 3f4:	86 81       	ldd	r24, Z+6	; 0x06
 3f6:	97 81       	ldd	r25, Z+7	; 0x07
 3f8:	82 17       	cp	r24, r18
 3fa:	93 07       	cpc	r25, r19
 3fc:	59 f5       	brne	.+86     	; 0x454 <MangeKeys+0x10e>
 3fe:	82 e8       	ldi	r24, 0x82	; 130
 400:	f7 01       	movw	r30, r14
 402:	80 83       	st	Z, r24
 404:	01 c0       	rjmp	.+2      	; 0x408 <MangeKeys+0xc2>
 406:	f7 01       	movw	r30, r14
 408:	52 83       	std	Z+2, r21	; 0x02
 40a:	41 83       	std	Z+1, r20	; 0x01
 40c:	23 c0       	rjmp	.+70     	; 0x454 <MangeKeys+0x10e>
 40e:	42 17       	cp	r20, r18
 410:	53 07       	cpc	r21, r19
 412:	c8 f3       	brcs	.-14     	; 0x406 <MangeKeys+0xc0>
 414:	21 50       	subi	r18, 0x01	; 1
 416:	30 40       	sbci	r19, 0x00	; 0
 418:	f7 01       	movw	r30, r14
 41a:	32 83       	std	Z+2, r19	; 0x02
 41c:	21 83       	std	Z+1, r18	; 0x01
 41e:	21 15       	cp	r18, r1
 420:	31 05       	cpc	r19, r1
 422:	c1 f4       	brne	.+48     	; 0x454 <MangeKeys+0x10e>
 424:	12 c0       	rjmp	.+36     	; 0x44a <MangeKeys+0x104>
 426:	f8 01       	movw	r30, r16
 428:	91 81       	ldd	r25, Z+1	; 0x01
 42a:	98 17       	cp	r25, r24
 42c:	31 f4       	brne	.+12     	; 0x43a <MangeKeys+0xf4>
 42e:	82 81       	ldd	r24, Z+2	; 0x02
 430:	93 81       	ldd	r25, Z+3	; 0x03
 432:	f7 01       	movw	r30, r14
 434:	92 83       	std	Z+2, r25	; 0x02
 436:	81 83       	std	Z+1, r24	; 0x01
 438:	0d c0       	rjmp	.+26     	; 0x454 <MangeKeys+0x10e>
 43a:	f7 01       	movw	r30, r14
 43c:	81 81       	ldd	r24, Z+1	; 0x01
 43e:	92 81       	ldd	r25, Z+2	; 0x02
 440:	01 97       	sbiw	r24, 0x01	; 1
 442:	92 83       	std	Z+2, r25	; 0x02
 444:	81 83       	std	Z+1, r24	; 0x01
 446:	00 97       	sbiw	r24, 0x00	; 0
 448:	29 f4       	brne	.+10     	; 0x454 <MangeKeys+0x10e>
 44a:	80 e8       	ldi	r24, 0x80	; 128
 44c:	80 83       	st	Z, r24
 44e:	02 c0       	rjmp	.+4      	; 0x454 <MangeKeys+0x10e>
 450:	f7 01       	movw	r30, r14
 452:	10 82       	st	Z, r1
 454:	0f 90       	pop	r0
 456:	df 91       	pop	r29
 458:	cf 91       	pop	r28
 45a:	1f 91       	pop	r17
 45c:	0f 91       	pop	r16
 45e:	ff 90       	pop	r15
 460:	ef 90       	pop	r14
 462:	08 95       	ret

00000464 <SpeedCalcNotifyInitialize>:
 464:	08 95       	ret

00000466 <SensorOneNotify>:
 466:	80 91 a8 00 	lds	r24, 0x00A8
 46a:	81 30       	cpi	r24, 0x01	; 1
 46c:	19 f4       	brne	.+6      	; 0x474 <SensorOneNotify+0xe>
 46e:	10 92 a8 00 	sts	0x00A8, r1
 472:	08 95       	ret
 474:	80 91 a7 00 	lds	r24, 0x00A7
 478:	88 23       	and	r24, r24
 47a:	29 f0       	breq	.+10     	; 0x486 <SensorOneNotify+0x20>
 47c:	80 91 a7 00 	lds	r24, 0x00A7
 480:	81 50       	subi	r24, 0x01	; 1
 482:	80 93 a7 00 	sts	0x00A7, r24
 486:	08 95       	ret

00000488 <SensorTwoNotify>:
 488:	80 91 a8 00 	lds	r24, 0x00A8
 48c:	88 23       	and	r24, r24
 48e:	a9 f4       	brne	.+42     	; 0x4ba <SensorTwoNotify+0x32>
 490:	81 e0       	ldi	r24, 0x01	; 1
 492:	80 93 a8 00 	sts	0x00A8, r24
 496:	80 91 a7 00 	lds	r24, 0x00A7
 49a:	8f 5f       	subi	r24, 0xFF	; 255
 49c:	80 93 a7 00 	sts	0x00A7, r24
 4a0:	81 e0       	ldi	r24, 0x01	; 1
 4a2:	9a d1       	rcall	.+820    	; 0x7d8 <ReloadHWtimer>
 4a4:	90 93 a6 00 	sts	0x00A6, r25
 4a8:	80 93 a5 00 	sts	0x00A5, r24
 4ac:	80 91 a4 00 	lds	r24, 0x00A4
 4b0:	80 93 a9 00 	sts	0x00A9, r24
 4b4:	10 92 a4 00 	sts	0x00A4, r1
 4b8:	08 95       	ret
 4ba:	80 91 a7 00 	lds	r24, 0x00A7
 4be:	88 23       	and	r24, r24
 4c0:	29 f0       	breq	.+10     	; 0x4cc <SensorTwoNotify+0x44>
 4c2:	80 91 a7 00 	lds	r24, 0x00A7
 4c6:	81 50       	subi	r24, 0x01	; 1
 4c8:	80 93 a7 00 	sts	0x00A7, r24
 4cc:	08 95       	ret

000004ce <SpeedCalcManage>:
 4ce:	cf 93       	push	r28
 4d0:	df 93       	push	r29
 4d2:	40 91 a5 00 	lds	r20, 0x00A5
 4d6:	50 91 a6 00 	lds	r21, 0x00A6
 4da:	20 91 a9 00 	lds	r18, 0x00A9
 4de:	30 e0       	ldi	r19, 0x00	; 0
 4e0:	8f e8       	ldi	r24, 0x8F	; 143
 4e2:	92 e0       	ldi	r25, 0x02	; 2
 4e4:	28 9f       	mul	r18, r24
 4e6:	f0 01       	movw	r30, r0
 4e8:	29 9f       	mul	r18, r25
 4ea:	f0 0d       	add	r31, r0
 4ec:	38 9f       	mul	r19, r24
 4ee:	f0 0d       	add	r31, r0
 4f0:	11 24       	eor	r1, r1
 4f2:	ca 01       	movw	r24, r20
 4f4:	64 e6       	ldi	r22, 0x64	; 100
 4f6:	70 e0       	ldi	r23, 0x00	; 0
 4f8:	34 d2       	rcall	.+1128   	; 0x962 <__udivmodhi4>
 4fa:	e6 0f       	add	r30, r22
 4fc:	f7 1f       	adc	r31, r23
 4fe:	f0 93 ab 00 	sts	0x00AB, r31
 502:	e0 93 aa 00 	sts	0x00AA, r30
 506:	80 91 a7 00 	lds	r24, 0x00A7
 50a:	c0 91 ac 00 	lds	r28, 0x00AC
 50e:	d0 91 ad 00 	lds	r29, 0x00AD
 512:	c8 0f       	add	r28, r24
 514:	d1 1d       	adc	r29, r1
 516:	d0 93 ad 00 	sts	0x00AD, r29
 51a:	c0 93 ac 00 	sts	0x00AC, r28
 51e:	10 92 a7 00 	sts	0x00A7, r1
 522:	20 91 7b 00 	lds	r18, 0x007B
 526:	30 91 7c 00 	lds	r19, 0x007C
 52a:	40 e0       	ldi	r20, 0x00	; 0
 52c:	50 e0       	ldi	r21, 0x00	; 0
 52e:	60 ea       	ldi	r22, 0xA0	; 160
 530:	76 e8       	ldi	r23, 0x86	; 134
 532:	81 e0       	ldi	r24, 0x01	; 1
 534:	90 e0       	ldi	r25, 0x00	; 0
 536:	29 d2       	rcall	.+1106   	; 0x98a <__udivmodsi4>
 538:	c2 17       	cp	r28, r18
 53a:	d3 07       	cpc	r29, r19
 53c:	c8 f0       	brcs	.+50     	; 0x570 <SpeedCalcManage+0xa2>
 53e:	80 91 ae 00 	lds	r24, 0x00AE
 542:	90 91 af 00 	lds	r25, 0x00AF
 546:	a0 91 b0 00 	lds	r26, 0x00B0
 54a:	b0 91 b1 00 	lds	r27, 0x00B1
 54e:	01 96       	adiw	r24, 0x01	; 1
 550:	a1 1d       	adc	r26, r1
 552:	b1 1d       	adc	r27, r1
 554:	80 93 ae 00 	sts	0x00AE, r24
 558:	90 93 af 00 	sts	0x00AF, r25
 55c:	a0 93 b0 00 	sts	0x00B0, r26
 560:	b0 93 b1 00 	sts	0x00B1, r27
 564:	c2 1b       	sub	r28, r18
 566:	d3 0b       	sbc	r29, r19
 568:	d0 93 ad 00 	sts	0x00AD, r29
 56c:	c0 93 ac 00 	sts	0x00AC, r28
 570:	df 91       	pop	r29
 572:	cf 91       	pop	r28
 574:	08 95       	ret

00000576 <SetDistance>:
 576:	dc 01       	movw	r26, r24
 578:	cb 01       	movw	r24, r22
 57a:	80 93 ae 00 	sts	0x00AE, r24
 57e:	90 93 af 00 	sts	0x00AF, r25
 582:	a0 93 b0 00 	sts	0x00B0, r26
 586:	b0 93 b1 00 	sts	0x00B1, r27
 58a:	08 95       	ret

0000058c <GetDistance>:
 58c:	60 91 ae 00 	lds	r22, 0x00AE
 590:	70 91 af 00 	lds	r23, 0x00AF
 594:	80 91 b0 00 	lds	r24, 0x00B0
 598:	90 91 b1 00 	lds	r25, 0x00B1
 59c:	08 95       	ret

0000059e <SetCircumfirunce>:
 59e:	90 93 7c 00 	sts	0x007C, r25
 5a2:	80 93 7b 00 	sts	0x007B, r24
 5a6:	08 95       	ret

000005a8 <GetAvgSpeed>:
 5a8:	cf 93       	push	r28
 5aa:	df 93       	push	r29
 5ac:	81 30       	cpi	r24, 0x01	; 1
 5ae:	29 f4       	brne	.+10     	; 0x5ba <GetAvgSpeed+0x12>
 5b0:	68 e6       	ldi	r22, 0x68	; 104
 5b2:	71 e0       	ldi	r23, 0x01	; 1
 5b4:	80 e0       	ldi	r24, 0x00	; 0
 5b6:	90 e0       	ldi	r25, 0x00	; 0
 5b8:	04 c0       	rjmp	.+8      	; 0x5c2 <GetAvgSpeed+0x1a>
 5ba:	61 ee       	ldi	r22, 0xE1	; 225
 5bc:	70 e0       	ldi	r23, 0x00	; 0
 5be:	80 e0       	ldi	r24, 0x00	; 0
 5c0:	90 e0       	ldi	r25, 0x00	; 0
 5c2:	c0 91 aa 00 	lds	r28, 0x00AA
 5c6:	d0 91 ab 00 	lds	r29, 0x00AB
 5ca:	20 97       	sbiw	r28, 0x00	; 0
 5cc:	69 f0       	breq	.+26     	; 0x5e8 <GetAvgSpeed+0x40>
 5ce:	20 91 7b 00 	lds	r18, 0x007B
 5d2:	30 91 7c 00 	lds	r19, 0x007C
 5d6:	40 e0       	ldi	r20, 0x00	; 0
 5d8:	50 e0       	ldi	r21, 0x00	; 0
 5da:	a4 d1       	rcall	.+840    	; 0x924 <__mulsi3>
 5dc:	9e 01       	movw	r18, r28
 5de:	40 e0       	ldi	r20, 0x00	; 0
 5e0:	50 e0       	ldi	r21, 0x00	; 0
 5e2:	d3 d1       	rcall	.+934    	; 0x98a <__udivmodsi4>
 5e4:	c9 01       	movw	r24, r18
 5e6:	02 c0       	rjmp	.+4      	; 0x5ec <GetAvgSpeed+0x44>
 5e8:	80 e0       	ldi	r24, 0x00	; 0
 5ea:	90 e0       	ldi	r25, 0x00	; 0
 5ec:	20 91 a4 00 	lds	r18, 0x00A4
 5f0:	20 34       	cpi	r18, 0x40	; 64
 5f2:	11 f4       	brne	.+4      	; 0x5f8 <GetAvgSpeed+0x50>
 5f4:	80 e0       	ldi	r24, 0x00	; 0
 5f6:	90 e0       	ldi	r25, 0x00	; 0
 5f8:	df 91       	pop	r29
 5fa:	cf 91       	pop	r28
 5fc:	08 95       	ret

000005fe <HWtimerCallback>:
 5fe:	80 91 a4 00 	lds	r24, 0x00A4
 602:	80 34       	cpi	r24, 0x40	; 64
 604:	28 f4       	brcc	.+10     	; 0x610 <HWtimerCallback+0x12>
 606:	80 91 a4 00 	lds	r24, 0x00A4
 60a:	8f 5f       	subi	r24, 0xFF	; 255
 60c:	80 93 a4 00 	sts	0x00A4, r24
 610:	08 95       	ret

00000612 <APP_ISR1>:
 612:	29 df       	rcall	.-430    	; 0x466 <SensorOneNotify>
 614:	08 95       	ret

00000616 <APP_ISR2>:
 616:	38 df       	rcall	.-400    	; 0x488 <SensorTwoNotify>
 618:	08 95       	ret

0000061a <APP_ISR3>:
 61a:	f1 df       	rcall	.-30     	; 0x5fe <HWtimerCallback>
 61c:	08 95       	ret

0000061e <ManageDrivers>:
 61e:	80 e0       	ldi	r24, 0x00	; 0
 620:	92 de       	rcall	.-732    	; 0x346 <MangeKeys>
 622:	81 e0       	ldi	r24, 0x01	; 1
 624:	90 de       	rcall	.-736    	; 0x346 <MangeKeys>
 626:	5a de       	rcall	.-844    	; 0x2dc <EepromManage>
 628:	08 95       	ret

0000062a <ManageSpeedCalc>:
 62a:	51 df       	rcall	.-350    	; 0x4ce <SpeedCalcManage>
 62c:	08 95       	ret

0000062e <ManageApplication>:
 62e:	18 dd       	rcall	.-1488   	; 0x60 <APP_MANAGE>
 630:	08 95       	ret

00000632 <DisplayAlphaNumeric>:
 632:	c6 dd       	rcall	.-1140   	; 0x1c0 <BCDManage7segment>
 634:	08 95       	ret

00000636 <Start_App>:
 636:	ad d0       	rcall	.+346    	; 0x792 <HWI_INTERRUPTS_INTITALIZE>
 638:	73 d0       	rcall	.+230    	; 0x720 <HWI_DIGITAL_INITIALIZE>
 63a:	14 df       	rcall	.-472    	; 0x464 <SpeedCalcNotifyInitialize>
 63c:	10 dd       	rcall	.-1504   	; 0x5e <APP_INITIALIZE>
 63e:	81 e0       	ldi	r24, 0x01	; 1
 640:	7e dd       	rcall	.-1284   	; 0x13e <BCDInitialize>
 642:	85 e1       	ldi	r24, 0x15	; 21
 644:	93 e0       	ldi	r25, 0x03	; 3
 646:	60 e0       	ldi	r22, 0x00	; 0
 648:	44 e1       	ldi	r20, 0x14	; 20
 64a:	11 d0       	rcall	.+34     	; 0x66e <CreateTask>
 64c:	87 e1       	ldi	r24, 0x17	; 23
 64e:	93 e0       	ldi	r25, 0x03	; 3
 650:	62 e0       	ldi	r22, 0x02	; 2
 652:	44 e6       	ldi	r20, 0x64	; 100
 654:	0c d0       	rcall	.+24     	; 0x66e <CreateTask>
 656:	89 e1       	ldi	r24, 0x19	; 25
 658:	93 e0       	ldi	r25, 0x03	; 3
 65a:	61 e0       	ldi	r22, 0x01	; 1
 65c:	44 e0       	ldi	r20, 0x04	; 4
 65e:	07 d0       	rcall	.+14     	; 0x66e <CreateTask>
 660:	8f e0       	ldi	r24, 0x0F	; 15
 662:	93 e0       	ldi	r25, 0x03	; 3
 664:	63 e0       	ldi	r22, 0x03	; 3
 666:	4a e0       	ldi	r20, 0x0A	; 10
 668:	02 d0       	rcall	.+4      	; 0x66e <CreateTask>
 66a:	1b d0       	rcall	.+54     	; 0x6a2 <RunScheduler>
 66c:	08 95       	ret

0000066e <CreateTask>:
 66e:	64 30       	cpi	r22, 0x04	; 4
 670:	60 f4       	brcc	.+24     	; 0x68a <CreateTask+0x1c>
 672:	e6 2f       	mov	r30, r22
 674:	f0 e0       	ldi	r31, 0x00	; 0
 676:	ee 0f       	add	r30, r30
 678:	ff 1f       	adc	r31, r31
 67a:	ee 0f       	add	r30, r30
 67c:	ff 1f       	adc	r31, r31
 67e:	ee 54       	subi	r30, 0x4E	; 78
 680:	ff 4f       	sbci	r31, 0xFF	; 255
 682:	91 83       	std	Z+1, r25	; 0x01
 684:	80 83       	st	Z, r24
 686:	42 83       	std	Z+2, r20	; 0x02
 688:	13 82       	std	Z+3, r1	; 0x03
 68a:	08 95       	ret

0000068c <SchedulerTick>:
 68c:	e5 eb       	ldi	r30, 0xB5	; 181
 68e:	f0 e0       	ldi	r31, 0x00	; 0
 690:	84 e0       	ldi	r24, 0x04	; 4
 692:	90 81       	ld	r25, Z
 694:	9f 5f       	subi	r25, 0xFF	; 255
 696:	90 83       	st	Z, r25
 698:	81 50       	subi	r24, 0x01	; 1
 69a:	34 96       	adiw	r30, 0x04	; 4
 69c:	88 23       	and	r24, r24
 69e:	c9 f7       	brne	.-14     	; 0x692 <SchedulerTick+0x6>
 6a0:	08 95       	ret

000006a2 <RunScheduler>:
 6a2:	10 92 c2 00 	sts	0x00C2, r1
 6a6:	1e c0       	rjmp	.+60     	; 0x6e4 <RunScheduler+0x42>
 6a8:	f0 e0       	ldi	r31, 0x00	; 0
 6aa:	ee 0f       	add	r30, r30
 6ac:	ff 1f       	adc	r31, r31
 6ae:	ee 0f       	add	r30, r30
 6b0:	ff 1f       	adc	r31, r31
 6b2:	ee 54       	subi	r30, 0x4E	; 78
 6b4:	ff 4f       	sbci	r31, 0xFF	; 255
 6b6:	92 81       	ldd	r25, Z+2	; 0x02
 6b8:	83 81       	ldd	r24, Z+3	; 0x03
 6ba:	89 17       	cp	r24, r25
 6bc:	70 f0       	brcs	.+28     	; 0x6da <RunScheduler+0x38>
 6be:	01 90       	ld	r0, Z+
 6c0:	f0 81       	ld	r31, Z
 6c2:	e0 2d       	mov	r30, r0
 6c4:	09 95       	icall
 6c6:	e0 91 c2 00 	lds	r30, 0x00C2
 6ca:	f0 e0       	ldi	r31, 0x00	; 0
 6cc:	ee 0f       	add	r30, r30
 6ce:	ff 1f       	adc	r31, r31
 6d0:	ee 0f       	add	r30, r30
 6d2:	ff 1f       	adc	r31, r31
 6d4:	ee 54       	subi	r30, 0x4E	; 78
 6d6:	ff 4f       	sbci	r31, 0xFF	; 255
 6d8:	13 82       	std	Z+3, r1	; 0x03
 6da:	80 91 c2 00 	lds	r24, 0x00C2
 6de:	8f 5f       	subi	r24, 0xFF	; 255
 6e0:	80 93 c2 00 	sts	0x00C2, r24
 6e4:	e0 91 c2 00 	lds	r30, 0x00C2
 6e8:	e4 30       	cpi	r30, 0x04	; 4
 6ea:	d8 f6       	brcc	.-74     	; 0x6a2 <RunScheduler>
 6ec:	dd cf       	rjmp	.-70     	; 0x6a8 <RunScheduler+0x6>

000006ee <HWIeeprom_Write>:
 6ee:	e1 99       	sbic	0x1c, 1	; 28
 6f0:	08 c0       	rjmp	.+16     	; 0x702 <HWIeeprom_Write+0x14>
 6f2:	90 e0       	ldi	r25, 0x00	; 0
 6f4:	9f bb       	out	0x1f, r25	; 31
 6f6:	8e bb       	out	0x1e, r24	; 30
 6f8:	6d bb       	out	0x1d, r22	; 29
 6fa:	e2 9a       	sbi	0x1c, 2	; 28
 6fc:	e1 9a       	sbi	0x1c, 1	; 28
 6fe:	81 e0       	ldi	r24, 0x01	; 1
 700:	08 95       	ret
 702:	80 e0       	ldi	r24, 0x00	; 0
 704:	08 95       	ret

00000706 <HWIeeprom_Read>:
 706:	e1 99       	sbic	0x1c, 1	; 28
 708:	09 c0       	rjmp	.+18     	; 0x71c <HWIeeprom_Read+0x16>
 70a:	90 e0       	ldi	r25, 0x00	; 0
 70c:	9f bb       	out	0x1f, r25	; 31
 70e:	8e bb       	out	0x1e, r24	; 30
 710:	e0 9a       	sbi	0x1c, 0	; 28
 712:	8d b3       	in	r24, 0x1d	; 29
 714:	fb 01       	movw	r30, r22
 716:	80 83       	st	Z, r24
 718:	81 e0       	ldi	r24, 0x01	; 1
 71a:	08 95       	ret
 71c:	80 e0       	ldi	r24, 0x00	; 0
 71e:	08 95       	ret

00000720 <HWI_DIGITAL_INITIALIZE>:
 720:	8f ef       	ldi	r24, 0xFF	; 255
 722:	87 bb       	out	0x17, r24	; 23
 724:	84 bb       	out	0x14, r24	; 20
 726:	11 ba       	out	0x11, r1	; 17
 728:	82 bb       	out	0x12, r24	; 18
 72a:	08 95       	ret

0000072c <HWI_DIGI_READ>:
 72c:	8f 30       	cpi	r24, 0x0F	; 15
 72e:	19 f0       	breq	.+6      	; 0x736 <HWI_DIGI_READ+0xa>
 730:	80 31       	cpi	r24, 0x10	; 16
 732:	39 f4       	brne	.+14     	; 0x742 <HWI_DIGI_READ+0x16>
 734:	03 c0       	rjmp	.+6      	; 0x73c <HWI_DIGI_READ+0x10>
 736:	80 b3       	in	r24, 0x10	; 16
 738:	80 71       	andi	r24, 0x10	; 16
 73a:	08 95       	ret
 73c:	80 b3       	in	r24, 0x10	; 16
 73e:	80 72       	andi	r24, 0x20	; 32
 740:	08 95       	ret
 742:	80 e0       	ldi	r24, 0x00	; 0
 744:	08 95       	ret

00000746 <HWI_DIGI_WRITE>:
 746:	08 95       	ret

00000748 <HWI_4Digit_WRITE>:
 748:	88 23       	and	r24, r24
 74a:	29 f4       	brne	.+10     	; 0x756 <HWI_4Digit_WRITE+0xe>
 74c:	85 b3       	in	r24, 0x15	; 21
 74e:	80 7f       	andi	r24, 0xF0	; 240
 750:	86 2b       	or	r24, r22
 752:	85 bb       	out	0x15, r24	; 21
 754:	08 95       	ret
 756:	88 b3       	in	r24, 0x18	; 24
 758:	80 7f       	andi	r24, 0xF0	; 240
 75a:	86 2b       	or	r24, r22
 75c:	88 bb       	out	0x18, r24	; 24
 75e:	08 95       	ret

00000760 <HWI_4Digit_READ>:
 760:	88 23       	and	r24, r24
 762:	19 f0       	breq	.+6      	; 0x76a <HWI_4Digit_READ+0xa>
 764:	81 30       	cpi	r24, 0x01	; 1
 766:	31 f4       	brne	.+12     	; 0x774 <HWI_4Digit_READ+0x14>
 768:	02 c0       	rjmp	.+4      	; 0x76e <HWI_4Digit_READ+0xe>
 76a:	83 b3       	in	r24, 0x13	; 19
 76c:	01 c0       	rjmp	.+2      	; 0x770 <HWI_4Digit_READ+0x10>
 76e:	86 b3       	in	r24, 0x16	; 22
 770:	8f 70       	andi	r24, 0x0F	; 15
 772:	08 95       	ret
 774:	86 b3       	in	r24, 0x16	; 22
 776:	8f 70       	andi	r24, 0x0F	; 15
 778:	08 95       	ret

0000077a <HWI_8Digit_WRITE>:
 77a:	88 23       	and	r24, r24
 77c:	11 f4       	brne	.+4      	; 0x782 <HWI_8Digit_WRITE+0x8>
 77e:	65 bb       	out	0x15, r22	; 21
 780:	08 95       	ret
 782:	68 bb       	out	0x18, r22	; 24
 784:	08 95       	ret

00000786 <HWI8Digit_READ>:
 786:	88 23       	and	r24, r24
 788:	11 f0       	breq	.+4      	; 0x78e <HWI8Digit_READ+0x8>
 78a:	86 b3       	in	r24, 0x16	; 22
 78c:	08 95       	ret
 78e:	83 b3       	in	r24, 0x13	; 19
 790:	08 95       	ret

00000792 <HWI_INTERRUPTS_INTITALIZE>:
 792:	8e b5       	in	r24, 0x2e	; 46
 794:	82 60       	ori	r24, 0x02	; 2
 796:	8e bd       	out	0x2e, r24	; 46
 798:	8f ef       	ldi	r24, 0xFF	; 255
 79a:	9f e7       	ldi	r25, 0x7F	; 127
 79c:	9d bd       	out	0x2d, r25	; 45
 79e:	8c bd       	out	0x2c, r24	; 44
 7a0:	83 b7       	in	r24, 0x33	; 51
 7a2:	83 60       	ori	r24, 0x03	; 3
 7a4:	83 bf       	out	0x33, r24	; 51
 7a6:	82 ec       	ldi	r24, 0xC2	; 194
 7a8:	82 bf       	out	0x32, r24	; 50
 7aa:	89 b7       	in	r24, 0x39	; 57
 7ac:	81 60       	ori	r24, 0x01	; 1
 7ae:	89 bf       	out	0x39, r24	; 57
 7b0:	89 b7       	in	r24, 0x39	; 57
 7b2:	84 60       	ori	r24, 0x04	; 4
 7b4:	89 bf       	out	0x39, r24	; 57
 7b6:	8b b7       	in	r24, 0x3b	; 59
 7b8:	80 64       	ori	r24, 0x40	; 64
 7ba:	8b bf       	out	0x3b, r24	; 59
 7bc:	85 b7       	in	r24, 0x35	; 53
 7be:	83 60       	ori	r24, 0x03	; 3
 7c0:	85 bf       	out	0x35, r24	; 53
 7c2:	8b b7       	in	r24, 0x3b	; 59
 7c4:	80 68       	ori	r24, 0x80	; 128
 7c6:	8b bf       	out	0x3b, r24	; 59
 7c8:	85 b7       	in	r24, 0x35	; 53
 7ca:	8c 60       	ori	r24, 0x0C	; 12
 7cc:	85 bf       	out	0x35, r24	; 53
 7ce:	81 b3       	in	r24, 0x11	; 17
 7d0:	8c 60       	ori	r24, 0x0C	; 12
 7d2:	81 bb       	out	0x11, r24	; 17
 7d4:	78 94       	sei
 7d6:	08 95       	ret

000007d8 <ReloadHWtimer>:
 7d8:	83 30       	cpi	r24, 0x03	; 3
 7da:	58 f4       	brcc	.+22     	; 0x7f2 <ReloadHWtimer+0x1a>
 7dc:	8c b5       	in	r24, 0x2c	; 44
 7de:	9d b5       	in	r25, 0x2d	; 45
 7e0:	8f 5f       	subi	r24, 0xFF	; 255
 7e2:	9f 47       	sbci	r25, 0x7F	; 127
 7e4:	88 0f       	add	r24, r24
 7e6:	99 1f       	adc	r25, r25
 7e8:	2f ef       	ldi	r18, 0xFF	; 255
 7ea:	3f e7       	ldi	r19, 0x7F	; 127
 7ec:	3d bd       	out	0x2d, r19	; 45
 7ee:	2c bd       	out	0x2c, r18	; 44
 7f0:	08 95       	ret
 7f2:	80 e0       	ldi	r24, 0x00	; 0
 7f4:	90 e0       	ldi	r25, 0x00	; 0
 7f6:	08 95       	ret

000007f8 <__vector_9>:
 7f8:	1f 92       	push	r1
 7fa:	0f 92       	push	r0
 7fc:	0f b6       	in	r0, 0x3f	; 63
 7fe:	0f 92       	push	r0
 800:	11 24       	eor	r1, r1
 802:	2f 93       	push	r18
 804:	3f 93       	push	r19
 806:	4f 93       	push	r20
 808:	5f 93       	push	r21
 80a:	6f 93       	push	r22
 80c:	7f 93       	push	r23
 80e:	8f 93       	push	r24
 810:	9f 93       	push	r25
 812:	af 93       	push	r26
 814:	bf 93       	push	r27
 816:	ef 93       	push	r30
 818:	ff 93       	push	r31
 81a:	82 ec       	ldi	r24, 0xC2	; 194
 81c:	82 bf       	out	0x32, r24	; 50
 81e:	36 df       	rcall	.-404    	; 0x68c <SchedulerTick>
 820:	ff 91       	pop	r31
 822:	ef 91       	pop	r30
 824:	bf 91       	pop	r27
 826:	af 91       	pop	r26
 828:	9f 91       	pop	r25
 82a:	8f 91       	pop	r24
 82c:	7f 91       	pop	r23
 82e:	6f 91       	pop	r22
 830:	5f 91       	pop	r21
 832:	4f 91       	pop	r20
 834:	3f 91       	pop	r19
 836:	2f 91       	pop	r18
 838:	0f 90       	pop	r0
 83a:	0f be       	out	0x3f, r0	; 63
 83c:	0f 90       	pop	r0
 83e:	1f 90       	pop	r1
 840:	18 95       	reti

00000842 <__vector_8>:
 842:	1f 92       	push	r1
 844:	0f 92       	push	r0
 846:	0f b6       	in	r0, 0x3f	; 63
 848:	0f 92       	push	r0
 84a:	11 24       	eor	r1, r1
 84c:	2f 93       	push	r18
 84e:	3f 93       	push	r19
 850:	4f 93       	push	r20
 852:	5f 93       	push	r21
 854:	6f 93       	push	r22
 856:	7f 93       	push	r23
 858:	8f 93       	push	r24
 85a:	9f 93       	push	r25
 85c:	af 93       	push	r26
 85e:	bf 93       	push	r27
 860:	ef 93       	push	r30
 862:	ff 93       	push	r31
 864:	8f ef       	ldi	r24, 0xFF	; 255
 866:	9f e7       	ldi	r25, 0x7F	; 127
 868:	9d bd       	out	0x2d, r25	; 45
 86a:	8c bd       	out	0x2c, r24	; 44
 86c:	d6 de       	rcall	.-596    	; 0x61a <APP_ISR3>
 86e:	ff 91       	pop	r31
 870:	ef 91       	pop	r30
 872:	bf 91       	pop	r27
 874:	af 91       	pop	r26
 876:	9f 91       	pop	r25
 878:	8f 91       	pop	r24
 87a:	7f 91       	pop	r23
 87c:	6f 91       	pop	r22
 87e:	5f 91       	pop	r21
 880:	4f 91       	pop	r20
 882:	3f 91       	pop	r19
 884:	2f 91       	pop	r18
 886:	0f 90       	pop	r0
 888:	0f be       	out	0x3f, r0	; 63
 88a:	0f 90       	pop	r0
 88c:	1f 90       	pop	r1
 88e:	18 95       	reti

00000890 <__vector_1>:
 890:	1f 92       	push	r1
 892:	0f 92       	push	r0
 894:	0f b6       	in	r0, 0x3f	; 63
 896:	0f 92       	push	r0
 898:	11 24       	eor	r1, r1
 89a:	2f 93       	push	r18
 89c:	3f 93       	push	r19
 89e:	4f 93       	push	r20
 8a0:	5f 93       	push	r21
 8a2:	6f 93       	push	r22
 8a4:	7f 93       	push	r23
 8a6:	8f 93       	push	r24
 8a8:	9f 93       	push	r25
 8aa:	af 93       	push	r26
 8ac:	bf 93       	push	r27
 8ae:	ef 93       	push	r30
 8b0:	ff 93       	push	r31
 8b2:	af de       	rcall	.-674    	; 0x612 <APP_ISR1>
 8b4:	ff 91       	pop	r31
 8b6:	ef 91       	pop	r30
 8b8:	bf 91       	pop	r27
 8ba:	af 91       	pop	r26
 8bc:	9f 91       	pop	r25
 8be:	8f 91       	pop	r24
 8c0:	7f 91       	pop	r23
 8c2:	6f 91       	pop	r22
 8c4:	5f 91       	pop	r21
 8c6:	4f 91       	pop	r20
 8c8:	3f 91       	pop	r19
 8ca:	2f 91       	pop	r18
 8cc:	0f 90       	pop	r0
 8ce:	0f be       	out	0x3f, r0	; 63
 8d0:	0f 90       	pop	r0
 8d2:	1f 90       	pop	r1
 8d4:	18 95       	reti

000008d6 <__vector_2>:
 8d6:	1f 92       	push	r1
 8d8:	0f 92       	push	r0
 8da:	0f b6       	in	r0, 0x3f	; 63
 8dc:	0f 92       	push	r0
 8de:	11 24       	eor	r1, r1
 8e0:	2f 93       	push	r18
 8e2:	3f 93       	push	r19
 8e4:	4f 93       	push	r20
 8e6:	5f 93       	push	r21
 8e8:	6f 93       	push	r22
 8ea:	7f 93       	push	r23
 8ec:	8f 93       	push	r24
 8ee:	9f 93       	push	r25
 8f0:	af 93       	push	r26
 8f2:	bf 93       	push	r27
 8f4:	ef 93       	push	r30
 8f6:	ff 93       	push	r31
 8f8:	8e de       	rcall	.-740    	; 0x616 <APP_ISR2>
 8fa:	ff 91       	pop	r31
 8fc:	ef 91       	pop	r30
 8fe:	bf 91       	pop	r27
 900:	af 91       	pop	r26
 902:	9f 91       	pop	r25
 904:	8f 91       	pop	r24
 906:	7f 91       	pop	r23
 908:	6f 91       	pop	r22
 90a:	5f 91       	pop	r21
 90c:	4f 91       	pop	r20
 90e:	3f 91       	pop	r19
 910:	2f 91       	pop	r18
 912:	0f 90       	pop	r0
 914:	0f be       	out	0x3f, r0	; 63
 916:	0f 90       	pop	r0
 918:	1f 90       	pop	r1
 91a:	18 95       	reti

0000091c <main>:
 91c:	8c de       	rcall	.-744    	; 0x636 <Start_App>
 91e:	80 e0       	ldi	r24, 0x00	; 0
 920:	90 e0       	ldi	r25, 0x00	; 0
 922:	08 95       	ret

00000924 <__mulsi3>:
 924:	62 9f       	mul	r22, r18
 926:	d0 01       	movw	r26, r0
 928:	73 9f       	mul	r23, r19
 92a:	f0 01       	movw	r30, r0
 92c:	82 9f       	mul	r24, r18
 92e:	e0 0d       	add	r30, r0
 930:	f1 1d       	adc	r31, r1
 932:	64 9f       	mul	r22, r20
 934:	e0 0d       	add	r30, r0
 936:	f1 1d       	adc	r31, r1
 938:	92 9f       	mul	r25, r18
 93a:	f0 0d       	add	r31, r0
 93c:	83 9f       	mul	r24, r19
 93e:	f0 0d       	add	r31, r0
 940:	74 9f       	mul	r23, r20
 942:	f0 0d       	add	r31, r0
 944:	65 9f       	mul	r22, r21
 946:	f0 0d       	add	r31, r0
 948:	99 27       	eor	r25, r25
 94a:	72 9f       	mul	r23, r18
 94c:	b0 0d       	add	r27, r0
 94e:	e1 1d       	adc	r30, r1
 950:	f9 1f       	adc	r31, r25
 952:	63 9f       	mul	r22, r19
 954:	b0 0d       	add	r27, r0
 956:	e1 1d       	adc	r30, r1
 958:	f9 1f       	adc	r31, r25
 95a:	bd 01       	movw	r22, r26
 95c:	cf 01       	movw	r24, r30
 95e:	11 24       	eor	r1, r1
 960:	08 95       	ret

00000962 <__udivmodhi4>:
 962:	aa 1b       	sub	r26, r26
 964:	bb 1b       	sub	r27, r27
 966:	51 e1       	ldi	r21, 0x11	; 17
 968:	07 c0       	rjmp	.+14     	; 0x978 <__udivmodhi4_ep>

0000096a <__udivmodhi4_loop>:
 96a:	aa 1f       	adc	r26, r26
 96c:	bb 1f       	adc	r27, r27
 96e:	a6 17       	cp	r26, r22
 970:	b7 07       	cpc	r27, r23
 972:	10 f0       	brcs	.+4      	; 0x978 <__udivmodhi4_ep>
 974:	a6 1b       	sub	r26, r22
 976:	b7 0b       	sbc	r27, r23

00000978 <__udivmodhi4_ep>:
 978:	88 1f       	adc	r24, r24
 97a:	99 1f       	adc	r25, r25
 97c:	5a 95       	dec	r21
 97e:	a9 f7       	brne	.-22     	; 0x96a <__udivmodhi4_loop>
 980:	80 95       	com	r24
 982:	90 95       	com	r25
 984:	bc 01       	movw	r22, r24
 986:	cd 01       	movw	r24, r26
 988:	08 95       	ret

0000098a <__udivmodsi4>:
 98a:	a1 e2       	ldi	r26, 0x21	; 33
 98c:	1a 2e       	mov	r1, r26
 98e:	aa 1b       	sub	r26, r26
 990:	bb 1b       	sub	r27, r27
 992:	fd 01       	movw	r30, r26
 994:	0d c0       	rjmp	.+26     	; 0x9b0 <__udivmodsi4_ep>

00000996 <__udivmodsi4_loop>:
 996:	aa 1f       	adc	r26, r26
 998:	bb 1f       	adc	r27, r27
 99a:	ee 1f       	adc	r30, r30
 99c:	ff 1f       	adc	r31, r31
 99e:	a2 17       	cp	r26, r18
 9a0:	b3 07       	cpc	r27, r19
 9a2:	e4 07       	cpc	r30, r20
 9a4:	f5 07       	cpc	r31, r21
 9a6:	20 f0       	brcs	.+8      	; 0x9b0 <__udivmodsi4_ep>
 9a8:	a2 1b       	sub	r26, r18
 9aa:	b3 0b       	sbc	r27, r19
 9ac:	e4 0b       	sbc	r30, r20
 9ae:	f5 0b       	sbc	r31, r21

000009b0 <__udivmodsi4_ep>:
 9b0:	66 1f       	adc	r22, r22
 9b2:	77 1f       	adc	r23, r23
 9b4:	88 1f       	adc	r24, r24
 9b6:	99 1f       	adc	r25, r25
 9b8:	1a 94       	dec	r1
 9ba:	69 f7       	brne	.-38     	; 0x996 <__udivmodsi4_loop>
 9bc:	60 95       	com	r22
 9be:	70 95       	com	r23
 9c0:	80 95       	com	r24
 9c2:	90 95       	com	r25
 9c4:	9b 01       	movw	r18, r22
 9c6:	ac 01       	movw	r20, r24
 9c8:	bd 01       	movw	r22, r26
 9ca:	cf 01       	movw	r24, r30
 9cc:	08 95       	ret

000009ce <_exit>:
 9ce:	f8 94       	cli

000009d0 <__stop_program>:
 9d0:	ff cf       	rjmp	.-2      	; 0x9d0 <__stop_program>
