
BicMeter.elf:     file format elf32-avr

Sections:
Idx Name          Size      VMA       LMA       File off  Algn
  0 .text         000010cc  00000000  00000000  00000094  2**1
                  CONTENTS, ALLOC, LOAD, READONLY, CODE
  1 .data         00000038  00800060  000010cc  00001160  2**0
                  CONTENTS, ALLOC, LOAD, DATA
  2 .bss          0000008e  00800098  00800098  00001198  2**0
                  ALLOC
  3 .stab         000006cc  00000000  00000000  00001198  2**2
                  CONTENTS, READONLY, DEBUGGING
  4 .stabstr      00000085  00000000  00000000  00001864  2**0
                  CONTENTS, READONLY, DEBUGGING
  5 .debug_aranges 000000c0  00000000  00000000  000018f0  2**3
                  CONTENTS, READONLY, DEBUGGING
  6 .debug_info   0000052e  00000000  00000000  000019b0  2**0
                  CONTENTS, READONLY, DEBUGGING
  7 .debug_abbrev 00000078  00000000  00000000  00001ede  2**0
                  CONTENTS, READONLY, DEBUGGING
  8 .debug_line   0000038e  00000000  00000000  00001f56  2**0
                  CONTENTS, READONLY, DEBUGGING

Disassembly of section .text:

00000000 <__vectors>:
       0:	12 c0       	rjmp	.+36     	; 0x26 <__ctors_end>
       2:	9e c7       	rjmp	.+3900   	; 0xf40 <__vector_1>
       4:	c3 c7       	rjmp	.+3974   	; 0xf8c <__vector_2>
       6:	2a c0       	rjmp	.+84     	; 0x5c <__bad_interrupt>
       8:	29 c0       	rjmp	.+82     	; 0x5c <__bad_interrupt>
       a:	28 c0       	rjmp	.+80     	; 0x5c <__bad_interrupt>
       c:	27 c0       	rjmp	.+78     	; 0x5c <__bad_interrupt>
       e:	26 c0       	rjmp	.+76     	; 0x5c <__bad_interrupt>
      10:	70 c7       	rjmp	.+3808   	; 0xef2 <__vector_8>
      12:	4a c7       	rjmp	.+3732   	; 0xea8 <__vector_9>
      14:	23 c0       	rjmp	.+70     	; 0x5c <__bad_interrupt>
      16:	22 c0       	rjmp	.+68     	; 0x5c <__bad_interrupt>
      18:	21 c0       	rjmp	.+66     	; 0x5c <__bad_interrupt>
      1a:	20 c0       	rjmp	.+64     	; 0x5c <__bad_interrupt>
      1c:	1f c0       	rjmp	.+62     	; 0x5c <__bad_interrupt>
      1e:	1e c0       	rjmp	.+60     	; 0x5c <__bad_interrupt>
      20:	1d c0       	rjmp	.+58     	; 0x5c <__bad_interrupt>
      22:	1c c0       	rjmp	.+56     	; 0x5c <__bad_interrupt>
      24:	1b c0       	rjmp	.+54     	; 0x5c <__bad_interrupt>

00000026 <__ctors_end>:
      26:	11 24       	eor	r1, r1
      28:	1f be       	out	0x3f, r1	; 63
      2a:	cf e5       	ldi	r28, 0x5F	; 95
      2c:	d4 e0       	ldi	r29, 0x04	; 4
      2e:	de bf       	out	0x3e, r29	; 62
      30:	cd bf       	out	0x3d, r28	; 61

00000032 <__do_copy_data>:
      32:	10 e0       	ldi	r17, 0x00	; 0
      34:	a0 e6       	ldi	r26, 0x60	; 96
      36:	b0 e0       	ldi	r27, 0x00	; 0
      38:	ec ec       	ldi	r30, 0xCC	; 204
      3a:	f0 e1       	ldi	r31, 0x10	; 16
      3c:	02 c0       	rjmp	.+4      	; 0x42 <__SREG__+0x3>
      3e:	05 90       	lpm	r0, Z+
      40:	0d 92       	st	X+, r0
      42:	a8 39       	cpi	r26, 0x98	; 152
      44:	b1 07       	cpc	r27, r17
      46:	d9 f7       	brne	.-10     	; 0x3e <__SP_H__>

00000048 <__do_clear_bss>:
      48:	11 e0       	ldi	r17, 0x01	; 1
      4a:	a8 e9       	ldi	r26, 0x98	; 152
      4c:	b0 e0       	ldi	r27, 0x00	; 0
      4e:	01 c0       	rjmp	.+2      	; 0x52 <.do_clear_bss_start>

00000050 <.do_clear_bss_loop>:
      50:	1d 92       	st	X+, r1

00000052 <.do_clear_bss_start>:
      52:	a6 32       	cpi	r26, 0x26	; 38
      54:	b1 07       	cpc	r27, r17
      56:	e1 f7       	brne	.-8      	; 0x50 <.do_clear_bss_loop>
      58:	de d7       	rcall	.+4028   	; 0x1016 <main>
      5a:	36 c8       	rjmp	.-3988   	; 0xfffff0c8 <__eeprom_end+0xff7ef0c8>

0000005c <__bad_interrupt>:
      5c:	d1 cf       	rjmp	.-94     	; 0x0 <__vectors>

0000005e <IncrementDecrementSingleDigit>:
      5e:	cf 92       	push	r12
      60:	df 92       	push	r13
      62:	ef 92       	push	r14
      64:	ff 92       	push	r15
      66:	0f 93       	push	r16
      68:	1f 93       	push	r17
      6a:	cf 93       	push	r28
      6c:	df 93       	push	r29
      6e:	00 d0       	rcall	.+0      	; 0x70 <IncrementDecrementSingleDigit+0x12>
      70:	00 d0       	rcall	.+0      	; 0x72 <IncrementDecrementSingleDigit+0x14>
      72:	cd b7       	in	r28, 0x3d	; 61
      74:	de b7       	in	r29, 0x3e	; 62
      76:	9c 01       	movw	r18, r24
      78:	16 2f       	mov	r17, r22
      7a:	04 2f       	mov	r16, r20
      7c:	6e 01       	movw	r12, r28
      7e:	08 94       	sec
      80:	c1 1c       	adc	r12, r1
      82:	d1 1c       	adc	r13, r1
      84:	f6 01       	movw	r30, r12
      86:	44 e0       	ldi	r20, 0x04	; 4
      88:	aa e0       	ldi	r26, 0x0A	; 10
      8a:	ea 2e       	mov	r14, r26
      8c:	f1 2c       	mov	r15, r1
      8e:	21 15       	cp	r18, r1
      90:	31 05       	cpc	r19, r1
      92:	69 f0       	breq	.+26     	; 0xae <IncrementDecrementSingleDigit+0x50>
      94:	c9 01       	movw	r24, r18
      96:	b7 01       	movw	r22, r14
      98:	e1 d7       	rcall	.+4034   	; 0x105c <__udivmodhi4>
      9a:	96 2f       	mov	r25, r22
      9c:	99 0f       	add	r25, r25
      9e:	89 2f       	mov	r24, r25
      a0:	88 0f       	add	r24, r24
      a2:	88 0f       	add	r24, r24
      a4:	89 0f       	add	r24, r25
      a6:	28 1b       	sub	r18, r24
      a8:	20 83       	st	Z, r18
      aa:	9b 01       	movw	r18, r22
      ac:	01 c0       	rjmp	.+2      	; 0xb0 <IncrementDecrementSingleDigit+0x52>
      ae:	10 82       	st	Z, r1
      b0:	41 50       	subi	r20, 0x01	; 1
      b2:	31 96       	adiw	r30, 0x01	; 1
      b4:	44 23       	and	r20, r20
      b6:	59 f7       	brne	.-42     	; 0x8e <IncrementDecrementSingleDigit+0x30>
      b8:	e1 2f       	mov	r30, r17
      ba:	f0 e0       	ldi	r31, 0x00	; 0
      bc:	00 23       	and	r16, r16
      be:	69 f4       	brne	.+26     	; 0xda <IncrementDecrementSingleDigit+0x7c>
      c0:	81 e0       	ldi	r24, 0x01	; 1
      c2:	90 e0       	ldi	r25, 0x00	; 0
      c4:	8c 0f       	add	r24, r28
      c6:	9d 1f       	adc	r25, r29
      c8:	e8 0f       	add	r30, r24
      ca:	f9 1f       	adc	r31, r25
      cc:	80 81       	ld	r24, Z
      ce:	88 23       	and	r24, r24
      d0:	11 f4       	brne	.+4      	; 0xd6 <IncrementDecrementSingleDigit+0x78>
      d2:	89 e0       	ldi	r24, 0x09	; 9
      d4:	0e c0       	rjmp	.+28     	; 0xf2 <IncrementDecrementSingleDigit+0x94>
      d6:	81 50       	subi	r24, 0x01	; 1
      d8:	0c c0       	rjmp	.+24     	; 0xf2 <IncrementDecrementSingleDigit+0x94>
      da:	a1 e0       	ldi	r26, 0x01	; 1
      dc:	b0 e0       	ldi	r27, 0x00	; 0
      de:	ac 0f       	add	r26, r28
      e0:	bd 1f       	adc	r27, r29
      e2:	ea 0f       	add	r30, r26
      e4:	fb 1f       	adc	r31, r27
      e6:	80 81       	ld	r24, Z
      e8:	89 30       	cpi	r24, 0x09	; 9
      ea:	11 f4       	brne	.+4      	; 0xf0 <IncrementDecrementSingleDigit+0x92>
      ec:	10 82       	st	Z, r1
      ee:	02 c0       	rjmp	.+4      	; 0xf4 <IncrementDecrementSingleDigit+0x96>
      f0:	8f 5f       	subi	r24, 0xFF	; 255
      f2:	80 83       	st	Z, r24
      f4:	20 e0       	ldi	r18, 0x00	; 0
      f6:	60 e0       	ldi	r22, 0x00	; 0
      f8:	70 e0       	ldi	r23, 0x00	; 0
      fa:	1e c0       	rjmp	.+60     	; 0x138 <IncrementDecrementSingleDigit+0xda>
      fc:	ca 01       	movw	r24, r20
      fe:	88 0f       	add	r24, r24
     100:	99 1f       	adc	r25, r25
     102:	f3 e0       	ldi	r31, 0x03	; 3
     104:	44 0f       	add	r20, r20
     106:	55 1f       	adc	r21, r21
     108:	fa 95       	dec	r31
     10a:	e1 f7       	brne	.-8      	; 0x104 <IncrementDecrementSingleDigit+0xa6>
     10c:	48 0f       	add	r20, r24
     10e:	59 1f       	adc	r21, r25
     110:	ef 5f       	subi	r30, 0xFF	; 255
     112:	e2 17       	cp	r30, r18
     114:	99 f7       	brne	.-26     	; 0xfc <IncrementDecrementSingleDigit+0x9e>
     116:	d6 01       	movw	r26, r12
     118:	8d 91       	ld	r24, X+
     11a:	6d 01       	movw	r12, r26
     11c:	90 e0       	ldi	r25, 0x00	; 0
     11e:	48 9f       	mul	r20, r24
     120:	90 01       	movw	r18, r0
     122:	49 9f       	mul	r20, r25
     124:	30 0d       	add	r19, r0
     126:	58 9f       	mul	r21, r24
     128:	30 0d       	add	r19, r0
     12a:	11 24       	eor	r1, r1
     12c:	62 0f       	add	r22, r18
     12e:	73 1f       	adc	r23, r19
     130:	2e 2f       	mov	r18, r30
     132:	2f 5f       	subi	r18, 0xFF	; 255
     134:	24 30       	cpi	r18, 0x04	; 4
     136:	21 f0       	breq	.+8      	; 0x140 <IncrementDecrementSingleDigit+0xe2>
     138:	41 e0       	ldi	r20, 0x01	; 1
     13a:	50 e0       	ldi	r21, 0x00	; 0
     13c:	e0 e0       	ldi	r30, 0x00	; 0
     13e:	e9 cf       	rjmp	.-46     	; 0x112 <IncrementDecrementSingleDigit+0xb4>
     140:	cb 01       	movw	r24, r22
     142:	0f 90       	pop	r0
     144:	0f 90       	pop	r0
     146:	0f 90       	pop	r0
     148:	0f 90       	pop	r0
     14a:	df 91       	pop	r29
     14c:	cf 91       	pop	r28
     14e:	1f 91       	pop	r17
     150:	0f 91       	pop	r16
     152:	ff 90       	pop	r15
     154:	ef 90       	pop	r14
     156:	df 90       	pop	r13
     158:	cf 90       	pop	r12
     15a:	08 95       	ret

0000015c <APP_INITIALIZE>:
     15c:	81 e0       	ldi	r24, 0x01	; 1
     15e:	68 e9       	ldi	r22, 0x98	; 152
     160:	70 e0       	ldi	r23, 0x00	; 0
     162:	4f e0       	ldi	r20, 0x0F	; 15
     164:	d2 d3       	rcall	.+1956   	; 0x90a <Eeprom_Read_Block>
     166:	80 91 98 00 	lds	r24, 0x0098
     16a:	90 91 99 00 	lds	r25, 0x0099
     16e:	27 e2       	ldi	r18, 0x27	; 39
     170:	80 31       	cpi	r24, 0x10	; 16
     172:	92 07       	cpc	r25, r18
     174:	30 f0       	brcs	.+12     	; 0x182 <APP_INITIALIZE+0x26>
     176:	80 ed       	ldi	r24, 0xD0	; 208
     178:	97 e0       	ldi	r25, 0x07	; 7
     17a:	90 93 99 00 	sts	0x0099, r25
     17e:	80 93 98 00 	sts	0x0098, r24
     182:	80 91 9d 00 	lds	r24, 0x009D
     186:	90 91 9e 00 	lds	r25, 0x009E
     18a:	a0 91 9f 00 	lds	r26, 0x009F
     18e:	b0 91 a0 00 	lds	r27, 0x00A0
     192:	80 31       	cpi	r24, 0x10	; 16
     194:	27 e2       	ldi	r18, 0x27	; 39
     196:	92 07       	cpc	r25, r18
     198:	20 e0       	ldi	r18, 0x00	; 0
     19a:	a2 07       	cpc	r26, r18
     19c:	20 e0       	ldi	r18, 0x00	; 0
     19e:	b2 07       	cpc	r27, r18
     1a0:	40 f0       	brcs	.+16     	; 0x1b2 <APP_INITIALIZE+0x56>
     1a2:	10 92 9d 00 	sts	0x009D, r1
     1a6:	10 92 9e 00 	sts	0x009E, r1
     1aa:	10 92 9f 00 	sts	0x009F, r1
     1ae:	10 92 a0 00 	sts	0x00A0, r1
     1b2:	80 91 9d 00 	lds	r24, 0x009D
     1b6:	90 91 9e 00 	lds	r25, 0x009E
     1ba:	a0 91 9f 00 	lds	r26, 0x009F
     1be:	b0 91 a0 00 	lds	r27, 0x00A0
     1c2:	80 31       	cpi	r24, 0x10	; 16
     1c4:	27 e2       	ldi	r18, 0x27	; 39
     1c6:	92 07       	cpc	r25, r18
     1c8:	20 e0       	ldi	r18, 0x00	; 0
     1ca:	a2 07       	cpc	r26, r18
     1cc:	20 e0       	ldi	r18, 0x00	; 0
     1ce:	b2 07       	cpc	r27, r18
     1d0:	40 f0       	brcs	.+16     	; 0x1e2 <APP_INITIALIZE+0x86>
     1d2:	10 92 a1 00 	sts	0x00A1, r1
     1d6:	10 92 a2 00 	sts	0x00A2, r1
     1da:	10 92 a3 00 	sts	0x00A3, r1
     1de:	10 92 a4 00 	sts	0x00A4, r1
     1e2:	80 91 a5 00 	lds	r24, 0x00A5
     1e6:	90 91 a6 00 	lds	r25, 0x00A6
     1ea:	27 e2       	ldi	r18, 0x27	; 39
     1ec:	80 31       	cpi	r24, 0x10	; 16
     1ee:	92 07       	cpc	r25, r18
     1f0:	20 f0       	brcs	.+8      	; 0x1fa <APP_INITIALIZE+0x9e>
     1f2:	10 92 a6 00 	sts	0x00A6, r1
     1f6:	10 92 a5 00 	sts	0x00A5, r1
     1fa:	80 91 98 00 	lds	r24, 0x0098
     1fe:	90 91 99 00 	lds	r25, 0x0099
     202:	20 d5       	rcall	.+2624   	; 0xc44 <SetCircumfirunce>
     204:	60 91 9d 00 	lds	r22, 0x009D
     208:	70 91 9e 00 	lds	r23, 0x009E
     20c:	80 91 9f 00 	lds	r24, 0x009F
     210:	90 91 a0 00 	lds	r25, 0x00A0
     214:	ff d4       	rcall	.+2558   	; 0xc14 <SetDistance>
     216:	60 91 a1 00 	lds	r22, 0x00A1
     21a:	70 91 a2 00 	lds	r23, 0x00A2
     21e:	80 91 a3 00 	lds	r24, 0x00A3
     222:	90 91 a4 00 	lds	r25, 0x00A4
     226:	18 d1       	rcall	.+560    	; 0x458 <APP_CALC_TIMEsetTravelTime>
     228:	80 91 a5 00 	lds	r24, 0x00A5
     22c:	90 91 a6 00 	lds	r25, 0x00A6
     230:	fe d0       	rcall	.+508    	; 0x42e <APP_CALC_MAXSPDmanage_Set>
     232:	08 95       	ret

00000234 <APP_MANAGE>:
     234:	ef 92       	push	r14
     236:	ff 92       	push	r15
     238:	0f 93       	push	r16
     23a:	1f 93       	push	r17
     23c:	cf 93       	push	r28
     23e:	df 93       	push	r29
     240:	00 d0       	rcall	.+0      	; 0x242 <APP_MANAGE+0xe>
     242:	cd b7       	in	r28, 0x3d	; 61
     244:	de b7       	in	r29, 0x3e	; 62
     246:	80 91 9b 00 	lds	r24, 0x009B
     24a:	90 91 9c 00 	lds	r25, 0x009C
     24e:	9a 83       	std	Y+2, r25	; 0x02
     250:	89 83       	std	Y+1, r24	; 0x01
     252:	ef d4       	rcall	.+2526   	; 0xc32 <GetDistance>
     254:	dc 01       	movw	r26, r24
     256:	cb 01       	movw	r24, r22
     258:	80 93 9d 00 	sts	0x009D, r24
     25c:	90 93 9e 00 	sts	0x009E, r25
     260:	a0 93 9f 00 	sts	0x009F, r26
     264:	b0 93 a0 00 	sts	0x00A0, r27
     268:	ce 01       	movw	r24, r28
     26a:	01 96       	adiw	r24, 0x01	; 1
     26c:	49 d1       	rcall	.+658    	; 0x500 <APP_HMImanage>
     26e:	ce 01       	movw	r24, r28
     270:	01 96       	adiw	r24, 0x01	; 1
     272:	01 d1       	rcall	.+514    	; 0x476 <APP_CALC_TIMEmanage>
     274:	ab 01       	movw	r20, r22
     276:	bc 01       	movw	r22, r24
     278:	40 93 a1 00 	sts	0x00A1, r20
     27c:	50 93 a2 00 	sts	0x00A2, r21
     280:	60 93 a3 00 	sts	0x00A3, r22
     284:	70 93 a4 00 	sts	0x00A4, r23
     288:	00 91 9d 00 	lds	r16, 0x009D
     28c:	10 91 9e 00 	lds	r17, 0x009E
     290:	20 91 9f 00 	lds	r18, 0x009F
     294:	30 91 a0 00 	lds	r19, 0x00A0
     298:	ce 01       	movw	r24, r28
     29a:	01 96       	adiw	r24, 0x01	; 1
     29c:	c5 d0       	rcall	.+394    	; 0x428 <APP_CALC_AVGSPDmanage>
     29e:	7c 01       	movw	r14, r24
     2a0:	ce 01       	movw	r24, r28
     2a2:	01 96       	adiw	r24, 0x01	; 1
     2a4:	b6 d1       	rcall	.+876    	; 0x612 <APP_SLEEPmanage>
     2a6:	81 e0       	ldi	r24, 0x01	; 1
     2a8:	d2 d4       	rcall	.+2468   	; 0xc4e <GetAvgSpeed>
     2aa:	8c 01       	movw	r16, r24
     2ac:	c5 d0       	rcall	.+394    	; 0x438 <APP_CALC_MAXSPDmanage>
     2ae:	90 93 a6 00 	sts	0x00A6, r25
     2b2:	80 93 a5 00 	sts	0x00A5, r24
     2b6:	8a 81       	ldd	r24, Y+2	; 0x02
     2b8:	82 95       	swap	r24
     2ba:	81 70       	andi	r24, 0x01	; 1
     2bc:	a8 d4       	rcall	.+2384   	; 0xc0e <DisableDistanceCntr>
     2be:	b8 01       	movw	r22, r16
     2c0:	80 e0       	ldi	r24, 0x00	; 0
     2c2:	90 e0       	ldi	r25, 0x00	; 0
     2c4:	40 e0       	ldi	r20, 0x00	; 0
     2c6:	21 e0       	ldi	r18, 0x01	; 1
     2c8:	01 e0       	ldi	r16, 0x01	; 1
     2ca:	a7 d1       	rcall	.+846    	; 0x61a <BCDsendNumber>
     2cc:	29 81       	ldd	r18, Y+1	; 0x01
     2ce:	82 2f       	mov	r24, r18
     2d0:	87 70       	andi	r24, 0x07	; 7
     2d2:	90 e0       	ldi	r25, 0x00	; 0
     2d4:	82 30       	cpi	r24, 0x02	; 2
     2d6:	91 05       	cpc	r25, r1
     2d8:	71 f1       	breq	.+92     	; 0x336 <APP_MANAGE+0x102>
     2da:	83 30       	cpi	r24, 0x03	; 3
     2dc:	91 05       	cpc	r25, r1
     2de:	3c f4       	brge	.+14     	; 0x2ee <APP_MANAGE+0xba>
     2e0:	00 97       	sbiw	r24, 0x00	; 0
     2e2:	69 f0       	breq	.+26     	; 0x2fe <APP_MANAGE+0xca>
     2e4:	81 30       	cpi	r24, 0x01	; 1
     2e6:	91 05       	cpc	r25, r1
     2e8:	09 f0       	breq	.+2      	; 0x2ec <APP_MANAGE+0xb8>
     2ea:	7c c0       	rjmp	.+248    	; 0x3e4 <APP_MANAGE+0x1b0>
     2ec:	11 c0       	rjmp	.+34     	; 0x310 <APP_MANAGE+0xdc>
     2ee:	83 30       	cpi	r24, 0x03	; 3
     2f0:	91 05       	cpc	r25, r1
     2f2:	39 f1       	breq	.+78     	; 0x342 <APP_MANAGE+0x10e>
     2f4:	84 30       	cpi	r24, 0x04	; 4
     2f6:	91 05       	cpc	r25, r1
     2f8:	09 f0       	breq	.+2      	; 0x2fc <APP_MANAGE+0xc8>
     2fa:	74 c0       	rjmp	.+232    	; 0x3e4 <APP_MANAGE+0x1b0>
     2fc:	27 c0       	rjmp	.+78     	; 0x34c <APP_MANAGE+0x118>
     2fe:	60 91 9d 00 	lds	r22, 0x009D
     302:	70 91 9e 00 	lds	r23, 0x009E
     306:	80 91 9f 00 	lds	r24, 0x009F
     30a:	90 91 a0 00 	lds	r25, 0x00A0
     30e:	16 c0       	rjmp	.+44     	; 0x33c <APP_MANAGE+0x108>
     310:	26 ff       	sbrs	r18, 6
     312:	04 c0       	rjmp	.+8      	; 0x31c <APP_MANAGE+0xe8>
     314:	60 e0       	ldi	r22, 0x00	; 0
     316:	70 e0       	ldi	r23, 0x00	; 0
     318:	cb 01       	movw	r24, r22
     31a:	9e d0       	rcall	.+316    	; 0x458 <APP_CALC_TIMEsetTravelTime>
     31c:	60 91 a1 00 	lds	r22, 0x00A1
     320:	70 91 a2 00 	lds	r23, 0x00A2
     324:	80 91 a3 00 	lds	r24, 0x00A3
     328:	90 91 a4 00 	lds	r25, 0x00A4
     32c:	41 e0       	ldi	r20, 0x01	; 1
     32e:	20 e0       	ldi	r18, 0x00	; 0
     330:	01 e0       	ldi	r16, 0x01	; 1
     332:	73 d1       	rcall	.+742    	; 0x61a <BCDsendNumber>
     334:	59 c0       	rjmp	.+178    	; 0x3e8 <APP_MANAGE+0x1b4>
     336:	b7 01       	movw	r22, r14
     338:	80 e0       	ldi	r24, 0x00	; 0
     33a:	90 e0       	ldi	r25, 0x00	; 0
     33c:	41 e0       	ldi	r20, 0x01	; 1
     33e:	21 e0       	ldi	r18, 0x01	; 1
     340:	f7 cf       	rjmp	.-18     	; 0x330 <APP_MANAGE+0xfc>
     342:	60 91 a5 00 	lds	r22, 0x00A5
     346:	70 91 a6 00 	lds	r23, 0x00A6
     34a:	f6 cf       	rjmp	.-20     	; 0x338 <APP_MANAGE+0x104>
     34c:	8a 81       	ldd	r24, Y+2	; 0x02
     34e:	83 ff       	sbrs	r24, 3
     350:	34 c0       	rjmp	.+104    	; 0x3ba <APP_MANAGE+0x186>
     352:	26 ff       	sbrs	r18, 6
     354:	09 c0       	rjmp	.+18     	; 0x368 <APP_MANAGE+0x134>
     356:	80 91 9a 00 	lds	r24, 0x009A
     35a:	83 30       	cpi	r24, 0x03	; 3
     35c:	19 f4       	brne	.+6      	; 0x364 <APP_MANAGE+0x130>
     35e:	10 92 9a 00 	sts	0x009A, r1
     362:	26 c0       	rjmp	.+76     	; 0x3b0 <APP_MANAGE+0x17c>
     364:	8f 5f       	subi	r24, 0xFF	; 255
     366:	09 c0       	rjmp	.+18     	; 0x37a <APP_MANAGE+0x146>
     368:	27 ff       	sbrs	r18, 7
     36a:	0a c0       	rjmp	.+20     	; 0x380 <APP_MANAGE+0x14c>
     36c:	80 91 9a 00 	lds	r24, 0x009A
     370:	88 23       	and	r24, r24
     372:	11 f4       	brne	.+4      	; 0x378 <APP_MANAGE+0x144>
     374:	83 e0       	ldi	r24, 0x03	; 3
     376:	01 c0       	rjmp	.+2      	; 0x37a <APP_MANAGE+0x146>
     378:	81 50       	subi	r24, 0x01	; 1
     37a:	80 93 9a 00 	sts	0x009A, r24
     37e:	18 c0       	rjmp	.+48     	; 0x3b0 <APP_MANAGE+0x17c>
     380:	24 ff       	sbrs	r18, 4
     382:	08 c0       	rjmp	.+16     	; 0x394 <APP_MANAGE+0x160>
     384:	80 91 98 00 	lds	r24, 0x0098
     388:	90 91 99 00 	lds	r25, 0x0099
     38c:	60 91 9a 00 	lds	r22, 0x009A
     390:	40 e0       	ldi	r20, 0x00	; 0
     392:	09 c0       	rjmp	.+18     	; 0x3a6 <APP_MANAGE+0x172>
     394:	25 ff       	sbrs	r18, 5
     396:	0c c0       	rjmp	.+24     	; 0x3b0 <APP_MANAGE+0x17c>
     398:	80 91 98 00 	lds	r24, 0x0098
     39c:	90 91 99 00 	lds	r25, 0x0099
     3a0:	60 91 9a 00 	lds	r22, 0x009A
     3a4:	41 e0       	ldi	r20, 0x01	; 1
     3a6:	5b de       	rcall	.-842    	; 0x5e <IncrementDecrementSingleDigit>
     3a8:	90 93 99 00 	sts	0x0099, r25
     3ac:	80 93 98 00 	sts	0x0098, r24
     3b0:	80 91 9a 00 	lds	r24, 0x009A
     3b4:	61 e0       	ldi	r22, 0x01	; 1
     3b6:	44 e6       	ldi	r20, 0x64	; 100
     3b8:	04 c0       	rjmp	.+8      	; 0x3c2 <APP_MANAGE+0x18e>
     3ba:	80 91 9a 00 	lds	r24, 0x009A
     3be:	61 e0       	ldi	r22, 0x01	; 1
     3c0:	40 e0       	ldi	r20, 0x00	; 0
     3c2:	25 d2       	rcall	.+1098   	; 0x80e <BlinkDigit>
     3c4:	60 91 98 00 	lds	r22, 0x0098
     3c8:	70 91 99 00 	lds	r23, 0x0099
     3cc:	80 e0       	ldi	r24, 0x00	; 0
     3ce:	90 e0       	ldi	r25, 0x00	; 0
     3d0:	41 e0       	ldi	r20, 0x01	; 1
     3d2:	20 e0       	ldi	r18, 0x00	; 0
     3d4:	00 e0       	ldi	r16, 0x00	; 0
     3d6:	21 d1       	rcall	.+578    	; 0x61a <BCDsendNumber>
     3d8:	80 91 98 00 	lds	r24, 0x0098
     3dc:	90 91 99 00 	lds	r25, 0x0099
     3e0:	31 d4       	rcall	.+2146   	; 0xc44 <SetCircumfirunce>
     3e2:	02 c0       	rjmp	.+4      	; 0x3e8 <APP_MANAGE+0x1b4>
     3e4:	1a 82       	std	Y+2, r1	; 0x02
     3e6:	19 82       	std	Y+1, r1	; 0x01
     3e8:	89 81       	ldd	r24, Y+1	; 0x01
     3ea:	9a 81       	ldd	r25, Y+2	; 0x02
     3ec:	90 93 9c 00 	sts	0x009C, r25
     3f0:	80 93 9b 00 	sts	0x009B, r24
     3f4:	89 81       	ldd	r24, Y+1	; 0x01
     3f6:	83 ff       	sbrs	r24, 3
     3f8:	0e c0       	rjmp	.+28     	; 0x416 <APP_MANAGE+0x1e2>
     3fa:	81 e0       	ldi	r24, 0x01	; 1
     3fc:	68 e9       	ldi	r22, 0x98	; 152
     3fe:	70 e0       	ldi	r23, 0x00	; 0
     400:	4f e0       	ldi	r20, 0x0F	; 15
     402:	20 e0       	ldi	r18, 0x00	; 0
     404:	30 e0       	ldi	r19, 0x00	; 0
     406:	60 d2       	rcall	.+1216   	; 0x8c8 <Eeprom_Write_Block>
     408:	81 30       	cpi	r24, 0x01	; 1
     40a:	29 f4       	brne	.+10     	; 0x416 <APP_MANAGE+0x1e2>
     40c:	80 91 9b 00 	lds	r24, 0x009B
     410:	87 7f       	andi	r24, 0xF7	; 247
     412:	80 93 9b 00 	sts	0x009B, r24
     416:	0f 90       	pop	r0
     418:	0f 90       	pop	r0
     41a:	df 91       	pop	r29
     41c:	cf 91       	pop	r28
     41e:	1f 91       	pop	r17
     420:	0f 91       	pop	r16
     422:	ff 90       	pop	r15
     424:	ef 90       	pop	r14
     426:	08 95       	ret

00000428 <APP_CALC_AVGSPDmanage>:
     428:	81 ee       	ldi	r24, 0xE1	; 225
     42a:	90 e1       	ldi	r25, 0x10	; 16
     42c:	08 95       	ret

0000042e <APP_CALC_MAXSPDmanage_Set>:
     42e:	90 93 a8 00 	sts	0x00A8, r25
     432:	80 93 a7 00 	sts	0x00A7, r24
     436:	08 95       	ret

00000438 <APP_CALC_MAXSPDmanage>:
     438:	20 91 a7 00 	lds	r18, 0x00A7
     43c:	30 91 a8 00 	lds	r19, 0x00A8
     440:	28 17       	cp	r18, r24
     442:	39 07       	cpc	r19, r25
     444:	20 f4       	brcc	.+8      	; 0x44e <APP_CALC_MAXSPDmanage+0x16>
     446:	90 93 a8 00 	sts	0x00A8, r25
     44a:	80 93 a7 00 	sts	0x00A7, r24
     44e:	80 91 a7 00 	lds	r24, 0x00A7
     452:	90 91 a8 00 	lds	r25, 0x00A8
     456:	08 95       	ret

00000458 <APP_CALC_TIMEsetTravelTime>:
     458:	dc 01       	movw	r26, r24
     45a:	cb 01       	movw	r24, r22
     45c:	80 93 a9 00 	sts	0x00A9, r24
     460:	90 93 aa 00 	sts	0x00AA, r25
     464:	a0 93 ab 00 	sts	0x00AB, r26
     468:	b0 93 ac 00 	sts	0x00AC, r27
     46c:	10 92 ae 00 	sts	0x00AE, r1
     470:	10 92 ad 00 	sts	0x00AD, r1
     474:	08 95       	ret

00000476 <APP_CALC_TIMEmanage>:
     476:	fc 01       	movw	r30, r24
     478:	21 81       	ldd	r18, Z+1	; 0x01
     47a:	20 ff       	sbrs	r18, 0
     47c:	0d c0       	rjmp	.+26     	; 0x498 <APP_CALC_TIMEmanage+0x22>
     47e:	10 92 ae 00 	sts	0x00AE, r1
     482:	10 92 ad 00 	sts	0x00AD, r1
     486:	10 92 a9 00 	sts	0x00A9, r1
     48a:	10 92 aa 00 	sts	0x00AA, r1
     48e:	10 92 ab 00 	sts	0x00AB, r1
     492:	10 92 ac 00 	sts	0x00AC, r1
     496:	2b c0       	rjmp	.+86     	; 0x4ee <APP_CALC_TIMEmanage+0x78>
     498:	80 91 ad 00 	lds	r24, 0x00AD
     49c:	90 91 ae 00 	lds	r25, 0x00AE
     4a0:	34 e0       	ldi	r19, 0x04	; 4
     4a2:	80 3b       	cpi	r24, 0xB0	; 176
     4a4:	93 07       	cpc	r25, r19
     4a6:	e0 f0       	brcs	.+56     	; 0x4e0 <APP_CALC_TIMEmanage+0x6a>
     4a8:	10 92 ae 00 	sts	0x00AE, r1
     4ac:	10 92 ad 00 	sts	0x00AD, r1
     4b0:	40 91 a9 00 	lds	r20, 0x00A9
     4b4:	50 91 aa 00 	lds	r21, 0x00AA
     4b8:	60 91 ab 00 	lds	r22, 0x00AB
     4bc:	70 91 ac 00 	lds	r23, 0x00AC
     4c0:	4f 5f       	subi	r20, 0xFF	; 255
     4c2:	5f 4f       	sbci	r21, 0xFF	; 255
     4c4:	6f 4f       	sbci	r22, 0xFF	; 255
     4c6:	7f 4f       	sbci	r23, 0xFF	; 255
     4c8:	40 93 a9 00 	sts	0x00A9, r20
     4cc:	50 93 aa 00 	sts	0x00AA, r21
     4d0:	60 93 ab 00 	sts	0x00AB, r22
     4d4:	70 93 ac 00 	sts	0x00AC, r23
     4d8:	80 81       	ld	r24, Z
     4da:	88 60       	ori	r24, 0x08	; 8
     4dc:	80 83       	st	Z, r24
     4de:	07 c0       	rjmp	.+14     	; 0x4ee <APP_CALC_TIMEmanage+0x78>
     4e0:	24 fd       	sbrc	r18, 4
     4e2:	05 c0       	rjmp	.+10     	; 0x4ee <APP_CALC_TIMEmanage+0x78>
     4e4:	01 96       	adiw	r24, 0x01	; 1
     4e6:	90 93 ae 00 	sts	0x00AE, r25
     4ea:	80 93 ad 00 	sts	0x00AD, r24
     4ee:	60 91 a9 00 	lds	r22, 0x00A9
     4f2:	70 91 aa 00 	lds	r23, 0x00AA
     4f6:	80 91 ab 00 	lds	r24, 0x00AB
     4fa:	90 91 ac 00 	lds	r25, 0x00AC
     4fe:	08 95       	ret

00000500 <APP_HMImanage>:
     500:	1f 93       	push	r17
     502:	cf 93       	push	r28
     504:	df 93       	push	r29
     506:	ec 01       	movw	r28, r24
     508:	80 e0       	ldi	r24, 0x00	; 0
     50a:	57 d2       	rcall	.+1198   	; 0x9ba <GetKeyStatus>
     50c:	18 2f       	mov	r17, r24
     50e:	81 e0       	ldi	r24, 0x01	; 1
     510:	54 d2       	rcall	.+1192   	; 0x9ba <GetKeyStatus>
     512:	90 91 af 00 	lds	r25, 0x00AF
     516:	91 30       	cpi	r25, 0x01	; 1
     518:	d9 f1       	breq	.+118    	; 0x590 <APP_HMImanage+0x90>
     51a:	91 30       	cpi	r25, 0x01	; 1
     51c:	38 f0       	brcs	.+14     	; 0x52c <APP_HMImanage+0x2c>
     51e:	92 30       	cpi	r25, 0x02	; 2
     520:	09 f4       	brne	.+2      	; 0x524 <APP_HMImanage+0x24>
     522:	5a c0       	rjmp	.+180    	; 0x5d8 <APP_HMImanage+0xd8>
     524:	93 30       	cpi	r25, 0x03	; 3
     526:	09 f0       	breq	.+2      	; 0x52a <APP_HMImanage+0x2a>
     528:	64 c0       	rjmp	.+200    	; 0x5f2 <APP_HMImanage+0xf2>
     52a:	5b c0       	rjmp	.+182    	; 0x5e2 <APP_HMImanage+0xe2>
     52c:	11 30       	cpi	r17, 0x01	; 1
     52e:	21 f4       	brne	.+8      	; 0x538 <APP_HMImanage+0x38>
     530:	81 30       	cpi	r24, 0x01	; 1
     532:	71 f4       	brne	.+28     	; 0x550 <APP_HMImanage+0x50>
     534:	83 e0       	ldi	r24, 0x03	; 3
     536:	5a c0       	rjmp	.+180    	; 0x5ec <APP_HMImanage+0xec>
     538:	10 34       	cpi	r17, 0x40	; 64
     53a:	51 f4       	brne	.+20     	; 0x550 <APP_HMImanage+0x50>
     53c:	98 81       	ld	r25, Y
     53e:	89 2f       	mov	r24, r25
     540:	87 70       	andi	r24, 0x07	; 7
     542:	98 7f       	andi	r25, 0xF8	; 248
     544:	88 23       	and	r24, r24
     546:	11 f4       	brne	.+4      	; 0x54c <APP_HMImanage+0x4c>
     548:	94 60       	ori	r25, 0x04	; 4
     54a:	0a c0       	rjmp	.+20     	; 0x560 <APP_HMImanage+0x60>
     54c:	81 50       	subi	r24, 0x01	; 1
     54e:	0b c0       	rjmp	.+22     	; 0x566 <APP_HMImanage+0x66>
     550:	80 34       	cpi	r24, 0x40	; 64
     552:	69 f4       	brne	.+26     	; 0x56e <APP_HMImanage+0x6e>
     554:	98 81       	ld	r25, Y
     556:	89 2f       	mov	r24, r25
     558:	87 70       	andi	r24, 0x07	; 7
     55a:	98 7f       	andi	r25, 0xF8	; 248
     55c:	84 30       	cpi	r24, 0x04	; 4
     55e:	11 f4       	brne	.+4      	; 0x564 <APP_HMImanage+0x64>
     560:	98 83       	st	Y, r25
     562:	49 c0       	rjmp	.+146    	; 0x5f6 <APP_HMImanage+0xf6>
     564:	8f 5f       	subi	r24, 0xFF	; 255
     566:	87 70       	andi	r24, 0x07	; 7
     568:	89 2b       	or	r24, r25
     56a:	88 83       	st	Y, r24
     56c:	44 c0       	rjmp	.+136    	; 0x5f6 <APP_HMImanage+0xf6>
     56e:	99 81       	ldd	r25, Y+1	; 0x01
     570:	12 38       	cpi	r17, 0x82	; 130
     572:	29 f4       	brne	.+10     	; 0x57e <APP_HMImanage+0x7e>
     574:	89 2f       	mov	r24, r25
     576:	80 95       	com	r24
     578:	84 70       	andi	r24, 0x04	; 4
     57a:	9b 7f       	andi	r25, 0xFB	; 251
     57c:	06 c0       	rjmp	.+12     	; 0x58a <APP_HMImanage+0x8a>
     57e:	82 38       	cpi	r24, 0x82	; 130
     580:	d1 f5       	brne	.+116    	; 0x5f6 <APP_HMImanage+0xf6>
     582:	89 2f       	mov	r24, r25
     584:	80 95       	com	r24
     586:	80 71       	andi	r24, 0x10	; 16
     588:	9f 7e       	andi	r25, 0xEF	; 239
     58a:	98 2b       	or	r25, r24
     58c:	99 83       	std	Y+1, r25	; 0x01
     58e:	33 c0       	rjmp	.+102    	; 0x5f6 <APP_HMImanage+0xf6>
     590:	98 81       	ld	r25, Y
     592:	97 70       	andi	r25, 0x07	; 7
     594:	19 82       	std	Y+1, r1	; 0x01
     596:	18 82       	st	Y, r1
     598:	11 30       	cpi	r17, 0x01	; 1
     59a:	41 f4       	brne	.+16     	; 0x5ac <APP_HMImanage+0xac>
     59c:	81 30       	cpi	r24, 0x01	; 1
     59e:	61 f4       	brne	.+24     	; 0x5b8 <APP_HMImanage+0xb8>
     5a0:	82 e0       	ldi	r24, 0x02	; 2
     5a2:	80 93 af 00 	sts	0x00AF, r24
     5a6:	88 81       	ld	r24, Y
     5a8:	88 60       	ori	r24, 0x08	; 8
     5aa:	04 c0       	rjmp	.+8      	; 0x5b4 <APP_HMImanage+0xb4>
     5ac:	10 34       	cpi	r17, 0x40	; 64
     5ae:	21 f4       	brne	.+8      	; 0x5b8 <APP_HMImanage+0xb8>
     5b0:	88 81       	ld	r24, Y
     5b2:	80 62       	ori	r24, 0x20	; 32
     5b4:	88 83       	st	Y, r24
     5b6:	0d c0       	rjmp	.+26     	; 0x5d2 <APP_HMImanage+0xd2>
     5b8:	28 81       	ld	r18, Y
     5ba:	80 34       	cpi	r24, 0x40	; 64
     5bc:	11 f4       	brne	.+4      	; 0x5c2 <APP_HMImanage+0xc2>
     5be:	20 61       	ori	r18, 0x10	; 16
     5c0:	07 c0       	rjmp	.+14     	; 0x5d0 <APP_HMImanage+0xd0>
     5c2:	12 38       	cpi	r17, 0x82	; 130
     5c4:	11 f4       	brne	.+4      	; 0x5ca <APP_HMImanage+0xca>
     5c6:	20 68       	ori	r18, 0x80	; 128
     5c8:	03 c0       	rjmp	.+6      	; 0x5d0 <APP_HMImanage+0xd0>
     5ca:	82 38       	cpi	r24, 0x82	; 130
     5cc:	11 f4       	brne	.+4      	; 0x5d2 <APP_HMImanage+0xd2>
     5ce:	20 64       	ori	r18, 0x40	; 64
     5d0:	28 83       	st	Y, r18
     5d2:	88 81       	ld	r24, Y
     5d4:	88 7f       	andi	r24, 0xF8	; 248
     5d6:	c8 cf       	rjmp	.-112    	; 0x568 <APP_HMImanage+0x68>
     5d8:	11 23       	and	r17, r17
     5da:	69 f4       	brne	.+26     	; 0x5f6 <APP_HMImanage+0xf6>
     5dc:	88 23       	and	r24, r24
     5de:	59 f4       	brne	.+22     	; 0x5f6 <APP_HMImanage+0xf6>
     5e0:	08 c0       	rjmp	.+16     	; 0x5f2 <APP_HMImanage+0xf2>
     5e2:	11 23       	and	r17, r17
     5e4:	41 f4       	brne	.+16     	; 0x5f6 <APP_HMImanage+0xf6>
     5e6:	88 23       	and	r24, r24
     5e8:	31 f4       	brne	.+12     	; 0x5f6 <APP_HMImanage+0xf6>
     5ea:	81 e0       	ldi	r24, 0x01	; 1
     5ec:	80 93 af 00 	sts	0x00AF, r24
     5f0:	02 c0       	rjmp	.+4      	; 0x5f6 <APP_HMImanage+0xf6>
     5f2:	10 92 af 00 	sts	0x00AF, r1
     5f6:	90 91 af 00 	lds	r25, 0x00AF
     5fa:	91 70       	andi	r25, 0x01	; 1
     5fc:	99 0f       	add	r25, r25
     5fe:	99 0f       	add	r25, r25
     600:	99 0f       	add	r25, r25
     602:	89 81       	ldd	r24, Y+1	; 0x01
     604:	87 7f       	andi	r24, 0xF7	; 247
     606:	89 2b       	or	r24, r25
     608:	89 83       	std	Y+1, r24	; 0x01
     60a:	df 91       	pop	r29
     60c:	cf 91       	pop	r28
     60e:	1f 91       	pop	r17
     610:	08 95       	ret

00000612 <APP_SLEEPmanage>:
     612:	08 95       	ret

00000614 <BCDInitialize>:
     614:	80 93 b0 00 	sts	0x00B0, r24
     618:	08 95       	ret

0000061a <BCDsendNumber>:
     61a:	2f 92       	push	r2
     61c:	3f 92       	push	r3
     61e:	4f 92       	push	r4
     620:	5f 92       	push	r5
     622:	7f 92       	push	r7
     624:	8f 92       	push	r8
     626:	9f 92       	push	r9
     628:	af 92       	push	r10
     62a:	bf 92       	push	r11
     62c:	cf 92       	push	r12
     62e:	df 92       	push	r13
     630:	ef 92       	push	r14
     632:	ff 92       	push	r15
     634:	0f 93       	push	r16
     636:	1f 93       	push	r17
     638:	cf 93       	push	r28
     63a:	df 93       	push	r29
     63c:	00 d0       	rcall	.+0      	; 0x63e <BCDsendNumber+0x24>
     63e:	00 d0       	rcall	.+0      	; 0x640 <BCDsendNumber+0x26>
     640:	cd b7       	in	r28, 0x3d	; 61
     642:	de b7       	in	r29, 0x3e	; 62
     644:	12 2f       	mov	r17, r18
     646:	70 2e       	mov	r7, r16
     648:	24 2f       	mov	r18, r20
     64a:	30 e0       	ldi	r19, 0x00	; 0
     64c:	3a 83       	std	Y+2, r19	; 0x02
     64e:	29 83       	std	Y+1, r18	; 0x01
     650:	43 e0       	ldi	r20, 0x03	; 3
     652:	22 0f       	add	r18, r18
     654:	33 1f       	adc	r19, r19
     656:	4a 95       	dec	r20
     658:	e1 f7       	brne	.-8      	; 0x652 <BCDsendNumber+0x38>
     65a:	2f 54       	subi	r18, 0x4F	; 79
     65c:	3f 4f       	sbci	r19, 0xFF	; 255
     65e:	6b 01       	movw	r12, r22
     660:	7c 01       	movw	r14, r24
     662:	88 24       	eor	r8, r8
     664:	5a e0       	ldi	r21, 0x0A	; 10
     666:	25 2e       	mov	r2, r21
     668:	31 2c       	mov	r3, r1
     66a:	41 2c       	mov	r4, r1
     66c:	51 2c       	mov	r5, r1
     66e:	3c 83       	std	Y+4, r19	; 0x04
     670:	2b 83       	std	Y+3, r18	; 0x03
     672:	91 2e       	mov	r9, r17
     674:	c1 14       	cp	r12, r1
     676:	d1 04       	cpc	r13, r1
     678:	e1 04       	cpc	r14, r1
     67a:	f1 04       	cpc	r15, r1
     67c:	11 f4       	brne	.+4      	; 0x682 <BCDsendNumber+0x68>
     67e:	98 14       	cp	r9, r8
     680:	38 f1       	brcs	.+78     	; 0x6d0 <BCDsendNumber+0xb6>
     682:	c7 01       	movw	r24, r14
     684:	b6 01       	movw	r22, r12
     686:	a2 01       	movw	r20, r4
     688:	91 01       	movw	r18, r2
     68a:	fc d4       	rcall	.+2552   	; 0x1084 <__udivmodsi4>
     68c:	12 2f       	mov	r17, r18
     68e:	03 2f       	mov	r16, r19
     690:	b4 2e       	mov	r11, r20
     692:	a5 2e       	mov	r10, r21
     694:	62 2f       	mov	r22, r18
     696:	73 2f       	mov	r23, r19
     698:	84 2f       	mov	r24, r20
     69a:	95 2f       	mov	r25, r21
     69c:	2a e0       	ldi	r18, 0x0A	; 10
     69e:	30 e0       	ldi	r19, 0x00	; 0
     6a0:	40 e0       	ldi	r20, 0x00	; 0
     6a2:	50 e0       	ldi	r21, 0x00	; 0
     6a4:	bc d4       	rcall	.+2424   	; 0x101e <__mulsi3>
     6a6:	dc 01       	movw	r26, r24
     6a8:	cb 01       	movw	r24, r22
     6aa:	c8 1a       	sub	r12, r24
     6ac:	d9 0a       	sbc	r13, r25
     6ae:	ea 0a       	sbc	r14, r26
     6b0:	fb 0a       	sbc	r15, r27
     6b2:	f6 01       	movw	r30, r12
     6b4:	e0 5a       	subi	r30, 0xA0	; 160
     6b6:	ff 4f       	sbci	r31, 0xFF	; 255
     6b8:	80 81       	ld	r24, Z
     6ba:	ab 81       	ldd	r26, Y+3	; 0x03
     6bc:	bc 81       	ldd	r27, Y+4	; 0x04
     6be:	8c 93       	st	X, r24
     6c0:	11 96       	adiw	r26, 0x01	; 1
     6c2:	1c 92       	st	X, r1
     6c4:	11 97       	sbiw	r26, 0x01	; 1
     6c6:	c1 2e       	mov	r12, r17
     6c8:	d0 2e       	mov	r13, r16
     6ca:	eb 2c       	mov	r14, r11
     6cc:	fa 2c       	mov	r15, r10
     6ce:	0e c0       	rjmp	.+28     	; 0x6ec <BCDsendNumber+0xd2>
     6d0:	77 20       	and	r7, r7
     6d2:	39 f4       	brne	.+14     	; 0x6e2 <BCDsendNumber+0xc8>
     6d4:	2c ef       	ldi	r18, 0xFC	; 252
     6d6:	30 e0       	ldi	r19, 0x00	; 0
     6d8:	eb 81       	ldd	r30, Y+3	; 0x03
     6da:	fc 81       	ldd	r31, Y+4	; 0x04
     6dc:	31 83       	std	Z+1, r19	; 0x01
     6de:	20 83       	st	Z, r18
     6e0:	05 c0       	rjmp	.+10     	; 0x6ec <BCDsendNumber+0xd2>
     6e2:	ab 81       	ldd	r26, Y+3	; 0x03
     6e4:	bc 81       	ldd	r27, Y+4	; 0x04
     6e6:	11 96       	adiw	r26, 0x01	; 1
     6e8:	1c 92       	st	X, r1
     6ea:	1e 92       	st	-X, r1
     6ec:	83 94       	inc	r8
     6ee:	eb 81       	ldd	r30, Y+3	; 0x03
     6f0:	fc 81       	ldd	r31, Y+4	; 0x04
     6f2:	32 96       	adiw	r30, 0x02	; 2
     6f4:	fc 83       	std	Y+4, r31	; 0x04
     6f6:	eb 83       	std	Y+3, r30	; 0x03
     6f8:	f4 e0       	ldi	r31, 0x04	; 4
     6fa:	8f 16       	cp	r8, r31
     6fc:	09 f0       	breq	.+2      	; 0x700 <BCDsendNumber+0xe6>
     6fe:	ba cf       	rjmp	.-140    	; 0x674 <BCDsendNumber+0x5a>
     700:	99 20       	and	r9, r9
     702:	89 f0       	breq	.+34     	; 0x726 <BCDsendNumber+0x10c>
     704:	e9 81       	ldd	r30, Y+1	; 0x01
     706:	fa 81       	ldd	r31, Y+2	; 0x02
     708:	ee 0f       	add	r30, r30
     70a:	ff 1f       	adc	r31, r31
     70c:	ee 0f       	add	r30, r30
     70e:	ff 1f       	adc	r31, r31
     710:	e9 0d       	add	r30, r9
     712:	f1 1d       	adc	r31, r1
     714:	ee 0f       	add	r30, r30
     716:	ff 1f       	adc	r31, r31
     718:	ef 54       	subi	r30, 0x4F	; 79
     71a:	ff 4f       	sbci	r31, 0xFF	; 255
     71c:	80 81       	ld	r24, Z
     71e:	91 81       	ldd	r25, Z+1	; 0x01
     720:	81 60       	ori	r24, 0x01	; 1
     722:	91 83       	std	Z+1, r25	; 0x01
     724:	80 83       	st	Z, r24
     726:	0f 90       	pop	r0
     728:	0f 90       	pop	r0
     72a:	0f 90       	pop	r0
     72c:	0f 90       	pop	r0
     72e:	df 91       	pop	r29
     730:	cf 91       	pop	r28
     732:	1f 91       	pop	r17
     734:	0f 91       	pop	r16
     736:	ff 90       	pop	r15
     738:	ef 90       	pop	r14
     73a:	df 90       	pop	r13
     73c:	cf 90       	pop	r12
     73e:	bf 90       	pop	r11
     740:	af 90       	pop	r10
     742:	9f 90       	pop	r9
     744:	8f 90       	pop	r8
     746:	7f 90       	pop	r7
     748:	5f 90       	pop	r5
     74a:	4f 90       	pop	r4
     74c:	3f 90       	pop	r3
     74e:	2f 90       	pop	r2
     750:	08 95       	ret

00000752 <BCDManage7segment>:
     752:	cf 93       	push	r28
     754:	90 91 c1 00 	lds	r25, 0x00C1
     758:	99 23       	and	r25, r25
     75a:	81 f0       	breq	.+32     	; 0x77c <BCDManage7segment+0x2a>
     75c:	80 91 c2 00 	lds	r24, 0x00C2
     760:	8f 5f       	subi	r24, 0xFF	; 255
     762:	80 93 c2 00 	sts	0x00C2, r24
     766:	89 17       	cp	r24, r25
     768:	59 f4       	brne	.+22     	; 0x780 <BCDManage7segment+0x2e>
     76a:	80 91 c3 00 	lds	r24, 0x00C3
     76e:	91 e0       	ldi	r25, 0x01	; 1
     770:	89 27       	eor	r24, r25
     772:	80 93 c3 00 	sts	0x00C3, r24
     776:	10 92 c2 00 	sts	0x00C2, r1
     77a:	02 c0       	rjmp	.+4      	; 0x780 <BCDManage7segment+0x2e>
     77c:	10 92 c3 00 	sts	0x00C3, r1
     780:	80 91 c3 00 	lds	r24, 0x00C3
     784:	81 30       	cpi	r24, 0x01	; 1
     786:	61 f4       	brne	.+24     	; 0x7a0 <BCDManage7segment+0x4e>
     788:	90 91 c4 00 	lds	r25, 0x00C4
     78c:	80 91 c5 00 	lds	r24, 0x00C5
     790:	98 17       	cp	r25, r24
     792:	31 f4       	brne	.+12     	; 0x7a0 <BCDManage7segment+0x4e>
     794:	90 91 c6 00 	lds	r25, 0x00C6
     798:	80 91 c7 00 	lds	r24, 0x00C7
     79c:	98 17       	cp	r25, r24
     79e:	89 f0       	breq	.+34     	; 0x7c2 <BCDManage7segment+0x70>
     7a0:	80 91 c4 00 	lds	r24, 0x00C4
     7a4:	e0 91 c7 00 	lds	r30, 0x00C7
     7a8:	f0 e0       	ldi	r31, 0x00	; 0
     7aa:	ee 0f       	add	r30, r30
     7ac:	ff 1f       	adc	r31, r31
     7ae:	ee 0f       	add	r30, r30
     7b0:	ff 1f       	adc	r31, r31
     7b2:	e8 0f       	add	r30, r24
     7b4:	f1 1d       	adc	r31, r1
     7b6:	ee 0f       	add	r30, r30
     7b8:	ff 1f       	adc	r31, r31
     7ba:	ef 54       	subi	r30, 0x4F	; 79
     7bc:	ff 4f       	sbci	r31, 0xFF	; 255
     7be:	c0 81       	ld	r28, Z
     7c0:	01 c0       	rjmp	.+2      	; 0x7c4 <BCDManage7segment+0x72>
     7c2:	c0 e0       	ldi	r28, 0x00	; 0
     7c4:	80 91 b0 00 	lds	r24, 0x00B0
     7c8:	81 30       	cpi	r24, 0x01	; 1
     7ca:	09 f4       	brne	.+2      	; 0x7ce <BCDManage7segment+0x7c>
     7cc:	c0 95       	com	r28
     7ce:	60 91 c7 00 	lds	r22, 0x00C7
     7d2:	66 0f       	add	r22, r22
     7d4:	66 0f       	add	r22, r22
     7d6:	80 91 c4 00 	lds	r24, 0x00C4
     7da:	68 0f       	add	r22, r24
     7dc:	80 e0       	ldi	r24, 0x00	; 0
     7de:	0c d3       	rcall	.+1560   	; 0xdf8 <HWI_4Digit_WRITE>
     7e0:	81 e0       	ldi	r24, 0x01	; 1
     7e2:	6c 2f       	mov	r22, r28
     7e4:	22 d3       	rcall	.+1604   	; 0xe2a <HWI_8Digit_WRITE>
     7e6:	80 91 c4 00 	lds	r24, 0x00C4
     7ea:	8f 5f       	subi	r24, 0xFF	; 255
     7ec:	80 93 c4 00 	sts	0x00C4, r24
     7f0:	84 30       	cpi	r24, 0x04	; 4
     7f2:	59 f4       	brne	.+22     	; 0x80a <BCDManage7segment+0xb8>
     7f4:	10 92 c4 00 	sts	0x00C4, r1
     7f8:	80 91 c7 00 	lds	r24, 0x00C7
     7fc:	8f 5f       	subi	r24, 0xFF	; 255
     7fe:	80 93 c7 00 	sts	0x00C7, r24
     802:	82 30       	cpi	r24, 0x02	; 2
     804:	11 f4       	brne	.+4      	; 0x80a <BCDManage7segment+0xb8>
     806:	10 92 c7 00 	sts	0x00C7, r1
     80a:	cf 91       	pop	r28
     80c:	08 95       	ret

0000080e <BlinkDigit>:
     80e:	80 93 c5 00 	sts	0x00C5, r24
     812:	40 93 c1 00 	sts	0x00C1, r20
     816:	60 93 c6 00 	sts	0x00C6, r22
     81a:	08 95       	ret

0000081c <Segment7SendString>:
     81c:	cf 93       	push	r28
     81e:	df 93       	push	r29
     820:	da 01       	movw	r26, r20
     822:	42 2f       	mov	r20, r18
     824:	50 e0       	ldi	r21, 0x00	; 0
     826:	48 0f       	add	r20, r24
     828:	51 1d       	adc	r21, r1
     82a:	45 30       	cpi	r20, 0x05	; 5
     82c:	51 05       	cpc	r21, r1
     82e:	cc f4       	brge	.+50     	; 0x862 <Segment7SendString+0x46>
     830:	70 e0       	ldi	r23, 0x00	; 0
     832:	66 0f       	add	r22, r22
     834:	77 1f       	adc	r23, r23
     836:	66 0f       	add	r22, r22
     838:	77 1f       	adc	r23, r23
     83a:	0e c0       	rjmp	.+28     	; 0x858 <Segment7SendString+0x3c>
     83c:	fb 01       	movw	r30, r22
     83e:	e2 0f       	add	r30, r18
     840:	f3 1f       	adc	r31, r19
     842:	ee 0f       	add	r30, r30
     844:	ff 1f       	adc	r31, r31
     846:	ef 54       	subi	r30, 0x4F	; 79
     848:	ff 4f       	sbci	r31, 0xFF	; 255
     84a:	2a 0f       	add	r18, r26
     84c:	3b 1f       	adc	r19, r27
     84e:	e9 01       	movw	r28, r18
     850:	98 81       	ld	r25, Y
     852:	90 83       	st	Z, r25
     854:	11 82       	std	Z+1, r1	; 0x01
     856:	8f 5f       	subi	r24, 0xFF	; 255
     858:	28 2f       	mov	r18, r24
     85a:	30 e0       	ldi	r19, 0x00	; 0
     85c:	24 17       	cp	r18, r20
     85e:	35 07       	cpc	r19, r21
     860:	6c f3       	brlt	.-38     	; 0x83c <Segment7SendString+0x20>
     862:	df 91       	pop	r29
     864:	cf 91       	pop	r28
     866:	08 95       	ret

00000868 <DisplaySendString>:
     868:	ef 92       	push	r14
     86a:	ff 92       	push	r15
     86c:	0f 93       	push	r16
     86e:	1f 93       	push	r17
     870:	cf 93       	push	r28
     872:	df 93       	push	r29
     874:	00 d0       	rcall	.+0      	; 0x876 <DisplaySendString+0xe>
     876:	00 d0       	rcall	.+0      	; 0x878 <DisplaySendString+0x10>
     878:	cd b7       	in	r28, 0x3d	; 61
     87a:	de b7       	in	r29, 0x3e	; 62
     87c:	de 01       	movw	r26, r28
     87e:	a2 0f       	add	r26, r18
     880:	b1 1d       	adc	r27, r1
     882:	7a 01       	movw	r14, r20
     884:	0e c0       	rjmp	.+28     	; 0x8a2 <DisplaySendString+0x3a>
     886:	f7 01       	movw	r30, r14
     888:	91 91       	ld	r25, Z+
     88a:	7f 01       	movw	r14, r30
     88c:	09 2f       	mov	r16, r25
     88e:	01 54       	subi	r16, 0x41	; 65
     890:	06 32       	cpi	r16, 0x26	; 38
     892:	28 f4       	brcc	.+10     	; 0x89e <DisplaySendString+0x36>
     894:	10 e0       	ldi	r17, 0x00	; 0
     896:	05 59       	subi	r16, 0x95	; 149
     898:	1f 4f       	sbci	r17, 0xFF	; 255
     89a:	f8 01       	movw	r30, r16
     89c:	90 81       	ld	r25, Z
     89e:	9c 93       	st	X, r25
     8a0:	11 97       	sbiw	r26, 0x01	; 1
     8a2:	9e 2d       	mov	r25, r14
     8a4:	94 1b       	sub	r25, r20
     8a6:	92 17       	cp	r25, r18
     8a8:	70 f3       	brcs	.-36     	; 0x886 <DisplaySendString+0x1e>
     8aa:	ae 01       	movw	r20, r28
     8ac:	4f 5f       	subi	r20, 0xFF	; 255
     8ae:	5f 4f       	sbci	r21, 0xFF	; 255
     8b0:	b5 df       	rcall	.-150    	; 0x81c <Segment7SendString>
     8b2:	0f 90       	pop	r0
     8b4:	0f 90       	pop	r0
     8b6:	0f 90       	pop	r0
     8b8:	0f 90       	pop	r0
     8ba:	df 91       	pop	r29
     8bc:	cf 91       	pop	r28
     8be:	1f 91       	pop	r17
     8c0:	0f 91       	pop	r16
     8c2:	ff 90       	pop	r15
     8c4:	ef 90       	pop	r14
     8c6:	08 95       	ret

000008c8 <Eeprom_Write_Block>:
     8c8:	90 91 c8 00 	lds	r25, 0x00C8
     8cc:	99 23       	and	r25, r25
     8ce:	c9 f4       	brne	.+50     	; 0x902 <Eeprom_Write_Block+0x3a>
     8d0:	43 33       	cpi	r20, 0x33	; 51
     8d2:	c8 f4       	brcc	.+50     	; 0x906 <Eeprom_Write_Block+0x3e>
     8d4:	91 e0       	ldi	r25, 0x01	; 1
     8d6:	90 93 c8 00 	sts	0x00C8, r25
     8da:	a9 ec       	ldi	r26, 0xC9	; 201
     8dc:	b0 e0       	ldi	r27, 0x00	; 0
     8de:	fb 01       	movw	r30, r22
     8e0:	02 c0       	rjmp	.+4      	; 0x8e6 <Eeprom_Write_Block+0x1e>
     8e2:	91 91       	ld	r25, Z+
     8e4:	9d 93       	st	X+, r25
     8e6:	9e 2f       	mov	r25, r30
     8e8:	96 1b       	sub	r25, r22
     8ea:	94 17       	cp	r25, r20
     8ec:	d0 f3       	brcs	.-12     	; 0x8e2 <Eeprom_Write_Block+0x1a>
     8ee:	40 93 fb 00 	sts	0x00FB, r20
     8f2:	80 93 fc 00 	sts	0x00FC, r24
     8f6:	30 93 fe 00 	sts	0x00FE, r19
     8fa:	20 93 fd 00 	sts	0x00FD, r18
     8fe:	81 e0       	ldi	r24, 0x01	; 1
     900:	08 95       	ret
     902:	80 e0       	ldi	r24, 0x00	; 0
     904:	08 95       	ret
     906:	80 e0       	ldi	r24, 0x00	; 0
     908:	08 95       	ret

0000090a <Eeprom_Read_Block>:
     90a:	ef 92       	push	r14
     90c:	ff 92       	push	r15
     90e:	0f 93       	push	r16
     910:	1f 93       	push	r17
     912:	cf 93       	push	r28
     914:	df 93       	push	r29
     916:	0f 92       	push	r0
     918:	cd b7       	in	r28, 0x3d	; 61
     91a:	de b7       	in	r29, 0x3e	; 62
     91c:	18 2f       	mov	r17, r24
     91e:	7b 01       	movw	r14, r22
     920:	80 91 c8 00 	lds	r24, 0x00C8
     924:	88 23       	and	r24, r24
     926:	71 f0       	breq	.+28     	; 0x944 <Eeprom_Read_Block+0x3a>
     928:	80 e0       	ldi	r24, 0x00	; 0
     92a:	10 c0       	rjmp	.+32     	; 0x94c <Eeprom_Read_Block+0x42>
     92c:	b7 01       	movw	r22, r14
     92e:	60 0f       	add	r22, r16
     930:	71 1d       	adc	r23, r1
     932:	80 2f       	mov	r24, r16
     934:	81 0f       	add	r24, r17
     936:	49 83       	std	Y+1, r20	; 0x01
     938:	3a d2       	rcall	.+1140   	; 0xdae <HWIeeprom_Read>
     93a:	49 81       	ldd	r20, Y+1	; 0x01
     93c:	81 30       	cpi	r24, 0x01	; 1
     93e:	19 f4       	brne	.+6      	; 0x946 <Eeprom_Read_Block+0x3c>
     940:	0f 5f       	subi	r16, 0xFF	; 255
     942:	01 c0       	rjmp	.+2      	; 0x946 <Eeprom_Read_Block+0x3c>
     944:	00 e0       	ldi	r16, 0x00	; 0
     946:	04 17       	cp	r16, r20
     948:	88 f3       	brcs	.-30     	; 0x92c <Eeprom_Read_Block+0x22>
     94a:	81 e0       	ldi	r24, 0x01	; 1
     94c:	0f 90       	pop	r0
     94e:	df 91       	pop	r29
     950:	cf 91       	pop	r28
     952:	1f 91       	pop	r17
     954:	0f 91       	pop	r16
     956:	ff 90       	pop	r15
     958:	ef 90       	pop	r14
     95a:	08 95       	ret

0000095c <EepromManage>:
     95c:	80 91 c8 00 	lds	r24, 0x00C8
     960:	81 30       	cpi	r24, 0x01	; 1
     962:	11 f5       	brne	.+68     	; 0x9a8 <EepromManage+0x4c>
     964:	80 91 ff 00 	lds	r24, 0x00FF
     968:	90 91 fb 00 	lds	r25, 0x00FB
     96c:	89 17       	cp	r24, r25
     96e:	61 f4       	brne	.+24     	; 0x988 <EepromManage+0x2c>
     970:	10 92 ff 00 	sts	0x00FF, r1
     974:	10 92 c8 00 	sts	0x00C8, r1
     978:	e0 91 fd 00 	lds	r30, 0x00FD
     97c:	f0 91 fe 00 	lds	r31, 0x00FE
     980:	30 97       	sbiw	r30, 0x00	; 0
     982:	91 f0       	breq	.+36     	; 0x9a8 <EepromManage+0x4c>
     984:	09 95       	icall
     986:	08 95       	ret
     988:	90 91 fc 00 	lds	r25, 0x00FC
     98c:	e8 2f       	mov	r30, r24
     98e:	f0 e0       	ldi	r31, 0x00	; 0
     990:	e7 53       	subi	r30, 0x37	; 55
     992:	ff 4f       	sbci	r31, 0xFF	; 255
     994:	89 0f       	add	r24, r25
     996:	60 81       	ld	r22, Z
     998:	fe d1       	rcall	.+1020   	; 0xd96 <HWIeeprom_Write>
     99a:	81 30       	cpi	r24, 0x01	; 1
     99c:	29 f4       	brne	.+10     	; 0x9a8 <EepromManage+0x4c>
     99e:	80 91 ff 00 	lds	r24, 0x00FF
     9a2:	8f 5f       	subi	r24, 0xFF	; 255
     9a4:	80 93 ff 00 	sts	0x00FF, r24
     9a8:	08 95       	ret

000009aa <KeyInitialize>:
     9aa:	86 e0       	ldi	r24, 0x06	; 6
     9ac:	e0 e0       	ldi	r30, 0x00	; 0
     9ae:	f1 e0       	ldi	r31, 0x01	; 1
     9b0:	df 01       	movw	r26, r30
     9b2:	1d 92       	st	X+, r1
     9b4:	8a 95       	dec	r24
     9b6:	e9 f7       	brne	.-6      	; 0x9b2 <KeyInitialize+0x8>
     9b8:	08 95       	ret

000009ba <GetKeyStatus>:
     9ba:	90 e0       	ldi	r25, 0x00	; 0
     9bc:	fc 01       	movw	r30, r24
     9be:	ee 0f       	add	r30, r30
     9c0:	ff 1f       	adc	r31, r31
     9c2:	e8 0f       	add	r30, r24
     9c4:	f9 1f       	adc	r31, r25
     9c6:	e0 50       	subi	r30, 0x00	; 0
     9c8:	ff 4f       	sbci	r31, 0xFF	; 255
     9ca:	80 81       	ld	r24, Z
     9cc:	98 2f       	mov	r25, r24
     9ce:	9f 73       	andi	r25, 0x3F	; 63
     9d0:	90 83       	st	Z, r25
     9d2:	08 95       	ret

000009d4 <MangeKeys>:
     9d4:	ef 92       	push	r14
     9d6:	ff 92       	push	r15
     9d8:	0f 93       	push	r16
     9da:	1f 93       	push	r17
     9dc:	cf 93       	push	r28
     9de:	df 93       	push	r29
     9e0:	0f 92       	push	r0
     9e2:	cd b7       	in	r28, 0x3d	; 61
     9e4:	de b7       	in	r29, 0x3e	; 62
     9e6:	90 e0       	ldi	r25, 0x00	; 0
     9e8:	7c 01       	movw	r14, r24
     9ea:	ee 0c       	add	r14, r14
     9ec:	ff 1c       	adc	r15, r15
     9ee:	e8 0e       	add	r14, r24
     9f0:	f9 1e       	adc	r15, r25
     9f2:	20 e0       	ldi	r18, 0x00	; 0
     9f4:	31 e0       	ldi	r19, 0x01	; 1
     9f6:	e2 0e       	add	r14, r18
     9f8:	f3 1e       	adc	r15, r19
     9fa:	f7 01       	movw	r30, r14
     9fc:	20 81       	ld	r18, Z
     9fe:	2f 73       	andi	r18, 0x3F	; 63
     a00:	8c 01       	movw	r16, r24
     a02:	43 e0       	ldi	r20, 0x03	; 3
     a04:	00 0f       	add	r16, r16
     a06:	11 1f       	adc	r17, r17
     a08:	4a 95       	dec	r20
     a0a:	e1 f7       	brne	.-8      	; 0xa04 <MangeKeys+0x30>
     a0c:	0b 57       	subi	r16, 0x7B	; 123
     a0e:	1f 4f       	sbci	r17, 0xFF	; 255
     a10:	f8 01       	movw	r30, r16
     a12:	80 81       	ld	r24, Z
     a14:	29 83       	std	Y+1, r18	; 0x01
     a16:	de d1       	rcall	.+956    	; 0xdd4 <HWI_DIGI_READ>
     a18:	29 81       	ldd	r18, Y+1	; 0x01
     a1a:	21 30       	cpi	r18, 0x01	; 1
     a1c:	f9 f0       	breq	.+62     	; 0xa5c <MangeKeys+0x88>
     a1e:	21 30       	cpi	r18, 0x01	; 1
     a20:	20 f0       	brcs	.+8      	; 0xa2a <MangeKeys+0x56>
     a22:	22 30       	cpi	r18, 0x02	; 2
     a24:	09 f0       	breq	.+2      	; 0xa28 <MangeKeys+0x54>
     a26:	5c c0       	rjmp	.+184    	; 0xae0 <MangeKeys+0x10c>
     a28:	46 c0       	rjmp	.+140    	; 0xab6 <MangeKeys+0xe2>
     a2a:	f8 01       	movw	r30, r16
     a2c:	91 81       	ldd	r25, Z+1	; 0x01
     a2e:	f7 01       	movw	r30, r14
     a30:	98 17       	cp	r25, r24
     a32:	89 f4       	brne	.+34     	; 0xa56 <MangeKeys+0x82>
     a34:	81 81       	ldd	r24, Z+1	; 0x01
     a36:	92 81       	ldd	r25, Z+2	; 0x02
     a38:	01 96       	adiw	r24, 0x01	; 1
     a3a:	92 83       	std	Z+2, r25	; 0x02
     a3c:	81 83       	std	Z+1, r24	; 0x01
     a3e:	f8 01       	movw	r30, r16
     a40:	24 81       	ldd	r18, Z+4	; 0x04
     a42:	35 81       	ldd	r19, Z+5	; 0x05
     a44:	28 17       	cp	r18, r24
     a46:	39 07       	cpc	r19, r25
     a48:	09 f0       	breq	.+2      	; 0xa4c <MangeKeys+0x78>
     a4a:	4c c0       	rjmp	.+152    	; 0xae4 <MangeKeys+0x110>
     a4c:	81 e8       	ldi	r24, 0x81	; 129
     a4e:	f7 01       	movw	r30, r14
     a50:	80 83       	st	Z, r24
     a52:	f8 01       	movw	r30, r16
     a54:	34 c0       	rjmp	.+104    	; 0xabe <MangeKeys+0xea>
     a56:	12 82       	std	Z+2, r1	; 0x02
     a58:	11 82       	std	Z+1, r1	; 0x01
     a5a:	44 c0       	rjmp	.+136    	; 0xae4 <MangeKeys+0x110>
     a5c:	f8 01       	movw	r30, r16
     a5e:	91 81       	ldd	r25, Z+1	; 0x01
     a60:	f7 01       	movw	r30, r14
     a62:	21 81       	ldd	r18, Z+1	; 0x01
     a64:	32 81       	ldd	r19, Z+2	; 0x02
     a66:	f8 01       	movw	r30, r16
     a68:	42 81       	ldd	r20, Z+2	; 0x02
     a6a:	53 81       	ldd	r21, Z+3	; 0x03
     a6c:	98 17       	cp	r25, r24
     a6e:	b1 f4       	brne	.+44     	; 0xa9c <MangeKeys+0xc8>
     a70:	24 17       	cp	r18, r20
     a72:	35 07       	cpc	r19, r21
     a74:	78 f0       	brcs	.+30     	; 0xa94 <MangeKeys+0xc0>
     a76:	2f 5f       	subi	r18, 0xFF	; 255
     a78:	3f 4f       	sbci	r19, 0xFF	; 255
     a7a:	f7 01       	movw	r30, r14
     a7c:	32 83       	std	Z+2, r19	; 0x02
     a7e:	21 83       	std	Z+1, r18	; 0x01
     a80:	f8 01       	movw	r30, r16
     a82:	86 81       	ldd	r24, Z+6	; 0x06
     a84:	97 81       	ldd	r25, Z+7	; 0x07
     a86:	82 17       	cp	r24, r18
     a88:	93 07       	cpc	r25, r19
     a8a:	61 f5       	brne	.+88     	; 0xae4 <MangeKeys+0x110>
     a8c:	82 e8       	ldi	r24, 0x82	; 130
     a8e:	f7 01       	movw	r30, r14
     a90:	80 83       	st	Z, r24
     a92:	01 c0       	rjmp	.+2      	; 0xa96 <MangeKeys+0xc2>
     a94:	f7 01       	movw	r30, r14
     a96:	52 83       	std	Z+2, r21	; 0x02
     a98:	41 83       	std	Z+1, r20	; 0x01
     a9a:	24 c0       	rjmp	.+72     	; 0xae4 <MangeKeys+0x110>
     a9c:	42 17       	cp	r20, r18
     a9e:	53 07       	cpc	r21, r19
     aa0:	c8 f3       	brcs	.-14     	; 0xa94 <MangeKeys+0xc0>
     aa2:	21 50       	subi	r18, 0x01	; 1
     aa4:	30 40       	sbci	r19, 0x00	; 0
     aa6:	f7 01       	movw	r30, r14
     aa8:	32 83       	std	Z+2, r19	; 0x02
     aaa:	21 83       	std	Z+1, r18	; 0x01
     aac:	21 15       	cp	r18, r1
     aae:	31 05       	cpc	r19, r1
     ab0:	c9 f4       	brne	.+50     	; 0xae4 <MangeKeys+0x110>
     ab2:	80 e4       	ldi	r24, 0x40	; 64
     ab4:	13 c0       	rjmp	.+38     	; 0xadc <MangeKeys+0x108>
     ab6:	f8 01       	movw	r30, r16
     ab8:	91 81       	ldd	r25, Z+1	; 0x01
     aba:	98 17       	cp	r25, r24
     abc:	31 f4       	brne	.+12     	; 0xaca <MangeKeys+0xf6>
     abe:	82 81       	ldd	r24, Z+2	; 0x02
     ac0:	93 81       	ldd	r25, Z+3	; 0x03
     ac2:	f7 01       	movw	r30, r14
     ac4:	92 83       	std	Z+2, r25	; 0x02
     ac6:	81 83       	std	Z+1, r24	; 0x01
     ac8:	0d c0       	rjmp	.+26     	; 0xae4 <MangeKeys+0x110>
     aca:	f7 01       	movw	r30, r14
     acc:	81 81       	ldd	r24, Z+1	; 0x01
     ace:	92 81       	ldd	r25, Z+2	; 0x02
     ad0:	01 97       	sbiw	r24, 0x01	; 1
     ad2:	92 83       	std	Z+2, r25	; 0x02
     ad4:	81 83       	std	Z+1, r24	; 0x01
     ad6:	00 97       	sbiw	r24, 0x00	; 0
     ad8:	29 f4       	brne	.+10     	; 0xae4 <MangeKeys+0x110>
     ada:	80 e8       	ldi	r24, 0x80	; 128
     adc:	80 83       	st	Z, r24
     ade:	02 c0       	rjmp	.+4      	; 0xae4 <MangeKeys+0x110>
     ae0:	f7 01       	movw	r30, r14
     ae2:	10 82       	st	Z, r1
     ae4:	0f 90       	pop	r0
     ae6:	df 91       	pop	r29
     ae8:	cf 91       	pop	r28
     aea:	1f 91       	pop	r17
     aec:	0f 91       	pop	r16
     aee:	ff 90       	pop	r15
     af0:	ef 90       	pop	r14
     af2:	08 95       	ret

00000af4 <SpeedCalcNotifyInitialize>:
     af4:	08 95       	ret

00000af6 <SensorOneNotify>:
     af6:	80 91 0a 01 	lds	r24, 0x010A
     afa:	81 30       	cpi	r24, 0x01	; 1
     afc:	19 f4       	brne	.+6      	; 0xb04 <SensorOneNotify+0xe>
     afe:	10 92 0a 01 	sts	0x010A, r1
     b02:	08 95       	ret
     b04:	80 91 09 01 	lds	r24, 0x0109
     b08:	88 23       	and	r24, r24
     b0a:	29 f0       	breq	.+10     	; 0xb16 <SensorOneNotify+0x20>
     b0c:	80 91 09 01 	lds	r24, 0x0109
     b10:	81 50       	subi	r24, 0x01	; 1
     b12:	80 93 09 01 	sts	0x0109, r24
     b16:	08 95       	ret

00000b18 <SensorTwoNotify>:
     b18:	80 91 0a 01 	lds	r24, 0x010A
     b1c:	88 23       	and	r24, r24
     b1e:	a9 f4       	brne	.+42     	; 0xb4a <SensorTwoNotify+0x32>
     b20:	81 e0       	ldi	r24, 0x01	; 1
     b22:	80 93 0a 01 	sts	0x010A, r24
     b26:	80 91 09 01 	lds	r24, 0x0109
     b2a:	8f 5f       	subi	r24, 0xFF	; 255
     b2c:	80 93 09 01 	sts	0x0109, r24
     b30:	81 e0       	ldi	r24, 0x01	; 1
     b32:	aa d1       	rcall	.+852    	; 0xe88 <ReloadHWtimer>
     b34:	90 93 08 01 	sts	0x0108, r25
     b38:	80 93 07 01 	sts	0x0107, r24
     b3c:	80 91 06 01 	lds	r24, 0x0106
     b40:	80 93 0b 01 	sts	0x010B, r24
     b44:	10 92 06 01 	sts	0x0106, r1
     b48:	08 95       	ret
     b4a:	80 91 09 01 	lds	r24, 0x0109
     b4e:	88 23       	and	r24, r24
     b50:	29 f0       	breq	.+10     	; 0xb5c <SensorTwoNotify+0x44>
     b52:	80 91 09 01 	lds	r24, 0x0109
     b56:	81 50       	subi	r24, 0x01	; 1
     b58:	80 93 09 01 	sts	0x0109, r24
     b5c:	08 95       	ret

00000b5e <SpeedCalcManage>:
     b5e:	cf 93       	push	r28
     b60:	df 93       	push	r29
     b62:	40 91 07 01 	lds	r20, 0x0107
     b66:	50 91 08 01 	lds	r21, 0x0108
     b6a:	20 91 0b 01 	lds	r18, 0x010B
     b6e:	30 e0       	ldi	r19, 0x00	; 0
     b70:	8f e8       	ldi	r24, 0x8F	; 143
     b72:	92 e0       	ldi	r25, 0x02	; 2
     b74:	28 9f       	mul	r18, r24
     b76:	f0 01       	movw	r30, r0
     b78:	29 9f       	mul	r18, r25
     b7a:	f0 0d       	add	r31, r0
     b7c:	38 9f       	mul	r19, r24
     b7e:	f0 0d       	add	r31, r0
     b80:	11 24       	eor	r1, r1
     b82:	ca 01       	movw	r24, r20
     b84:	64 e6       	ldi	r22, 0x64	; 100
     b86:	70 e0       	ldi	r23, 0x00	; 0
     b88:	69 d2       	rcall	.+1234   	; 0x105c <__udivmodhi4>
     b8a:	e6 0f       	add	r30, r22
     b8c:	f7 1f       	adc	r31, r23
     b8e:	f0 93 0d 01 	sts	0x010D, r31
     b92:	e0 93 0c 01 	sts	0x010C, r30
     b96:	80 91 09 01 	lds	r24, 0x0109
     b9a:	c0 91 0e 01 	lds	r28, 0x010E
     b9e:	d0 91 0f 01 	lds	r29, 0x010F
     ba2:	c8 0f       	add	r28, r24
     ba4:	d1 1d       	adc	r29, r1
     ba6:	d0 93 0f 01 	sts	0x010F, r29
     baa:	c0 93 0e 01 	sts	0x010E, r28
     bae:	10 92 09 01 	sts	0x0109, r1
     bb2:	20 91 95 00 	lds	r18, 0x0095
     bb6:	30 91 96 00 	lds	r19, 0x0096
     bba:	80 91 10 01 	lds	r24, 0x0110
     bbe:	88 23       	and	r24, r24
     bc0:	19 f5       	brne	.+70     	; 0xc08 <SpeedCalcManage+0xaa>
     bc2:	40 e0       	ldi	r20, 0x00	; 0
     bc4:	50 e0       	ldi	r21, 0x00	; 0
     bc6:	60 ea       	ldi	r22, 0xA0	; 160
     bc8:	76 e8       	ldi	r23, 0x86	; 134
     bca:	81 e0       	ldi	r24, 0x01	; 1
     bcc:	90 e0       	ldi	r25, 0x00	; 0
     bce:	5a d2       	rcall	.+1204   	; 0x1084 <__udivmodsi4>
     bd0:	c2 17       	cp	r28, r18
     bd2:	d3 07       	cpc	r29, r19
     bd4:	c8 f0       	brcs	.+50     	; 0xc08 <SpeedCalcManage+0xaa>
     bd6:	80 91 11 01 	lds	r24, 0x0111
     bda:	90 91 12 01 	lds	r25, 0x0112
     bde:	a0 91 13 01 	lds	r26, 0x0113
     be2:	b0 91 14 01 	lds	r27, 0x0114
     be6:	01 96       	adiw	r24, 0x01	; 1
     be8:	a1 1d       	adc	r26, r1
     bea:	b1 1d       	adc	r27, r1
     bec:	80 93 11 01 	sts	0x0111, r24
     bf0:	90 93 12 01 	sts	0x0112, r25
     bf4:	a0 93 13 01 	sts	0x0113, r26
     bf8:	b0 93 14 01 	sts	0x0114, r27
     bfc:	c2 1b       	sub	r28, r18
     bfe:	d3 0b       	sbc	r29, r19
     c00:	d0 93 0f 01 	sts	0x010F, r29
     c04:	c0 93 0e 01 	sts	0x010E, r28
     c08:	df 91       	pop	r29
     c0a:	cf 91       	pop	r28
     c0c:	08 95       	ret

00000c0e <DisableDistanceCntr>:
     c0e:	80 93 10 01 	sts	0x0110, r24
     c12:	08 95       	ret

00000c14 <SetDistance>:
     c14:	dc 01       	movw	r26, r24
     c16:	cb 01       	movw	r24, r22
     c18:	80 93 11 01 	sts	0x0111, r24
     c1c:	90 93 12 01 	sts	0x0112, r25
     c20:	a0 93 13 01 	sts	0x0113, r26
     c24:	b0 93 14 01 	sts	0x0114, r27
     c28:	10 92 0f 01 	sts	0x010F, r1
     c2c:	10 92 0e 01 	sts	0x010E, r1
     c30:	08 95       	ret

00000c32 <GetDistance>:
     c32:	60 91 11 01 	lds	r22, 0x0111
     c36:	70 91 12 01 	lds	r23, 0x0112
     c3a:	80 91 13 01 	lds	r24, 0x0113
     c3e:	90 91 14 01 	lds	r25, 0x0114
     c42:	08 95       	ret

00000c44 <SetCircumfirunce>:
     c44:	90 93 96 00 	sts	0x0096, r25
     c48:	80 93 95 00 	sts	0x0095, r24
     c4c:	08 95       	ret

00000c4e <GetAvgSpeed>:
     c4e:	cf 93       	push	r28
     c50:	df 93       	push	r29
     c52:	81 30       	cpi	r24, 0x01	; 1
     c54:	29 f4       	brne	.+10     	; 0xc60 <GetAvgSpeed+0x12>
     c56:	68 e6       	ldi	r22, 0x68	; 104
     c58:	71 e0       	ldi	r23, 0x01	; 1
     c5a:	80 e0       	ldi	r24, 0x00	; 0
     c5c:	90 e0       	ldi	r25, 0x00	; 0
     c5e:	04 c0       	rjmp	.+8      	; 0xc68 <GetAvgSpeed+0x1a>
     c60:	61 ee       	ldi	r22, 0xE1	; 225
     c62:	70 e0       	ldi	r23, 0x00	; 0
     c64:	80 e0       	ldi	r24, 0x00	; 0
     c66:	90 e0       	ldi	r25, 0x00	; 0
     c68:	c0 91 0c 01 	lds	r28, 0x010C
     c6c:	d0 91 0d 01 	lds	r29, 0x010D
     c70:	20 97       	sbiw	r28, 0x00	; 0
     c72:	69 f0       	breq	.+26     	; 0xc8e <GetAvgSpeed+0x40>
     c74:	20 91 95 00 	lds	r18, 0x0095
     c78:	30 91 96 00 	lds	r19, 0x0096
     c7c:	40 e0       	ldi	r20, 0x00	; 0
     c7e:	50 e0       	ldi	r21, 0x00	; 0
     c80:	ce d1       	rcall	.+924    	; 0x101e <__mulsi3>
     c82:	9e 01       	movw	r18, r28
     c84:	40 e0       	ldi	r20, 0x00	; 0
     c86:	50 e0       	ldi	r21, 0x00	; 0
     c88:	fd d1       	rcall	.+1018   	; 0x1084 <__udivmodsi4>
     c8a:	c9 01       	movw	r24, r18
     c8c:	02 c0       	rjmp	.+4      	; 0xc92 <GetAvgSpeed+0x44>
     c8e:	80 e0       	ldi	r24, 0x00	; 0
     c90:	90 e0       	ldi	r25, 0x00	; 0
     c92:	20 91 06 01 	lds	r18, 0x0106
     c96:	20 34       	cpi	r18, 0x40	; 64
     c98:	11 f4       	brne	.+4      	; 0xc9e <GetAvgSpeed+0x50>
     c9a:	80 e0       	ldi	r24, 0x00	; 0
     c9c:	90 e0       	ldi	r25, 0x00	; 0
     c9e:	df 91       	pop	r29
     ca0:	cf 91       	pop	r28
     ca2:	08 95       	ret

00000ca4 <HWtimerCallback>:
     ca4:	80 91 06 01 	lds	r24, 0x0106
     ca8:	80 34       	cpi	r24, 0x40	; 64
     caa:	28 f4       	brcc	.+10     	; 0xcb6 <HWtimerCallback+0x12>
     cac:	80 91 06 01 	lds	r24, 0x0106
     cb0:	8f 5f       	subi	r24, 0xFF	; 255
     cb2:	80 93 06 01 	sts	0x0106, r24
     cb6:	08 95       	ret

00000cb8 <APP_ISR1>:
     cb8:	1e df       	rcall	.-452    	; 0xaf6 <SensorOneNotify>
     cba:	08 95       	ret

00000cbc <APP_ISR2>:
     cbc:	2d df       	rcall	.-422    	; 0xb18 <SensorTwoNotify>
     cbe:	08 95       	ret

00000cc0 <APP_ISR3>:
     cc0:	f1 df       	rcall	.-30     	; 0xca4 <HWtimerCallback>
     cc2:	08 95       	ret

00000cc4 <ManageDrivers>:
     cc4:	80 e0       	ldi	r24, 0x00	; 0
     cc6:	86 de       	rcall	.-756    	; 0x9d4 <MangeKeys>
     cc8:	81 e0       	ldi	r24, 0x01	; 1
     cca:	84 de       	rcall	.-760    	; 0x9d4 <MangeKeys>
     ccc:	47 de       	rcall	.-882    	; 0x95c <EepromManage>
     cce:	08 95       	ret

00000cd0 <ManageSpeedCalc>:
     cd0:	46 df       	rcall	.-372    	; 0xb5e <SpeedCalcManage>
     cd2:	08 95       	ret

00000cd4 <ManageApplication>:
     cd4:	af da       	rcall	.-2722   	; 0x234 <APP_MANAGE>
     cd6:	08 95       	ret

00000cd8 <DisplayAlphaNumeric>:
     cd8:	3c dd       	rcall	.-1416   	; 0x752 <BCDManage7segment>
     cda:	08 95       	ret

00000cdc <Start_App>:
     cdc:	8a d1       	rcall	.+788    	; 0xff2 <HWI_InitOscilatorCalib>
     cde:	b1 d0       	rcall	.+354    	; 0xe42 <HWI_INTERRUPTS_INTITALIZE>
     ce0:	73 d0       	rcall	.+230    	; 0xdc8 <HWI_DIGITAL_INITIALIZE>
     ce2:	08 df       	rcall	.-496    	; 0xaf4 <SpeedCalcNotifyInitialize>
     ce4:	3b da       	rcall	.-2954   	; 0x15c <APP_INITIALIZE>
     ce6:	81 e0       	ldi	r24, 0x01	; 1
     ce8:	95 dc       	rcall	.-1750   	; 0x614 <BCDInitialize>
     cea:	88 e6       	ldi	r24, 0x68	; 104
     cec:	96 e0       	ldi	r25, 0x06	; 6
     cee:	60 e0       	ldi	r22, 0x00	; 0
     cf0:	44 e1       	ldi	r20, 0x14	; 20
     cf2:	11 d0       	rcall	.+34     	; 0xd16 <CreateTask>
     cf4:	8a e6       	ldi	r24, 0x6A	; 106
     cf6:	96 e0       	ldi	r25, 0x06	; 6
     cf8:	62 e0       	ldi	r22, 0x02	; 2
     cfa:	42 e3       	ldi	r20, 0x32	; 50
     cfc:	0c d0       	rcall	.+24     	; 0xd16 <CreateTask>
     cfe:	8c e6       	ldi	r24, 0x6C	; 108
     d00:	96 e0       	ldi	r25, 0x06	; 6
     d02:	61 e0       	ldi	r22, 0x01	; 1
     d04:	42 e0       	ldi	r20, 0x02	; 2
     d06:	07 d0       	rcall	.+14     	; 0xd16 <CreateTask>
     d08:	82 e6       	ldi	r24, 0x62	; 98
     d0a:	96 e0       	ldi	r25, 0x06	; 6
     d0c:	63 e0       	ldi	r22, 0x03	; 3
     d0e:	4a e0       	ldi	r20, 0x0A	; 10
     d10:	02 d0       	rcall	.+4      	; 0xd16 <CreateTask>
     d12:	1b d0       	rcall	.+54     	; 0xd4a <RunScheduler>
     d14:	08 95       	ret

00000d16 <CreateTask>:
     d16:	64 30       	cpi	r22, 0x04	; 4
     d18:	60 f4       	brcc	.+24     	; 0xd32 <CreateTask+0x1c>
     d1a:	e6 2f       	mov	r30, r22
     d1c:	f0 e0       	ldi	r31, 0x00	; 0
     d1e:	ee 0f       	add	r30, r30
     d20:	ff 1f       	adc	r31, r31
     d22:	ee 0f       	add	r30, r30
     d24:	ff 1f       	adc	r31, r31
     d26:	eb 5e       	subi	r30, 0xEB	; 235
     d28:	fe 4f       	sbci	r31, 0xFE	; 254
     d2a:	91 83       	std	Z+1, r25	; 0x01
     d2c:	80 83       	st	Z, r24
     d2e:	42 83       	std	Z+2, r20	; 0x02
     d30:	13 82       	std	Z+3, r1	; 0x03
     d32:	08 95       	ret

00000d34 <SchedulerTick>:
     d34:	e8 e1       	ldi	r30, 0x18	; 24
     d36:	f1 e0       	ldi	r31, 0x01	; 1
     d38:	84 e0       	ldi	r24, 0x04	; 4
     d3a:	90 81       	ld	r25, Z
     d3c:	9f 5f       	subi	r25, 0xFF	; 255
     d3e:	90 83       	st	Z, r25
     d40:	81 50       	subi	r24, 0x01	; 1
     d42:	34 96       	adiw	r30, 0x04	; 4
     d44:	88 23       	and	r24, r24
     d46:	c9 f7       	brne	.-14     	; 0xd3a <SchedulerTick+0x6>
     d48:	08 95       	ret

00000d4a <RunScheduler>:
     d4a:	10 92 25 01 	sts	0x0125, r1
     d4e:	1e c0       	rjmp	.+60     	; 0xd8c <RunScheduler+0x42>
     d50:	f0 e0       	ldi	r31, 0x00	; 0
     d52:	ee 0f       	add	r30, r30
     d54:	ff 1f       	adc	r31, r31
     d56:	ee 0f       	add	r30, r30
     d58:	ff 1f       	adc	r31, r31
     d5a:	eb 5e       	subi	r30, 0xEB	; 235
     d5c:	fe 4f       	sbci	r31, 0xFE	; 254
     d5e:	92 81       	ldd	r25, Z+2	; 0x02
     d60:	83 81       	ldd	r24, Z+3	; 0x03
     d62:	89 17       	cp	r24, r25
     d64:	70 f0       	brcs	.+28     	; 0xd82 <RunScheduler+0x38>
     d66:	01 90       	ld	r0, Z+
     d68:	f0 81       	ld	r31, Z
     d6a:	e0 2d       	mov	r30, r0
     d6c:	09 95       	icall
     d6e:	e0 91 25 01 	lds	r30, 0x0125
     d72:	f0 e0       	ldi	r31, 0x00	; 0
     d74:	ee 0f       	add	r30, r30
     d76:	ff 1f       	adc	r31, r31
     d78:	ee 0f       	add	r30, r30
     d7a:	ff 1f       	adc	r31, r31
     d7c:	eb 5e       	subi	r30, 0xEB	; 235
     d7e:	fe 4f       	sbci	r31, 0xFE	; 254
     d80:	13 82       	std	Z+3, r1	; 0x03
     d82:	80 91 25 01 	lds	r24, 0x0125
     d86:	8f 5f       	subi	r24, 0xFF	; 255
     d88:	80 93 25 01 	sts	0x0125, r24
     d8c:	e0 91 25 01 	lds	r30, 0x0125
     d90:	e4 30       	cpi	r30, 0x04	; 4
     d92:	d8 f6       	brcc	.-74     	; 0xd4a <RunScheduler>
     d94:	dd cf       	rjmp	.-70     	; 0xd50 <RunScheduler+0x6>

00000d96 <HWIeeprom_Write>:
     d96:	e1 99       	sbic	0x1c, 1	; 28
     d98:	08 c0       	rjmp	.+16     	; 0xdaa <HWIeeprom_Write+0x14>
     d9a:	90 e0       	ldi	r25, 0x00	; 0
     d9c:	9f bb       	out	0x1f, r25	; 31
     d9e:	8e bb       	out	0x1e, r24	; 30
     da0:	6d bb       	out	0x1d, r22	; 29
     da2:	e2 9a       	sbi	0x1c, 2	; 28
     da4:	e1 9a       	sbi	0x1c, 1	; 28
     da6:	81 e0       	ldi	r24, 0x01	; 1
     da8:	08 95       	ret
     daa:	80 e0       	ldi	r24, 0x00	; 0
     dac:	08 95       	ret

00000dae <HWIeeprom_Read>:
     dae:	e1 99       	sbic	0x1c, 1	; 28
     db0:	09 c0       	rjmp	.+18     	; 0xdc4 <HWIeeprom_Read+0x16>
     db2:	90 e0       	ldi	r25, 0x00	; 0
     db4:	9f bb       	out	0x1f, r25	; 31
     db6:	8e bb       	out	0x1e, r24	; 30
     db8:	e0 9a       	sbi	0x1c, 0	; 28
     dba:	8d b3       	in	r24, 0x1d	; 29
     dbc:	fb 01       	movw	r30, r22
     dbe:	80 83       	st	Z, r24
     dc0:	81 e0       	ldi	r24, 0x01	; 1
     dc2:	08 95       	ret
     dc4:	80 e0       	ldi	r24, 0x00	; 0
     dc6:	08 95       	ret

00000dc8 <HWI_DIGITAL_INITIALIZE>:
     dc8:	8f ef       	ldi	r24, 0xFF	; 255
     dca:	87 bb       	out	0x17, r24	; 23
     dcc:	84 bb       	out	0x14, r24	; 20
     dce:	11 ba       	out	0x11, r1	; 17
     dd0:	82 bb       	out	0x12, r24	; 18
     dd2:	08 95       	ret

00000dd4 <HWI_DIGI_READ>:
     dd4:	80 31       	cpi	r24, 0x10	; 16
     dd6:	39 f0       	breq	.+14     	; 0xde6 <HWI_DIGI_READ+0x12>
     dd8:	81 31       	cpi	r24, 0x11	; 17
     dda:	41 f0       	breq	.+16     	; 0xdec <HWI_DIGI_READ+0x18>
     ddc:	8f 30       	cpi	r24, 0x0F	; 15
     dde:	49 f4       	brne	.+18     	; 0xdf2 <HWI_DIGI_READ+0x1e>
     de0:	80 b3       	in	r24, 0x10	; 16
     de2:	80 71       	andi	r24, 0x10	; 16
     de4:	08 95       	ret
     de6:	80 b3       	in	r24, 0x10	; 16
     de8:	80 72       	andi	r24, 0x20	; 32
     dea:	08 95       	ret
     dec:	80 b3       	in	r24, 0x10	; 16
     dee:	80 74       	andi	r24, 0x40	; 64
     df0:	08 95       	ret
     df2:	80 e0       	ldi	r24, 0x00	; 0
     df4:	08 95       	ret

00000df6 <HWI_DIGI_WRITE>:
     df6:	08 95       	ret

00000df8 <HWI_4Digit_WRITE>:
     df8:	88 23       	and	r24, r24
     dfa:	29 f4       	brne	.+10     	; 0xe06 <HWI_4Digit_WRITE+0xe>
     dfc:	85 b3       	in	r24, 0x15	; 21
     dfe:	80 7f       	andi	r24, 0xF0	; 240
     e00:	86 2b       	or	r24, r22
     e02:	85 bb       	out	0x15, r24	; 21
     e04:	08 95       	ret
     e06:	88 b3       	in	r24, 0x18	; 24
     e08:	80 7f       	andi	r24, 0xF0	; 240
     e0a:	86 2b       	or	r24, r22
     e0c:	88 bb       	out	0x18, r24	; 24
     e0e:	08 95       	ret

00000e10 <HWI_4Digit_READ>:
     e10:	88 23       	and	r24, r24
     e12:	19 f0       	breq	.+6      	; 0xe1a <HWI_4Digit_READ+0xa>
     e14:	81 30       	cpi	r24, 0x01	; 1
     e16:	31 f4       	brne	.+12     	; 0xe24 <HWI_4Digit_READ+0x14>
     e18:	02 c0       	rjmp	.+4      	; 0xe1e <HWI_4Digit_READ+0xe>
     e1a:	83 b3       	in	r24, 0x13	; 19
     e1c:	01 c0       	rjmp	.+2      	; 0xe20 <HWI_4Digit_READ+0x10>
     e1e:	86 b3       	in	r24, 0x16	; 22
     e20:	8f 70       	andi	r24, 0x0F	; 15
     e22:	08 95       	ret
     e24:	86 b3       	in	r24, 0x16	; 22
     e26:	8f 70       	andi	r24, 0x0F	; 15
     e28:	08 95       	ret

00000e2a <HWI_8Digit_WRITE>:
     e2a:	88 23       	and	r24, r24
     e2c:	11 f4       	brne	.+4      	; 0xe32 <HWI_8Digit_WRITE+0x8>
     e2e:	65 bb       	out	0x15, r22	; 21
     e30:	08 95       	ret
     e32:	68 bb       	out	0x18, r22	; 24
     e34:	08 95       	ret

00000e36 <HWI8Digit_READ>:
     e36:	88 23       	and	r24, r24
     e38:	11 f0       	breq	.+4      	; 0xe3e <HWI8Digit_READ+0x8>
     e3a:	86 b3       	in	r24, 0x16	; 22
     e3c:	08 95       	ret
     e3e:	83 b3       	in	r24, 0x13	; 19
     e40:	08 95       	ret

00000e42 <HWI_INTERRUPTS_INTITALIZE>:
     e42:	8e b5       	in	r24, 0x2e	; 46
     e44:	82 60       	ori	r24, 0x02	; 2
     e46:	8e bd       	out	0x2e, r24	; 46
     e48:	8f ef       	ldi	r24, 0xFF	; 255
     e4a:	9f e7       	ldi	r25, 0x7F	; 127
     e4c:	9d bd       	out	0x2d, r25	; 45
     e4e:	8c bd       	out	0x2c, r24	; 44
     e50:	83 b7       	in	r24, 0x33	; 51
     e52:	83 60       	ori	r24, 0x03	; 3
     e54:	83 bf       	out	0x33, r24	; 51
     e56:	82 ec       	ldi	r24, 0xC2	; 194
     e58:	82 bf       	out	0x32, r24	; 50
     e5a:	89 b7       	in	r24, 0x39	; 57
     e5c:	81 60       	ori	r24, 0x01	; 1
     e5e:	89 bf       	out	0x39, r24	; 57
     e60:	89 b7       	in	r24, 0x39	; 57
     e62:	84 60       	ori	r24, 0x04	; 4
     e64:	89 bf       	out	0x39, r24	; 57
     e66:	8b b7       	in	r24, 0x3b	; 59
     e68:	80 64       	ori	r24, 0x40	; 64
     e6a:	8b bf       	out	0x3b, r24	; 59
     e6c:	85 b7       	in	r24, 0x35	; 53
     e6e:	83 60       	ori	r24, 0x03	; 3
     e70:	85 bf       	out	0x35, r24	; 53
     e72:	8b b7       	in	r24, 0x3b	; 59
     e74:	80 68       	ori	r24, 0x80	; 128
     e76:	8b bf       	out	0x3b, r24	; 59
     e78:	85 b7       	in	r24, 0x35	; 53
     e7a:	8c 60       	ori	r24, 0x0C	; 12
     e7c:	85 bf       	out	0x35, r24	; 53
     e7e:	81 b3       	in	r24, 0x11	; 17
     e80:	8c 60       	ori	r24, 0x0C	; 12
     e82:	81 bb       	out	0x11, r24	; 17
     e84:	78 94       	sei
     e86:	08 95       	ret

00000e88 <ReloadHWtimer>:
     e88:	83 30       	cpi	r24, 0x03	; 3
     e8a:	58 f4       	brcc	.+22     	; 0xea2 <ReloadHWtimer+0x1a>
     e8c:	8c b5       	in	r24, 0x2c	; 44
     e8e:	9d b5       	in	r25, 0x2d	; 45
     e90:	8f 5f       	subi	r24, 0xFF	; 255
     e92:	9f 47       	sbci	r25, 0x7F	; 127
     e94:	88 0f       	add	r24, r24
     e96:	99 1f       	adc	r25, r25
     e98:	2f ef       	ldi	r18, 0xFF	; 255
     e9a:	3f e7       	ldi	r19, 0x7F	; 127
     e9c:	3d bd       	out	0x2d, r19	; 45
     e9e:	2c bd       	out	0x2c, r18	; 44
     ea0:	08 95       	ret
     ea2:	80 e0       	ldi	r24, 0x00	; 0
     ea4:	90 e0       	ldi	r25, 0x00	; 0
     ea6:	08 95       	ret

00000ea8 <__vector_9>:
     ea8:	1f 92       	push	r1
     eaa:	0f 92       	push	r0
     eac:	0f b6       	in	r0, 0x3f	; 63
     eae:	0f 92       	push	r0
     eb0:	11 24       	eor	r1, r1
     eb2:	2f 93       	push	r18
     eb4:	3f 93       	push	r19
     eb6:	4f 93       	push	r20
     eb8:	5f 93       	push	r21
     eba:	6f 93       	push	r22
     ebc:	7f 93       	push	r23
     ebe:	8f 93       	push	r24
     ec0:	9f 93       	push	r25
     ec2:	af 93       	push	r26
     ec4:	bf 93       	push	r27
     ec6:	ef 93       	push	r30
     ec8:	ff 93       	push	r31
     eca:	82 ec       	ldi	r24, 0xC2	; 194
     ecc:	82 bf       	out	0x32, r24	; 50
     ece:	32 df       	rcall	.-412    	; 0xd34 <SchedulerTick>
     ed0:	ff 91       	pop	r31
     ed2:	ef 91       	pop	r30
     ed4:	bf 91       	pop	r27
     ed6:	af 91       	pop	r26
     ed8:	9f 91       	pop	r25
     eda:	8f 91       	pop	r24
     edc:	7f 91       	pop	r23
     ede:	6f 91       	pop	r22
     ee0:	5f 91       	pop	r21
     ee2:	4f 91       	pop	r20
     ee4:	3f 91       	pop	r19
     ee6:	2f 91       	pop	r18
     ee8:	0f 90       	pop	r0
     eea:	0f be       	out	0x3f, r0	; 63
     eec:	0f 90       	pop	r0
     eee:	1f 90       	pop	r1
     ef0:	18 95       	reti

00000ef2 <__vector_8>:
     ef2:	1f 92       	push	r1
     ef4:	0f 92       	push	r0
     ef6:	0f b6       	in	r0, 0x3f	; 63
     ef8:	0f 92       	push	r0
     efa:	11 24       	eor	r1, r1
     efc:	2f 93       	push	r18
     efe:	3f 93       	push	r19
     f00:	4f 93       	push	r20
     f02:	5f 93       	push	r21
     f04:	6f 93       	push	r22
     f06:	7f 93       	push	r23
     f08:	8f 93       	push	r24
     f0a:	9f 93       	push	r25
     f0c:	af 93       	push	r26
     f0e:	bf 93       	push	r27
     f10:	ef 93       	push	r30
     f12:	ff 93       	push	r31
     f14:	8f ef       	ldi	r24, 0xFF	; 255
     f16:	9f e7       	ldi	r25, 0x7F	; 127
     f18:	9d bd       	out	0x2d, r25	; 45
     f1a:	8c bd       	out	0x2c, r24	; 44
     f1c:	d1 de       	rcall	.-606    	; 0xcc0 <APP_ISR3>
     f1e:	ff 91       	pop	r31
     f20:	ef 91       	pop	r30
     f22:	bf 91       	pop	r27
     f24:	af 91       	pop	r26
     f26:	9f 91       	pop	r25
     f28:	8f 91       	pop	r24
     f2a:	7f 91       	pop	r23
     f2c:	6f 91       	pop	r22
     f2e:	5f 91       	pop	r21
     f30:	4f 91       	pop	r20
     f32:	3f 91       	pop	r19
     f34:	2f 91       	pop	r18
     f36:	0f 90       	pop	r0
     f38:	0f be       	out	0x3f, r0	; 63
     f3a:	0f 90       	pop	r0
     f3c:	1f 90       	pop	r1
     f3e:	18 95       	reti

00000f40 <__vector_1>:
     f40:	1f 92       	push	r1
     f42:	0f 92       	push	r0
     f44:	0f b6       	in	r0, 0x3f	; 63
     f46:	0f 92       	push	r0
     f48:	11 24       	eor	r1, r1
     f4a:	2f 93       	push	r18
     f4c:	3f 93       	push	r19
     f4e:	4f 93       	push	r20
     f50:	5f 93       	push	r21
     f52:	6f 93       	push	r22
     f54:	7f 93       	push	r23
     f56:	8f 93       	push	r24
     f58:	9f 93       	push	r25
     f5a:	af 93       	push	r26
     f5c:	bf 93       	push	r27
     f5e:	ef 93       	push	r30
     f60:	ff 93       	push	r31
     f62:	aa de       	rcall	.-684    	; 0xcb8 <APP_ISR1>
     f64:	85 b7       	in	r24, 0x35	; 53
     f66:	83 60       	ori	r24, 0x03	; 3
     f68:	85 bf       	out	0x35, r24	; 53
     f6a:	ff 91       	pop	r31
     f6c:	ef 91       	pop	r30
     f6e:	bf 91       	pop	r27
     f70:	af 91       	pop	r26
     f72:	9f 91       	pop	r25
     f74:	8f 91       	pop	r24
     f76:	7f 91       	pop	r23
     f78:	6f 91       	pop	r22
     f7a:	5f 91       	pop	r21
     f7c:	4f 91       	pop	r20
     f7e:	3f 91       	pop	r19
     f80:	2f 91       	pop	r18
     f82:	0f 90       	pop	r0
     f84:	0f be       	out	0x3f, r0	; 63
     f86:	0f 90       	pop	r0
     f88:	1f 90       	pop	r1
     f8a:	18 95       	reti

00000f8c <__vector_2>:
     f8c:	1f 92       	push	r1
     f8e:	0f 92       	push	r0
     f90:	0f b6       	in	r0, 0x3f	; 63
     f92:	0f 92       	push	r0
     f94:	11 24       	eor	r1, r1
     f96:	2f 93       	push	r18
     f98:	3f 93       	push	r19
     f9a:	4f 93       	push	r20
     f9c:	5f 93       	push	r21
     f9e:	6f 93       	push	r22
     fa0:	7f 93       	push	r23
     fa2:	8f 93       	push	r24
     fa4:	9f 93       	push	r25
     fa6:	af 93       	push	r26
     fa8:	bf 93       	push	r27
     faa:	ef 93       	push	r30
     fac:	ff 93       	push	r31
     fae:	86 de       	rcall	.-756    	; 0xcbc <APP_ISR2>
     fb0:	ff 91       	pop	r31
     fb2:	ef 91       	pop	r30
     fb4:	bf 91       	pop	r27
     fb6:	af 91       	pop	r26
     fb8:	9f 91       	pop	r25
     fba:	8f 91       	pop	r24
     fbc:	7f 91       	pop	r23
     fbe:	6f 91       	pop	r22
     fc0:	5f 91       	pop	r21
     fc2:	4f 91       	pop	r20
     fc4:	3f 91       	pop	r19
     fc6:	2f 91       	pop	r18
     fc8:	0f 90       	pop	r0
     fca:	0f be       	out	0x3f, r0	; 63
     fcc:	0f 90       	pop	r0
     fce:	1f 90       	pop	r1
     fd0:	18 95       	reti

00000fd2 <SendMCUtoSleep>:
     fd2:	85 b7       	in	r24, 0x35	; 53
     fd4:	8c 7f       	andi	r24, 0xFC	; 252
     fd6:	85 bf       	out	0x35, r24	; 53
     fd8:	85 b7       	in	r24, 0x35	; 53
     fda:	80 62       	ori	r24, 0x20	; 32
     fdc:	85 bf       	out	0x35, r24	; 53
     fde:	f8 94       	cli
     fe0:	85 b7       	in	r24, 0x35	; 53
     fe2:	80 68       	ori	r24, 0x80	; 128
     fe4:	85 bf       	out	0x35, r24	; 53
     fe6:	78 94       	sei
     fe8:	88 95       	sleep
     fea:	85 b7       	in	r24, 0x35	; 53
     fec:	8f 77       	andi	r24, 0x7F	; 127
     fee:	85 bf       	out	0x35, r24	; 53
     ff0:	08 95       	ret

00000ff2 <HWI_InitOscilatorCalib>:
     ff2:	cf 93       	push	r28
     ff4:	df 93       	push	r29
     ff6:	0f 92       	push	r0
     ff8:	cd b7       	in	r28, 0x3d	; 61
     ffa:	de b7       	in	r29, 0x3e	; 62
     ffc:	80 e0       	ldi	r24, 0x00	; 0
     ffe:	be 01       	movw	r22, r28
    1000:	6f 5f       	subi	r22, 0xFF	; 255
    1002:	7f 4f       	sbci	r23, 0xFF	; 255
    1004:	d4 de       	rcall	.-600    	; 0xdae <HWIeeprom_Read>
    1006:	88 23       	and	r24, r24
    1008:	c9 f3       	breq	.-14     	; 0xffc <HWI_InitOscilatorCalib+0xa>
    100a:	89 81       	ldd	r24, Y+1	; 0x01
    100c:	81 bf       	out	0x31, r24	; 49
    100e:	0f 90       	pop	r0
    1010:	df 91       	pop	r29
    1012:	cf 91       	pop	r28
    1014:	08 95       	ret

00001016 <main>:
    1016:	62 de       	rcall	.-828    	; 0xcdc <Start_App>
    1018:	80 e0       	ldi	r24, 0x00	; 0
    101a:	90 e0       	ldi	r25, 0x00	; 0
    101c:	08 95       	ret

0000101e <__mulsi3>:
    101e:	62 9f       	mul	r22, r18
    1020:	d0 01       	movw	r26, r0
    1022:	73 9f       	mul	r23, r19
    1024:	f0 01       	movw	r30, r0
    1026:	82 9f       	mul	r24, r18
    1028:	e0 0d       	add	r30, r0
    102a:	f1 1d       	adc	r31, r1
    102c:	64 9f       	mul	r22, r20
    102e:	e0 0d       	add	r30, r0
    1030:	f1 1d       	adc	r31, r1
    1032:	92 9f       	mul	r25, r18
    1034:	f0 0d       	add	r31, r0
    1036:	83 9f       	mul	r24, r19
    1038:	f0 0d       	add	r31, r0
    103a:	74 9f       	mul	r23, r20
    103c:	f0 0d       	add	r31, r0
    103e:	65 9f       	mul	r22, r21
    1040:	f0 0d       	add	r31, r0
    1042:	99 27       	eor	r25, r25
    1044:	72 9f       	mul	r23, r18
    1046:	b0 0d       	add	r27, r0
    1048:	e1 1d       	adc	r30, r1
    104a:	f9 1f       	adc	r31, r25
    104c:	63 9f       	mul	r22, r19
    104e:	b0 0d       	add	r27, r0
    1050:	e1 1d       	adc	r30, r1
    1052:	f9 1f       	adc	r31, r25
    1054:	bd 01       	movw	r22, r26
    1056:	cf 01       	movw	r24, r30
    1058:	11 24       	eor	r1, r1
    105a:	08 95       	ret

0000105c <__udivmodhi4>:
    105c:	aa 1b       	sub	r26, r26
    105e:	bb 1b       	sub	r27, r27
    1060:	51 e1       	ldi	r21, 0x11	; 17
    1062:	07 c0       	rjmp	.+14     	; 0x1072 <__udivmodhi4_ep>

00001064 <__udivmodhi4_loop>:
    1064:	aa 1f       	adc	r26, r26
    1066:	bb 1f       	adc	r27, r27
    1068:	a6 17       	cp	r26, r22
    106a:	b7 07       	cpc	r27, r23
    106c:	10 f0       	brcs	.+4      	; 0x1072 <__udivmodhi4_ep>
    106e:	a6 1b       	sub	r26, r22
    1070:	b7 0b       	sbc	r27, r23

00001072 <__udivmodhi4_ep>:
    1072:	88 1f       	adc	r24, r24
    1074:	99 1f       	adc	r25, r25
    1076:	5a 95       	dec	r21
    1078:	a9 f7       	brne	.-22     	; 0x1064 <__udivmodhi4_loop>
    107a:	80 95       	com	r24
    107c:	90 95       	com	r25
    107e:	bc 01       	movw	r22, r24
    1080:	cd 01       	movw	r24, r26
    1082:	08 95       	ret

00001084 <__udivmodsi4>:
    1084:	a1 e2       	ldi	r26, 0x21	; 33
    1086:	1a 2e       	mov	r1, r26
    1088:	aa 1b       	sub	r26, r26
    108a:	bb 1b       	sub	r27, r27
    108c:	fd 01       	movw	r30, r26
    108e:	0d c0       	rjmp	.+26     	; 0x10aa <__udivmodsi4_ep>

00001090 <__udivmodsi4_loop>:
    1090:	aa 1f       	adc	r26, r26
    1092:	bb 1f       	adc	r27, r27
    1094:	ee 1f       	adc	r30, r30
    1096:	ff 1f       	adc	r31, r31
    1098:	a2 17       	cp	r26, r18
    109a:	b3 07       	cpc	r27, r19
    109c:	e4 07       	cpc	r30, r20
    109e:	f5 07       	cpc	r31, r21
    10a0:	20 f0       	brcs	.+8      	; 0x10aa <__udivmodsi4_ep>
    10a2:	a2 1b       	sub	r26, r18
    10a4:	b3 0b       	sbc	r27, r19
    10a6:	e4 0b       	sbc	r30, r20
    10a8:	f5 0b       	sbc	r31, r21

000010aa <__udivmodsi4_ep>:
    10aa:	66 1f       	adc	r22, r22
    10ac:	77 1f       	adc	r23, r23
    10ae:	88 1f       	adc	r24, r24
    10b0:	99 1f       	adc	r25, r25
    10b2:	1a 94       	dec	r1
    10b4:	69 f7       	brne	.-38     	; 0x1090 <__udivmodsi4_loop>
    10b6:	60 95       	com	r22
    10b8:	70 95       	com	r23
    10ba:	80 95       	com	r24
    10bc:	90 95       	com	r25
    10be:	9b 01       	movw	r18, r22
    10c0:	ac 01       	movw	r20, r24
    10c2:	bd 01       	movw	r22, r26
    10c4:	cf 01       	movw	r24, r30
    10c6:	08 95       	ret

000010c8 <_exit>:
    10c8:	f8 94       	cli

000010ca <__stop_program>:
    10ca:	ff cf       	rjmp	.-2      	; 0x10ca <__stop_program>
