
BicMeter.elf:     file format elf32-avr

Sections:
Idx Name          Size      VMA       LMA       File off  Algn
  0 .text         00000bde  00000000  00000000  00000094  2**1
                  CONTENTS, ALLOC, LOAD, READONLY, CODE
  1 .data         00000040  00800060  00000bde  00000c72  2**0
                  CONTENTS, ALLOC, LOAD, DATA
  2 .bss          00000074  008000a0  008000a0  00000cb2  2**0
                  ALLOC
  3 .stab         000006cc  00000000  00000000  00000cb4  2**2
                  CONTENTS, READONLY, DEBUGGING
  4 .stabstr      00000085  00000000  00000000  00001380  2**0
                  CONTENTS, READONLY, DEBUGGING
  5 .debug_aranges 000000c0  00000000  00000000  00001408  2**3
                  CONTENTS, READONLY, DEBUGGING
  6 .debug_info   0000052e  00000000  00000000  000014c8  2**0
                  CONTENTS, READONLY, DEBUGGING
  7 .debug_abbrev 00000078  00000000  00000000  000019f6  2**0
                  CONTENTS, READONLY, DEBUGGING
  8 .debug_line   0000038e  00000000  00000000  00001a6e  2**0
                  CONTENTS, READONLY, DEBUGGING

Disassembly of section .text:

00000000 <__vectors>:
   0:	12 c0       	rjmp	.+36     	; 0x26 <__ctors_end>
   2:	4c c5       	rjmp	.+2712   	; 0xa9c <__vector_1>
   4:	6e c5       	rjmp	.+2780   	; 0xae2 <__vector_2>
   6:	2a c0       	rjmp	.+84     	; 0x5c <__bad_interrupt>
   8:	29 c0       	rjmp	.+82     	; 0x5c <__bad_interrupt>
   a:	28 c0       	rjmp	.+80     	; 0x5c <__bad_interrupt>
   c:	27 c0       	rjmp	.+78     	; 0x5c <__bad_interrupt>
   e:	26 c0       	rjmp	.+76     	; 0x5c <__bad_interrupt>
  10:	1e c5       	rjmp	.+2620   	; 0xa4e <__vector_8>
  12:	f8 c4       	rjmp	.+2544   	; 0xa04 <__vector_9>
  14:	23 c0       	rjmp	.+70     	; 0x5c <__bad_interrupt>
  16:	22 c0       	rjmp	.+68     	; 0x5c <__bad_interrupt>
  18:	21 c0       	rjmp	.+66     	; 0x5c <__bad_interrupt>
  1a:	20 c0       	rjmp	.+64     	; 0x5c <__bad_interrupt>
  1c:	1f c0       	rjmp	.+62     	; 0x5c <__bad_interrupt>
  1e:	1e c0       	rjmp	.+60     	; 0x5c <__bad_interrupt>
  20:	1d c0       	rjmp	.+58     	; 0x5c <__bad_interrupt>
  22:	1c c0       	rjmp	.+56     	; 0x5c <__bad_interrupt>
  24:	1b c0       	rjmp	.+54     	; 0x5c <__bad_interrupt>

00000026 <__ctors_end>:
  26:	11 24       	eor	r1, r1
  28:	1f be       	out	0x3f, r1	; 63
  2a:	cf e5       	ldi	r28, 0x5F	; 95
  2c:	d4 e0       	ldi	r29, 0x04	; 4
  2e:	de bf       	out	0x3e, r29	; 62
  30:	cd bf       	out	0x3d, r28	; 61

00000032 <__do_copy_data>:
  32:	10 e0       	ldi	r17, 0x00	; 0
  34:	a0 e6       	ldi	r26, 0x60	; 96
  36:	b0 e0       	ldi	r27, 0x00	; 0
  38:	ee ed       	ldi	r30, 0xDE	; 222
  3a:	fb e0       	ldi	r31, 0x0B	; 11
  3c:	02 c0       	rjmp	.+4      	; 0x42 <__SREG__+0x3>
  3e:	05 90       	lpm	r0, Z+
  40:	0d 92       	st	X+, r0
  42:	a0 3a       	cpi	r26, 0xA0	; 160
  44:	b1 07       	cpc	r27, r17
  46:	d9 f7       	brne	.-10     	; 0x3e <__SP_H__>

00000048 <__do_clear_bss>:
  48:	11 e0       	ldi	r17, 0x01	; 1
  4a:	a0 ea       	ldi	r26, 0xA0	; 160
  4c:	b0 e0       	ldi	r27, 0x00	; 0
  4e:	01 c0       	rjmp	.+2      	; 0x52 <.do_clear_bss_start>

00000050 <.do_clear_bss_loop>:
  50:	1d 92       	st	X+, r1

00000052 <.do_clear_bss_start>:
  52:	a4 31       	cpi	r26, 0x14	; 20
  54:	b1 07       	cpc	r27, r17
  56:	e1 f7       	brne	.-8      	; 0x50 <.do_clear_bss_loop>
  58:	67 d5       	rcall	.+2766   	; 0xb28 <main>
  5a:	bf c5       	rjmp	.+2942   	; 0xbda <_exit>

0000005c <__bad_interrupt>:
  5c:	d1 cf       	rjmp	.-94     	; 0x0 <__vectors>

0000005e <IncrementDecrementSingleDigit>:
  5e:	cf 92       	push	r12
  60:	df 92       	push	r13
  62:	ef 92       	push	r14
  64:	ff 92       	push	r15
  66:	0f 93       	push	r16
  68:	1f 93       	push	r17
  6a:	cf 93       	push	r28
  6c:	df 93       	push	r29
  6e:	00 d0       	rcall	.+0      	; 0x70 <IncrementDecrementSingleDigit+0x12>
  70:	00 d0       	rcall	.+0      	; 0x72 <IncrementDecrementSingleDigit+0x14>
  72:	cd b7       	in	r28, 0x3d	; 61
  74:	de b7       	in	r29, 0x3e	; 62
  76:	9c 01       	movw	r18, r24
  78:	16 2f       	mov	r17, r22
  7a:	04 2f       	mov	r16, r20
  7c:	6e 01       	movw	r12, r28
  7e:	08 94       	sec
  80:	c1 1c       	adc	r12, r1
  82:	d1 1c       	adc	r13, r1
  84:	f6 01       	movw	r30, r12
  86:	44 e0       	ldi	r20, 0x04	; 4
  88:	aa e0       	ldi	r26, 0x0A	; 10
  8a:	ea 2e       	mov	r14, r26
  8c:	f1 2c       	mov	r15, r1
  8e:	21 15       	cp	r18, r1
  90:	31 05       	cpc	r19, r1
  92:	69 f0       	breq	.+26     	; 0xae <IncrementDecrementSingleDigit+0x50>
  94:	c9 01       	movw	r24, r18
  96:	b7 01       	movw	r22, r14
  98:	6a d5       	rcall	.+2772   	; 0xb6e <__udivmodhi4>
  9a:	96 2f       	mov	r25, r22
  9c:	99 0f       	add	r25, r25
  9e:	89 2f       	mov	r24, r25
  a0:	88 0f       	add	r24, r24
  a2:	88 0f       	add	r24, r24
  a4:	89 0f       	add	r24, r25
  a6:	28 1b       	sub	r18, r24
  a8:	20 83       	st	Z, r18
  aa:	9b 01       	movw	r18, r22
  ac:	01 c0       	rjmp	.+2      	; 0xb0 <IncrementDecrementSingleDigit+0x52>
  ae:	10 82       	st	Z, r1
  b0:	41 50       	subi	r20, 0x01	; 1
  b2:	31 96       	adiw	r30, 0x01	; 1
  b4:	44 23       	and	r20, r20
  b6:	59 f7       	brne	.-42     	; 0x8e <IncrementDecrementSingleDigit+0x30>
  b8:	e1 2f       	mov	r30, r17
  ba:	f0 e0       	ldi	r31, 0x00	; 0
  bc:	00 23       	and	r16, r16
  be:	69 f4       	brne	.+26     	; 0xda <IncrementDecrementSingleDigit+0x7c>
  c0:	81 e0       	ldi	r24, 0x01	; 1
  c2:	90 e0       	ldi	r25, 0x00	; 0
  c4:	8c 0f       	add	r24, r28
  c6:	9d 1f       	adc	r25, r29
  c8:	e8 0f       	add	r30, r24
  ca:	f9 1f       	adc	r31, r25
  cc:	80 81       	ld	r24, Z
  ce:	88 23       	and	r24, r24
  d0:	11 f4       	brne	.+4      	; 0xd6 <IncrementDecrementSingleDigit+0x78>
  d2:	89 e0       	ldi	r24, 0x09	; 9
  d4:	0e c0       	rjmp	.+28     	; 0xf2 <IncrementDecrementSingleDigit+0x94>
  d6:	81 50       	subi	r24, 0x01	; 1
  d8:	0c c0       	rjmp	.+24     	; 0xf2 <IncrementDecrementSingleDigit+0x94>
  da:	a1 e0       	ldi	r26, 0x01	; 1
  dc:	b0 e0       	ldi	r27, 0x00	; 0
  de:	ac 0f       	add	r26, r28
  e0:	bd 1f       	adc	r27, r29
  e2:	ea 0f       	add	r30, r26
  e4:	fb 1f       	adc	r31, r27
  e6:	80 81       	ld	r24, Z
  e8:	89 30       	cpi	r24, 0x09	; 9
  ea:	11 f4       	brne	.+4      	; 0xf0 <IncrementDecrementSingleDigit+0x92>
  ec:	10 82       	st	Z, r1
  ee:	02 c0       	rjmp	.+4      	; 0xf4 <IncrementDecrementSingleDigit+0x96>
  f0:	8f 5f       	subi	r24, 0xFF	; 255
  f2:	80 83       	st	Z, r24
  f4:	20 e0       	ldi	r18, 0x00	; 0
  f6:	60 e0       	ldi	r22, 0x00	; 0
  f8:	70 e0       	ldi	r23, 0x00	; 0
  fa:	1e c0       	rjmp	.+60     	; 0x138 <IncrementDecrementSingleDigit+0xda>
  fc:	ca 01       	movw	r24, r20
  fe:	88 0f       	add	r24, r24
 100:	99 1f       	adc	r25, r25
 102:	f3 e0       	ldi	r31, 0x03	; 3
 104:	44 0f       	add	r20, r20
 106:	55 1f       	adc	r21, r21
 108:	fa 95       	dec	r31
 10a:	e1 f7       	brne	.-8      	; 0x104 <IncrementDecrementSingleDigit+0xa6>
 10c:	48 0f       	add	r20, r24
 10e:	59 1f       	adc	r21, r25
 110:	ef 5f       	subi	r30, 0xFF	; 255
 112:	e2 17       	cp	r30, r18
 114:	99 f7       	brne	.-26     	; 0xfc <IncrementDecrementSingleDigit+0x9e>
 116:	d6 01       	movw	r26, r12
 118:	8d 91       	ld	r24, X+
 11a:	6d 01       	movw	r12, r26
 11c:	90 e0       	ldi	r25, 0x00	; 0
 11e:	48 9f       	mul	r20, r24
 120:	90 01       	movw	r18, r0
 122:	49 9f       	mul	r20, r25
 124:	30 0d       	add	r19, r0
 126:	58 9f       	mul	r21, r24
 128:	30 0d       	add	r19, r0
 12a:	11 24       	eor	r1, r1
 12c:	62 0f       	add	r22, r18
 12e:	73 1f       	adc	r23, r19
 130:	2e 2f       	mov	r18, r30
 132:	2f 5f       	subi	r18, 0xFF	; 255
 134:	24 30       	cpi	r18, 0x04	; 4
 136:	21 f0       	breq	.+8      	; 0x140 <IncrementDecrementSingleDigit+0xe2>
 138:	41 e0       	ldi	r20, 0x01	; 1
 13a:	50 e0       	ldi	r21, 0x00	; 0
 13c:	e0 e0       	ldi	r30, 0x00	; 0
 13e:	e9 cf       	rjmp	.-46     	; 0x112 <IncrementDecrementSingleDigit+0xb4>
 140:	cb 01       	movw	r24, r22
 142:	0f 90       	pop	r0
 144:	0f 90       	pop	r0
 146:	0f 90       	pop	r0
 148:	0f 90       	pop	r0
 14a:	df 91       	pop	r29
 14c:	cf 91       	pop	r28
 14e:	1f 91       	pop	r17
 150:	0f 91       	pop	r16
 152:	ff 90       	pop	r15
 154:	ef 90       	pop	r14
 156:	df 90       	pop	r13
 158:	cf 90       	pop	r12
 15a:	08 95       	ret

0000015c <APP_INITIALIZE>:
 15c:	81 e0       	ldi	r24, 0x01	; 1
 15e:	60 ea       	ldi	r22, 0xA0	; 160
 160:	70 e0       	ldi	r23, 0x00	; 0
 162:	42 e0       	ldi	r20, 0x02	; 2
 164:	8a d1       	rcall	.+788    	; 0x47a <Eeprom_Read_Block>
 166:	80 91 a0 00 	lds	r24, 0x00A0
 16a:	90 91 a1 00 	lds	r25, 0x00A1
 16e:	27 e2       	ldi	r18, 0x27	; 39
 170:	80 31       	cpi	r24, 0x10	; 16
 172:	92 07       	cpc	r25, r18
 174:	20 f0       	brcs	.+8      	; 0x17e <APP_INITIALIZE+0x22>
 176:	10 92 a1 00 	sts	0x00A1, r1
 17a:	10 92 a0 00 	sts	0x00A0, r1
 17e:	08 95       	ret

00000180 <APP_MANAGE>:
 180:	cf 93       	push	r28
 182:	df 93       	push	r29
 184:	80 91 a0 00 	lds	r24, 0x00A0
 188:	90 91 a1 00 	lds	r25, 0x00A1
 18c:	08 d3       	rcall	.+1552   	; 0x79e <SetCircumfirunce>
 18e:	81 e0       	ldi	r24, 0x01	; 1
 190:	0b d3       	rcall	.+1558   	; 0x7a8 <GetAvgSpeed>
 192:	ec 01       	movw	r28, r24
 194:	fb d2       	rcall	.+1526   	; 0x78c <GetDistance>
 196:	80 91 a2 00 	lds	r24, 0x00A2
 19a:	90 91 a3 00 	lds	r25, 0x00A3
 19e:	00 97       	sbiw	r24, 0x00	; 0
 1a0:	81 f4       	brne	.+32     	; 0x1c2 <APP_MANAGE+0x42>
 1a2:	ce 01       	movw	r24, r28
 1a4:	61 e0       	ldi	r22, 0x01	; 1
 1a6:	41 e0       	ldi	r20, 0x01	; 1
 1a8:	60 d0       	rcall	.+192    	; 0x26a <BCDsendNumber>
 1aa:	80 e0       	ldi	r24, 0x00	; 0
 1ac:	be d1       	rcall	.+892    	; 0x52a <GetKeyStatus>
 1ae:	82 38       	cpi	r24, 0x82	; 130
 1b0:	09 f0       	breq	.+2      	; 0x1b4 <APP_MANAGE+0x34>
 1b2:	55 c0       	rjmp	.+170    	; 0x25e <APP_MANAGE+0xde>
 1b4:	81 e0       	ldi	r24, 0x01	; 1
 1b6:	90 e0       	ldi	r25, 0x00	; 0
 1b8:	90 93 a3 00 	sts	0x00A3, r25
 1bc:	80 93 a2 00 	sts	0x00A2, r24
 1c0:	4e c0       	rjmp	.+156    	; 0x25e <APP_MANAGE+0xde>
 1c2:	80 91 a0 00 	lds	r24, 0x00A0
 1c6:	90 91 a1 00 	lds	r25, 0x00A1
 1ca:	60 e0       	ldi	r22, 0x00	; 0
 1cc:	40 e0       	ldi	r20, 0x00	; 0
 1ce:	4d d0       	rcall	.+154    	; 0x26a <BCDsendNumber>
 1d0:	80 91 a4 00 	lds	r24, 0x00A4
 1d4:	64 e6       	ldi	r22, 0x64	; 100
 1d6:	e3 d0       	rcall	.+454    	; 0x39e <BlinkDigit>
 1d8:	80 e0       	ldi	r24, 0x00	; 0
 1da:	a7 d1       	rcall	.+846    	; 0x52a <GetKeyStatus>
 1dc:	80 34       	cpi	r24, 0x40	; 64
 1de:	89 f4       	brne	.+34     	; 0x202 <APP_MANAGE+0x82>
 1e0:	80 91 a4 00 	lds	r24, 0x00A4
 1e4:	90 91 a5 00 	lds	r25, 0x00A5
 1e8:	01 96       	adiw	r24, 0x01	; 1
 1ea:	90 93 a5 00 	sts	0x00A5, r25
 1ee:	80 93 a4 00 	sts	0x00A4, r24
 1f2:	84 30       	cpi	r24, 0x04	; 4
 1f4:	91 05       	cpc	r25, r1
 1f6:	99 f5       	brne	.+102    	; 0x25e <APP_MANAGE+0xde>
 1f8:	10 92 a5 00 	sts	0x00A5, r1
 1fc:	10 92 a4 00 	sts	0x00A4, r1
 200:	2e c0       	rjmp	.+92     	; 0x25e <APP_MANAGE+0xde>
 202:	81 e0       	ldi	r24, 0x01	; 1
 204:	92 d1       	rcall	.+804    	; 0x52a <GetKeyStatus>
 206:	c8 2f       	mov	r28, r24
 208:	82 e0       	ldi	r24, 0x02	; 2
 20a:	8f d1       	rcall	.+798    	; 0x52a <GetKeyStatus>
 20c:	c2 38       	cpi	r28, 0x82	; 130
 20e:	79 f4       	brne	.+30     	; 0x22e <APP_MANAGE+0xae>
 210:	81 e0       	ldi	r24, 0x01	; 1
 212:	60 ea       	ldi	r22, 0xA0	; 160
 214:	70 e0       	ldi	r23, 0x00	; 0
 216:	42 e0       	ldi	r20, 0x02	; 2
 218:	20 e0       	ldi	r18, 0x00	; 0
 21a:	30 e0       	ldi	r19, 0x00	; 0
 21c:	0d d1       	rcall	.+538    	; 0x438 <Eeprom_Write_Block>
 21e:	81 e0       	ldi	r24, 0x01	; 1
 220:	60 e0       	ldi	r22, 0x00	; 0
 222:	bd d0       	rcall	.+378    	; 0x39e <BlinkDigit>
 224:	10 92 a3 00 	sts	0x00A3, r1
 228:	10 92 a2 00 	sts	0x00A2, r1
 22c:	18 c0       	rjmp	.+48     	; 0x25e <APP_MANAGE+0xde>
 22e:	c0 34       	cpi	r28, 0x40	; 64
 230:	41 f4       	brne	.+16     	; 0x242 <APP_MANAGE+0xc2>
 232:	80 91 a0 00 	lds	r24, 0x00A0
 236:	90 91 a1 00 	lds	r25, 0x00A1
 23a:	60 91 a4 00 	lds	r22, 0x00A4
 23e:	40 e0       	ldi	r20, 0x00	; 0
 240:	09 c0       	rjmp	.+18     	; 0x254 <APP_MANAGE+0xd4>
 242:	80 34       	cpi	r24, 0x40	; 64
 244:	61 f4       	brne	.+24     	; 0x25e <APP_MANAGE+0xde>
 246:	80 91 a0 00 	lds	r24, 0x00A0
 24a:	90 91 a1 00 	lds	r25, 0x00A1
 24e:	60 91 a4 00 	lds	r22, 0x00A4
 252:	41 e0       	ldi	r20, 0x01	; 1
 254:	04 df       	rcall	.-504    	; 0x5e <IncrementDecrementSingleDigit>
 256:	90 93 a1 00 	sts	0x00A1, r25
 25a:	80 93 a0 00 	sts	0x00A0, r24
 25e:	df 91       	pop	r29
 260:	cf 91       	pop	r28
 262:	08 95       	ret

00000264 <BCDInitialize>:
 264:	80 93 a6 00 	sts	0x00A6, r24
 268:	08 95       	ret

0000026a <BCDsendNumber>:
 26a:	ef 92       	push	r14
 26c:	ff 92       	push	r15
 26e:	0f 93       	push	r16
 270:	1f 93       	push	r17
 272:	cf 93       	push	r28
 274:	df 93       	push	r29
 276:	e6 2f       	mov	r30, r22
 278:	f4 2f       	mov	r31, r20
 27a:	c7 ea       	ldi	r28, 0xA7	; 167
 27c:	d0 e0       	ldi	r29, 0x00	; 0
 27e:	9c 01       	movw	r18, r24
 280:	40 e0       	ldi	r20, 0x00	; 0
 282:	0a e0       	ldi	r16, 0x0A	; 10
 284:	10 e0       	ldi	r17, 0x00	; 0
 286:	6c ef       	ldi	r22, 0xFC	; 252
 288:	e6 2e       	mov	r14, r22
 28a:	f1 2c       	mov	r15, r1
 28c:	21 15       	cp	r18, r1
 28e:	31 05       	cpc	r19, r1
 290:	11 f4       	brne	.+4      	; 0x296 <BCDsendNumber+0x2c>
 292:	e4 17       	cp	r30, r20
 294:	c0 f0       	brcs	.+48     	; 0x2c6 <BCDsendNumber+0x5c>
 296:	c9 01       	movw	r24, r18
 298:	b8 01       	movw	r22, r16
 29a:	69 d4       	rcall	.+2258   	; 0xb6e <__udivmodhi4>
 29c:	cb 01       	movw	r24, r22
 29e:	db 01       	movw	r26, r22
 2a0:	aa 0f       	add	r26, r26
 2a2:	bb 1f       	adc	r27, r27
 2a4:	53 e0       	ldi	r21, 0x03	; 3
 2a6:	88 0f       	add	r24, r24
 2a8:	99 1f       	adc	r25, r25
 2aa:	5a 95       	dec	r21
 2ac:	e1 f7       	brne	.-8      	; 0x2a6 <BCDsendNumber+0x3c>
 2ae:	a8 0f       	add	r26, r24
 2b0:	b9 1f       	adc	r27, r25
 2b2:	2a 1b       	sub	r18, r26
 2b4:	3b 0b       	sbc	r19, r27
 2b6:	20 5a       	subi	r18, 0xA0	; 160
 2b8:	3f 4f       	sbci	r19, 0xFF	; 255
 2ba:	d9 01       	movw	r26, r18
 2bc:	8c 91       	ld	r24, X
 2be:	88 83       	st	Y, r24
 2c0:	19 82       	std	Y+1, r1	; 0x01
 2c2:	9b 01       	movw	r18, r22
 2c4:	07 c0       	rjmp	.+14     	; 0x2d4 <BCDsendNumber+0x6a>
 2c6:	ff 23       	and	r31, r31
 2c8:	19 f4       	brne	.+6      	; 0x2d0 <BCDsendNumber+0x66>
 2ca:	f9 82       	std	Y+1, r15	; 0x01
 2cc:	e8 82       	st	Y, r14
 2ce:	02 c0       	rjmp	.+4      	; 0x2d4 <BCDsendNumber+0x6a>
 2d0:	19 82       	std	Y+1, r1	; 0x01
 2d2:	18 82       	st	Y, r1
 2d4:	4f 5f       	subi	r20, 0xFF	; 255
 2d6:	22 96       	adiw	r28, 0x02	; 2
 2d8:	44 30       	cpi	r20, 0x04	; 4
 2da:	c1 f6       	brne	.-80     	; 0x28c <BCDsendNumber+0x22>
 2dc:	ee 23       	and	r30, r30
 2de:	51 f0       	breq	.+20     	; 0x2f4 <BCDsendNumber+0x8a>
 2e0:	f0 e0       	ldi	r31, 0x00	; 0
 2e2:	ee 0f       	add	r30, r30
 2e4:	ff 1f       	adc	r31, r31
 2e6:	e9 55       	subi	r30, 0x59	; 89
 2e8:	ff 4f       	sbci	r31, 0xFF	; 255
 2ea:	80 81       	ld	r24, Z
 2ec:	91 81       	ldd	r25, Z+1	; 0x01
 2ee:	81 60       	ori	r24, 0x01	; 1
 2f0:	91 83       	std	Z+1, r25	; 0x01
 2f2:	80 83       	st	Z, r24
 2f4:	df 91       	pop	r29
 2f6:	cf 91       	pop	r28
 2f8:	1f 91       	pop	r17
 2fa:	0f 91       	pop	r16
 2fc:	ff 90       	pop	r15
 2fe:	ef 90       	pop	r14
 300:	08 95       	ret

00000302 <BCDManage7segment>:
 302:	cf 93       	push	r28
 304:	90 91 af 00 	lds	r25, 0x00AF
 308:	99 23       	and	r25, r25
 30a:	81 f0       	breq	.+32     	; 0x32c <BCDManage7segment+0x2a>
 30c:	80 91 b0 00 	lds	r24, 0x00B0
 310:	8f 5f       	subi	r24, 0xFF	; 255
 312:	80 93 b0 00 	sts	0x00B0, r24
 316:	89 17       	cp	r24, r25
 318:	59 f4       	brne	.+22     	; 0x330 <BCDManage7segment+0x2e>
 31a:	80 91 b1 00 	lds	r24, 0x00B1
 31e:	91 e0       	ldi	r25, 0x01	; 1
 320:	89 27       	eor	r24, r25
 322:	80 93 b1 00 	sts	0x00B1, r24
 326:	10 92 b0 00 	sts	0x00B0, r1
 32a:	02 c0       	rjmp	.+4      	; 0x330 <BCDManage7segment+0x2e>
 32c:	10 92 b1 00 	sts	0x00B1, r1
 330:	80 91 b1 00 	lds	r24, 0x00B1
 334:	81 30       	cpi	r24, 0x01	; 1
 336:	31 f4       	brne	.+12     	; 0x344 <BCDManage7segment+0x42>
 338:	90 91 b2 00 	lds	r25, 0x00B2
 33c:	80 91 b3 00 	lds	r24, 0x00B3
 340:	98 17       	cp	r25, r24
 342:	a9 f0       	breq	.+42     	; 0x36e <BCDManage7segment+0x6c>
 344:	e0 91 b2 00 	lds	r30, 0x00B2
 348:	f0 e0       	ldi	r31, 0x00	; 0
 34a:	83 e0       	ldi	r24, 0x03	; 3
 34c:	90 e0       	ldi	r25, 0x00	; 0
 34e:	8e 1b       	sub	r24, r30
 350:	9f 0b       	sbc	r25, r31
 352:	61 e0       	ldi	r22, 0x01	; 1
 354:	70 e0       	ldi	r23, 0x00	; 0
 356:	02 c0       	rjmp	.+4      	; 0x35c <BCDManage7segment+0x5a>
 358:	66 0f       	add	r22, r22
 35a:	77 1f       	adc	r23, r23
 35c:	8a 95       	dec	r24
 35e:	e2 f7       	brpl	.-8      	; 0x358 <BCDManage7segment+0x56>
 360:	60 95       	com	r22
 362:	ee 0f       	add	r30, r30
 364:	ff 1f       	adc	r31, r31
 366:	e9 55       	subi	r30, 0x59	; 89
 368:	ff 4f       	sbci	r31, 0xFF	; 255
 36a:	c0 81       	ld	r28, Z
 36c:	02 c0       	rjmp	.+4      	; 0x372 <BCDManage7segment+0x70>
 36e:	c0 e0       	ldi	r28, 0x00	; 0
 370:	6f e0       	ldi	r22, 0x0F	; 15
 372:	80 91 a6 00 	lds	r24, 0x00A6
 376:	81 30       	cpi	r24, 0x01	; 1
 378:	11 f4       	brne	.+4      	; 0x37e <BCDManage7segment+0x7c>
 37a:	60 95       	com	r22
 37c:	c0 95       	com	r28
 37e:	80 e0       	ldi	r24, 0x00	; 0
 380:	e9 d2       	rcall	.+1490   	; 0x954 <HWI_4Digit_WRITE>
 382:	81 e0       	ldi	r24, 0x01	; 1
 384:	6c 2f       	mov	r22, r28
 386:	ff d2       	rcall	.+1534   	; 0x986 <HWI_8Digit_WRITE>
 388:	80 91 b2 00 	lds	r24, 0x00B2
 38c:	8f 5f       	subi	r24, 0xFF	; 255
 38e:	80 93 b2 00 	sts	0x00B2, r24
 392:	84 30       	cpi	r24, 0x04	; 4
 394:	11 f4       	brne	.+4      	; 0x39a <BCDManage7segment+0x98>
 396:	10 92 b2 00 	sts	0x00B2, r1
 39a:	cf 91       	pop	r28
 39c:	08 95       	ret

0000039e <BlinkDigit>:
 39e:	80 93 b3 00 	sts	0x00B3, r24
 3a2:	60 93 af 00 	sts	0x00AF, r22
 3a6:	08 95       	ret

000003a8 <Segment7SendString>:
 3a8:	50 e0       	ldi	r21, 0x00	; 0
 3aa:	48 0f       	add	r20, r24
 3ac:	51 1d       	adc	r21, r1
 3ae:	45 30       	cpi	r20, 0x05	; 5
 3b0:	51 05       	cpc	r21, r1
 3b2:	6c f0       	brlt	.+26     	; 0x3ce <Segment7SendString+0x26>
 3b4:	11 c0       	rjmp	.+34     	; 0x3d8 <Segment7SendString+0x30>
 3b6:	f9 01       	movw	r30, r18
 3b8:	ee 0f       	add	r30, r30
 3ba:	ff 1f       	adc	r31, r31
 3bc:	e9 55       	subi	r30, 0x59	; 89
 3be:	ff 4f       	sbci	r31, 0xFF	; 255
 3c0:	26 0f       	add	r18, r22
 3c2:	37 1f       	adc	r19, r23
 3c4:	d9 01       	movw	r26, r18
 3c6:	9c 91       	ld	r25, X
 3c8:	90 83       	st	Z, r25
 3ca:	11 82       	std	Z+1, r1	; 0x01
 3cc:	8f 5f       	subi	r24, 0xFF	; 255
 3ce:	28 2f       	mov	r18, r24
 3d0:	30 e0       	ldi	r19, 0x00	; 0
 3d2:	24 17       	cp	r18, r20
 3d4:	35 07       	cpc	r19, r21
 3d6:	7c f3       	brlt	.-34     	; 0x3b6 <Segment7SendString+0xe>
 3d8:	08 95       	ret

000003da <DisplaySendString>:
 3da:	0f 93       	push	r16
 3dc:	1f 93       	push	r17
 3de:	cf 93       	push	r28
 3e0:	df 93       	push	r29
 3e2:	00 d0       	rcall	.+0      	; 0x3e4 <DisplaySendString+0xa>
 3e4:	00 d0       	rcall	.+0      	; 0x3e6 <DisplaySendString+0xc>
 3e6:	cd b7       	in	r28, 0x3d	; 61
 3e8:	de b7       	in	r29, 0x3e	; 62
 3ea:	db 01       	movw	r26, r22
 3ec:	20 e0       	ldi	r18, 0x00	; 0
 3ee:	30 e0       	ldi	r19, 0x00	; 0
 3f0:	be 01       	movw	r22, r28
 3f2:	6f 5f       	subi	r22, 0xFF	; 255
 3f4:	7f 4f       	sbci	r23, 0xFF	; 255
 3f6:	64 0f       	add	r22, r20
 3f8:	71 1d       	adc	r23, r1
 3fa:	0f c0       	rjmp	.+30     	; 0x41a <DisplaySendString+0x40>
 3fc:	ed 91       	ld	r30, X+
 3fe:	2f 5f       	subi	r18, 0xFF	; 255
 400:	3f 4f       	sbci	r19, 0xFF	; 255
 402:	e1 54       	subi	r30, 0x41	; 65
 404:	e6 32       	cpi	r30, 0x26	; 38
 406:	48 f4       	brcc	.+18     	; 0x41a <DisplaySendString+0x40>
 408:	8b 01       	movw	r16, r22
 40a:	02 1b       	sub	r16, r18
 40c:	13 0b       	sbc	r17, r19
 40e:	f0 e0       	ldi	r31, 0x00	; 0
 410:	e5 59       	subi	r30, 0x95	; 149
 412:	ff 4f       	sbci	r31, 0xFF	; 255
 414:	90 81       	ld	r25, Z
 416:	f8 01       	movw	r30, r16
 418:	90 83       	st	Z, r25
 41a:	24 17       	cp	r18, r20
 41c:	78 f3       	brcs	.-34     	; 0x3fc <DisplaySendString+0x22>
 41e:	be 01       	movw	r22, r28
 420:	6f 5f       	subi	r22, 0xFF	; 255
 422:	7f 4f       	sbci	r23, 0xFF	; 255
 424:	c1 df       	rcall	.-126    	; 0x3a8 <Segment7SendString>
 426:	0f 90       	pop	r0
 428:	0f 90       	pop	r0
 42a:	0f 90       	pop	r0
 42c:	0f 90       	pop	r0
 42e:	df 91       	pop	r29
 430:	cf 91       	pop	r28
 432:	1f 91       	pop	r17
 434:	0f 91       	pop	r16
 436:	08 95       	ret

00000438 <Eeprom_Write_Block>:
 438:	90 91 b4 00 	lds	r25, 0x00B4
 43c:	99 23       	and	r25, r25
 43e:	c9 f4       	brne	.+50     	; 0x472 <__stack+0x13>
 440:	43 33       	cpi	r20, 0x33	; 51
 442:	c8 f4       	brcc	.+50     	; 0x476 <__stack+0x17>
 444:	91 e0       	ldi	r25, 0x01	; 1
 446:	90 93 b4 00 	sts	0x00B4, r25
 44a:	a5 eb       	ldi	r26, 0xB5	; 181
 44c:	b0 e0       	ldi	r27, 0x00	; 0
 44e:	fb 01       	movw	r30, r22
 450:	02 c0       	rjmp	.+4      	; 0x456 <Eeprom_Write_Block+0x1e>
 452:	91 91       	ld	r25, Z+
 454:	9d 93       	st	X+, r25
 456:	9e 2f       	mov	r25, r30
 458:	96 1b       	sub	r25, r22
 45a:	94 17       	cp	r25, r20
 45c:	d0 f3       	brcs	.-12     	; 0x452 <Eeprom_Write_Block+0x1a>
 45e:	40 93 e7 00 	sts	0x00E7, r20
 462:	80 93 e8 00 	sts	0x00E8, r24
 466:	30 93 ea 00 	sts	0x00EA, r19
 46a:	20 93 e9 00 	sts	0x00E9, r18
 46e:	81 e0       	ldi	r24, 0x01	; 1
 470:	08 95       	ret
 472:	80 e0       	ldi	r24, 0x00	; 0
 474:	08 95       	ret
 476:	80 e0       	ldi	r24, 0x00	; 0
 478:	08 95       	ret

0000047a <Eeprom_Read_Block>:
 47a:	ef 92       	push	r14
 47c:	ff 92       	push	r15
 47e:	0f 93       	push	r16
 480:	1f 93       	push	r17
 482:	cf 93       	push	r28
 484:	df 93       	push	r29
 486:	0f 92       	push	r0
 488:	cd b7       	in	r28, 0x3d	; 61
 48a:	de b7       	in	r29, 0x3e	; 62
 48c:	18 2f       	mov	r17, r24
 48e:	7b 01       	movw	r14, r22
 490:	80 91 b4 00 	lds	r24, 0x00B4
 494:	88 23       	and	r24, r24
 496:	71 f0       	breq	.+28     	; 0x4b4 <Eeprom_Read_Block+0x3a>
 498:	80 e0       	ldi	r24, 0x00	; 0
 49a:	10 c0       	rjmp	.+32     	; 0x4bc <Eeprom_Read_Block+0x42>
 49c:	b7 01       	movw	r22, r14
 49e:	60 0f       	add	r22, r16
 4a0:	71 1d       	adc	r23, r1
 4a2:	80 2f       	mov	r24, r16
 4a4:	81 0f       	add	r24, r17
 4a6:	49 83       	std	Y+1, r20	; 0x01
 4a8:	30 d2       	rcall	.+1120   	; 0x90a <HWIeeprom_Read>
 4aa:	49 81       	ldd	r20, Y+1	; 0x01
 4ac:	81 30       	cpi	r24, 0x01	; 1
 4ae:	19 f4       	brne	.+6      	; 0x4b6 <Eeprom_Read_Block+0x3c>
 4b0:	0f 5f       	subi	r16, 0xFF	; 255
 4b2:	01 c0       	rjmp	.+2      	; 0x4b6 <Eeprom_Read_Block+0x3c>
 4b4:	00 e0       	ldi	r16, 0x00	; 0
 4b6:	04 17       	cp	r16, r20
 4b8:	88 f3       	brcs	.-30     	; 0x49c <Eeprom_Read_Block+0x22>
 4ba:	81 e0       	ldi	r24, 0x01	; 1
 4bc:	0f 90       	pop	r0
 4be:	df 91       	pop	r29
 4c0:	cf 91       	pop	r28
 4c2:	1f 91       	pop	r17
 4c4:	0f 91       	pop	r16
 4c6:	ff 90       	pop	r15
 4c8:	ef 90       	pop	r14
 4ca:	08 95       	ret

000004cc <EepromManage>:
 4cc:	80 91 b4 00 	lds	r24, 0x00B4
 4d0:	81 30       	cpi	r24, 0x01	; 1
 4d2:	11 f5       	brne	.+68     	; 0x518 <EepromManage+0x4c>
 4d4:	80 91 eb 00 	lds	r24, 0x00EB
 4d8:	90 91 e7 00 	lds	r25, 0x00E7
 4dc:	89 17       	cp	r24, r25
 4de:	61 f4       	brne	.+24     	; 0x4f8 <EepromManage+0x2c>
 4e0:	10 92 eb 00 	sts	0x00EB, r1
 4e4:	10 92 b4 00 	sts	0x00B4, r1
 4e8:	e0 91 e9 00 	lds	r30, 0x00E9
 4ec:	f0 91 ea 00 	lds	r31, 0x00EA
 4f0:	30 97       	sbiw	r30, 0x00	; 0
 4f2:	91 f0       	breq	.+36     	; 0x518 <EepromManage+0x4c>
 4f4:	09 95       	icall
 4f6:	08 95       	ret
 4f8:	90 91 e8 00 	lds	r25, 0x00E8
 4fc:	e8 2f       	mov	r30, r24
 4fe:	f0 e0       	ldi	r31, 0x00	; 0
 500:	eb 54       	subi	r30, 0x4B	; 75
 502:	ff 4f       	sbci	r31, 0xFF	; 255
 504:	89 0f       	add	r24, r25
 506:	60 81       	ld	r22, Z
 508:	f4 d1       	rcall	.+1000   	; 0x8f2 <HWIeeprom_Write>
 50a:	81 30       	cpi	r24, 0x01	; 1
 50c:	29 f4       	brne	.+10     	; 0x518 <EepromManage+0x4c>
 50e:	80 91 eb 00 	lds	r24, 0x00EB
 512:	8f 5f       	subi	r24, 0xFF	; 255
 514:	80 93 eb 00 	sts	0x00EB, r24
 518:	08 95       	ret

0000051a <KeyInitialize>:
 51a:	89 e0       	ldi	r24, 0x09	; 9
 51c:	ec ee       	ldi	r30, 0xEC	; 236
 51e:	f0 e0       	ldi	r31, 0x00	; 0
 520:	df 01       	movw	r26, r30
 522:	1d 92       	st	X+, r1
 524:	8a 95       	dec	r24
 526:	e9 f7       	brne	.-6      	; 0x522 <KeyInitialize+0x8>
 528:	08 95       	ret

0000052a <GetKeyStatus>:
 52a:	90 e0       	ldi	r25, 0x00	; 0
 52c:	fc 01       	movw	r30, r24
 52e:	ee 0f       	add	r30, r30
 530:	ff 1f       	adc	r31, r31
 532:	e8 0f       	add	r30, r24
 534:	f9 1f       	adc	r31, r25
 536:	e4 51       	subi	r30, 0x14	; 20
 538:	ff 4f       	sbci	r31, 0xFF	; 255
 53a:	80 81       	ld	r24, Z
 53c:	98 2f       	mov	r25, r24
 53e:	9f 73       	andi	r25, 0x3F	; 63
 540:	90 83       	st	Z, r25
 542:	08 95       	ret

00000544 <MangeKeys>:
 544:	ef 92       	push	r14
 546:	ff 92       	push	r15
 548:	0f 93       	push	r16
 54a:	1f 93       	push	r17
 54c:	cf 93       	push	r28
 54e:	df 93       	push	r29
 550:	0f 92       	push	r0
 552:	cd b7       	in	r28, 0x3d	; 61
 554:	de b7       	in	r29, 0x3e	; 62
 556:	90 e0       	ldi	r25, 0x00	; 0
 558:	7c 01       	movw	r14, r24
 55a:	ee 0c       	add	r14, r14
 55c:	ff 1c       	adc	r15, r15
 55e:	e8 0e       	add	r14, r24
 560:	f9 1e       	adc	r15, r25
 562:	2c ee       	ldi	r18, 0xEC	; 236
 564:	30 e0       	ldi	r19, 0x00	; 0
 566:	e2 0e       	add	r14, r18
 568:	f3 1e       	adc	r15, r19
 56a:	f7 01       	movw	r30, r14
 56c:	20 81       	ld	r18, Z
 56e:	2f 73       	andi	r18, 0x3F	; 63
 570:	8c 01       	movw	r16, r24
 572:	43 e0       	ldi	r20, 0x03	; 3
 574:	00 0f       	add	r16, r16
 576:	11 1f       	adc	r17, r17
 578:	4a 95       	dec	r20
 57a:	e1 f7       	brne	.-8      	; 0x574 <MangeKeys+0x30>
 57c:	0b 57       	subi	r16, 0x7B	; 123
 57e:	1f 4f       	sbci	r17, 0xFF	; 255
 580:	f8 01       	movw	r30, r16
 582:	80 81       	ld	r24, Z
 584:	29 83       	std	Y+1, r18	; 0x01
 586:	d4 d1       	rcall	.+936    	; 0x930 <HWI_DIGI_READ>
 588:	29 81       	ldd	r18, Y+1	; 0x01
 58a:	21 30       	cpi	r18, 0x01	; 1
 58c:	f9 f0       	breq	.+62     	; 0x5cc <MangeKeys+0x88>
 58e:	21 30       	cpi	r18, 0x01	; 1
 590:	20 f0       	brcs	.+8      	; 0x59a <MangeKeys+0x56>
 592:	22 30       	cpi	r18, 0x02	; 2
 594:	09 f0       	breq	.+2      	; 0x598 <MangeKeys+0x54>
 596:	5c c0       	rjmp	.+184    	; 0x650 <MangeKeys+0x10c>
 598:	46 c0       	rjmp	.+140    	; 0x626 <MangeKeys+0xe2>
 59a:	f8 01       	movw	r30, r16
 59c:	91 81       	ldd	r25, Z+1	; 0x01
 59e:	f7 01       	movw	r30, r14
 5a0:	98 17       	cp	r25, r24
 5a2:	89 f4       	brne	.+34     	; 0x5c6 <MangeKeys+0x82>
 5a4:	81 81       	ldd	r24, Z+1	; 0x01
 5a6:	92 81       	ldd	r25, Z+2	; 0x02
 5a8:	01 96       	adiw	r24, 0x01	; 1
 5aa:	92 83       	std	Z+2, r25	; 0x02
 5ac:	81 83       	std	Z+1, r24	; 0x01
 5ae:	f8 01       	movw	r30, r16
 5b0:	24 81       	ldd	r18, Z+4	; 0x04
 5b2:	35 81       	ldd	r19, Z+5	; 0x05
 5b4:	28 17       	cp	r18, r24
 5b6:	39 07       	cpc	r19, r25
 5b8:	09 f0       	breq	.+2      	; 0x5bc <MangeKeys+0x78>
 5ba:	4c c0       	rjmp	.+152    	; 0x654 <MangeKeys+0x110>
 5bc:	81 e8       	ldi	r24, 0x81	; 129
 5be:	f7 01       	movw	r30, r14
 5c0:	80 83       	st	Z, r24
 5c2:	f8 01       	movw	r30, r16
 5c4:	34 c0       	rjmp	.+104    	; 0x62e <MangeKeys+0xea>
 5c6:	12 82       	std	Z+2, r1	; 0x02
 5c8:	11 82       	std	Z+1, r1	; 0x01
 5ca:	44 c0       	rjmp	.+136    	; 0x654 <MangeKeys+0x110>
 5cc:	f8 01       	movw	r30, r16
 5ce:	91 81       	ldd	r25, Z+1	; 0x01
 5d0:	f7 01       	movw	r30, r14
 5d2:	21 81       	ldd	r18, Z+1	; 0x01
 5d4:	32 81       	ldd	r19, Z+2	; 0x02
 5d6:	f8 01       	movw	r30, r16
 5d8:	42 81       	ldd	r20, Z+2	; 0x02
 5da:	53 81       	ldd	r21, Z+3	; 0x03
 5dc:	98 17       	cp	r25, r24
 5de:	b1 f4       	brne	.+44     	; 0x60c <MangeKeys+0xc8>
 5e0:	24 17       	cp	r18, r20
 5e2:	35 07       	cpc	r19, r21
 5e4:	78 f0       	brcs	.+30     	; 0x604 <MangeKeys+0xc0>
 5e6:	2f 5f       	subi	r18, 0xFF	; 255
 5e8:	3f 4f       	sbci	r19, 0xFF	; 255
 5ea:	f7 01       	movw	r30, r14
 5ec:	32 83       	std	Z+2, r19	; 0x02
 5ee:	21 83       	std	Z+1, r18	; 0x01
 5f0:	f8 01       	movw	r30, r16
 5f2:	86 81       	ldd	r24, Z+6	; 0x06
 5f4:	97 81       	ldd	r25, Z+7	; 0x07
 5f6:	82 17       	cp	r24, r18
 5f8:	93 07       	cpc	r25, r19
 5fa:	61 f5       	brne	.+88     	; 0x654 <MangeKeys+0x110>
 5fc:	82 e8       	ldi	r24, 0x82	; 130
 5fe:	f7 01       	movw	r30, r14
 600:	80 83       	st	Z, r24
 602:	01 c0       	rjmp	.+2      	; 0x606 <MangeKeys+0xc2>
 604:	f7 01       	movw	r30, r14
 606:	52 83       	std	Z+2, r21	; 0x02
 608:	41 83       	std	Z+1, r20	; 0x01
 60a:	24 c0       	rjmp	.+72     	; 0x654 <MangeKeys+0x110>
 60c:	42 17       	cp	r20, r18
 60e:	53 07       	cpc	r21, r19
 610:	c8 f3       	brcs	.-14     	; 0x604 <MangeKeys+0xc0>
 612:	21 50       	subi	r18, 0x01	; 1
 614:	30 40       	sbci	r19, 0x00	; 0
 616:	f7 01       	movw	r30, r14
 618:	32 83       	std	Z+2, r19	; 0x02
 61a:	21 83       	std	Z+1, r18	; 0x01
 61c:	21 15       	cp	r18, r1
 61e:	31 05       	cpc	r19, r1
 620:	c9 f4       	brne	.+50     	; 0x654 <MangeKeys+0x110>
 622:	80 e4       	ldi	r24, 0x40	; 64
 624:	13 c0       	rjmp	.+38     	; 0x64c <MangeKeys+0x108>
 626:	f8 01       	movw	r30, r16
 628:	91 81       	ldd	r25, Z+1	; 0x01
 62a:	98 17       	cp	r25, r24
 62c:	31 f4       	brne	.+12     	; 0x63a <MangeKeys+0xf6>
 62e:	82 81       	ldd	r24, Z+2	; 0x02
 630:	93 81       	ldd	r25, Z+3	; 0x03
 632:	f7 01       	movw	r30, r14
 634:	92 83       	std	Z+2, r25	; 0x02
 636:	81 83       	std	Z+1, r24	; 0x01
 638:	0d c0       	rjmp	.+26     	; 0x654 <MangeKeys+0x110>
 63a:	f7 01       	movw	r30, r14
 63c:	81 81       	ldd	r24, Z+1	; 0x01
 63e:	92 81       	ldd	r25, Z+2	; 0x02
 640:	01 97       	sbiw	r24, 0x01	; 1
 642:	92 83       	std	Z+2, r25	; 0x02
 644:	81 83       	std	Z+1, r24	; 0x01
 646:	00 97       	sbiw	r24, 0x00	; 0
 648:	29 f4       	brne	.+10     	; 0x654 <MangeKeys+0x110>
 64a:	80 e8       	ldi	r24, 0x80	; 128
 64c:	80 83       	st	Z, r24
 64e:	02 c0       	rjmp	.+4      	; 0x654 <MangeKeys+0x110>
 650:	f7 01       	movw	r30, r14
 652:	10 82       	st	Z, r1
 654:	0f 90       	pop	r0
 656:	df 91       	pop	r29
 658:	cf 91       	pop	r28
 65a:	1f 91       	pop	r17
 65c:	0f 91       	pop	r16
 65e:	ff 90       	pop	r15
 660:	ef 90       	pop	r14
 662:	08 95       	ret

00000664 <SpeedCalcNotifyInitialize>:
 664:	08 95       	ret

00000666 <SensorOneNotify>:
 666:	80 91 f9 00 	lds	r24, 0x00F9
 66a:	81 30       	cpi	r24, 0x01	; 1
 66c:	19 f4       	brne	.+6      	; 0x674 <SensorOneNotify+0xe>
 66e:	10 92 f9 00 	sts	0x00F9, r1
 672:	08 95       	ret
 674:	80 91 f8 00 	lds	r24, 0x00F8
 678:	88 23       	and	r24, r24
 67a:	29 f0       	breq	.+10     	; 0x686 <SensorOneNotify+0x20>
 67c:	80 91 f8 00 	lds	r24, 0x00F8
 680:	81 50       	subi	r24, 0x01	; 1
 682:	80 93 f8 00 	sts	0x00F8, r24
 686:	08 95       	ret

00000688 <SensorTwoNotify>:
 688:	80 91 f9 00 	lds	r24, 0x00F9
 68c:	88 23       	and	r24, r24
 68e:	a9 f4       	brne	.+42     	; 0x6ba <SensorTwoNotify+0x32>
 690:	81 e0       	ldi	r24, 0x01	; 1
 692:	80 93 f9 00 	sts	0x00F9, r24
 696:	80 91 f8 00 	lds	r24, 0x00F8
 69a:	8f 5f       	subi	r24, 0xFF	; 255
 69c:	80 93 f8 00 	sts	0x00F8, r24
 6a0:	81 e0       	ldi	r24, 0x01	; 1
 6a2:	a0 d1       	rcall	.+832    	; 0x9e4 <ReloadHWtimer>
 6a4:	90 93 f7 00 	sts	0x00F7, r25
 6a8:	80 93 f6 00 	sts	0x00F6, r24
 6ac:	80 91 f5 00 	lds	r24, 0x00F5
 6b0:	80 93 fa 00 	sts	0x00FA, r24
 6b4:	10 92 f5 00 	sts	0x00F5, r1
 6b8:	08 95       	ret
 6ba:	80 91 f8 00 	lds	r24, 0x00F8
 6be:	88 23       	and	r24, r24
 6c0:	29 f0       	breq	.+10     	; 0x6cc <SensorTwoNotify+0x44>
 6c2:	80 91 f8 00 	lds	r24, 0x00F8
 6c6:	81 50       	subi	r24, 0x01	; 1
 6c8:	80 93 f8 00 	sts	0x00F8, r24
 6cc:	08 95       	ret

000006ce <SpeedCalcManage>:
 6ce:	cf 93       	push	r28
 6d0:	df 93       	push	r29
 6d2:	40 91 f6 00 	lds	r20, 0x00F6
 6d6:	50 91 f7 00 	lds	r21, 0x00F7
 6da:	20 91 fa 00 	lds	r18, 0x00FA
 6de:	30 e0       	ldi	r19, 0x00	; 0
 6e0:	8f e8       	ldi	r24, 0x8F	; 143
 6e2:	92 e0       	ldi	r25, 0x02	; 2
 6e4:	28 9f       	mul	r18, r24
 6e6:	f0 01       	movw	r30, r0
 6e8:	29 9f       	mul	r18, r25
 6ea:	f0 0d       	add	r31, r0
 6ec:	38 9f       	mul	r19, r24
 6ee:	f0 0d       	add	r31, r0
 6f0:	11 24       	eor	r1, r1
 6f2:	ca 01       	movw	r24, r20
 6f4:	64 e6       	ldi	r22, 0x64	; 100
 6f6:	70 e0       	ldi	r23, 0x00	; 0
 6f8:	3a d2       	rcall	.+1140   	; 0xb6e <__udivmodhi4>
 6fa:	e6 0f       	add	r30, r22
 6fc:	f7 1f       	adc	r31, r23
 6fe:	f0 93 fc 00 	sts	0x00FC, r31
 702:	e0 93 fb 00 	sts	0x00FB, r30
 706:	80 91 f8 00 	lds	r24, 0x00F8
 70a:	c0 91 fd 00 	lds	r28, 0x00FD
 70e:	d0 91 fe 00 	lds	r29, 0x00FE
 712:	c8 0f       	add	r28, r24
 714:	d1 1d       	adc	r29, r1
 716:	d0 93 fe 00 	sts	0x00FE, r29
 71a:	c0 93 fd 00 	sts	0x00FD, r28
 71e:	10 92 f8 00 	sts	0x00F8, r1
 722:	20 91 9d 00 	lds	r18, 0x009D
 726:	30 91 9e 00 	lds	r19, 0x009E
 72a:	40 e0       	ldi	r20, 0x00	; 0
 72c:	50 e0       	ldi	r21, 0x00	; 0
 72e:	60 ea       	ldi	r22, 0xA0	; 160
 730:	76 e8       	ldi	r23, 0x86	; 134
 732:	81 e0       	ldi	r24, 0x01	; 1
 734:	90 e0       	ldi	r25, 0x00	; 0
 736:	2f d2       	rcall	.+1118   	; 0xb96 <__udivmodsi4>
 738:	c2 17       	cp	r28, r18
 73a:	d3 07       	cpc	r29, r19
 73c:	c8 f0       	brcs	.+50     	; 0x770 <SpeedCalcManage+0xa2>
 73e:	80 91 ff 00 	lds	r24, 0x00FF
 742:	90 91 00 01 	lds	r25, 0x0100
 746:	a0 91 01 01 	lds	r26, 0x0101
 74a:	b0 91 02 01 	lds	r27, 0x0102
 74e:	01 96       	adiw	r24, 0x01	; 1
 750:	a1 1d       	adc	r26, r1
 752:	b1 1d       	adc	r27, r1
 754:	80 93 ff 00 	sts	0x00FF, r24
 758:	90 93 00 01 	sts	0x0100, r25
 75c:	a0 93 01 01 	sts	0x0101, r26
 760:	b0 93 02 01 	sts	0x0102, r27
 764:	c2 1b       	sub	r28, r18
 766:	d3 0b       	sbc	r29, r19
 768:	d0 93 fe 00 	sts	0x00FE, r29
 76c:	c0 93 fd 00 	sts	0x00FD, r28
 770:	df 91       	pop	r29
 772:	cf 91       	pop	r28
 774:	08 95       	ret

00000776 <SetDistance>:
 776:	dc 01       	movw	r26, r24
 778:	cb 01       	movw	r24, r22
 77a:	80 93 ff 00 	sts	0x00FF, r24
 77e:	90 93 00 01 	sts	0x0100, r25
 782:	a0 93 01 01 	sts	0x0101, r26
 786:	b0 93 02 01 	sts	0x0102, r27
 78a:	08 95       	ret

0000078c <GetDistance>:
 78c:	60 91 ff 00 	lds	r22, 0x00FF
 790:	70 91 00 01 	lds	r23, 0x0100
 794:	80 91 01 01 	lds	r24, 0x0101
 798:	90 91 02 01 	lds	r25, 0x0102
 79c:	08 95       	ret

0000079e <SetCircumfirunce>:
 79e:	90 93 9e 00 	sts	0x009E, r25
 7a2:	80 93 9d 00 	sts	0x009D, r24
 7a6:	08 95       	ret

000007a8 <GetAvgSpeed>:
 7a8:	cf 93       	push	r28
 7aa:	df 93       	push	r29
 7ac:	81 30       	cpi	r24, 0x01	; 1
 7ae:	29 f4       	brne	.+10     	; 0x7ba <GetAvgSpeed+0x12>
 7b0:	68 e6       	ldi	r22, 0x68	; 104
 7b2:	71 e0       	ldi	r23, 0x01	; 1
 7b4:	80 e0       	ldi	r24, 0x00	; 0
 7b6:	90 e0       	ldi	r25, 0x00	; 0
 7b8:	04 c0       	rjmp	.+8      	; 0x7c2 <GetAvgSpeed+0x1a>
 7ba:	61 ee       	ldi	r22, 0xE1	; 225
 7bc:	70 e0       	ldi	r23, 0x00	; 0
 7be:	80 e0       	ldi	r24, 0x00	; 0
 7c0:	90 e0       	ldi	r25, 0x00	; 0
 7c2:	c0 91 fb 00 	lds	r28, 0x00FB
 7c6:	d0 91 fc 00 	lds	r29, 0x00FC
 7ca:	20 97       	sbiw	r28, 0x00	; 0
 7cc:	69 f0       	breq	.+26     	; 0x7e8 <GetAvgSpeed+0x40>
 7ce:	20 91 9d 00 	lds	r18, 0x009D
 7d2:	30 91 9e 00 	lds	r19, 0x009E
 7d6:	40 e0       	ldi	r20, 0x00	; 0
 7d8:	50 e0       	ldi	r21, 0x00	; 0
 7da:	aa d1       	rcall	.+852    	; 0xb30 <__mulsi3>
 7dc:	9e 01       	movw	r18, r28
 7de:	40 e0       	ldi	r20, 0x00	; 0
 7e0:	50 e0       	ldi	r21, 0x00	; 0
 7e2:	d9 d1       	rcall	.+946    	; 0xb96 <__udivmodsi4>
 7e4:	c9 01       	movw	r24, r18
 7e6:	02 c0       	rjmp	.+4      	; 0x7ec <GetAvgSpeed+0x44>
 7e8:	80 e0       	ldi	r24, 0x00	; 0
 7ea:	90 e0       	ldi	r25, 0x00	; 0
 7ec:	20 91 f5 00 	lds	r18, 0x00F5
 7f0:	20 34       	cpi	r18, 0x40	; 64
 7f2:	11 f4       	brne	.+4      	; 0x7f8 <GetAvgSpeed+0x50>
 7f4:	80 e0       	ldi	r24, 0x00	; 0
 7f6:	90 e0       	ldi	r25, 0x00	; 0
 7f8:	df 91       	pop	r29
 7fa:	cf 91       	pop	r28
 7fc:	08 95       	ret

000007fe <HWtimerCallback>:
 7fe:	80 91 f5 00 	lds	r24, 0x00F5
 802:	80 34       	cpi	r24, 0x40	; 64
 804:	28 f4       	brcc	.+10     	; 0x810 <HWtimerCallback+0x12>
 806:	80 91 f5 00 	lds	r24, 0x00F5
 80a:	8f 5f       	subi	r24, 0xFF	; 255
 80c:	80 93 f5 00 	sts	0x00F5, r24
 810:	08 95       	ret

00000812 <APP_ISR1>:
 812:	29 df       	rcall	.-430    	; 0x666 <SensorOneNotify>
 814:	08 95       	ret

00000816 <APP_ISR2>:
 816:	38 df       	rcall	.-400    	; 0x688 <SensorTwoNotify>
 818:	08 95       	ret

0000081a <APP_ISR3>:
 81a:	f1 df       	rcall	.-30     	; 0x7fe <HWtimerCallback>
 81c:	08 95       	ret

0000081e <ManageDrivers>:
 81e:	80 e0       	ldi	r24, 0x00	; 0
 820:	91 de       	rcall	.-734    	; 0x544 <MangeKeys>
 822:	81 e0       	ldi	r24, 0x01	; 1
 824:	8f de       	rcall	.-738    	; 0x544 <MangeKeys>
 826:	82 e0       	ldi	r24, 0x02	; 2
 828:	8d de       	rcall	.-742    	; 0x544 <MangeKeys>
 82a:	50 de       	rcall	.-864    	; 0x4cc <EepromManage>
 82c:	08 95       	ret

0000082e <ManageSpeedCalc>:
 82e:	4f df       	rcall	.-354    	; 0x6ce <SpeedCalcManage>
 830:	08 95       	ret

00000832 <ManageApplication>:
 832:	a6 dc       	rcall	.-1716   	; 0x180 <APP_MANAGE>
 834:	08 95       	ret

00000836 <DisplayAlphaNumeric>:
 836:	65 dd       	rcall	.-1334   	; 0x302 <BCDManage7segment>
 838:	08 95       	ret

0000083a <Start_App>:
 83a:	b1 d0       	rcall	.+354    	; 0x99e <HWI_INTERRUPTS_INTITALIZE>
 83c:	73 d0       	rcall	.+230    	; 0x924 <HWI_DIGITAL_INITIALIZE>
 83e:	12 df       	rcall	.-476    	; 0x664 <SpeedCalcNotifyInitialize>
 840:	8d dc       	rcall	.-1766   	; 0x15c <APP_INITIALIZE>
 842:	81 e0       	ldi	r24, 0x01	; 1
 844:	0f dd       	rcall	.-1506   	; 0x264 <BCDInitialize>
 846:	87 e1       	ldi	r24, 0x17	; 23
 848:	94 e0       	ldi	r25, 0x04	; 4
 84a:	60 e0       	ldi	r22, 0x00	; 0
 84c:	44 e1       	ldi	r20, 0x14	; 20
 84e:	11 d0       	rcall	.+34     	; 0x872 <CreateTask>
 850:	89 e1       	ldi	r24, 0x19	; 25
 852:	94 e0       	ldi	r25, 0x04	; 4
 854:	62 e0       	ldi	r22, 0x02	; 2
 856:	44 e6       	ldi	r20, 0x64	; 100
 858:	0c d0       	rcall	.+24     	; 0x872 <CreateTask>
 85a:	8b e1       	ldi	r24, 0x1B	; 27
 85c:	94 e0       	ldi	r25, 0x04	; 4
 85e:	61 e0       	ldi	r22, 0x01	; 1
 860:	44 e0       	ldi	r20, 0x04	; 4
 862:	07 d0       	rcall	.+14     	; 0x872 <CreateTask>
 864:	8f e0       	ldi	r24, 0x0F	; 15
 866:	94 e0       	ldi	r25, 0x04	; 4
 868:	63 e0       	ldi	r22, 0x03	; 3
 86a:	4a e0       	ldi	r20, 0x0A	; 10
 86c:	02 d0       	rcall	.+4      	; 0x872 <CreateTask>
 86e:	1b d0       	rcall	.+54     	; 0x8a6 <RunScheduler>
 870:	08 95       	ret

00000872 <CreateTask>:
 872:	64 30       	cpi	r22, 0x04	; 4
 874:	60 f4       	brcc	.+24     	; 0x88e <CreateTask+0x1c>
 876:	e6 2f       	mov	r30, r22
 878:	f0 e0       	ldi	r31, 0x00	; 0
 87a:	ee 0f       	add	r30, r30
 87c:	ff 1f       	adc	r31, r31
 87e:	ee 0f       	add	r30, r30
 880:	ff 1f       	adc	r31, r31
 882:	ed 5f       	subi	r30, 0xFD	; 253
 884:	fe 4f       	sbci	r31, 0xFE	; 254
 886:	91 83       	std	Z+1, r25	; 0x01
 888:	80 83       	st	Z, r24
 88a:	42 83       	std	Z+2, r20	; 0x02
 88c:	13 82       	std	Z+3, r1	; 0x03
 88e:	08 95       	ret

00000890 <SchedulerTick>:
 890:	e6 e0       	ldi	r30, 0x06	; 6
 892:	f1 e0       	ldi	r31, 0x01	; 1
 894:	84 e0       	ldi	r24, 0x04	; 4
 896:	90 81       	ld	r25, Z
 898:	9f 5f       	subi	r25, 0xFF	; 255
 89a:	90 83       	st	Z, r25
 89c:	81 50       	subi	r24, 0x01	; 1
 89e:	34 96       	adiw	r30, 0x04	; 4
 8a0:	88 23       	and	r24, r24
 8a2:	c9 f7       	brne	.-14     	; 0x896 <SchedulerTick+0x6>
 8a4:	08 95       	ret

000008a6 <RunScheduler>:
 8a6:	10 92 13 01 	sts	0x0113, r1
 8aa:	1e c0       	rjmp	.+60     	; 0x8e8 <RunScheduler+0x42>
 8ac:	f0 e0       	ldi	r31, 0x00	; 0
 8ae:	ee 0f       	add	r30, r30
 8b0:	ff 1f       	adc	r31, r31
 8b2:	ee 0f       	add	r30, r30
 8b4:	ff 1f       	adc	r31, r31
 8b6:	ed 5f       	subi	r30, 0xFD	; 253
 8b8:	fe 4f       	sbci	r31, 0xFE	; 254
 8ba:	92 81       	ldd	r25, Z+2	; 0x02
 8bc:	83 81       	ldd	r24, Z+3	; 0x03
 8be:	89 17       	cp	r24, r25
 8c0:	70 f0       	brcs	.+28     	; 0x8de <RunScheduler+0x38>
 8c2:	01 90       	ld	r0, Z+
 8c4:	f0 81       	ld	r31, Z
 8c6:	e0 2d       	mov	r30, r0
 8c8:	09 95       	icall
 8ca:	e0 91 13 01 	lds	r30, 0x0113
 8ce:	f0 e0       	ldi	r31, 0x00	; 0
 8d0:	ee 0f       	add	r30, r30
 8d2:	ff 1f       	adc	r31, r31
 8d4:	ee 0f       	add	r30, r30
 8d6:	ff 1f       	adc	r31, r31
 8d8:	ed 5f       	subi	r30, 0xFD	; 253
 8da:	fe 4f       	sbci	r31, 0xFE	; 254
 8dc:	13 82       	std	Z+3, r1	; 0x03
 8de:	80 91 13 01 	lds	r24, 0x0113
 8e2:	8f 5f       	subi	r24, 0xFF	; 255
 8e4:	80 93 13 01 	sts	0x0113, r24
 8e8:	e0 91 13 01 	lds	r30, 0x0113
 8ec:	e4 30       	cpi	r30, 0x04	; 4
 8ee:	d8 f6       	brcc	.-74     	; 0x8a6 <RunScheduler>
 8f0:	dd cf       	rjmp	.-70     	; 0x8ac <RunScheduler+0x6>

000008f2 <HWIeeprom_Write>:
 8f2:	e1 99       	sbic	0x1c, 1	; 28
 8f4:	08 c0       	rjmp	.+16     	; 0x906 <HWIeeprom_Write+0x14>
 8f6:	90 e0       	ldi	r25, 0x00	; 0
 8f8:	9f bb       	out	0x1f, r25	; 31
 8fa:	8e bb       	out	0x1e, r24	; 30
 8fc:	6d bb       	out	0x1d, r22	; 29
 8fe:	e2 9a       	sbi	0x1c, 2	; 28
 900:	e1 9a       	sbi	0x1c, 1	; 28
 902:	81 e0       	ldi	r24, 0x01	; 1
 904:	08 95       	ret
 906:	80 e0       	ldi	r24, 0x00	; 0
 908:	08 95       	ret

0000090a <HWIeeprom_Read>:
 90a:	e1 99       	sbic	0x1c, 1	; 28
 90c:	09 c0       	rjmp	.+18     	; 0x920 <HWIeeprom_Read+0x16>
 90e:	90 e0       	ldi	r25, 0x00	; 0
 910:	9f bb       	out	0x1f, r25	; 31
 912:	8e bb       	out	0x1e, r24	; 30
 914:	e0 9a       	sbi	0x1c, 0	; 28
 916:	8d b3       	in	r24, 0x1d	; 29
 918:	fb 01       	movw	r30, r22
 91a:	80 83       	st	Z, r24
 91c:	81 e0       	ldi	r24, 0x01	; 1
 91e:	08 95       	ret
 920:	80 e0       	ldi	r24, 0x00	; 0
 922:	08 95       	ret

00000924 <HWI_DIGITAL_INITIALIZE>:
 924:	8f ef       	ldi	r24, 0xFF	; 255
 926:	87 bb       	out	0x17, r24	; 23
 928:	84 bb       	out	0x14, r24	; 20
 92a:	11 ba       	out	0x11, r1	; 17
 92c:	82 bb       	out	0x12, r24	; 18
 92e:	08 95       	ret

00000930 <HWI_DIGI_READ>:
 930:	80 31       	cpi	r24, 0x10	; 16
 932:	39 f0       	breq	.+14     	; 0x942 <HWI_DIGI_READ+0x12>
 934:	81 31       	cpi	r24, 0x11	; 17
 936:	41 f0       	breq	.+16     	; 0x948 <HWI_DIGI_READ+0x18>
 938:	8f 30       	cpi	r24, 0x0F	; 15
 93a:	49 f4       	brne	.+18     	; 0x94e <HWI_DIGI_READ+0x1e>
 93c:	80 b3       	in	r24, 0x10	; 16
 93e:	80 71       	andi	r24, 0x10	; 16
 940:	08 95       	ret
 942:	80 b3       	in	r24, 0x10	; 16
 944:	80 72       	andi	r24, 0x20	; 32
 946:	08 95       	ret
 948:	80 b3       	in	r24, 0x10	; 16
 94a:	80 74       	andi	r24, 0x40	; 64
 94c:	08 95       	ret
 94e:	80 e0       	ldi	r24, 0x00	; 0
 950:	08 95       	ret

00000952 <HWI_DIGI_WRITE>:
 952:	08 95       	ret

00000954 <HWI_4Digit_WRITE>:
 954:	88 23       	and	r24, r24
 956:	29 f4       	brne	.+10     	; 0x962 <HWI_4Digit_WRITE+0xe>
 958:	85 b3       	in	r24, 0x15	; 21
 95a:	80 7f       	andi	r24, 0xF0	; 240
 95c:	86 2b       	or	r24, r22
 95e:	85 bb       	out	0x15, r24	; 21
 960:	08 95       	ret
 962:	88 b3       	in	r24, 0x18	; 24
 964:	80 7f       	andi	r24, 0xF0	; 240
 966:	86 2b       	or	r24, r22
 968:	88 bb       	out	0x18, r24	; 24
 96a:	08 95       	ret

0000096c <HWI_4Digit_READ>:
 96c:	88 23       	and	r24, r24
 96e:	19 f0       	breq	.+6      	; 0x976 <HWI_4Digit_READ+0xa>
 970:	81 30       	cpi	r24, 0x01	; 1
 972:	31 f4       	brne	.+12     	; 0x980 <HWI_4Digit_READ+0x14>
 974:	02 c0       	rjmp	.+4      	; 0x97a <HWI_4Digit_READ+0xe>
 976:	83 b3       	in	r24, 0x13	; 19
 978:	01 c0       	rjmp	.+2      	; 0x97c <HWI_4Digit_READ+0x10>
 97a:	86 b3       	in	r24, 0x16	; 22
 97c:	8f 70       	andi	r24, 0x0F	; 15
 97e:	08 95       	ret
 980:	86 b3       	in	r24, 0x16	; 22
 982:	8f 70       	andi	r24, 0x0F	; 15
 984:	08 95       	ret

00000986 <HWI_8Digit_WRITE>:
 986:	88 23       	and	r24, r24
 988:	11 f4       	brne	.+4      	; 0x98e <HWI_8Digit_WRITE+0x8>
 98a:	65 bb       	out	0x15, r22	; 21
 98c:	08 95       	ret
 98e:	68 bb       	out	0x18, r22	; 24
 990:	08 95       	ret

00000992 <HWI8Digit_READ>:
 992:	88 23       	and	r24, r24
 994:	11 f0       	breq	.+4      	; 0x99a <HWI8Digit_READ+0x8>
 996:	86 b3       	in	r24, 0x16	; 22
 998:	08 95       	ret
 99a:	83 b3       	in	r24, 0x13	; 19
 99c:	08 95       	ret

0000099e <HWI_INTERRUPTS_INTITALIZE>:
 99e:	8e b5       	in	r24, 0x2e	; 46
 9a0:	82 60       	ori	r24, 0x02	; 2
 9a2:	8e bd       	out	0x2e, r24	; 46
 9a4:	8f ef       	ldi	r24, 0xFF	; 255
 9a6:	9f e7       	ldi	r25, 0x7F	; 127
 9a8:	9d bd       	out	0x2d, r25	; 45
 9aa:	8c bd       	out	0x2c, r24	; 44
 9ac:	83 b7       	in	r24, 0x33	; 51
 9ae:	83 60       	ori	r24, 0x03	; 3
 9b0:	83 bf       	out	0x33, r24	; 51
 9b2:	82 ec       	ldi	r24, 0xC2	; 194
 9b4:	82 bf       	out	0x32, r24	; 50
 9b6:	89 b7       	in	r24, 0x39	; 57
 9b8:	81 60       	ori	r24, 0x01	; 1
 9ba:	89 bf       	out	0x39, r24	; 57
 9bc:	89 b7       	in	r24, 0x39	; 57
 9be:	84 60       	ori	r24, 0x04	; 4
 9c0:	89 bf       	out	0x39, r24	; 57
 9c2:	8b b7       	in	r24, 0x3b	; 59
 9c4:	80 64       	ori	r24, 0x40	; 64
 9c6:	8b bf       	out	0x3b, r24	; 59
 9c8:	85 b7       	in	r24, 0x35	; 53
 9ca:	83 60       	ori	r24, 0x03	; 3
 9cc:	85 bf       	out	0x35, r24	; 53
 9ce:	8b b7       	in	r24, 0x3b	; 59
 9d0:	80 68       	ori	r24, 0x80	; 128
 9d2:	8b bf       	out	0x3b, r24	; 59
 9d4:	85 b7       	in	r24, 0x35	; 53
 9d6:	8c 60       	ori	r24, 0x0C	; 12
 9d8:	85 bf       	out	0x35, r24	; 53
 9da:	81 b3       	in	r24, 0x11	; 17
 9dc:	8c 60       	ori	r24, 0x0C	; 12
 9de:	81 bb       	out	0x11, r24	; 17
 9e0:	78 94       	sei
 9e2:	08 95       	ret

000009e4 <ReloadHWtimer>:
 9e4:	83 30       	cpi	r24, 0x03	; 3
 9e6:	58 f4       	brcc	.+22     	; 0x9fe <ReloadHWtimer+0x1a>
 9e8:	8c b5       	in	r24, 0x2c	; 44
 9ea:	9d b5       	in	r25, 0x2d	; 45
 9ec:	8f 5f       	subi	r24, 0xFF	; 255
 9ee:	9f 47       	sbci	r25, 0x7F	; 127
 9f0:	88 0f       	add	r24, r24
 9f2:	99 1f       	adc	r25, r25
 9f4:	2f ef       	ldi	r18, 0xFF	; 255
 9f6:	3f e7       	ldi	r19, 0x7F	; 127
 9f8:	3d bd       	out	0x2d, r19	; 45
 9fa:	2c bd       	out	0x2c, r18	; 44
 9fc:	08 95       	ret
 9fe:	80 e0       	ldi	r24, 0x00	; 0
 a00:	90 e0       	ldi	r25, 0x00	; 0
 a02:	08 95       	ret

00000a04 <__vector_9>:
 a04:	1f 92       	push	r1
 a06:	0f 92       	push	r0
 a08:	0f b6       	in	r0, 0x3f	; 63
 a0a:	0f 92       	push	r0
 a0c:	11 24       	eor	r1, r1
 a0e:	2f 93       	push	r18
 a10:	3f 93       	push	r19
 a12:	4f 93       	push	r20
 a14:	5f 93       	push	r21
 a16:	6f 93       	push	r22
 a18:	7f 93       	push	r23
 a1a:	8f 93       	push	r24
 a1c:	9f 93       	push	r25
 a1e:	af 93       	push	r26
 a20:	bf 93       	push	r27
 a22:	ef 93       	push	r30
 a24:	ff 93       	push	r31
 a26:	82 ec       	ldi	r24, 0xC2	; 194
 a28:	82 bf       	out	0x32, r24	; 50
 a2a:	32 df       	rcall	.-412    	; 0x890 <SchedulerTick>
 a2c:	ff 91       	pop	r31
 a2e:	ef 91       	pop	r30
 a30:	bf 91       	pop	r27
 a32:	af 91       	pop	r26
 a34:	9f 91       	pop	r25
 a36:	8f 91       	pop	r24
 a38:	7f 91       	pop	r23
 a3a:	6f 91       	pop	r22
 a3c:	5f 91       	pop	r21
 a3e:	4f 91       	pop	r20
 a40:	3f 91       	pop	r19
 a42:	2f 91       	pop	r18
 a44:	0f 90       	pop	r0
 a46:	0f be       	out	0x3f, r0	; 63
 a48:	0f 90       	pop	r0
 a4a:	1f 90       	pop	r1
 a4c:	18 95       	reti

00000a4e <__vector_8>:
 a4e:	1f 92       	push	r1
 a50:	0f 92       	push	r0
 a52:	0f b6       	in	r0, 0x3f	; 63
 a54:	0f 92       	push	r0
 a56:	11 24       	eor	r1, r1
 a58:	2f 93       	push	r18
 a5a:	3f 93       	push	r19
 a5c:	4f 93       	push	r20
 a5e:	5f 93       	push	r21
 a60:	6f 93       	push	r22
 a62:	7f 93       	push	r23
 a64:	8f 93       	push	r24
 a66:	9f 93       	push	r25
 a68:	af 93       	push	r26
 a6a:	bf 93       	push	r27
 a6c:	ef 93       	push	r30
 a6e:	ff 93       	push	r31
 a70:	8f ef       	ldi	r24, 0xFF	; 255
 a72:	9f e7       	ldi	r25, 0x7F	; 127
 a74:	9d bd       	out	0x2d, r25	; 45
 a76:	8c bd       	out	0x2c, r24	; 44
 a78:	d0 de       	rcall	.-608    	; 0x81a <APP_ISR3>
 a7a:	ff 91       	pop	r31
 a7c:	ef 91       	pop	r30
 a7e:	bf 91       	pop	r27
 a80:	af 91       	pop	r26
 a82:	9f 91       	pop	r25
 a84:	8f 91       	pop	r24
 a86:	7f 91       	pop	r23
 a88:	6f 91       	pop	r22
 a8a:	5f 91       	pop	r21
 a8c:	4f 91       	pop	r20
 a8e:	3f 91       	pop	r19
 a90:	2f 91       	pop	r18
 a92:	0f 90       	pop	r0
 a94:	0f be       	out	0x3f, r0	; 63
 a96:	0f 90       	pop	r0
 a98:	1f 90       	pop	r1
 a9a:	18 95       	reti

00000a9c <__vector_1>:
 a9c:	1f 92       	push	r1
 a9e:	0f 92       	push	r0
 aa0:	0f b6       	in	r0, 0x3f	; 63
 aa2:	0f 92       	push	r0
 aa4:	11 24       	eor	r1, r1
 aa6:	2f 93       	push	r18
 aa8:	3f 93       	push	r19
 aaa:	4f 93       	push	r20
 aac:	5f 93       	push	r21
 aae:	6f 93       	push	r22
 ab0:	7f 93       	push	r23
 ab2:	8f 93       	push	r24
 ab4:	9f 93       	push	r25
 ab6:	af 93       	push	r26
 ab8:	bf 93       	push	r27
 aba:	ef 93       	push	r30
 abc:	ff 93       	push	r31
 abe:	a9 de       	rcall	.-686    	; 0x812 <APP_ISR1>
 ac0:	ff 91       	pop	r31
 ac2:	ef 91       	pop	r30
 ac4:	bf 91       	pop	r27
 ac6:	af 91       	pop	r26
 ac8:	9f 91       	pop	r25
 aca:	8f 91       	pop	r24
 acc:	7f 91       	pop	r23
 ace:	6f 91       	pop	r22
 ad0:	5f 91       	pop	r21
 ad2:	4f 91       	pop	r20
 ad4:	3f 91       	pop	r19
 ad6:	2f 91       	pop	r18
 ad8:	0f 90       	pop	r0
 ada:	0f be       	out	0x3f, r0	; 63
 adc:	0f 90       	pop	r0
 ade:	1f 90       	pop	r1
 ae0:	18 95       	reti

00000ae2 <__vector_2>:
 ae2:	1f 92       	push	r1
 ae4:	0f 92       	push	r0
 ae6:	0f b6       	in	r0, 0x3f	; 63
 ae8:	0f 92       	push	r0
 aea:	11 24       	eor	r1, r1
 aec:	2f 93       	push	r18
 aee:	3f 93       	push	r19
 af0:	4f 93       	push	r20
 af2:	5f 93       	push	r21
 af4:	6f 93       	push	r22
 af6:	7f 93       	push	r23
 af8:	8f 93       	push	r24
 afa:	9f 93       	push	r25
 afc:	af 93       	push	r26
 afe:	bf 93       	push	r27
 b00:	ef 93       	push	r30
 b02:	ff 93       	push	r31
 b04:	88 de       	rcall	.-752    	; 0x816 <APP_ISR2>
 b06:	ff 91       	pop	r31
 b08:	ef 91       	pop	r30
 b0a:	bf 91       	pop	r27
 b0c:	af 91       	pop	r26
 b0e:	9f 91       	pop	r25
 b10:	8f 91       	pop	r24
 b12:	7f 91       	pop	r23
 b14:	6f 91       	pop	r22
 b16:	5f 91       	pop	r21
 b18:	4f 91       	pop	r20
 b1a:	3f 91       	pop	r19
 b1c:	2f 91       	pop	r18
 b1e:	0f 90       	pop	r0
 b20:	0f be       	out	0x3f, r0	; 63
 b22:	0f 90       	pop	r0
 b24:	1f 90       	pop	r1
 b26:	18 95       	reti

00000b28 <main>:
 b28:	88 de       	rcall	.-752    	; 0x83a <Start_App>
 b2a:	80 e0       	ldi	r24, 0x00	; 0
 b2c:	90 e0       	ldi	r25, 0x00	; 0
 b2e:	08 95       	ret

00000b30 <__mulsi3>:
 b30:	62 9f       	mul	r22, r18
 b32:	d0 01       	movw	r26, r0
 b34:	73 9f       	mul	r23, r19
 b36:	f0 01       	movw	r30, r0
 b38:	82 9f       	mul	r24, r18
 b3a:	e0 0d       	add	r30, r0
 b3c:	f1 1d       	adc	r31, r1
 b3e:	64 9f       	mul	r22, r20
 b40:	e0 0d       	add	r30, r0
 b42:	f1 1d       	adc	r31, r1
 b44:	92 9f       	mul	r25, r18
 b46:	f0 0d       	add	r31, r0
 b48:	83 9f       	mul	r24, r19
 b4a:	f0 0d       	add	r31, r0
 b4c:	74 9f       	mul	r23, r20
 b4e:	f0 0d       	add	r31, r0
 b50:	65 9f       	mul	r22, r21
 b52:	f0 0d       	add	r31, r0
 b54:	99 27       	eor	r25, r25
 b56:	72 9f       	mul	r23, r18
 b58:	b0 0d       	add	r27, r0
 b5a:	e1 1d       	adc	r30, r1
 b5c:	f9 1f       	adc	r31, r25
 b5e:	63 9f       	mul	r22, r19
 b60:	b0 0d       	add	r27, r0
 b62:	e1 1d       	adc	r30, r1
 b64:	f9 1f       	adc	r31, r25
 b66:	bd 01       	movw	r22, r26
 b68:	cf 01       	movw	r24, r30
 b6a:	11 24       	eor	r1, r1
 b6c:	08 95       	ret

00000b6e <__udivmodhi4>:
 b6e:	aa 1b       	sub	r26, r26
 b70:	bb 1b       	sub	r27, r27
 b72:	51 e1       	ldi	r21, 0x11	; 17
 b74:	07 c0       	rjmp	.+14     	; 0xb84 <__udivmodhi4_ep>

00000b76 <__udivmodhi4_loop>:
 b76:	aa 1f       	adc	r26, r26
 b78:	bb 1f       	adc	r27, r27
 b7a:	a6 17       	cp	r26, r22
 b7c:	b7 07       	cpc	r27, r23
 b7e:	10 f0       	brcs	.+4      	; 0xb84 <__udivmodhi4_ep>
 b80:	a6 1b       	sub	r26, r22
 b82:	b7 0b       	sbc	r27, r23

00000b84 <__udivmodhi4_ep>:
 b84:	88 1f       	adc	r24, r24
 b86:	99 1f       	adc	r25, r25
 b88:	5a 95       	dec	r21
 b8a:	a9 f7       	brne	.-22     	; 0xb76 <__udivmodhi4_loop>
 b8c:	80 95       	com	r24
 b8e:	90 95       	com	r25
 b90:	bc 01       	movw	r22, r24
 b92:	cd 01       	movw	r24, r26
 b94:	08 95       	ret

00000b96 <__udivmodsi4>:
 b96:	a1 e2       	ldi	r26, 0x21	; 33
 b98:	1a 2e       	mov	r1, r26
 b9a:	aa 1b       	sub	r26, r26
 b9c:	bb 1b       	sub	r27, r27
 b9e:	fd 01       	movw	r30, r26
 ba0:	0d c0       	rjmp	.+26     	; 0xbbc <__udivmodsi4_ep>

00000ba2 <__udivmodsi4_loop>:
 ba2:	aa 1f       	adc	r26, r26
 ba4:	bb 1f       	adc	r27, r27
 ba6:	ee 1f       	adc	r30, r30
 ba8:	ff 1f       	adc	r31, r31
 baa:	a2 17       	cp	r26, r18
 bac:	b3 07       	cpc	r27, r19
 bae:	e4 07       	cpc	r30, r20
 bb0:	f5 07       	cpc	r31, r21
 bb2:	20 f0       	brcs	.+8      	; 0xbbc <__udivmodsi4_ep>
 bb4:	a2 1b       	sub	r26, r18
 bb6:	b3 0b       	sbc	r27, r19
 bb8:	e4 0b       	sbc	r30, r20
 bba:	f5 0b       	sbc	r31, r21

00000bbc <__udivmodsi4_ep>:
 bbc:	66 1f       	adc	r22, r22
 bbe:	77 1f       	adc	r23, r23
 bc0:	88 1f       	adc	r24, r24
 bc2:	99 1f       	adc	r25, r25
 bc4:	1a 94       	dec	r1
 bc6:	69 f7       	brne	.-38     	; 0xba2 <__udivmodsi4_loop>
 bc8:	60 95       	com	r22
 bca:	70 95       	com	r23
 bcc:	80 95       	com	r24
 bce:	90 95       	com	r25
 bd0:	9b 01       	movw	r18, r22
 bd2:	ac 01       	movw	r20, r24
 bd4:	bd 01       	movw	r22, r26
 bd6:	cf 01       	movw	r24, r30
 bd8:	08 95       	ret

00000bda <_exit>:
 bda:	f8 94       	cli

00000bdc <__stop_program>:
 bdc:	ff cf       	rjmp	.-2      	; 0xbdc <__stop_program>
