
BicMeter.elf:     file format elf32-avr

Sections:
Idx Name          Size      VMA       LMA       File off  Algn
  0 .text         0000066c  00000000  00000000  00000094  2**1
                  CONTENTS, ALLOC, LOAD, READONLY, CODE
  1 .data         0000000e  00800060  0000066c  00000700  2**0
                  CONTENTS, ALLOC, LOAD, DATA
  2 .bss          00000025  0080006e  0080006e  0000070e  2**0
                  ALLOC
  3 .stab         000006cc  00000000  00000000  00000710  2**2
                  CONTENTS, READONLY, DEBUGGING
  4 .stabstr      00000085  00000000  00000000  00000ddc  2**0
                  CONTENTS, READONLY, DEBUGGING
  5 .debug_aranges 000000c0  00000000  00000000  00000e68  2**3
                  CONTENTS, READONLY, DEBUGGING
  6 .debug_info   0000052e  00000000  00000000  00000f28  2**0
                  CONTENTS, READONLY, DEBUGGING
  7 .debug_abbrev 00000078  00000000  00000000  00001456  2**0
                  CONTENTS, READONLY, DEBUGGING
  8 .debug_line   0000038e  00000000  00000000  000014ce  2**0
                  CONTENTS, READONLY, DEBUGGING

Disassembly of section .text:

00000000 <__vectors>:
   0:	12 c0       	rjmp	.+36     	; 0x26 <__ctors_end>
   2:	78 c2       	rjmp	.+1264   	; 0x4f4 <__vector_1>
   4:	9a c2       	rjmp	.+1332   	; 0x53a <__vector_2>
   6:	2a c0       	rjmp	.+84     	; 0x5c <__bad_interrupt>
   8:	29 c0       	rjmp	.+82     	; 0x5c <__bad_interrupt>
   a:	28 c0       	rjmp	.+80     	; 0x5c <__bad_interrupt>
   c:	27 c0       	rjmp	.+78     	; 0x5c <__bad_interrupt>
   e:	26 c0       	rjmp	.+76     	; 0x5c <__bad_interrupt>
  10:	4a c2       	rjmp	.+1172   	; 0x4a6 <__vector_8>
  12:	24 c2       	rjmp	.+1096   	; 0x45c <__vector_9>
  14:	23 c0       	rjmp	.+70     	; 0x5c <__bad_interrupt>
  16:	22 c0       	rjmp	.+68     	; 0x5c <__bad_interrupt>
  18:	21 c0       	rjmp	.+66     	; 0x5c <__bad_interrupt>
  1a:	20 c0       	rjmp	.+64     	; 0x5c <__bad_interrupt>
  1c:	1f c0       	rjmp	.+62     	; 0x5c <__bad_interrupt>
  1e:	1e c0       	rjmp	.+60     	; 0x5c <__bad_interrupt>
  20:	1d c0       	rjmp	.+58     	; 0x5c <__bad_interrupt>
  22:	1c c0       	rjmp	.+56     	; 0x5c <__bad_interrupt>
  24:	1b c0       	rjmp	.+54     	; 0x5c <__bad_interrupt>

00000026 <__ctors_end>:
  26:	11 24       	eor	r1, r1
  28:	1f be       	out	0x3f, r1	; 63
  2a:	cf e5       	ldi	r28, 0x5F	; 95
  2c:	d4 e0       	ldi	r29, 0x04	; 4
  2e:	de bf       	out	0x3e, r29	; 62
  30:	cd bf       	out	0x3d, r28	; 61

00000032 <__do_copy_data>:
  32:	10 e0       	ldi	r17, 0x00	; 0
  34:	a0 e6       	ldi	r26, 0x60	; 96
  36:	b0 e0       	ldi	r27, 0x00	; 0
  38:	ec e6       	ldi	r30, 0x6C	; 108
  3a:	f6 e0       	ldi	r31, 0x06	; 6
  3c:	02 c0       	rjmp	.+4      	; 0x42 <__SREG__+0x3>
  3e:	05 90       	lpm	r0, Z+
  40:	0d 92       	st	X+, r0
  42:	ae 36       	cpi	r26, 0x6E	; 110
  44:	b1 07       	cpc	r27, r17
  46:	d9 f7       	brne	.-10     	; 0x3e <__SP_H__>

00000048 <__do_clear_bss>:
  48:	10 e0       	ldi	r17, 0x00	; 0
  4a:	ae e6       	ldi	r26, 0x6E	; 110
  4c:	b0 e0       	ldi	r27, 0x00	; 0
  4e:	01 c0       	rjmp	.+2      	; 0x52 <.do_clear_bss_start>

00000050 <.do_clear_bss_loop>:
  50:	1d 92       	st	X+, r1

00000052 <.do_clear_bss_start>:
  52:	a3 39       	cpi	r26, 0x93	; 147
  54:	b1 07       	cpc	r27, r17
  56:	e1 f7       	brne	.-8      	; 0x50 <.do_clear_bss_loop>
  58:	99 d2       	rcall	.+1330   	; 0x58c <main>
  5a:	06 c3       	rjmp	.+1548   	; 0x668 <_exit>

0000005c <__bad_interrupt>:
  5c:	d1 cf       	rjmp	.-94     	; 0x0 <__vectors>

0000005e <APP_INITIALIZE>:
  5e:	08 95       	ret

00000060 <APP_MANAGE>:
  60:	cf 93       	push	r28
  62:	df 93       	push	r29
  64:	80 ed       	ldi	r24, 0xD0	; 208
  66:	97 e0       	ldi	r25, 0x07	; 7
  68:	15 d1       	rcall	.+554    	; 0x294 <SetCircumfirunce>
  6a:	81 e0       	ldi	r24, 0x01	; 1
  6c:	18 d1       	rcall	.+560    	; 0x29e <GetAvgSpeed>
  6e:	ec 01       	movw	r28, r24
  70:	08 d1       	rcall	.+528    	; 0x282 <GetDistance>
  72:	ce 01       	movw	r24, r28
  74:	61 e0       	ldi	r22, 0x01	; 1
  76:	06 d0       	rcall	.+12     	; 0x84 <BCDsendNumber>
  78:	df 91       	pop	r29
  7a:	cf 91       	pop	r28
  7c:	08 95       	ret

0000007e <BCDInitialize>:
  7e:	80 93 6e 00 	sts	0x006E, r24
  82:	08 95       	ret

00000084 <BCDsendNumber>:
  84:	0f 93       	push	r16
  86:	1f 93       	push	r17
  88:	cf 93       	push	r28
  8a:	df 93       	push	r29
  8c:	26 2f       	mov	r18, r22
  8e:	cf e6       	ldi	r28, 0x6F	; 111
  90:	d0 e0       	ldi	r29, 0x00	; 0
  92:	fc 01       	movw	r30, r24
  94:	30 e0       	ldi	r19, 0x00	; 0
  96:	0a e0       	ldi	r16, 0x0A	; 10
  98:	10 e0       	ldi	r17, 0x00	; 0
  9a:	30 97       	sbiw	r30, 0x00	; 0
  9c:	11 f4       	brne	.+4      	; 0xa2 <BCDsendNumber+0x1e>
  9e:	23 17       	cp	r18, r19
  a0:	b8 f0       	brcs	.+46     	; 0xd0 <BCDsendNumber+0x4c>
  a2:	cf 01       	movw	r24, r30
  a4:	b8 01       	movw	r22, r16
  a6:	aa d2       	rcall	.+1364   	; 0x5fc <__udivmodhi4>
  a8:	cb 01       	movw	r24, r22
  aa:	ab 01       	movw	r20, r22
  ac:	44 0f       	add	r20, r20
  ae:	55 1f       	adc	r21, r21
  b0:	b3 e0       	ldi	r27, 0x03	; 3
  b2:	88 0f       	add	r24, r24
  b4:	99 1f       	adc	r25, r25
  b6:	ba 95       	dec	r27
  b8:	e1 f7       	brne	.-8      	; 0xb2 <BCDsendNumber+0x2e>
  ba:	48 0f       	add	r20, r24
  bc:	59 1f       	adc	r21, r25
  be:	e4 1b       	sub	r30, r20
  c0:	f5 0b       	sbc	r31, r21
  c2:	e0 5a       	subi	r30, 0xA0	; 160
  c4:	ff 4f       	sbci	r31, 0xFF	; 255
  c6:	80 81       	ld	r24, Z
  c8:	88 83       	st	Y, r24
  ca:	19 82       	std	Y+1, r1	; 0x01
  cc:	fb 01       	movw	r30, r22
  ce:	02 c0       	rjmp	.+4      	; 0xd4 <BCDsendNumber+0x50>
  d0:	19 82       	std	Y+1, r1	; 0x01
  d2:	18 82       	st	Y, r1
  d4:	3f 5f       	subi	r19, 0xFF	; 255
  d6:	22 96       	adiw	r28, 0x02	; 2
  d8:	34 30       	cpi	r19, 0x04	; 4
  da:	f9 f6       	brne	.-66     	; 0x9a <BCDsendNumber+0x16>
  dc:	22 23       	and	r18, r18
  de:	59 f0       	breq	.+22     	; 0xf6 <BCDsendNumber+0x72>
  e0:	e2 2f       	mov	r30, r18
  e2:	f0 e0       	ldi	r31, 0x00	; 0
  e4:	ee 0f       	add	r30, r30
  e6:	ff 1f       	adc	r31, r31
  e8:	e1 59       	subi	r30, 0x91	; 145
  ea:	ff 4f       	sbci	r31, 0xFF	; 255
  ec:	80 81       	ld	r24, Z
  ee:	91 81       	ldd	r25, Z+1	; 0x01
  f0:	81 60       	ori	r24, 0x01	; 1
  f2:	91 83       	std	Z+1, r25	; 0x01
  f4:	80 83       	st	Z, r24
  f6:	df 91       	pop	r29
  f8:	cf 91       	pop	r28
  fa:	1f 91       	pop	r17
  fc:	0f 91       	pop	r16
  fe:	08 95       	ret

00000100 <BCDManage7segment>:
 100:	cf 93       	push	r28
 102:	90 91 6e 00 	lds	r25, 0x006E
 106:	80 91 77 00 	lds	r24, 0x0077
 10a:	e8 2f       	mov	r30, r24
 10c:	f0 e0       	ldi	r31, 0x00	; 0
 10e:	68 e0       	ldi	r22, 0x08	; 8
 110:	70 e0       	ldi	r23, 0x00	; 0
 112:	02 c0       	rjmp	.+4      	; 0x118 <BCDManage7segment+0x18>
 114:	75 95       	asr	r23
 116:	67 95       	ror	r22
 118:	8a 95       	dec	r24
 11a:	e2 f7       	brpl	.-8      	; 0x114 <BCDManage7segment+0x14>
 11c:	91 30       	cpi	r25, 0x01	; 1
 11e:	39 f4       	brne	.+14     	; 0x12e <BCDManage7segment+0x2e>
 120:	ee 0f       	add	r30, r30
 122:	ff 1f       	adc	r31, r31
 124:	e1 59       	subi	r30, 0x91	; 145
 126:	ff 4f       	sbci	r31, 0xFF	; 255
 128:	c0 81       	ld	r28, Z
 12a:	c0 95       	com	r28
 12c:	06 c0       	rjmp	.+12     	; 0x13a <BCDManage7segment+0x3a>
 12e:	60 95       	com	r22
 130:	ee 0f       	add	r30, r30
 132:	ff 1f       	adc	r31, r31
 134:	e1 59       	subi	r30, 0x91	; 145
 136:	ff 4f       	sbci	r31, 0xFF	; 255
 138:	c0 81       	ld	r28, Z
 13a:	80 e0       	ldi	r24, 0x00	; 0
 13c:	37 d1       	rcall	.+622    	; 0x3ac <HWI_4Digit_WRITE>
 13e:	81 e0       	ldi	r24, 0x01	; 1
 140:	6c 2f       	mov	r22, r28
 142:	4d d1       	rcall	.+666    	; 0x3de <HWI_8Digit_WRITE>
 144:	80 91 77 00 	lds	r24, 0x0077
 148:	8f 5f       	subi	r24, 0xFF	; 255
 14a:	80 93 77 00 	sts	0x0077, r24
 14e:	84 30       	cpi	r24, 0x04	; 4
 150:	11 f4       	brne	.+4      	; 0x156 <BCDManage7segment+0x56>
 152:	10 92 77 00 	sts	0x0077, r1
 156:	cf 91       	pop	r28
 158:	08 95       	ret

0000015a <SpeedCalcNotifyInitialize>:
 15a:	08 95       	ret

0000015c <SensorOneNotify>:
 15c:	80 91 7c 00 	lds	r24, 0x007C
 160:	81 30       	cpi	r24, 0x01	; 1
 162:	19 f4       	brne	.+6      	; 0x16a <SensorOneNotify+0xe>
 164:	10 92 7c 00 	sts	0x007C, r1
 168:	08 95       	ret
 16a:	80 91 7b 00 	lds	r24, 0x007B
 16e:	88 23       	and	r24, r24
 170:	29 f0       	breq	.+10     	; 0x17c <SensorOneNotify+0x20>
 172:	80 91 7b 00 	lds	r24, 0x007B
 176:	81 50       	subi	r24, 0x01	; 1
 178:	80 93 7b 00 	sts	0x007B, r24
 17c:	08 95       	ret

0000017e <SensorTwoNotify>:
 17e:	80 91 7c 00 	lds	r24, 0x007C
 182:	88 23       	and	r24, r24
 184:	a9 f4       	brne	.+42     	; 0x1b0 <SensorTwoNotify+0x32>
 186:	81 e0       	ldi	r24, 0x01	; 1
 188:	80 93 7c 00 	sts	0x007C, r24
 18c:	80 91 7b 00 	lds	r24, 0x007B
 190:	8f 5f       	subi	r24, 0xFF	; 255
 192:	80 93 7b 00 	sts	0x007B, r24
 196:	81 e0       	ldi	r24, 0x01	; 1
 198:	51 d1       	rcall	.+674    	; 0x43c <ReloadHWtimer>
 19a:	90 93 7a 00 	sts	0x007A, r25
 19e:	80 93 79 00 	sts	0x0079, r24
 1a2:	80 91 78 00 	lds	r24, 0x0078
 1a6:	80 93 7d 00 	sts	0x007D, r24
 1aa:	10 92 78 00 	sts	0x0078, r1
 1ae:	08 95       	ret
 1b0:	80 91 7b 00 	lds	r24, 0x007B
 1b4:	88 23       	and	r24, r24
 1b6:	29 f0       	breq	.+10     	; 0x1c2 <SensorTwoNotify+0x44>
 1b8:	80 91 7b 00 	lds	r24, 0x007B
 1bc:	81 50       	subi	r24, 0x01	; 1
 1be:	80 93 7b 00 	sts	0x007B, r24
 1c2:	08 95       	ret

000001c4 <SpeedCalcManage>:
 1c4:	cf 93       	push	r28
 1c6:	df 93       	push	r29
 1c8:	40 91 79 00 	lds	r20, 0x0079
 1cc:	50 91 7a 00 	lds	r21, 0x007A
 1d0:	20 91 7d 00 	lds	r18, 0x007D
 1d4:	30 e0       	ldi	r19, 0x00	; 0
 1d6:	8f e8       	ldi	r24, 0x8F	; 143
 1d8:	92 e0       	ldi	r25, 0x02	; 2
 1da:	28 9f       	mul	r18, r24
 1dc:	f0 01       	movw	r30, r0
 1de:	29 9f       	mul	r18, r25
 1e0:	f0 0d       	add	r31, r0
 1e2:	38 9f       	mul	r19, r24
 1e4:	f0 0d       	add	r31, r0
 1e6:	11 24       	eor	r1, r1
 1e8:	ca 01       	movw	r24, r20
 1ea:	64 e6       	ldi	r22, 0x64	; 100
 1ec:	70 e0       	ldi	r23, 0x00	; 0
 1ee:	06 d2       	rcall	.+1036   	; 0x5fc <__udivmodhi4>
 1f0:	e6 0f       	add	r30, r22
 1f2:	f7 1f       	adc	r31, r23
 1f4:	f0 93 7f 00 	sts	0x007F, r31
 1f8:	e0 93 7e 00 	sts	0x007E, r30
 1fc:	80 91 7b 00 	lds	r24, 0x007B
 200:	c0 91 80 00 	lds	r28, 0x0080
 204:	d0 91 81 00 	lds	r29, 0x0081
 208:	c8 0f       	add	r28, r24
 20a:	d1 1d       	adc	r29, r1
 20c:	d0 93 81 00 	sts	0x0081, r29
 210:	c0 93 80 00 	sts	0x0080, r28
 214:	10 92 7b 00 	sts	0x007B, r1
 218:	20 91 6b 00 	lds	r18, 0x006B
 21c:	30 91 6c 00 	lds	r19, 0x006C
 220:	40 e0       	ldi	r20, 0x00	; 0
 222:	50 e0       	ldi	r21, 0x00	; 0
 224:	60 ea       	ldi	r22, 0xA0	; 160
 226:	76 e8       	ldi	r23, 0x86	; 134
 228:	81 e0       	ldi	r24, 0x01	; 1
 22a:	90 e0       	ldi	r25, 0x00	; 0
 22c:	fb d1       	rcall	.+1014   	; 0x624 <__udivmodsi4>
 22e:	c2 17       	cp	r28, r18
 230:	d3 07       	cpc	r29, r19
 232:	c8 f0       	brcs	.+50     	; 0x266 <SpeedCalcManage+0xa2>
 234:	80 91 82 00 	lds	r24, 0x0082
 238:	90 91 83 00 	lds	r25, 0x0083
 23c:	a0 91 84 00 	lds	r26, 0x0084
 240:	b0 91 85 00 	lds	r27, 0x0085
 244:	01 96       	adiw	r24, 0x01	; 1
 246:	a1 1d       	adc	r26, r1
 248:	b1 1d       	adc	r27, r1
 24a:	80 93 82 00 	sts	0x0082, r24
 24e:	90 93 83 00 	sts	0x0083, r25
 252:	a0 93 84 00 	sts	0x0084, r26
 256:	b0 93 85 00 	sts	0x0085, r27
 25a:	c2 1b       	sub	r28, r18
 25c:	d3 0b       	sbc	r29, r19
 25e:	d0 93 81 00 	sts	0x0081, r29
 262:	c0 93 80 00 	sts	0x0080, r28
 266:	df 91       	pop	r29
 268:	cf 91       	pop	r28
 26a:	08 95       	ret

0000026c <SetDistance>:
 26c:	dc 01       	movw	r26, r24
 26e:	cb 01       	movw	r24, r22
 270:	80 93 82 00 	sts	0x0082, r24
 274:	90 93 83 00 	sts	0x0083, r25
 278:	a0 93 84 00 	sts	0x0084, r26
 27c:	b0 93 85 00 	sts	0x0085, r27
 280:	08 95       	ret

00000282 <GetDistance>:
 282:	60 91 82 00 	lds	r22, 0x0082
 286:	70 91 83 00 	lds	r23, 0x0083
 28a:	80 91 84 00 	lds	r24, 0x0084
 28e:	90 91 85 00 	lds	r25, 0x0085
 292:	08 95       	ret

00000294 <SetCircumfirunce>:
 294:	90 93 6c 00 	sts	0x006C, r25
 298:	80 93 6b 00 	sts	0x006B, r24
 29c:	08 95       	ret

0000029e <GetAvgSpeed>:
 29e:	cf 93       	push	r28
 2a0:	df 93       	push	r29
 2a2:	81 30       	cpi	r24, 0x01	; 1
 2a4:	29 f4       	brne	.+10     	; 0x2b0 <GetAvgSpeed+0x12>
 2a6:	68 e6       	ldi	r22, 0x68	; 104
 2a8:	71 e0       	ldi	r23, 0x01	; 1
 2aa:	80 e0       	ldi	r24, 0x00	; 0
 2ac:	90 e0       	ldi	r25, 0x00	; 0
 2ae:	04 c0       	rjmp	.+8      	; 0x2b8 <GetAvgSpeed+0x1a>
 2b0:	61 ee       	ldi	r22, 0xE1	; 225
 2b2:	70 e0       	ldi	r23, 0x00	; 0
 2b4:	80 e0       	ldi	r24, 0x00	; 0
 2b6:	90 e0       	ldi	r25, 0x00	; 0
 2b8:	c0 91 7e 00 	lds	r28, 0x007E
 2bc:	d0 91 7f 00 	lds	r29, 0x007F
 2c0:	20 97       	sbiw	r28, 0x00	; 0
 2c2:	69 f0       	breq	.+26     	; 0x2de <GetAvgSpeed+0x40>
 2c4:	20 91 6b 00 	lds	r18, 0x006B
 2c8:	30 91 6c 00 	lds	r19, 0x006C
 2cc:	40 e0       	ldi	r20, 0x00	; 0
 2ce:	50 e0       	ldi	r21, 0x00	; 0
 2d0:	76 d1       	rcall	.+748    	; 0x5be <__mulsi3>
 2d2:	9e 01       	movw	r18, r28
 2d4:	40 e0       	ldi	r20, 0x00	; 0
 2d6:	50 e0       	ldi	r21, 0x00	; 0
 2d8:	a5 d1       	rcall	.+842    	; 0x624 <__udivmodsi4>
 2da:	c9 01       	movw	r24, r18
 2dc:	02 c0       	rjmp	.+4      	; 0x2e2 <GetAvgSpeed+0x44>
 2de:	80 e0       	ldi	r24, 0x00	; 0
 2e0:	90 e0       	ldi	r25, 0x00	; 0
 2e2:	20 91 78 00 	lds	r18, 0x0078
 2e6:	20 34       	cpi	r18, 0x40	; 64
 2e8:	11 f4       	brne	.+4      	; 0x2ee <GetAvgSpeed+0x50>
 2ea:	80 e0       	ldi	r24, 0x00	; 0
 2ec:	90 e0       	ldi	r25, 0x00	; 0
 2ee:	df 91       	pop	r29
 2f0:	cf 91       	pop	r28
 2f2:	08 95       	ret

000002f4 <HWtimerCallback>:
 2f4:	80 91 78 00 	lds	r24, 0x0078
 2f8:	80 34       	cpi	r24, 0x40	; 64
 2fa:	28 f4       	brcc	.+10     	; 0x306 <HWtimerCallback+0x12>
 2fc:	80 91 78 00 	lds	r24, 0x0078
 300:	8f 5f       	subi	r24, 0xFF	; 255
 302:	80 93 78 00 	sts	0x0078, r24
 306:	08 95       	ret

00000308 <APP_ISR1>:
 308:	29 df       	rcall	.-430    	; 0x15c <SensorOneNotify>
 30a:	08 95       	ret

0000030c <APP_ISR2>:
 30c:	38 df       	rcall	.-400    	; 0x17e <SensorTwoNotify>
 30e:	08 95       	ret

00000310 <APP_ISR3>:
 310:	f1 df       	rcall	.-30     	; 0x2f4 <HWtimerCallback>
 312:	08 95       	ret

00000314 <CreateTask>:
 314:	63 30       	cpi	r22, 0x03	; 3
 316:	60 f4       	brcc	.+24     	; 0x330 <CreateTask+0x1c>
 318:	e6 2f       	mov	r30, r22
 31a:	f0 e0       	ldi	r31, 0x00	; 0
 31c:	ee 0f       	add	r30, r30
 31e:	ff 1f       	adc	r31, r31
 320:	ee 0f       	add	r30, r30
 322:	ff 1f       	adc	r31, r31
 324:	ea 57       	subi	r30, 0x7A	; 122
 326:	ff 4f       	sbci	r31, 0xFF	; 255
 328:	91 83       	std	Z+1, r25	; 0x01
 32a:	80 83       	st	Z, r24
 32c:	42 83       	std	Z+2, r20	; 0x02
 32e:	13 82       	std	Z+3, r1	; 0x03
 330:	08 95       	ret

00000332 <SchedulerTick>:
 332:	80 91 89 00 	lds	r24, 0x0089
 336:	8f 5f       	subi	r24, 0xFF	; 255
 338:	80 93 89 00 	sts	0x0089, r24
 33c:	80 91 8d 00 	lds	r24, 0x008D
 340:	8f 5f       	subi	r24, 0xFF	; 255
 342:	80 93 8d 00 	sts	0x008D, r24
 346:	80 91 91 00 	lds	r24, 0x0091
 34a:	8f 5f       	subi	r24, 0xFF	; 255
 34c:	80 93 91 00 	sts	0x0091, r24
 350:	08 95       	ret

00000352 <RunScheduler>:
 352:	10 92 92 00 	sts	0x0092, r1
 356:	1e c0       	rjmp	.+60     	; 0x394 <RunScheduler+0x42>
 358:	f0 e0       	ldi	r31, 0x00	; 0
 35a:	ee 0f       	add	r30, r30
 35c:	ff 1f       	adc	r31, r31
 35e:	ee 0f       	add	r30, r30
 360:	ff 1f       	adc	r31, r31
 362:	ea 57       	subi	r30, 0x7A	; 122
 364:	ff 4f       	sbci	r31, 0xFF	; 255
 366:	92 81       	ldd	r25, Z+2	; 0x02
 368:	83 81       	ldd	r24, Z+3	; 0x03
 36a:	89 17       	cp	r24, r25
 36c:	70 f0       	brcs	.+28     	; 0x38a <RunScheduler+0x38>
 36e:	01 90       	ld	r0, Z+
 370:	f0 81       	ld	r31, Z
 372:	e0 2d       	mov	r30, r0
 374:	09 95       	icall
 376:	e0 91 92 00 	lds	r30, 0x0092
 37a:	f0 e0       	ldi	r31, 0x00	; 0
 37c:	ee 0f       	add	r30, r30
 37e:	ff 1f       	adc	r31, r31
 380:	ee 0f       	add	r30, r30
 382:	ff 1f       	adc	r31, r31
 384:	ea 57       	subi	r30, 0x7A	; 122
 386:	ff 4f       	sbci	r31, 0xFF	; 255
 388:	13 82       	std	Z+3, r1	; 0x03
 38a:	80 91 92 00 	lds	r24, 0x0092
 38e:	8f 5f       	subi	r24, 0xFF	; 255
 390:	80 93 92 00 	sts	0x0092, r24
 394:	e0 91 92 00 	lds	r30, 0x0092
 398:	e3 30       	cpi	r30, 0x03	; 3
 39a:	d8 f6       	brcc	.-74     	; 0x352 <RunScheduler>
 39c:	dd cf       	rjmp	.-70     	; 0x358 <RunScheduler+0x6>

0000039e <HWI_DIGITAL_INITIALIZE>:
 39e:	8f ef       	ldi	r24, 0xFF	; 255
 3a0:	87 bb       	out	0x17, r24	; 23
 3a2:	84 bb       	out	0x14, r24	; 20
 3a4:	08 95       	ret

000003a6 <HWI_DIGI_READ>:
 3a6:	80 e0       	ldi	r24, 0x00	; 0
 3a8:	08 95       	ret

000003aa <HWI_DIGI_WRITE>:
 3aa:	08 95       	ret

000003ac <HWI_4Digit_WRITE>:
 3ac:	88 23       	and	r24, r24
 3ae:	29 f4       	brne	.+10     	; 0x3ba <HWI_4Digit_WRITE+0xe>
 3b0:	85 b3       	in	r24, 0x15	; 21
 3b2:	80 7f       	andi	r24, 0xF0	; 240
 3b4:	86 2b       	or	r24, r22
 3b6:	85 bb       	out	0x15, r24	; 21
 3b8:	08 95       	ret
 3ba:	88 b3       	in	r24, 0x18	; 24
 3bc:	80 7f       	andi	r24, 0xF0	; 240
 3be:	86 2b       	or	r24, r22
 3c0:	88 bb       	out	0x18, r24	; 24
 3c2:	08 95       	ret

000003c4 <HWI_4Digit_READ>:
 3c4:	88 23       	and	r24, r24
 3c6:	19 f0       	breq	.+6      	; 0x3ce <HWI_4Digit_READ+0xa>
 3c8:	81 30       	cpi	r24, 0x01	; 1
 3ca:	31 f4       	brne	.+12     	; 0x3d8 <HWI_4Digit_READ+0x14>
 3cc:	02 c0       	rjmp	.+4      	; 0x3d2 <HWI_4Digit_READ+0xe>
 3ce:	85 b3       	in	r24, 0x15	; 21
 3d0:	01 c0       	rjmp	.+2      	; 0x3d4 <HWI_4Digit_READ+0x10>
 3d2:	88 b3       	in	r24, 0x18	; 24
 3d4:	8f 70       	andi	r24, 0x0F	; 15
 3d6:	08 95       	ret
 3d8:	88 b3       	in	r24, 0x18	; 24
 3da:	8f 70       	andi	r24, 0x0F	; 15
 3dc:	08 95       	ret

000003de <HWI_8Digit_WRITE>:
 3de:	88 23       	and	r24, r24
 3e0:	11 f4       	brne	.+4      	; 0x3e6 <HWI_8Digit_WRITE+0x8>
 3e2:	65 bb       	out	0x15, r22	; 21
 3e4:	08 95       	ret
 3e6:	68 bb       	out	0x18, r22	; 24
 3e8:	08 95       	ret

000003ea <HWI8Digit_READ>:
 3ea:	88 23       	and	r24, r24
 3ec:	11 f0       	breq	.+4      	; 0x3f2 <HWI8Digit_READ+0x8>
 3ee:	88 b3       	in	r24, 0x18	; 24
 3f0:	08 95       	ret
 3f2:	85 b3       	in	r24, 0x15	; 21
 3f4:	08 95       	ret

000003f6 <HWI_INTERRUPTS_INTITALIZE>:
 3f6:	8e b5       	in	r24, 0x2e	; 46
 3f8:	82 60       	ori	r24, 0x02	; 2
 3fa:	8e bd       	out	0x2e, r24	; 46
 3fc:	8f ef       	ldi	r24, 0xFF	; 255
 3fe:	9f e7       	ldi	r25, 0x7F	; 127
 400:	9d bd       	out	0x2d, r25	; 45
 402:	8c bd       	out	0x2c, r24	; 44
 404:	83 b7       	in	r24, 0x33	; 51
 406:	83 60       	ori	r24, 0x03	; 3
 408:	83 bf       	out	0x33, r24	; 51
 40a:	82 ec       	ldi	r24, 0xC2	; 194
 40c:	82 bf       	out	0x32, r24	; 50
 40e:	89 b7       	in	r24, 0x39	; 57
 410:	81 60       	ori	r24, 0x01	; 1
 412:	89 bf       	out	0x39, r24	; 57
 414:	89 b7       	in	r24, 0x39	; 57
 416:	84 60       	ori	r24, 0x04	; 4
 418:	89 bf       	out	0x39, r24	; 57
 41a:	8b b7       	in	r24, 0x3b	; 59
 41c:	80 64       	ori	r24, 0x40	; 64
 41e:	8b bf       	out	0x3b, r24	; 59
 420:	85 b7       	in	r24, 0x35	; 53
 422:	83 60       	ori	r24, 0x03	; 3
 424:	85 bf       	out	0x35, r24	; 53
 426:	8b b7       	in	r24, 0x3b	; 59
 428:	80 68       	ori	r24, 0x80	; 128
 42a:	8b bf       	out	0x3b, r24	; 59
 42c:	85 b7       	in	r24, 0x35	; 53
 42e:	8c 60       	ori	r24, 0x0C	; 12
 430:	85 bf       	out	0x35, r24	; 53
 432:	81 b3       	in	r24, 0x11	; 17
 434:	8c 60       	ori	r24, 0x0C	; 12
 436:	81 bb       	out	0x11, r24	; 17
 438:	78 94       	sei
 43a:	08 95       	ret

0000043c <ReloadHWtimer>:
 43c:	83 30       	cpi	r24, 0x03	; 3
 43e:	58 f4       	brcc	.+22     	; 0x456 <ReloadHWtimer+0x1a>
 440:	8c b5       	in	r24, 0x2c	; 44
 442:	9d b5       	in	r25, 0x2d	; 45
 444:	8f 5f       	subi	r24, 0xFF	; 255
 446:	9f 47       	sbci	r25, 0x7F	; 127
 448:	88 0f       	add	r24, r24
 44a:	99 1f       	adc	r25, r25
 44c:	2f ef       	ldi	r18, 0xFF	; 255
 44e:	3f e7       	ldi	r19, 0x7F	; 127
 450:	3d bd       	out	0x2d, r19	; 45
 452:	2c bd       	out	0x2c, r18	; 44
 454:	08 95       	ret
 456:	80 e0       	ldi	r24, 0x00	; 0
 458:	90 e0       	ldi	r25, 0x00	; 0
 45a:	08 95       	ret

0000045c <__vector_9>:
 45c:	1f 92       	push	r1
 45e:	0f 92       	push	r0
 460:	0f b6       	in	r0, 0x3f	; 63
 462:	0f 92       	push	r0
 464:	11 24       	eor	r1, r1
 466:	2f 93       	push	r18
 468:	3f 93       	push	r19
 46a:	4f 93       	push	r20
 46c:	5f 93       	push	r21
 46e:	6f 93       	push	r22
 470:	7f 93       	push	r23
 472:	8f 93       	push	r24
 474:	9f 93       	push	r25
 476:	af 93       	push	r26
 478:	bf 93       	push	r27
 47a:	ef 93       	push	r30
 47c:	ff 93       	push	r31
 47e:	82 ec       	ldi	r24, 0xC2	; 194
 480:	82 bf       	out	0x32, r24	; 50
 482:	57 df       	rcall	.-338    	; 0x332 <SchedulerTick>
 484:	ff 91       	pop	r31
 486:	ef 91       	pop	r30
 488:	bf 91       	pop	r27
 48a:	af 91       	pop	r26
 48c:	9f 91       	pop	r25
 48e:	8f 91       	pop	r24
 490:	7f 91       	pop	r23
 492:	6f 91       	pop	r22
 494:	5f 91       	pop	r21
 496:	4f 91       	pop	r20
 498:	3f 91       	pop	r19
 49a:	2f 91       	pop	r18
 49c:	0f 90       	pop	r0
 49e:	0f be       	out	0x3f, r0	; 63
 4a0:	0f 90       	pop	r0
 4a2:	1f 90       	pop	r1
 4a4:	18 95       	reti

000004a6 <__vector_8>:
 4a6:	1f 92       	push	r1
 4a8:	0f 92       	push	r0
 4aa:	0f b6       	in	r0, 0x3f	; 63
 4ac:	0f 92       	push	r0
 4ae:	11 24       	eor	r1, r1
 4b0:	2f 93       	push	r18
 4b2:	3f 93       	push	r19
 4b4:	4f 93       	push	r20
 4b6:	5f 93       	push	r21
 4b8:	6f 93       	push	r22
 4ba:	7f 93       	push	r23
 4bc:	8f 93       	push	r24
 4be:	9f 93       	push	r25
 4c0:	af 93       	push	r26
 4c2:	bf 93       	push	r27
 4c4:	ef 93       	push	r30
 4c6:	ff 93       	push	r31
 4c8:	8f ef       	ldi	r24, 0xFF	; 255
 4ca:	9f e7       	ldi	r25, 0x7F	; 127
 4cc:	9d bd       	out	0x2d, r25	; 45
 4ce:	8c bd       	out	0x2c, r24	; 44
 4d0:	1f df       	rcall	.-450    	; 0x310 <APP_ISR3>
 4d2:	ff 91       	pop	r31
 4d4:	ef 91       	pop	r30
 4d6:	bf 91       	pop	r27
 4d8:	af 91       	pop	r26
 4da:	9f 91       	pop	r25
 4dc:	8f 91       	pop	r24
 4de:	7f 91       	pop	r23
 4e0:	6f 91       	pop	r22
 4e2:	5f 91       	pop	r21
 4e4:	4f 91       	pop	r20
 4e6:	3f 91       	pop	r19
 4e8:	2f 91       	pop	r18
 4ea:	0f 90       	pop	r0
 4ec:	0f be       	out	0x3f, r0	; 63
 4ee:	0f 90       	pop	r0
 4f0:	1f 90       	pop	r1
 4f2:	18 95       	reti

000004f4 <__vector_1>:
 4f4:	1f 92       	push	r1
 4f6:	0f 92       	push	r0
 4f8:	0f b6       	in	r0, 0x3f	; 63
 4fa:	0f 92       	push	r0
 4fc:	11 24       	eor	r1, r1
 4fe:	2f 93       	push	r18
 500:	3f 93       	push	r19
 502:	4f 93       	push	r20
 504:	5f 93       	push	r21
 506:	6f 93       	push	r22
 508:	7f 93       	push	r23
 50a:	8f 93       	push	r24
 50c:	9f 93       	push	r25
 50e:	af 93       	push	r26
 510:	bf 93       	push	r27
 512:	ef 93       	push	r30
 514:	ff 93       	push	r31
 516:	f8 de       	rcall	.-528    	; 0x308 <APP_ISR1>
 518:	ff 91       	pop	r31
 51a:	ef 91       	pop	r30
 51c:	bf 91       	pop	r27
 51e:	af 91       	pop	r26
 520:	9f 91       	pop	r25
 522:	8f 91       	pop	r24
 524:	7f 91       	pop	r23
 526:	6f 91       	pop	r22
 528:	5f 91       	pop	r21
 52a:	4f 91       	pop	r20
 52c:	3f 91       	pop	r19
 52e:	2f 91       	pop	r18
 530:	0f 90       	pop	r0
 532:	0f be       	out	0x3f, r0	; 63
 534:	0f 90       	pop	r0
 536:	1f 90       	pop	r1
 538:	18 95       	reti

0000053a <__vector_2>:
 53a:	1f 92       	push	r1
 53c:	0f 92       	push	r0
 53e:	0f b6       	in	r0, 0x3f	; 63
 540:	0f 92       	push	r0
 542:	11 24       	eor	r1, r1
 544:	2f 93       	push	r18
 546:	3f 93       	push	r19
 548:	4f 93       	push	r20
 54a:	5f 93       	push	r21
 54c:	6f 93       	push	r22
 54e:	7f 93       	push	r23
 550:	8f 93       	push	r24
 552:	9f 93       	push	r25
 554:	af 93       	push	r26
 556:	bf 93       	push	r27
 558:	ef 93       	push	r30
 55a:	ff 93       	push	r31
 55c:	d7 de       	rcall	.-594    	; 0x30c <APP_ISR2>
 55e:	ff 91       	pop	r31
 560:	ef 91       	pop	r30
 562:	bf 91       	pop	r27
 564:	af 91       	pop	r26
 566:	9f 91       	pop	r25
 568:	8f 91       	pop	r24
 56a:	7f 91       	pop	r23
 56c:	6f 91       	pop	r22
 56e:	5f 91       	pop	r21
 570:	4f 91       	pop	r20
 572:	3f 91       	pop	r19
 574:	2f 91       	pop	r18
 576:	0f 90       	pop	r0
 578:	0f be       	out	0x3f, r0	; 63
 57a:	0f 90       	pop	r0
 57c:	1f 90       	pop	r1
 57e:	18 95       	reti

00000580 <ManageSpeedCalc>:
 580:	21 de       	rcall	.-958    	; 0x1c4 <SpeedCalcManage>
 582:	08 95       	ret

00000584 <ManageApplication>:
 584:	6d dd       	rcall	.-1318   	; 0x60 <APP_MANAGE>
 586:	08 95       	ret

00000588 <DisplayAlphaNumeric>:
 588:	bb dd       	rcall	.-1162   	; 0x100 <BCDManage7segment>
 58a:	08 95       	ret

0000058c <main>:
 58c:	34 df       	rcall	.-408    	; 0x3f6 <HWI_INTERRUPTS_INTITALIZE>
 58e:	07 df       	rcall	.-498    	; 0x39e <HWI_DIGITAL_INITIALIZE>
 590:	e4 dd       	rcall	.-1080   	; 0x15a <SpeedCalcNotifyInitialize>
 592:	81 e0       	ldi	r24, 0x01	; 1
 594:	74 dd       	rcall	.-1304   	; 0x7e <BCDInitialize>
 596:	63 dd       	rcall	.-1338   	; 0x5e <APP_INITIALIZE>
 598:	80 ec       	ldi	r24, 0xC0	; 192
 59a:	92 e0       	ldi	r25, 0x02	; 2
 59c:	60 e0       	ldi	r22, 0x00	; 0
 59e:	44 e1       	ldi	r20, 0x14	; 20
 5a0:	b9 de       	rcall	.-654    	; 0x314 <CreateTask>
 5a2:	82 ec       	ldi	r24, 0xC2	; 194
 5a4:	92 e0       	ldi	r25, 0x02	; 2
 5a6:	62 e0       	ldi	r22, 0x02	; 2
 5a8:	44 e6       	ldi	r20, 0x64	; 100
 5aa:	b4 de       	rcall	.-664    	; 0x314 <CreateTask>
 5ac:	84 ec       	ldi	r24, 0xC4	; 196
 5ae:	92 e0       	ldi	r25, 0x02	; 2
 5b0:	61 e0       	ldi	r22, 0x01	; 1
 5b2:	42 e3       	ldi	r20, 0x32	; 50
 5b4:	af de       	rcall	.-674    	; 0x314 <CreateTask>
 5b6:	cd de       	rcall	.-614    	; 0x352 <RunScheduler>
 5b8:	80 e0       	ldi	r24, 0x00	; 0
 5ba:	90 e0       	ldi	r25, 0x00	; 0
 5bc:	08 95       	ret

000005be <__mulsi3>:
 5be:	62 9f       	mul	r22, r18
 5c0:	d0 01       	movw	r26, r0
 5c2:	73 9f       	mul	r23, r19
 5c4:	f0 01       	movw	r30, r0
 5c6:	82 9f       	mul	r24, r18
 5c8:	e0 0d       	add	r30, r0
 5ca:	f1 1d       	adc	r31, r1
 5cc:	64 9f       	mul	r22, r20
 5ce:	e0 0d       	add	r30, r0
 5d0:	f1 1d       	adc	r31, r1
 5d2:	92 9f       	mul	r25, r18
 5d4:	f0 0d       	add	r31, r0
 5d6:	83 9f       	mul	r24, r19
 5d8:	f0 0d       	add	r31, r0
 5da:	74 9f       	mul	r23, r20
 5dc:	f0 0d       	add	r31, r0
 5de:	65 9f       	mul	r22, r21
 5e0:	f0 0d       	add	r31, r0
 5e2:	99 27       	eor	r25, r25
 5e4:	72 9f       	mul	r23, r18
 5e6:	b0 0d       	add	r27, r0
 5e8:	e1 1d       	adc	r30, r1
 5ea:	f9 1f       	adc	r31, r25
 5ec:	63 9f       	mul	r22, r19
 5ee:	b0 0d       	add	r27, r0
 5f0:	e1 1d       	adc	r30, r1
 5f2:	f9 1f       	adc	r31, r25
 5f4:	bd 01       	movw	r22, r26
 5f6:	cf 01       	movw	r24, r30
 5f8:	11 24       	eor	r1, r1
 5fa:	08 95       	ret

000005fc <__udivmodhi4>:
 5fc:	aa 1b       	sub	r26, r26
 5fe:	bb 1b       	sub	r27, r27
 600:	51 e1       	ldi	r21, 0x11	; 17
 602:	07 c0       	rjmp	.+14     	; 0x612 <__udivmodhi4_ep>

00000604 <__udivmodhi4_loop>:
 604:	aa 1f       	adc	r26, r26
 606:	bb 1f       	adc	r27, r27
 608:	a6 17       	cp	r26, r22
 60a:	b7 07       	cpc	r27, r23
 60c:	10 f0       	brcs	.+4      	; 0x612 <__udivmodhi4_ep>
 60e:	a6 1b       	sub	r26, r22
 610:	b7 0b       	sbc	r27, r23

00000612 <__udivmodhi4_ep>:
 612:	88 1f       	adc	r24, r24
 614:	99 1f       	adc	r25, r25
 616:	5a 95       	dec	r21
 618:	a9 f7       	brne	.-22     	; 0x604 <__udivmodhi4_loop>
 61a:	80 95       	com	r24
 61c:	90 95       	com	r25
 61e:	bc 01       	movw	r22, r24
 620:	cd 01       	movw	r24, r26
 622:	08 95       	ret

00000624 <__udivmodsi4>:
 624:	a1 e2       	ldi	r26, 0x21	; 33
 626:	1a 2e       	mov	r1, r26
 628:	aa 1b       	sub	r26, r26
 62a:	bb 1b       	sub	r27, r27
 62c:	fd 01       	movw	r30, r26
 62e:	0d c0       	rjmp	.+26     	; 0x64a <__udivmodsi4_ep>

00000630 <__udivmodsi4_loop>:
 630:	aa 1f       	adc	r26, r26
 632:	bb 1f       	adc	r27, r27
 634:	ee 1f       	adc	r30, r30
 636:	ff 1f       	adc	r31, r31
 638:	a2 17       	cp	r26, r18
 63a:	b3 07       	cpc	r27, r19
 63c:	e4 07       	cpc	r30, r20
 63e:	f5 07       	cpc	r31, r21
 640:	20 f0       	brcs	.+8      	; 0x64a <__udivmodsi4_ep>
 642:	a2 1b       	sub	r26, r18
 644:	b3 0b       	sbc	r27, r19
 646:	e4 0b       	sbc	r30, r20
 648:	f5 0b       	sbc	r31, r21

0000064a <__udivmodsi4_ep>:
 64a:	66 1f       	adc	r22, r22
 64c:	77 1f       	adc	r23, r23
 64e:	88 1f       	adc	r24, r24
 650:	99 1f       	adc	r25, r25
 652:	1a 94       	dec	r1
 654:	69 f7       	brne	.-38     	; 0x630 <__udivmodsi4_loop>
 656:	60 95       	com	r22
 658:	70 95       	com	r23
 65a:	80 95       	com	r24
 65c:	90 95       	com	r25
 65e:	9b 01       	movw	r18, r22
 660:	ac 01       	movw	r20, r24
 662:	bd 01       	movw	r22, r26
 664:	cf 01       	movw	r24, r30
 666:	08 95       	ret

00000668 <_exit>:
 668:	f8 94       	cli

0000066a <__stop_program>:
 66a:	ff cf       	rjmp	.-2      	; 0x66a <__stop_program>
