
BicMeter.elf:     file format elf32-avr

Sections:
Idx Name          Size      VMA       LMA       File off  Algn
  0 .text         00000d40  00000000  00000000  00000094  2**1
                  CONTENTS, ALLOC, LOAD, READONLY, CODE
  1 .data         00000038  00800060  00000d40  00000dd4  2**0
                  CONTENTS, ALLOC, LOAD, DATA
  2 .bss          00000085  00800098  00800098  00000e0c  2**0
                  ALLOC
  3 .stab         000006cc  00000000  00000000  00000e0c  2**2
                  CONTENTS, READONLY, DEBUGGING
  4 .stabstr      00000085  00000000  00000000  000014d8  2**0
                  CONTENTS, READONLY, DEBUGGING
  5 .debug_aranges 000000c0  00000000  00000000  00001560  2**3
                  CONTENTS, READONLY, DEBUGGING
  6 .debug_info   0000052e  00000000  00000000  00001620  2**0
                  CONTENTS, READONLY, DEBUGGING
  7 .debug_abbrev 00000078  00000000  00000000  00001b4e  2**0
                  CONTENTS, READONLY, DEBUGGING
  8 .debug_line   0000038e  00000000  00000000  00001bc6  2**0
                  CONTENTS, READONLY, DEBUGGING

Disassembly of section .text:

00000000 <__vectors>:
   0:	12 c0       	rjmp	.+36     	; 0x26 <__ctors_end>
   2:	d8 c5       	rjmp	.+2992   	; 0xbb4 <__vector_1>
   4:	fd c5       	rjmp	.+3066   	; 0xc00 <__vector_2>
   6:	2a c0       	rjmp	.+84     	; 0x5c <__bad_interrupt>
   8:	29 c0       	rjmp	.+82     	; 0x5c <__bad_interrupt>
   a:	28 c0       	rjmp	.+80     	; 0x5c <__bad_interrupt>
   c:	27 c0       	rjmp	.+78     	; 0x5c <__bad_interrupt>
   e:	26 c0       	rjmp	.+76     	; 0x5c <__bad_interrupt>
  10:	aa c5       	rjmp	.+2900   	; 0xb66 <__vector_8>
  12:	84 c5       	rjmp	.+2824   	; 0xb1c <__vector_9>
  14:	23 c0       	rjmp	.+70     	; 0x5c <__bad_interrupt>
  16:	22 c0       	rjmp	.+68     	; 0x5c <__bad_interrupt>
  18:	21 c0       	rjmp	.+66     	; 0x5c <__bad_interrupt>
  1a:	20 c0       	rjmp	.+64     	; 0x5c <__bad_interrupt>
  1c:	1f c0       	rjmp	.+62     	; 0x5c <__bad_interrupt>
  1e:	1e c0       	rjmp	.+60     	; 0x5c <__bad_interrupt>
  20:	1d c0       	rjmp	.+58     	; 0x5c <__bad_interrupt>
  22:	1c c0       	rjmp	.+56     	; 0x5c <__bad_interrupt>
  24:	1b c0       	rjmp	.+54     	; 0x5c <__bad_interrupt>

00000026 <__ctors_end>:
  26:	11 24       	eor	r1, r1
  28:	1f be       	out	0x3f, r1	; 63
  2a:	cf e5       	ldi	r28, 0x5F	; 95
  2c:	d4 e0       	ldi	r29, 0x04	; 4
  2e:	de bf       	out	0x3e, r29	; 62
  30:	cd bf       	out	0x3d, r28	; 61

00000032 <__do_copy_data>:
  32:	10 e0       	ldi	r17, 0x00	; 0
  34:	a0 e6       	ldi	r26, 0x60	; 96
  36:	b0 e0       	ldi	r27, 0x00	; 0
  38:	e0 e4       	ldi	r30, 0x40	; 64
  3a:	fd e0       	ldi	r31, 0x0D	; 13
  3c:	02 c0       	rjmp	.+4      	; 0x42 <__SREG__+0x3>
  3e:	05 90       	lpm	r0, Z+
  40:	0d 92       	st	X+, r0
  42:	a8 39       	cpi	r26, 0x98	; 152
  44:	b1 07       	cpc	r27, r17
  46:	d9 f7       	brne	.-10     	; 0x3e <__SP_H__>

00000048 <__do_clear_bss>:
  48:	11 e0       	ldi	r17, 0x01	; 1
  4a:	a8 e9       	ldi	r26, 0x98	; 152
  4c:	b0 e0       	ldi	r27, 0x00	; 0
  4e:	01 c0       	rjmp	.+2      	; 0x52 <.do_clear_bss_start>

00000050 <.do_clear_bss_loop>:
  50:	1d 92       	st	X+, r1

00000052 <.do_clear_bss_start>:
  52:	ad 31       	cpi	r26, 0x1D	; 29
  54:	b1 07       	cpc	r27, r17
  56:	e1 f7       	brne	.-8      	; 0x50 <.do_clear_bss_loop>
  58:	18 d6       	rcall	.+3120   	; 0xc8a <main>
  5a:	70 c6       	rjmp	.+3296   	; 0xd3c <_exit>

0000005c <__bad_interrupt>:
  5c:	d1 cf       	rjmp	.-94     	; 0x0 <__vectors>

0000005e <APP_INITIALIZE>:
  5e:	81 e0       	ldi	r24, 0x01	; 1
  60:	68 e9       	ldi	r22, 0x98	; 152
  62:	70 e0       	ldi	r23, 0x00	; 0
  64:	49 e0       	ldi	r20, 0x09	; 9
  66:	96 d2       	rcall	.+1324   	; 0x594 <Eeprom_Read_Block>
  68:	80 91 98 00 	lds	r24, 0x0098
  6c:	90 91 99 00 	lds	r25, 0x0099
  70:	27 e2       	ldi	r18, 0x27	; 39
  72:	80 31       	cpi	r24, 0x10	; 16
  74:	92 07       	cpc	r25, r18
  76:	30 f0       	brcs	.+12     	; 0x84 <APP_INITIALIZE+0x26>
  78:	80 ed       	ldi	r24, 0xD0	; 208
  7a:	97 e0       	ldi	r25, 0x07	; 7
  7c:	90 93 99 00 	sts	0x0099, r25
  80:	80 93 98 00 	sts	0x0098, r24
  84:	80 91 9b 00 	lds	r24, 0x009B
  88:	90 91 9c 00 	lds	r25, 0x009C
  8c:	27 e2       	ldi	r18, 0x27	; 39
  8e:	80 31       	cpi	r24, 0x10	; 16
  90:	92 07       	cpc	r25, r18
  92:	20 f0       	brcs	.+8      	; 0x9c <APP_INITIALIZE+0x3e>
  94:	10 92 9c 00 	sts	0x009C, r1
  98:	10 92 9b 00 	sts	0x009B, r1
  9c:	80 91 9b 00 	lds	r24, 0x009B
  a0:	90 91 9c 00 	lds	r25, 0x009C
  a4:	27 e2       	ldi	r18, 0x27	; 39
  a6:	80 31       	cpi	r24, 0x10	; 16
  a8:	92 07       	cpc	r25, r18
  aa:	40 f0       	brcs	.+16     	; 0xbc <APP_INITIALIZE+0x5e>
  ac:	10 92 9d 00 	sts	0x009D, r1
  b0:	10 92 9e 00 	sts	0x009E, r1
  b4:	10 92 9f 00 	sts	0x009F, r1
  b8:	10 92 a0 00 	sts	0x00A0, r1
  bc:	80 91 98 00 	lds	r24, 0x0098
  c0:	90 91 99 00 	lds	r25, 0x0099
  c4:	f9 d3       	rcall	.+2034   	; 0x8b8 <SetCircumfirunce>
  c6:	60 91 9b 00 	lds	r22, 0x009B
  ca:	70 91 9c 00 	lds	r23, 0x009C
  ce:	80 e0       	ldi	r24, 0x00	; 0
  d0:	90 e0       	ldi	r25, 0x00	; 0
  d2:	de d3       	rcall	.+1980   	; 0x890 <SetDistance>
  d4:	60 91 9d 00 	lds	r22, 0x009D
  d8:	70 91 9e 00 	lds	r23, 0x009E
  dc:	80 91 9f 00 	lds	r24, 0x009F
  e0:	90 91 a0 00 	lds	r25, 0x00A0
  e4:	4a d0       	rcall	.+148    	; 0x17a <APP_CALC_TIMEsetTravelTime>
  e6:	08 95       	ret

000000e8 <APP_MANAGE>:
  e8:	8f 92       	push	r8
  ea:	9f 92       	push	r9
  ec:	af 92       	push	r10
  ee:	bf 92       	push	r11
  f0:	cf 92       	push	r12
  f2:	df 92       	push	r13
  f4:	ef 92       	push	r14
  f6:	ff 92       	push	r15
  f8:	0f 93       	push	r16
  fa:	1f 93       	push	r17
  fc:	cf 93       	push	r28
  fe:	df 93       	push	r29
 100:	0f 92       	push	r0
 102:	cd b7       	in	r28, 0x3d	; 61
 104:	de b7       	in	r29, 0x3e	; 62
 106:	80 91 9a 00 	lds	r24, 0x009A
 10a:	89 83       	std	Y+1, r24	; 0x01
 10c:	cc d3       	rcall	.+1944   	; 0x8a6 <GetDistance>
 10e:	4b 01       	movw	r8, r22
 110:	5c 01       	movw	r10, r24
 112:	ce 01       	movw	r24, r28
 114:	01 96       	adiw	r24, 0x01	; 1
 116:	7b d0       	rcall	.+246    	; 0x20e <APP_HMImanage>
 118:	ce 01       	movw	r24, r28
 11a:	01 96       	adiw	r24, 0x01	; 1
 11c:	39 d0       	rcall	.+114    	; 0x190 <APP_CALC_TIMEmanage>
 11e:	6b 01       	movw	r12, r22
 120:	7c 01       	movw	r14, r24
 122:	ce 01       	movw	r24, r28
 124:	01 96       	adiw	r24, 0x01	; 1
 126:	b7 01       	movw	r22, r14
 128:	a6 01       	movw	r20, r12
 12a:	95 01       	movw	r18, r10
 12c:	84 01       	movw	r16, r8
 12e:	22 d0       	rcall	.+68     	; 0x174 <APP_CALC_AVGSPDemanage>
 130:	ce 01       	movw	r24, r28
 132:	01 96       	adiw	r24, 0x01	; 1
 134:	b3 d0       	rcall	.+358    	; 0x29c <APP_SLEEPmanage>
 136:	89 81       	ldd	r24, Y+1	; 0x01
 138:	88 1f       	adc	r24, r24
 13a:	88 27       	eor	r24, r24
 13c:	88 1f       	adc	r24, r24
 13e:	c1 d3       	rcall	.+1922   	; 0x8c2 <GetAvgSpeed>
 140:	bc 01       	movw	r22, r24
 142:	80 e0       	ldi	r24, 0x00	; 0
 144:	90 e0       	ldi	r25, 0x00	; 0
 146:	40 e0       	ldi	r20, 0x00	; 0
 148:	21 e0       	ldi	r18, 0x01	; 1
 14a:	01 e0       	ldi	r16, 0x01	; 1
 14c:	ab d0       	rcall	.+342    	; 0x2a4 <BCDsendNumber>
 14e:	c7 01       	movw	r24, r14
 150:	b6 01       	movw	r22, r12
 152:	41 e0       	ldi	r20, 0x01	; 1
 154:	20 e0       	ldi	r18, 0x00	; 0
 156:	a6 d0       	rcall	.+332    	; 0x2a4 <BCDsendNumber>
 158:	0f 90       	pop	r0
 15a:	df 91       	pop	r29
 15c:	cf 91       	pop	r28
 15e:	1f 91       	pop	r17
 160:	0f 91       	pop	r16
 162:	ff 90       	pop	r15
 164:	ef 90       	pop	r14
 166:	df 90       	pop	r13
 168:	cf 90       	pop	r12
 16a:	bf 90       	pop	r11
 16c:	af 90       	pop	r10
 16e:	9f 90       	pop	r9
 170:	8f 90       	pop	r8
 172:	08 95       	ret

00000174 <APP_CALC_AVGSPDemanage>:
 174:	80 e0       	ldi	r24, 0x00	; 0
 176:	90 e0       	ldi	r25, 0x00	; 0
 178:	08 95       	ret

0000017a <APP_CALC_TIMEsetTravelTime>:
 17a:	dc 01       	movw	r26, r24
 17c:	cb 01       	movw	r24, r22
 17e:	80 93 a1 00 	sts	0x00A1, r24
 182:	90 93 a2 00 	sts	0x00A2, r25
 186:	a0 93 a3 00 	sts	0x00A3, r26
 18a:	b0 93 a4 00 	sts	0x00A4, r27
 18e:	08 95       	ret

00000190 <APP_CALC_TIMEmanage>:
 190:	fc 01       	movw	r30, r24
 192:	80 81       	ld	r24, Z
 194:	85 ff       	sbrs	r24, 5
 196:	0d c0       	rjmp	.+26     	; 0x1b2 <APP_CALC_TIMEmanage+0x22>
 198:	10 92 a6 00 	sts	0x00A6, r1
 19c:	10 92 a5 00 	sts	0x00A5, r1
 1a0:	10 92 a1 00 	sts	0x00A1, r1
 1a4:	10 92 a2 00 	sts	0x00A2, r1
 1a8:	10 92 a3 00 	sts	0x00A3, r1
 1ac:	10 92 a4 00 	sts	0x00A4, r1
 1b0:	25 c0       	rjmp	.+74     	; 0x1fc <APP_CALC_TIMEmanage+0x6c>
 1b2:	80 91 a5 00 	lds	r24, 0x00A5
 1b6:	90 91 a6 00 	lds	r25, 0x00A6
 1ba:	f4 e0       	ldi	r31, 0x04	; 4
 1bc:	80 3b       	cpi	r24, 0xB0	; 176
 1be:	9f 07       	cpc	r25, r31
 1c0:	c0 f0       	brcs	.+48     	; 0x1f2 <APP_CALC_TIMEmanage+0x62>
 1c2:	10 92 a6 00 	sts	0x00A6, r1
 1c6:	10 92 a5 00 	sts	0x00A5, r1
 1ca:	80 91 a1 00 	lds	r24, 0x00A1
 1ce:	90 91 a2 00 	lds	r25, 0x00A2
 1d2:	a0 91 a3 00 	lds	r26, 0x00A3
 1d6:	b0 91 a4 00 	lds	r27, 0x00A4
 1da:	01 96       	adiw	r24, 0x01	; 1
 1dc:	a1 1d       	adc	r26, r1
 1de:	b1 1d       	adc	r27, r1
 1e0:	80 93 a1 00 	sts	0x00A1, r24
 1e4:	90 93 a2 00 	sts	0x00A2, r25
 1e8:	a0 93 a3 00 	sts	0x00A3, r26
 1ec:	b0 93 a4 00 	sts	0x00A4, r27
 1f0:	05 c0       	rjmp	.+10     	; 0x1fc <APP_CALC_TIMEmanage+0x6c>
 1f2:	01 96       	adiw	r24, 0x01	; 1
 1f4:	90 93 a6 00 	sts	0x00A6, r25
 1f8:	80 93 a5 00 	sts	0x00A5, r24
 1fc:	60 91 a1 00 	lds	r22, 0x00A1
 200:	70 91 a2 00 	lds	r23, 0x00A2
 204:	80 91 a3 00 	lds	r24, 0x00A3
 208:	90 91 a4 00 	lds	r25, 0x00A4
 20c:	08 95       	ret

0000020e <APP_HMImanage>:
 20e:	1f 93       	push	r17
 210:	cf 93       	push	r28
 212:	df 93       	push	r29
 214:	ec 01       	movw	r28, r24
 216:	80 e0       	ldi	r24, 0x00	; 0
 218:	15 d2       	rcall	.+1066   	; 0x644 <GetKeyStatus>
 21a:	18 2f       	mov	r17, r24
 21c:	81 e0       	ldi	r24, 0x01	; 1
 21e:	12 d2       	rcall	.+1060   	; 0x644 <GetKeyStatus>
 220:	90 91 a7 00 	lds	r25, 0x00A7
 224:	99 23       	and	r25, r25
 226:	19 f0       	breq	.+6      	; 0x22e <APP_HMImanage+0x20>
 228:	91 30       	cpi	r25, 0x01	; 1
 22a:	91 f5       	brne	.+100    	; 0x290 <APP_HMImanage+0x82>
 22c:	17 c0       	rjmp	.+46     	; 0x25c <APP_HMImanage+0x4e>
 22e:	12 30       	cpi	r17, 0x02	; 2
 230:	31 f4       	brne	.+12     	; 0x23e <APP_HMImanage+0x30>
 232:	82 30       	cpi	r24, 0x02	; 2
 234:	51 f4       	brne	.+20     	; 0x24a <APP_HMImanage+0x3c>
 236:	81 e0       	ldi	r24, 0x01	; 1
 238:	80 93 a7 00 	sts	0x00A7, r24
 23c:	2b c0       	rjmp	.+86     	; 0x294 <APP_HMImanage+0x86>
 23e:	10 34       	cpi	r17, 0x40	; 64
 240:	21 f4       	brne	.+8      	; 0x24a <APP_HMImanage+0x3c>
 242:	88 81       	ld	r24, Y
 244:	98 2f       	mov	r25, r24
 246:	9d 5f       	subi	r25, 0xFD	; 253
 248:	05 c0       	rjmp	.+10     	; 0x254 <APP_HMImanage+0x46>
 24a:	80 34       	cpi	r24, 0x40	; 64
 24c:	19 f5       	brne	.+70     	; 0x294 <APP_HMImanage+0x86>
 24e:	88 81       	ld	r24, Y
 250:	98 2f       	mov	r25, r24
 252:	9f 5f       	subi	r25, 0xFF	; 255
 254:	93 70       	andi	r25, 0x03	; 3
 256:	8c 7f       	andi	r24, 0xFC	; 252
 258:	89 2b       	or	r24, r25
 25a:	15 c0       	rjmp	.+42     	; 0x286 <APP_HMImanage+0x78>
 25c:	12 30       	cpi	r17, 0x02	; 2
 25e:	39 f4       	brne	.+14     	; 0x26e <APP_HMImanage+0x60>
 260:	82 30       	cpi	r24, 0x02	; 2
 262:	59 f4       	brne	.+22     	; 0x27a <APP_HMImanage+0x6c>
 264:	10 92 a7 00 	sts	0x00A7, r1
 268:	88 81       	ld	r24, Y
 26a:	84 60       	ori	r24, 0x04	; 4
 26c:	0c c0       	rjmp	.+24     	; 0x286 <APP_HMImanage+0x78>
 26e:	10 34       	cpi	r17, 0x40	; 64
 270:	21 f4       	brne	.+8      	; 0x27a <APP_HMImanage+0x6c>
 272:	88 81       	ld	r24, Y
 274:	80 61       	ori	r24, 0x10	; 16
 276:	87 7f       	andi	r24, 0xF7	; 247
 278:	06 c0       	rjmp	.+12     	; 0x286 <APP_HMImanage+0x78>
 27a:	98 81       	ld	r25, Y
 27c:	80 34       	cpi	r24, 0x40	; 64
 27e:	29 f4       	brne	.+10     	; 0x28a <APP_HMImanage+0x7c>
 280:	89 2f       	mov	r24, r25
 282:	88 60       	ori	r24, 0x08	; 8
 284:	8f 7e       	andi	r24, 0xEF	; 239
 286:	88 83       	st	Y, r24
 288:	05 c0       	rjmp	.+10     	; 0x294 <APP_HMImanage+0x86>
 28a:	97 7e       	andi	r25, 0xE7	; 231
 28c:	98 83       	st	Y, r25
 28e:	02 c0       	rjmp	.+4      	; 0x294 <APP_HMImanage+0x86>
 290:	10 92 a7 00 	sts	0x00A7, r1
 294:	df 91       	pop	r29
 296:	cf 91       	pop	r28
 298:	1f 91       	pop	r17
 29a:	08 95       	ret

0000029c <APP_SLEEPmanage>:
 29c:	08 95       	ret

0000029e <BCDInitialize>:
 29e:	80 93 a8 00 	sts	0x00A8, r24
 2a2:	08 95       	ret

000002a4 <BCDsendNumber>:
 2a4:	2f 92       	push	r2
 2a6:	3f 92       	push	r3
 2a8:	4f 92       	push	r4
 2aa:	5f 92       	push	r5
 2ac:	7f 92       	push	r7
 2ae:	8f 92       	push	r8
 2b0:	9f 92       	push	r9
 2b2:	af 92       	push	r10
 2b4:	bf 92       	push	r11
 2b6:	cf 92       	push	r12
 2b8:	df 92       	push	r13
 2ba:	ef 92       	push	r14
 2bc:	ff 92       	push	r15
 2be:	0f 93       	push	r16
 2c0:	1f 93       	push	r17
 2c2:	cf 93       	push	r28
 2c4:	df 93       	push	r29
 2c6:	00 d0       	rcall	.+0      	; 0x2c8 <BCDsendNumber+0x24>
 2c8:	00 d0       	rcall	.+0      	; 0x2ca <BCDsendNumber+0x26>
 2ca:	cd b7       	in	r28, 0x3d	; 61
 2cc:	de b7       	in	r29, 0x3e	; 62
 2ce:	12 2f       	mov	r17, r18
 2d0:	70 2e       	mov	r7, r16
 2d2:	24 2f       	mov	r18, r20
 2d4:	30 e0       	ldi	r19, 0x00	; 0
 2d6:	3a 83       	std	Y+2, r19	; 0x02
 2d8:	29 83       	std	Y+1, r18	; 0x01
 2da:	43 e0       	ldi	r20, 0x03	; 3
 2dc:	22 0f       	add	r18, r18
 2de:	33 1f       	adc	r19, r19
 2e0:	4a 95       	dec	r20
 2e2:	e1 f7       	brne	.-8      	; 0x2dc <BCDsendNumber+0x38>
 2e4:	27 55       	subi	r18, 0x57	; 87
 2e6:	3f 4f       	sbci	r19, 0xFF	; 255
 2e8:	6b 01       	movw	r12, r22
 2ea:	7c 01       	movw	r14, r24
 2ec:	88 24       	eor	r8, r8
 2ee:	5a e0       	ldi	r21, 0x0A	; 10
 2f0:	25 2e       	mov	r2, r21
 2f2:	31 2c       	mov	r3, r1
 2f4:	41 2c       	mov	r4, r1
 2f6:	51 2c       	mov	r5, r1
 2f8:	3c 83       	std	Y+4, r19	; 0x04
 2fa:	2b 83       	std	Y+3, r18	; 0x03
 2fc:	91 2e       	mov	r9, r17
 2fe:	c1 14       	cp	r12, r1
 300:	d1 04       	cpc	r13, r1
 302:	e1 04       	cpc	r14, r1
 304:	f1 04       	cpc	r15, r1
 306:	11 f4       	brne	.+4      	; 0x30c <BCDsendNumber+0x68>
 308:	98 14       	cp	r9, r8
 30a:	38 f1       	brcs	.+78     	; 0x35a <BCDsendNumber+0xb6>
 30c:	c7 01       	movw	r24, r14
 30e:	b6 01       	movw	r22, r12
 310:	a2 01       	movw	r20, r4
 312:	91 01       	movw	r18, r2
 314:	f1 d4       	rcall	.+2530   	; 0xcf8 <__udivmodsi4>
 316:	12 2f       	mov	r17, r18
 318:	03 2f       	mov	r16, r19
 31a:	b4 2e       	mov	r11, r20
 31c:	a5 2e       	mov	r10, r21
 31e:	62 2f       	mov	r22, r18
 320:	73 2f       	mov	r23, r19
 322:	84 2f       	mov	r24, r20
 324:	95 2f       	mov	r25, r21
 326:	2a e0       	ldi	r18, 0x0A	; 10
 328:	30 e0       	ldi	r19, 0x00	; 0
 32a:	40 e0       	ldi	r20, 0x00	; 0
 32c:	50 e0       	ldi	r21, 0x00	; 0
 32e:	b1 d4       	rcall	.+2402   	; 0xc92 <__mulsi3>
 330:	dc 01       	movw	r26, r24
 332:	cb 01       	movw	r24, r22
 334:	c8 1a       	sub	r12, r24
 336:	d9 0a       	sbc	r13, r25
 338:	ea 0a       	sbc	r14, r26
 33a:	fb 0a       	sbc	r15, r27
 33c:	f6 01       	movw	r30, r12
 33e:	e0 5a       	subi	r30, 0xA0	; 160
 340:	ff 4f       	sbci	r31, 0xFF	; 255
 342:	80 81       	ld	r24, Z
 344:	ab 81       	ldd	r26, Y+3	; 0x03
 346:	bc 81       	ldd	r27, Y+4	; 0x04
 348:	8c 93       	st	X, r24
 34a:	11 96       	adiw	r26, 0x01	; 1
 34c:	1c 92       	st	X, r1
 34e:	11 97       	sbiw	r26, 0x01	; 1
 350:	c1 2e       	mov	r12, r17
 352:	d0 2e       	mov	r13, r16
 354:	eb 2c       	mov	r14, r11
 356:	fa 2c       	mov	r15, r10
 358:	0e c0       	rjmp	.+28     	; 0x376 <BCDsendNumber+0xd2>
 35a:	77 20       	and	r7, r7
 35c:	39 f4       	brne	.+14     	; 0x36c <BCDsendNumber+0xc8>
 35e:	2c ef       	ldi	r18, 0xFC	; 252
 360:	30 e0       	ldi	r19, 0x00	; 0
 362:	eb 81       	ldd	r30, Y+3	; 0x03
 364:	fc 81       	ldd	r31, Y+4	; 0x04
 366:	31 83       	std	Z+1, r19	; 0x01
 368:	20 83       	st	Z, r18
 36a:	05 c0       	rjmp	.+10     	; 0x376 <BCDsendNumber+0xd2>
 36c:	ab 81       	ldd	r26, Y+3	; 0x03
 36e:	bc 81       	ldd	r27, Y+4	; 0x04
 370:	11 96       	adiw	r26, 0x01	; 1
 372:	1c 92       	st	X, r1
 374:	1e 92       	st	-X, r1
 376:	83 94       	inc	r8
 378:	eb 81       	ldd	r30, Y+3	; 0x03
 37a:	fc 81       	ldd	r31, Y+4	; 0x04
 37c:	32 96       	adiw	r30, 0x02	; 2
 37e:	fc 83       	std	Y+4, r31	; 0x04
 380:	eb 83       	std	Y+3, r30	; 0x03
 382:	f4 e0       	ldi	r31, 0x04	; 4
 384:	8f 16       	cp	r8, r31
 386:	09 f0       	breq	.+2      	; 0x38a <BCDsendNumber+0xe6>
 388:	ba cf       	rjmp	.-140    	; 0x2fe <BCDsendNumber+0x5a>
 38a:	99 20       	and	r9, r9
 38c:	89 f0       	breq	.+34     	; 0x3b0 <BCDsendNumber+0x10c>
 38e:	e9 81       	ldd	r30, Y+1	; 0x01
 390:	fa 81       	ldd	r31, Y+2	; 0x02
 392:	ee 0f       	add	r30, r30
 394:	ff 1f       	adc	r31, r31
 396:	ee 0f       	add	r30, r30
 398:	ff 1f       	adc	r31, r31
 39a:	e9 0d       	add	r30, r9
 39c:	f1 1d       	adc	r31, r1
 39e:	ee 0f       	add	r30, r30
 3a0:	ff 1f       	adc	r31, r31
 3a2:	e7 55       	subi	r30, 0x57	; 87
 3a4:	ff 4f       	sbci	r31, 0xFF	; 255
 3a6:	80 81       	ld	r24, Z
 3a8:	91 81       	ldd	r25, Z+1	; 0x01
 3aa:	81 60       	ori	r24, 0x01	; 1
 3ac:	91 83       	std	Z+1, r25	; 0x01
 3ae:	80 83       	st	Z, r24
 3b0:	0f 90       	pop	r0
 3b2:	0f 90       	pop	r0
 3b4:	0f 90       	pop	r0
 3b6:	0f 90       	pop	r0
 3b8:	df 91       	pop	r29
 3ba:	cf 91       	pop	r28
 3bc:	1f 91       	pop	r17
 3be:	0f 91       	pop	r16
 3c0:	ff 90       	pop	r15
 3c2:	ef 90       	pop	r14
 3c4:	df 90       	pop	r13
 3c6:	cf 90       	pop	r12
 3c8:	bf 90       	pop	r11
 3ca:	af 90       	pop	r10
 3cc:	9f 90       	pop	r9
 3ce:	8f 90       	pop	r8
 3d0:	7f 90       	pop	r7
 3d2:	5f 90       	pop	r5
 3d4:	4f 90       	pop	r4
 3d6:	3f 90       	pop	r3
 3d8:	2f 90       	pop	r2
 3da:	08 95       	ret

000003dc <BCDManage7segment>:
 3dc:	cf 93       	push	r28
 3de:	90 91 b9 00 	lds	r25, 0x00B9
 3e2:	99 23       	and	r25, r25
 3e4:	81 f0       	breq	.+32     	; 0x406 <BCDManage7segment+0x2a>
 3e6:	80 91 ba 00 	lds	r24, 0x00BA
 3ea:	8f 5f       	subi	r24, 0xFF	; 255
 3ec:	80 93 ba 00 	sts	0x00BA, r24
 3f0:	89 17       	cp	r24, r25
 3f2:	59 f4       	brne	.+22     	; 0x40a <BCDManage7segment+0x2e>
 3f4:	80 91 bb 00 	lds	r24, 0x00BB
 3f8:	91 e0       	ldi	r25, 0x01	; 1
 3fa:	89 27       	eor	r24, r25
 3fc:	80 93 bb 00 	sts	0x00BB, r24
 400:	10 92 ba 00 	sts	0x00BA, r1
 404:	02 c0       	rjmp	.+4      	; 0x40a <BCDManage7segment+0x2e>
 406:	10 92 bb 00 	sts	0x00BB, r1
 40a:	80 91 bb 00 	lds	r24, 0x00BB
 40e:	81 30       	cpi	r24, 0x01	; 1
 410:	61 f4       	brne	.+24     	; 0x42a <BCDManage7segment+0x4e>
 412:	90 91 bc 00 	lds	r25, 0x00BC
 416:	80 91 bd 00 	lds	r24, 0x00BD
 41a:	98 17       	cp	r25, r24
 41c:	31 f4       	brne	.+12     	; 0x42a <BCDManage7segment+0x4e>
 41e:	90 91 be 00 	lds	r25, 0x00BE
 422:	80 91 bf 00 	lds	r24, 0x00BF
 426:	98 17       	cp	r25, r24
 428:	89 f0       	breq	.+34     	; 0x44c <BCDManage7segment+0x70>
 42a:	80 91 bc 00 	lds	r24, 0x00BC
 42e:	e0 91 bf 00 	lds	r30, 0x00BF
 432:	f0 e0       	ldi	r31, 0x00	; 0
 434:	ee 0f       	add	r30, r30
 436:	ff 1f       	adc	r31, r31
 438:	ee 0f       	add	r30, r30
 43a:	ff 1f       	adc	r31, r31
 43c:	e8 0f       	add	r30, r24
 43e:	f1 1d       	adc	r31, r1
 440:	ee 0f       	add	r30, r30
 442:	ff 1f       	adc	r31, r31
 444:	e7 55       	subi	r30, 0x57	; 87
 446:	ff 4f       	sbci	r31, 0xFF	; 255
 448:	c0 81       	ld	r28, Z
 44a:	01 c0       	rjmp	.+2      	; 0x44e <BCDManage7segment+0x72>
 44c:	c0 e0       	ldi	r28, 0x00	; 0
 44e:	80 91 a8 00 	lds	r24, 0x00A8
 452:	81 30       	cpi	r24, 0x01	; 1
 454:	09 f4       	brne	.+2      	; 0x458 <BCDManage7segment+0x7c>
 456:	c0 95       	com	r28
 458:	60 91 bf 00 	lds	r22, 0x00BF
 45c:	66 0f       	add	r22, r22
 45e:	66 0f       	add	r22, r22
 460:	80 91 bc 00 	lds	r24, 0x00BC
 464:	68 0f       	add	r22, r24
 466:	80 e0       	ldi	r24, 0x00	; 0
 468:	01 d3       	rcall	.+1538   	; 0xa6c <HWI_4Digit_WRITE>
 46a:	81 e0       	ldi	r24, 0x01	; 1
 46c:	6c 2f       	mov	r22, r28
 46e:	17 d3       	rcall	.+1582   	; 0xa9e <HWI_8Digit_WRITE>
 470:	80 91 bc 00 	lds	r24, 0x00BC
 474:	8f 5f       	subi	r24, 0xFF	; 255
 476:	80 93 bc 00 	sts	0x00BC, r24
 47a:	84 30       	cpi	r24, 0x04	; 4
 47c:	59 f4       	brne	.+22     	; 0x494 <__stack+0x35>
 47e:	10 92 bc 00 	sts	0x00BC, r1
 482:	80 91 bf 00 	lds	r24, 0x00BF
 486:	8f 5f       	subi	r24, 0xFF	; 255
 488:	80 93 bf 00 	sts	0x00BF, r24
 48c:	82 30       	cpi	r24, 0x02	; 2
 48e:	11 f4       	brne	.+4      	; 0x494 <__stack+0x35>
 490:	10 92 bf 00 	sts	0x00BF, r1
 494:	cf 91       	pop	r28
 496:	08 95       	ret

00000498 <BlinkDigit>:
 498:	80 93 bd 00 	sts	0x00BD, r24
 49c:	40 93 b9 00 	sts	0x00B9, r20
 4a0:	60 93 be 00 	sts	0x00BE, r22
 4a4:	08 95       	ret

000004a6 <Segment7SendString>:
 4a6:	cf 93       	push	r28
 4a8:	df 93       	push	r29
 4aa:	da 01       	movw	r26, r20
 4ac:	42 2f       	mov	r20, r18
 4ae:	50 e0       	ldi	r21, 0x00	; 0
 4b0:	48 0f       	add	r20, r24
 4b2:	51 1d       	adc	r21, r1
 4b4:	45 30       	cpi	r20, 0x05	; 5
 4b6:	51 05       	cpc	r21, r1
 4b8:	cc f4       	brge	.+50     	; 0x4ec <Segment7SendString+0x46>
 4ba:	70 e0       	ldi	r23, 0x00	; 0
 4bc:	66 0f       	add	r22, r22
 4be:	77 1f       	adc	r23, r23
 4c0:	66 0f       	add	r22, r22
 4c2:	77 1f       	adc	r23, r23
 4c4:	0e c0       	rjmp	.+28     	; 0x4e2 <Segment7SendString+0x3c>
 4c6:	fb 01       	movw	r30, r22
 4c8:	e2 0f       	add	r30, r18
 4ca:	f3 1f       	adc	r31, r19
 4cc:	ee 0f       	add	r30, r30
 4ce:	ff 1f       	adc	r31, r31
 4d0:	e7 55       	subi	r30, 0x57	; 87
 4d2:	ff 4f       	sbci	r31, 0xFF	; 255
 4d4:	2a 0f       	add	r18, r26
 4d6:	3b 1f       	adc	r19, r27
 4d8:	e9 01       	movw	r28, r18
 4da:	98 81       	ld	r25, Y
 4dc:	90 83       	st	Z, r25
 4de:	11 82       	std	Z+1, r1	; 0x01
 4e0:	8f 5f       	subi	r24, 0xFF	; 255
 4e2:	28 2f       	mov	r18, r24
 4e4:	30 e0       	ldi	r19, 0x00	; 0
 4e6:	24 17       	cp	r18, r20
 4e8:	35 07       	cpc	r19, r21
 4ea:	6c f3       	brlt	.-38     	; 0x4c6 <Segment7SendString+0x20>
 4ec:	df 91       	pop	r29
 4ee:	cf 91       	pop	r28
 4f0:	08 95       	ret

000004f2 <DisplaySendString>:
 4f2:	ef 92       	push	r14
 4f4:	ff 92       	push	r15
 4f6:	0f 93       	push	r16
 4f8:	1f 93       	push	r17
 4fa:	cf 93       	push	r28
 4fc:	df 93       	push	r29
 4fe:	00 d0       	rcall	.+0      	; 0x500 <DisplaySendString+0xe>
 500:	00 d0       	rcall	.+0      	; 0x502 <DisplaySendString+0x10>
 502:	cd b7       	in	r28, 0x3d	; 61
 504:	de b7       	in	r29, 0x3e	; 62
 506:	de 01       	movw	r26, r28
 508:	a2 0f       	add	r26, r18
 50a:	b1 1d       	adc	r27, r1
 50c:	7a 01       	movw	r14, r20
 50e:	0e c0       	rjmp	.+28     	; 0x52c <DisplaySendString+0x3a>
 510:	f7 01       	movw	r30, r14
 512:	91 91       	ld	r25, Z+
 514:	7f 01       	movw	r14, r30
 516:	09 2f       	mov	r16, r25
 518:	01 54       	subi	r16, 0x41	; 65
 51a:	06 32       	cpi	r16, 0x26	; 38
 51c:	28 f4       	brcc	.+10     	; 0x528 <DisplaySendString+0x36>
 51e:	10 e0       	ldi	r17, 0x00	; 0
 520:	05 59       	subi	r16, 0x95	; 149
 522:	1f 4f       	sbci	r17, 0xFF	; 255
 524:	f8 01       	movw	r30, r16
 526:	90 81       	ld	r25, Z
 528:	9c 93       	st	X, r25
 52a:	11 97       	sbiw	r26, 0x01	; 1
 52c:	9e 2d       	mov	r25, r14
 52e:	94 1b       	sub	r25, r20
 530:	92 17       	cp	r25, r18
 532:	70 f3       	brcs	.-36     	; 0x510 <DisplaySendString+0x1e>
 534:	ae 01       	movw	r20, r28
 536:	4f 5f       	subi	r20, 0xFF	; 255
 538:	5f 4f       	sbci	r21, 0xFF	; 255
 53a:	b5 df       	rcall	.-150    	; 0x4a6 <Segment7SendString>
 53c:	0f 90       	pop	r0
 53e:	0f 90       	pop	r0
 540:	0f 90       	pop	r0
 542:	0f 90       	pop	r0
 544:	df 91       	pop	r29
 546:	cf 91       	pop	r28
 548:	1f 91       	pop	r17
 54a:	0f 91       	pop	r16
 54c:	ff 90       	pop	r15
 54e:	ef 90       	pop	r14
 550:	08 95       	ret

00000552 <Eeprom_Write_Block>:
 552:	90 91 c0 00 	lds	r25, 0x00C0
 556:	99 23       	and	r25, r25
 558:	c9 f4       	brne	.+50     	; 0x58c <Eeprom_Write_Block+0x3a>
 55a:	43 33       	cpi	r20, 0x33	; 51
 55c:	c8 f4       	brcc	.+50     	; 0x590 <Eeprom_Write_Block+0x3e>
 55e:	91 e0       	ldi	r25, 0x01	; 1
 560:	90 93 c0 00 	sts	0x00C0, r25
 564:	a1 ec       	ldi	r26, 0xC1	; 193
 566:	b0 e0       	ldi	r27, 0x00	; 0
 568:	fb 01       	movw	r30, r22
 56a:	02 c0       	rjmp	.+4      	; 0x570 <Eeprom_Write_Block+0x1e>
 56c:	91 91       	ld	r25, Z+
 56e:	9d 93       	st	X+, r25
 570:	9e 2f       	mov	r25, r30
 572:	96 1b       	sub	r25, r22
 574:	94 17       	cp	r25, r20
 576:	d0 f3       	brcs	.-12     	; 0x56c <Eeprom_Write_Block+0x1a>
 578:	40 93 f3 00 	sts	0x00F3, r20
 57c:	80 93 f4 00 	sts	0x00F4, r24
 580:	30 93 f6 00 	sts	0x00F6, r19
 584:	20 93 f5 00 	sts	0x00F5, r18
 588:	81 e0       	ldi	r24, 0x01	; 1
 58a:	08 95       	ret
 58c:	80 e0       	ldi	r24, 0x00	; 0
 58e:	08 95       	ret
 590:	80 e0       	ldi	r24, 0x00	; 0
 592:	08 95       	ret

00000594 <Eeprom_Read_Block>:
 594:	ef 92       	push	r14
 596:	ff 92       	push	r15
 598:	0f 93       	push	r16
 59a:	1f 93       	push	r17
 59c:	cf 93       	push	r28
 59e:	df 93       	push	r29
 5a0:	0f 92       	push	r0
 5a2:	cd b7       	in	r28, 0x3d	; 61
 5a4:	de b7       	in	r29, 0x3e	; 62
 5a6:	18 2f       	mov	r17, r24
 5a8:	7b 01       	movw	r14, r22
 5aa:	80 91 c0 00 	lds	r24, 0x00C0
 5ae:	88 23       	and	r24, r24
 5b0:	71 f0       	breq	.+28     	; 0x5ce <Eeprom_Read_Block+0x3a>
 5b2:	80 e0       	ldi	r24, 0x00	; 0
 5b4:	10 c0       	rjmp	.+32     	; 0x5d6 <Eeprom_Read_Block+0x42>
 5b6:	b7 01       	movw	r22, r14
 5b8:	60 0f       	add	r22, r16
 5ba:	71 1d       	adc	r23, r1
 5bc:	80 2f       	mov	r24, r16
 5be:	81 0f       	add	r24, r17
 5c0:	49 83       	std	Y+1, r20	; 0x01
 5c2:	2f d2       	rcall	.+1118   	; 0xa22 <HWIeeprom_Read>
 5c4:	49 81       	ldd	r20, Y+1	; 0x01
 5c6:	81 30       	cpi	r24, 0x01	; 1
 5c8:	19 f4       	brne	.+6      	; 0x5d0 <Eeprom_Read_Block+0x3c>
 5ca:	0f 5f       	subi	r16, 0xFF	; 255
 5cc:	01 c0       	rjmp	.+2      	; 0x5d0 <Eeprom_Read_Block+0x3c>
 5ce:	00 e0       	ldi	r16, 0x00	; 0
 5d0:	04 17       	cp	r16, r20
 5d2:	88 f3       	brcs	.-30     	; 0x5b6 <Eeprom_Read_Block+0x22>
 5d4:	81 e0       	ldi	r24, 0x01	; 1
 5d6:	0f 90       	pop	r0
 5d8:	df 91       	pop	r29
 5da:	cf 91       	pop	r28
 5dc:	1f 91       	pop	r17
 5de:	0f 91       	pop	r16
 5e0:	ff 90       	pop	r15
 5e2:	ef 90       	pop	r14
 5e4:	08 95       	ret

000005e6 <EepromManage>:
 5e6:	80 91 c0 00 	lds	r24, 0x00C0
 5ea:	81 30       	cpi	r24, 0x01	; 1
 5ec:	11 f5       	brne	.+68     	; 0x632 <EepromManage+0x4c>
 5ee:	80 91 f7 00 	lds	r24, 0x00F7
 5f2:	90 91 f3 00 	lds	r25, 0x00F3
 5f6:	89 17       	cp	r24, r25
 5f8:	61 f4       	brne	.+24     	; 0x612 <EepromManage+0x2c>
 5fa:	10 92 f7 00 	sts	0x00F7, r1
 5fe:	10 92 c0 00 	sts	0x00C0, r1
 602:	e0 91 f5 00 	lds	r30, 0x00F5
 606:	f0 91 f6 00 	lds	r31, 0x00F6
 60a:	30 97       	sbiw	r30, 0x00	; 0
 60c:	91 f0       	breq	.+36     	; 0x632 <EepromManage+0x4c>
 60e:	09 95       	icall
 610:	08 95       	ret
 612:	90 91 f4 00 	lds	r25, 0x00F4
 616:	e8 2f       	mov	r30, r24
 618:	f0 e0       	ldi	r31, 0x00	; 0
 61a:	ef 53       	subi	r30, 0x3F	; 63
 61c:	ff 4f       	sbci	r31, 0xFF	; 255
 61e:	89 0f       	add	r24, r25
 620:	60 81       	ld	r22, Z
 622:	f3 d1       	rcall	.+998    	; 0xa0a <HWIeeprom_Write>
 624:	81 30       	cpi	r24, 0x01	; 1
 626:	29 f4       	brne	.+10     	; 0x632 <EepromManage+0x4c>
 628:	80 91 f7 00 	lds	r24, 0x00F7
 62c:	8f 5f       	subi	r24, 0xFF	; 255
 62e:	80 93 f7 00 	sts	0x00F7, r24
 632:	08 95       	ret

00000634 <KeyInitialize>:
 634:	86 e0       	ldi	r24, 0x06	; 6
 636:	e8 ef       	ldi	r30, 0xF8	; 248
 638:	f0 e0       	ldi	r31, 0x00	; 0
 63a:	df 01       	movw	r26, r30
 63c:	1d 92       	st	X+, r1
 63e:	8a 95       	dec	r24
 640:	e9 f7       	brne	.-6      	; 0x63c <KeyInitialize+0x8>
 642:	08 95       	ret

00000644 <GetKeyStatus>:
 644:	90 e0       	ldi	r25, 0x00	; 0
 646:	fc 01       	movw	r30, r24
 648:	ee 0f       	add	r30, r30
 64a:	ff 1f       	adc	r31, r31
 64c:	e8 0f       	add	r30, r24
 64e:	f9 1f       	adc	r31, r25
 650:	e8 50       	subi	r30, 0x08	; 8
 652:	ff 4f       	sbci	r31, 0xFF	; 255
 654:	80 81       	ld	r24, Z
 656:	98 2f       	mov	r25, r24
 658:	9f 73       	andi	r25, 0x3F	; 63
 65a:	90 83       	st	Z, r25
 65c:	08 95       	ret

0000065e <MangeKeys>:
 65e:	ef 92       	push	r14
 660:	ff 92       	push	r15
 662:	0f 93       	push	r16
 664:	1f 93       	push	r17
 666:	cf 93       	push	r28
 668:	df 93       	push	r29
 66a:	0f 92       	push	r0
 66c:	cd b7       	in	r28, 0x3d	; 61
 66e:	de b7       	in	r29, 0x3e	; 62
 670:	90 e0       	ldi	r25, 0x00	; 0
 672:	7c 01       	movw	r14, r24
 674:	ee 0c       	add	r14, r14
 676:	ff 1c       	adc	r15, r15
 678:	e8 0e       	add	r14, r24
 67a:	f9 1e       	adc	r15, r25
 67c:	28 ef       	ldi	r18, 0xF8	; 248
 67e:	30 e0       	ldi	r19, 0x00	; 0
 680:	e2 0e       	add	r14, r18
 682:	f3 1e       	adc	r15, r19
 684:	f7 01       	movw	r30, r14
 686:	20 81       	ld	r18, Z
 688:	2f 73       	andi	r18, 0x3F	; 63
 68a:	8c 01       	movw	r16, r24
 68c:	43 e0       	ldi	r20, 0x03	; 3
 68e:	00 0f       	add	r16, r16
 690:	11 1f       	adc	r17, r17
 692:	4a 95       	dec	r20
 694:	e1 f7       	brne	.-8      	; 0x68e <MangeKeys+0x30>
 696:	0b 57       	subi	r16, 0x7B	; 123
 698:	1f 4f       	sbci	r17, 0xFF	; 255
 69a:	f8 01       	movw	r30, r16
 69c:	80 81       	ld	r24, Z
 69e:	29 83       	std	Y+1, r18	; 0x01
 6a0:	d3 d1       	rcall	.+934    	; 0xa48 <HWI_DIGI_READ>
 6a2:	29 81       	ldd	r18, Y+1	; 0x01
 6a4:	21 30       	cpi	r18, 0x01	; 1
 6a6:	f9 f0       	breq	.+62     	; 0x6e6 <MangeKeys+0x88>
 6a8:	21 30       	cpi	r18, 0x01	; 1
 6aa:	20 f0       	brcs	.+8      	; 0x6b4 <MangeKeys+0x56>
 6ac:	22 30       	cpi	r18, 0x02	; 2
 6ae:	09 f0       	breq	.+2      	; 0x6b2 <MangeKeys+0x54>
 6b0:	5c c0       	rjmp	.+184    	; 0x76a <MangeKeys+0x10c>
 6b2:	46 c0       	rjmp	.+140    	; 0x740 <MangeKeys+0xe2>
 6b4:	f8 01       	movw	r30, r16
 6b6:	91 81       	ldd	r25, Z+1	; 0x01
 6b8:	f7 01       	movw	r30, r14
 6ba:	98 17       	cp	r25, r24
 6bc:	89 f4       	brne	.+34     	; 0x6e0 <MangeKeys+0x82>
 6be:	81 81       	ldd	r24, Z+1	; 0x01
 6c0:	92 81       	ldd	r25, Z+2	; 0x02
 6c2:	01 96       	adiw	r24, 0x01	; 1
 6c4:	92 83       	std	Z+2, r25	; 0x02
 6c6:	81 83       	std	Z+1, r24	; 0x01
 6c8:	f8 01       	movw	r30, r16
 6ca:	24 81       	ldd	r18, Z+4	; 0x04
 6cc:	35 81       	ldd	r19, Z+5	; 0x05
 6ce:	28 17       	cp	r18, r24
 6d0:	39 07       	cpc	r19, r25
 6d2:	09 f0       	breq	.+2      	; 0x6d6 <MangeKeys+0x78>
 6d4:	4c c0       	rjmp	.+152    	; 0x76e <MangeKeys+0x110>
 6d6:	81 e8       	ldi	r24, 0x81	; 129
 6d8:	f7 01       	movw	r30, r14
 6da:	80 83       	st	Z, r24
 6dc:	f8 01       	movw	r30, r16
 6de:	34 c0       	rjmp	.+104    	; 0x748 <MangeKeys+0xea>
 6e0:	12 82       	std	Z+2, r1	; 0x02
 6e2:	11 82       	std	Z+1, r1	; 0x01
 6e4:	44 c0       	rjmp	.+136    	; 0x76e <MangeKeys+0x110>
 6e6:	f8 01       	movw	r30, r16
 6e8:	91 81       	ldd	r25, Z+1	; 0x01
 6ea:	f7 01       	movw	r30, r14
 6ec:	21 81       	ldd	r18, Z+1	; 0x01
 6ee:	32 81       	ldd	r19, Z+2	; 0x02
 6f0:	f8 01       	movw	r30, r16
 6f2:	42 81       	ldd	r20, Z+2	; 0x02
 6f4:	53 81       	ldd	r21, Z+3	; 0x03
 6f6:	98 17       	cp	r25, r24
 6f8:	b1 f4       	brne	.+44     	; 0x726 <MangeKeys+0xc8>
 6fa:	24 17       	cp	r18, r20
 6fc:	35 07       	cpc	r19, r21
 6fe:	78 f0       	brcs	.+30     	; 0x71e <MangeKeys+0xc0>
 700:	2f 5f       	subi	r18, 0xFF	; 255
 702:	3f 4f       	sbci	r19, 0xFF	; 255
 704:	f7 01       	movw	r30, r14
 706:	32 83       	std	Z+2, r19	; 0x02
 708:	21 83       	std	Z+1, r18	; 0x01
 70a:	f8 01       	movw	r30, r16
 70c:	86 81       	ldd	r24, Z+6	; 0x06
 70e:	97 81       	ldd	r25, Z+7	; 0x07
 710:	82 17       	cp	r24, r18
 712:	93 07       	cpc	r25, r19
 714:	61 f5       	brne	.+88     	; 0x76e <MangeKeys+0x110>
 716:	82 e8       	ldi	r24, 0x82	; 130
 718:	f7 01       	movw	r30, r14
 71a:	80 83       	st	Z, r24
 71c:	01 c0       	rjmp	.+2      	; 0x720 <MangeKeys+0xc2>
 71e:	f7 01       	movw	r30, r14
 720:	52 83       	std	Z+2, r21	; 0x02
 722:	41 83       	std	Z+1, r20	; 0x01
 724:	24 c0       	rjmp	.+72     	; 0x76e <MangeKeys+0x110>
 726:	42 17       	cp	r20, r18
 728:	53 07       	cpc	r21, r19
 72a:	c8 f3       	brcs	.-14     	; 0x71e <MangeKeys+0xc0>
 72c:	21 50       	subi	r18, 0x01	; 1
 72e:	30 40       	sbci	r19, 0x00	; 0
 730:	f7 01       	movw	r30, r14
 732:	32 83       	std	Z+2, r19	; 0x02
 734:	21 83       	std	Z+1, r18	; 0x01
 736:	21 15       	cp	r18, r1
 738:	31 05       	cpc	r19, r1
 73a:	c9 f4       	brne	.+50     	; 0x76e <MangeKeys+0x110>
 73c:	80 e4       	ldi	r24, 0x40	; 64
 73e:	13 c0       	rjmp	.+38     	; 0x766 <MangeKeys+0x108>
 740:	f8 01       	movw	r30, r16
 742:	91 81       	ldd	r25, Z+1	; 0x01
 744:	98 17       	cp	r25, r24
 746:	31 f4       	brne	.+12     	; 0x754 <MangeKeys+0xf6>
 748:	82 81       	ldd	r24, Z+2	; 0x02
 74a:	93 81       	ldd	r25, Z+3	; 0x03
 74c:	f7 01       	movw	r30, r14
 74e:	92 83       	std	Z+2, r25	; 0x02
 750:	81 83       	std	Z+1, r24	; 0x01
 752:	0d c0       	rjmp	.+26     	; 0x76e <MangeKeys+0x110>
 754:	f7 01       	movw	r30, r14
 756:	81 81       	ldd	r24, Z+1	; 0x01
 758:	92 81       	ldd	r25, Z+2	; 0x02
 75a:	01 97       	sbiw	r24, 0x01	; 1
 75c:	92 83       	std	Z+2, r25	; 0x02
 75e:	81 83       	std	Z+1, r24	; 0x01
 760:	00 97       	sbiw	r24, 0x00	; 0
 762:	29 f4       	brne	.+10     	; 0x76e <MangeKeys+0x110>
 764:	80 e8       	ldi	r24, 0x80	; 128
 766:	80 83       	st	Z, r24
 768:	02 c0       	rjmp	.+4      	; 0x76e <MangeKeys+0x110>
 76a:	f7 01       	movw	r30, r14
 76c:	10 82       	st	Z, r1
 76e:	0f 90       	pop	r0
 770:	df 91       	pop	r29
 772:	cf 91       	pop	r28
 774:	1f 91       	pop	r17
 776:	0f 91       	pop	r16
 778:	ff 90       	pop	r15
 77a:	ef 90       	pop	r14
 77c:	08 95       	ret

0000077e <SpeedCalcNotifyInitialize>:
 77e:	08 95       	ret

00000780 <SensorOneNotify>:
 780:	80 91 02 01 	lds	r24, 0x0102
 784:	81 30       	cpi	r24, 0x01	; 1
 786:	19 f4       	brne	.+6      	; 0x78e <SensorOneNotify+0xe>
 788:	10 92 02 01 	sts	0x0102, r1
 78c:	08 95       	ret
 78e:	80 91 01 01 	lds	r24, 0x0101
 792:	88 23       	and	r24, r24
 794:	29 f0       	breq	.+10     	; 0x7a0 <SensorOneNotify+0x20>
 796:	80 91 01 01 	lds	r24, 0x0101
 79a:	81 50       	subi	r24, 0x01	; 1
 79c:	80 93 01 01 	sts	0x0101, r24
 7a0:	08 95       	ret

000007a2 <SensorTwoNotify>:
 7a2:	80 91 02 01 	lds	r24, 0x0102
 7a6:	88 23       	and	r24, r24
 7a8:	a9 f4       	brne	.+42     	; 0x7d4 <SensorTwoNotify+0x32>
 7aa:	81 e0       	ldi	r24, 0x01	; 1
 7ac:	80 93 02 01 	sts	0x0102, r24
 7b0:	80 91 01 01 	lds	r24, 0x0101
 7b4:	8f 5f       	subi	r24, 0xFF	; 255
 7b6:	80 93 01 01 	sts	0x0101, r24
 7ba:	81 e0       	ldi	r24, 0x01	; 1
 7bc:	9f d1       	rcall	.+830    	; 0xafc <ReloadHWtimer>
 7be:	90 93 00 01 	sts	0x0100, r25
 7c2:	80 93 ff 00 	sts	0x00FF, r24
 7c6:	80 91 fe 00 	lds	r24, 0x00FE
 7ca:	80 93 03 01 	sts	0x0103, r24
 7ce:	10 92 fe 00 	sts	0x00FE, r1
 7d2:	08 95       	ret
 7d4:	80 91 01 01 	lds	r24, 0x0101
 7d8:	88 23       	and	r24, r24
 7da:	29 f0       	breq	.+10     	; 0x7e6 <SensorTwoNotify+0x44>
 7dc:	80 91 01 01 	lds	r24, 0x0101
 7e0:	81 50       	subi	r24, 0x01	; 1
 7e2:	80 93 01 01 	sts	0x0101, r24
 7e6:	08 95       	ret

000007e8 <SpeedCalcManage>:
 7e8:	cf 93       	push	r28
 7ea:	df 93       	push	r29
 7ec:	40 91 ff 00 	lds	r20, 0x00FF
 7f0:	50 91 00 01 	lds	r21, 0x0100
 7f4:	20 91 03 01 	lds	r18, 0x0103
 7f8:	30 e0       	ldi	r19, 0x00	; 0
 7fa:	8f e8       	ldi	r24, 0x8F	; 143
 7fc:	92 e0       	ldi	r25, 0x02	; 2
 7fe:	28 9f       	mul	r18, r24
 800:	f0 01       	movw	r30, r0
 802:	29 9f       	mul	r18, r25
 804:	f0 0d       	add	r31, r0
 806:	38 9f       	mul	r19, r24
 808:	f0 0d       	add	r31, r0
 80a:	11 24       	eor	r1, r1
 80c:	ca 01       	movw	r24, r20
 80e:	64 e6       	ldi	r22, 0x64	; 100
 810:	70 e0       	ldi	r23, 0x00	; 0
 812:	5e d2       	rcall	.+1212   	; 0xcd0 <__udivmodhi4>
 814:	e6 0f       	add	r30, r22
 816:	f7 1f       	adc	r31, r23
 818:	f0 93 05 01 	sts	0x0105, r31
 81c:	e0 93 04 01 	sts	0x0104, r30
 820:	80 91 01 01 	lds	r24, 0x0101
 824:	c0 91 06 01 	lds	r28, 0x0106
 828:	d0 91 07 01 	lds	r29, 0x0107
 82c:	c8 0f       	add	r28, r24
 82e:	d1 1d       	adc	r29, r1
 830:	d0 93 07 01 	sts	0x0107, r29
 834:	c0 93 06 01 	sts	0x0106, r28
 838:	10 92 01 01 	sts	0x0101, r1
 83c:	20 91 95 00 	lds	r18, 0x0095
 840:	30 91 96 00 	lds	r19, 0x0096
 844:	40 e0       	ldi	r20, 0x00	; 0
 846:	50 e0       	ldi	r21, 0x00	; 0
 848:	60 ea       	ldi	r22, 0xA0	; 160
 84a:	76 e8       	ldi	r23, 0x86	; 134
 84c:	81 e0       	ldi	r24, 0x01	; 1
 84e:	90 e0       	ldi	r25, 0x00	; 0
 850:	53 d2       	rcall	.+1190   	; 0xcf8 <__udivmodsi4>
 852:	c2 17       	cp	r28, r18
 854:	d3 07       	cpc	r29, r19
 856:	c8 f0       	brcs	.+50     	; 0x88a <SpeedCalcManage+0xa2>
 858:	80 91 08 01 	lds	r24, 0x0108
 85c:	90 91 09 01 	lds	r25, 0x0109
 860:	a0 91 0a 01 	lds	r26, 0x010A
 864:	b0 91 0b 01 	lds	r27, 0x010B
 868:	01 96       	adiw	r24, 0x01	; 1
 86a:	a1 1d       	adc	r26, r1
 86c:	b1 1d       	adc	r27, r1
 86e:	80 93 08 01 	sts	0x0108, r24
 872:	90 93 09 01 	sts	0x0109, r25
 876:	a0 93 0a 01 	sts	0x010A, r26
 87a:	b0 93 0b 01 	sts	0x010B, r27
 87e:	c2 1b       	sub	r28, r18
 880:	d3 0b       	sbc	r29, r19
 882:	d0 93 07 01 	sts	0x0107, r29
 886:	c0 93 06 01 	sts	0x0106, r28
 88a:	df 91       	pop	r29
 88c:	cf 91       	pop	r28
 88e:	08 95       	ret

00000890 <SetDistance>:
 890:	dc 01       	movw	r26, r24
 892:	cb 01       	movw	r24, r22
 894:	80 93 08 01 	sts	0x0108, r24
 898:	90 93 09 01 	sts	0x0109, r25
 89c:	a0 93 0a 01 	sts	0x010A, r26
 8a0:	b0 93 0b 01 	sts	0x010B, r27
 8a4:	08 95       	ret

000008a6 <GetDistance>:
 8a6:	60 91 08 01 	lds	r22, 0x0108
 8aa:	70 91 09 01 	lds	r23, 0x0109
 8ae:	80 91 0a 01 	lds	r24, 0x010A
 8b2:	90 91 0b 01 	lds	r25, 0x010B
 8b6:	08 95       	ret

000008b8 <SetCircumfirunce>:
 8b8:	90 93 96 00 	sts	0x0096, r25
 8bc:	80 93 95 00 	sts	0x0095, r24
 8c0:	08 95       	ret

000008c2 <GetAvgSpeed>:
 8c2:	cf 93       	push	r28
 8c4:	df 93       	push	r29
 8c6:	81 30       	cpi	r24, 0x01	; 1
 8c8:	29 f4       	brne	.+10     	; 0x8d4 <GetAvgSpeed+0x12>
 8ca:	68 e6       	ldi	r22, 0x68	; 104
 8cc:	71 e0       	ldi	r23, 0x01	; 1
 8ce:	80 e0       	ldi	r24, 0x00	; 0
 8d0:	90 e0       	ldi	r25, 0x00	; 0
 8d2:	04 c0       	rjmp	.+8      	; 0x8dc <GetAvgSpeed+0x1a>
 8d4:	61 ee       	ldi	r22, 0xE1	; 225
 8d6:	70 e0       	ldi	r23, 0x00	; 0
 8d8:	80 e0       	ldi	r24, 0x00	; 0
 8da:	90 e0       	ldi	r25, 0x00	; 0
 8dc:	c0 91 04 01 	lds	r28, 0x0104
 8e0:	d0 91 05 01 	lds	r29, 0x0105
 8e4:	20 97       	sbiw	r28, 0x00	; 0
 8e6:	69 f0       	breq	.+26     	; 0x902 <GetAvgSpeed+0x40>
 8e8:	20 91 95 00 	lds	r18, 0x0095
 8ec:	30 91 96 00 	lds	r19, 0x0096
 8f0:	40 e0       	ldi	r20, 0x00	; 0
 8f2:	50 e0       	ldi	r21, 0x00	; 0
 8f4:	ce d1       	rcall	.+924    	; 0xc92 <__mulsi3>
 8f6:	9e 01       	movw	r18, r28
 8f8:	40 e0       	ldi	r20, 0x00	; 0
 8fa:	50 e0       	ldi	r21, 0x00	; 0
 8fc:	fd d1       	rcall	.+1018   	; 0xcf8 <__udivmodsi4>
 8fe:	c9 01       	movw	r24, r18
 900:	02 c0       	rjmp	.+4      	; 0x906 <GetAvgSpeed+0x44>
 902:	80 e0       	ldi	r24, 0x00	; 0
 904:	90 e0       	ldi	r25, 0x00	; 0
 906:	20 91 fe 00 	lds	r18, 0x00FE
 90a:	20 34       	cpi	r18, 0x40	; 64
 90c:	11 f4       	brne	.+4      	; 0x912 <GetAvgSpeed+0x50>
 90e:	80 e0       	ldi	r24, 0x00	; 0
 910:	90 e0       	ldi	r25, 0x00	; 0
 912:	df 91       	pop	r29
 914:	cf 91       	pop	r28
 916:	08 95       	ret

00000918 <HWtimerCallback>:
 918:	80 91 fe 00 	lds	r24, 0x00FE
 91c:	80 34       	cpi	r24, 0x40	; 64
 91e:	28 f4       	brcc	.+10     	; 0x92a <HWtimerCallback+0x12>
 920:	80 91 fe 00 	lds	r24, 0x00FE
 924:	8f 5f       	subi	r24, 0xFF	; 255
 926:	80 93 fe 00 	sts	0x00FE, r24
 92a:	08 95       	ret

0000092c <APP_ISR1>:
 92c:	29 df       	rcall	.-430    	; 0x780 <SensorOneNotify>
 92e:	08 95       	ret

00000930 <APP_ISR2>:
 930:	38 df       	rcall	.-400    	; 0x7a2 <SensorTwoNotify>
 932:	08 95       	ret

00000934 <APP_ISR3>:
 934:	f1 df       	rcall	.-30     	; 0x918 <HWtimerCallback>
 936:	08 95       	ret

00000938 <ManageDrivers>:
 938:	80 e0       	ldi	r24, 0x00	; 0
 93a:	91 de       	rcall	.-734    	; 0x65e <MangeKeys>
 93c:	81 e0       	ldi	r24, 0x01	; 1
 93e:	8f de       	rcall	.-738    	; 0x65e <MangeKeys>
 940:	52 de       	rcall	.-860    	; 0x5e6 <EepromManage>
 942:	08 95       	ret

00000944 <ManageSpeedCalc>:
 944:	51 df       	rcall	.-350    	; 0x7e8 <SpeedCalcManage>
 946:	08 95       	ret

00000948 <ManageApplication>:
 948:	cf db       	rcall	.-2146   	; 0xe8 <APP_MANAGE>
 94a:	08 95       	ret

0000094c <DisplayAlphaNumeric>:
 94c:	47 dd       	rcall	.-1394   	; 0x3dc <BCDManage7segment>
 94e:	08 95       	ret

00000950 <Start_App>:
 950:	8a d1       	rcall	.+788    	; 0xc66 <HWI_InitOscilatorCalib>
 952:	b1 d0       	rcall	.+354    	; 0xab6 <HWI_INTERRUPTS_INTITALIZE>
 954:	73 d0       	rcall	.+230    	; 0xa3c <HWI_DIGITAL_INITIALIZE>
 956:	13 df       	rcall	.-474    	; 0x77e <SpeedCalcNotifyInitialize>
 958:	82 db       	rcall	.-2300   	; 0x5e <APP_INITIALIZE>
 95a:	81 e0       	ldi	r24, 0x01	; 1
 95c:	a0 dc       	rcall	.-1728   	; 0x29e <BCDInitialize>
 95e:	82 ea       	ldi	r24, 0xA2	; 162
 960:	94 e0       	ldi	r25, 0x04	; 4
 962:	60 e0       	ldi	r22, 0x00	; 0
 964:	44 e1       	ldi	r20, 0x14	; 20
 966:	11 d0       	rcall	.+34     	; 0x98a <CreateTask>
 968:	84 ea       	ldi	r24, 0xA4	; 164
 96a:	94 e0       	ldi	r25, 0x04	; 4
 96c:	62 e0       	ldi	r22, 0x02	; 2
 96e:	42 e3       	ldi	r20, 0x32	; 50
 970:	0c d0       	rcall	.+24     	; 0x98a <CreateTask>
 972:	86 ea       	ldi	r24, 0xA6	; 166
 974:	94 e0       	ldi	r25, 0x04	; 4
 976:	61 e0       	ldi	r22, 0x01	; 1
 978:	42 e0       	ldi	r20, 0x02	; 2
 97a:	07 d0       	rcall	.+14     	; 0x98a <CreateTask>
 97c:	8c e9       	ldi	r24, 0x9C	; 156
 97e:	94 e0       	ldi	r25, 0x04	; 4
 980:	63 e0       	ldi	r22, 0x03	; 3
 982:	4a e0       	ldi	r20, 0x0A	; 10
 984:	02 d0       	rcall	.+4      	; 0x98a <CreateTask>
 986:	1b d0       	rcall	.+54     	; 0x9be <RunScheduler>
 988:	08 95       	ret

0000098a <CreateTask>:
 98a:	64 30       	cpi	r22, 0x04	; 4
 98c:	60 f4       	brcc	.+24     	; 0x9a6 <CreateTask+0x1c>
 98e:	e6 2f       	mov	r30, r22
 990:	f0 e0       	ldi	r31, 0x00	; 0
 992:	ee 0f       	add	r30, r30
 994:	ff 1f       	adc	r31, r31
 996:	ee 0f       	add	r30, r30
 998:	ff 1f       	adc	r31, r31
 99a:	e4 5f       	subi	r30, 0xF4	; 244
 99c:	fe 4f       	sbci	r31, 0xFE	; 254
 99e:	91 83       	std	Z+1, r25	; 0x01
 9a0:	80 83       	st	Z, r24
 9a2:	42 83       	std	Z+2, r20	; 0x02
 9a4:	13 82       	std	Z+3, r1	; 0x03
 9a6:	08 95       	ret

000009a8 <SchedulerTick>:
 9a8:	ef e0       	ldi	r30, 0x0F	; 15
 9aa:	f1 e0       	ldi	r31, 0x01	; 1
 9ac:	84 e0       	ldi	r24, 0x04	; 4
 9ae:	90 81       	ld	r25, Z
 9b0:	9f 5f       	subi	r25, 0xFF	; 255
 9b2:	90 83       	st	Z, r25
 9b4:	81 50       	subi	r24, 0x01	; 1
 9b6:	34 96       	adiw	r30, 0x04	; 4
 9b8:	88 23       	and	r24, r24
 9ba:	c9 f7       	brne	.-14     	; 0x9ae <SchedulerTick+0x6>
 9bc:	08 95       	ret

000009be <RunScheduler>:
 9be:	10 92 1c 01 	sts	0x011C, r1
 9c2:	1e c0       	rjmp	.+60     	; 0xa00 <RunScheduler+0x42>
 9c4:	f0 e0       	ldi	r31, 0x00	; 0
 9c6:	ee 0f       	add	r30, r30
 9c8:	ff 1f       	adc	r31, r31
 9ca:	ee 0f       	add	r30, r30
 9cc:	ff 1f       	adc	r31, r31
 9ce:	e4 5f       	subi	r30, 0xF4	; 244
 9d0:	fe 4f       	sbci	r31, 0xFE	; 254
 9d2:	92 81       	ldd	r25, Z+2	; 0x02
 9d4:	83 81       	ldd	r24, Z+3	; 0x03
 9d6:	89 17       	cp	r24, r25
 9d8:	70 f0       	brcs	.+28     	; 0x9f6 <RunScheduler+0x38>
 9da:	01 90       	ld	r0, Z+
 9dc:	f0 81       	ld	r31, Z
 9de:	e0 2d       	mov	r30, r0
 9e0:	09 95       	icall
 9e2:	e0 91 1c 01 	lds	r30, 0x011C
 9e6:	f0 e0       	ldi	r31, 0x00	; 0
 9e8:	ee 0f       	add	r30, r30
 9ea:	ff 1f       	adc	r31, r31
 9ec:	ee 0f       	add	r30, r30
 9ee:	ff 1f       	adc	r31, r31
 9f0:	e4 5f       	subi	r30, 0xF4	; 244
 9f2:	fe 4f       	sbci	r31, 0xFE	; 254
 9f4:	13 82       	std	Z+3, r1	; 0x03
 9f6:	80 91 1c 01 	lds	r24, 0x011C
 9fa:	8f 5f       	subi	r24, 0xFF	; 255
 9fc:	80 93 1c 01 	sts	0x011C, r24
 a00:	e0 91 1c 01 	lds	r30, 0x011C
 a04:	e4 30       	cpi	r30, 0x04	; 4
 a06:	d8 f6       	brcc	.-74     	; 0x9be <RunScheduler>
 a08:	dd cf       	rjmp	.-70     	; 0x9c4 <RunScheduler+0x6>

00000a0a <HWIeeprom_Write>:
 a0a:	e1 99       	sbic	0x1c, 1	; 28
 a0c:	08 c0       	rjmp	.+16     	; 0xa1e <HWIeeprom_Write+0x14>
 a0e:	90 e0       	ldi	r25, 0x00	; 0
 a10:	9f bb       	out	0x1f, r25	; 31
 a12:	8e bb       	out	0x1e, r24	; 30
 a14:	6d bb       	out	0x1d, r22	; 29
 a16:	e2 9a       	sbi	0x1c, 2	; 28
 a18:	e1 9a       	sbi	0x1c, 1	; 28
 a1a:	81 e0       	ldi	r24, 0x01	; 1
 a1c:	08 95       	ret
 a1e:	80 e0       	ldi	r24, 0x00	; 0
 a20:	08 95       	ret

00000a22 <HWIeeprom_Read>:
 a22:	e1 99       	sbic	0x1c, 1	; 28
 a24:	09 c0       	rjmp	.+18     	; 0xa38 <HWIeeprom_Read+0x16>
 a26:	90 e0       	ldi	r25, 0x00	; 0
 a28:	9f bb       	out	0x1f, r25	; 31
 a2a:	8e bb       	out	0x1e, r24	; 30
 a2c:	e0 9a       	sbi	0x1c, 0	; 28
 a2e:	8d b3       	in	r24, 0x1d	; 29
 a30:	fb 01       	movw	r30, r22
 a32:	80 83       	st	Z, r24
 a34:	81 e0       	ldi	r24, 0x01	; 1
 a36:	08 95       	ret
 a38:	80 e0       	ldi	r24, 0x00	; 0
 a3a:	08 95       	ret

00000a3c <HWI_DIGITAL_INITIALIZE>:
 a3c:	8f ef       	ldi	r24, 0xFF	; 255
 a3e:	87 bb       	out	0x17, r24	; 23
 a40:	84 bb       	out	0x14, r24	; 20
 a42:	11 ba       	out	0x11, r1	; 17
 a44:	82 bb       	out	0x12, r24	; 18
 a46:	08 95       	ret

00000a48 <HWI_DIGI_READ>:
 a48:	80 31       	cpi	r24, 0x10	; 16
 a4a:	39 f0       	breq	.+14     	; 0xa5a <HWI_DIGI_READ+0x12>
 a4c:	81 31       	cpi	r24, 0x11	; 17
 a4e:	41 f0       	breq	.+16     	; 0xa60 <HWI_DIGI_READ+0x18>
 a50:	8f 30       	cpi	r24, 0x0F	; 15
 a52:	49 f4       	brne	.+18     	; 0xa66 <HWI_DIGI_READ+0x1e>
 a54:	80 b3       	in	r24, 0x10	; 16
 a56:	80 71       	andi	r24, 0x10	; 16
 a58:	08 95       	ret
 a5a:	80 b3       	in	r24, 0x10	; 16
 a5c:	80 72       	andi	r24, 0x20	; 32
 a5e:	08 95       	ret
 a60:	80 b3       	in	r24, 0x10	; 16
 a62:	80 74       	andi	r24, 0x40	; 64
 a64:	08 95       	ret
 a66:	80 e0       	ldi	r24, 0x00	; 0
 a68:	08 95       	ret

00000a6a <HWI_DIGI_WRITE>:
 a6a:	08 95       	ret

00000a6c <HWI_4Digit_WRITE>:
 a6c:	88 23       	and	r24, r24
 a6e:	29 f4       	brne	.+10     	; 0xa7a <HWI_4Digit_WRITE+0xe>
 a70:	85 b3       	in	r24, 0x15	; 21
 a72:	80 7f       	andi	r24, 0xF0	; 240
 a74:	86 2b       	or	r24, r22
 a76:	85 bb       	out	0x15, r24	; 21
 a78:	08 95       	ret
 a7a:	88 b3       	in	r24, 0x18	; 24
 a7c:	80 7f       	andi	r24, 0xF0	; 240
 a7e:	86 2b       	or	r24, r22
 a80:	88 bb       	out	0x18, r24	; 24
 a82:	08 95       	ret

00000a84 <HWI_4Digit_READ>:
 a84:	88 23       	and	r24, r24
 a86:	19 f0       	breq	.+6      	; 0xa8e <HWI_4Digit_READ+0xa>
 a88:	81 30       	cpi	r24, 0x01	; 1
 a8a:	31 f4       	brne	.+12     	; 0xa98 <HWI_4Digit_READ+0x14>
 a8c:	02 c0       	rjmp	.+4      	; 0xa92 <HWI_4Digit_READ+0xe>
 a8e:	83 b3       	in	r24, 0x13	; 19
 a90:	01 c0       	rjmp	.+2      	; 0xa94 <HWI_4Digit_READ+0x10>
 a92:	86 b3       	in	r24, 0x16	; 22
 a94:	8f 70       	andi	r24, 0x0F	; 15
 a96:	08 95       	ret
 a98:	86 b3       	in	r24, 0x16	; 22
 a9a:	8f 70       	andi	r24, 0x0F	; 15
 a9c:	08 95       	ret

00000a9e <HWI_8Digit_WRITE>:
 a9e:	88 23       	and	r24, r24
 aa0:	11 f4       	brne	.+4      	; 0xaa6 <HWI_8Digit_WRITE+0x8>
 aa2:	65 bb       	out	0x15, r22	; 21
 aa4:	08 95       	ret
 aa6:	68 bb       	out	0x18, r22	; 24
 aa8:	08 95       	ret

00000aaa <HWI8Digit_READ>:
 aaa:	88 23       	and	r24, r24
 aac:	11 f0       	breq	.+4      	; 0xab2 <HWI8Digit_READ+0x8>
 aae:	86 b3       	in	r24, 0x16	; 22
 ab0:	08 95       	ret
 ab2:	83 b3       	in	r24, 0x13	; 19
 ab4:	08 95       	ret

00000ab6 <HWI_INTERRUPTS_INTITALIZE>:
 ab6:	8e b5       	in	r24, 0x2e	; 46
 ab8:	82 60       	ori	r24, 0x02	; 2
 aba:	8e bd       	out	0x2e, r24	; 46
 abc:	8f ef       	ldi	r24, 0xFF	; 255
 abe:	9f e7       	ldi	r25, 0x7F	; 127
 ac0:	9d bd       	out	0x2d, r25	; 45
 ac2:	8c bd       	out	0x2c, r24	; 44
 ac4:	83 b7       	in	r24, 0x33	; 51
 ac6:	83 60       	ori	r24, 0x03	; 3
 ac8:	83 bf       	out	0x33, r24	; 51
 aca:	82 ec       	ldi	r24, 0xC2	; 194
 acc:	82 bf       	out	0x32, r24	; 50
 ace:	89 b7       	in	r24, 0x39	; 57
 ad0:	81 60       	ori	r24, 0x01	; 1
 ad2:	89 bf       	out	0x39, r24	; 57
 ad4:	89 b7       	in	r24, 0x39	; 57
 ad6:	84 60       	ori	r24, 0x04	; 4
 ad8:	89 bf       	out	0x39, r24	; 57
 ada:	8b b7       	in	r24, 0x3b	; 59
 adc:	80 64       	ori	r24, 0x40	; 64
 ade:	8b bf       	out	0x3b, r24	; 59
 ae0:	85 b7       	in	r24, 0x35	; 53
 ae2:	83 60       	ori	r24, 0x03	; 3
 ae4:	85 bf       	out	0x35, r24	; 53
 ae6:	8b b7       	in	r24, 0x3b	; 59
 ae8:	80 68       	ori	r24, 0x80	; 128
 aea:	8b bf       	out	0x3b, r24	; 59
 aec:	85 b7       	in	r24, 0x35	; 53
 aee:	8c 60       	ori	r24, 0x0C	; 12
 af0:	85 bf       	out	0x35, r24	; 53
 af2:	81 b3       	in	r24, 0x11	; 17
 af4:	8c 60       	ori	r24, 0x0C	; 12
 af6:	81 bb       	out	0x11, r24	; 17
 af8:	78 94       	sei
 afa:	08 95       	ret

00000afc <ReloadHWtimer>:
 afc:	83 30       	cpi	r24, 0x03	; 3
 afe:	58 f4       	brcc	.+22     	; 0xb16 <ReloadHWtimer+0x1a>
 b00:	8c b5       	in	r24, 0x2c	; 44
 b02:	9d b5       	in	r25, 0x2d	; 45
 b04:	8f 5f       	subi	r24, 0xFF	; 255
 b06:	9f 47       	sbci	r25, 0x7F	; 127
 b08:	88 0f       	add	r24, r24
 b0a:	99 1f       	adc	r25, r25
 b0c:	2f ef       	ldi	r18, 0xFF	; 255
 b0e:	3f e7       	ldi	r19, 0x7F	; 127
 b10:	3d bd       	out	0x2d, r19	; 45
 b12:	2c bd       	out	0x2c, r18	; 44
 b14:	08 95       	ret
 b16:	80 e0       	ldi	r24, 0x00	; 0
 b18:	90 e0       	ldi	r25, 0x00	; 0
 b1a:	08 95       	ret

00000b1c <__vector_9>:
 b1c:	1f 92       	push	r1
 b1e:	0f 92       	push	r0
 b20:	0f b6       	in	r0, 0x3f	; 63
 b22:	0f 92       	push	r0
 b24:	11 24       	eor	r1, r1
 b26:	2f 93       	push	r18
 b28:	3f 93       	push	r19
 b2a:	4f 93       	push	r20
 b2c:	5f 93       	push	r21
 b2e:	6f 93       	push	r22
 b30:	7f 93       	push	r23
 b32:	8f 93       	push	r24
 b34:	9f 93       	push	r25
 b36:	af 93       	push	r26
 b38:	bf 93       	push	r27
 b3a:	ef 93       	push	r30
 b3c:	ff 93       	push	r31
 b3e:	82 ec       	ldi	r24, 0xC2	; 194
 b40:	82 bf       	out	0x32, r24	; 50
 b42:	32 df       	rcall	.-412    	; 0x9a8 <SchedulerTick>
 b44:	ff 91       	pop	r31
 b46:	ef 91       	pop	r30
 b48:	bf 91       	pop	r27
 b4a:	af 91       	pop	r26
 b4c:	9f 91       	pop	r25
 b4e:	8f 91       	pop	r24
 b50:	7f 91       	pop	r23
 b52:	6f 91       	pop	r22
 b54:	5f 91       	pop	r21
 b56:	4f 91       	pop	r20
 b58:	3f 91       	pop	r19
 b5a:	2f 91       	pop	r18
 b5c:	0f 90       	pop	r0
 b5e:	0f be       	out	0x3f, r0	; 63
 b60:	0f 90       	pop	r0
 b62:	1f 90       	pop	r1
 b64:	18 95       	reti

00000b66 <__vector_8>:
 b66:	1f 92       	push	r1
 b68:	0f 92       	push	r0
 b6a:	0f b6       	in	r0, 0x3f	; 63
 b6c:	0f 92       	push	r0
 b6e:	11 24       	eor	r1, r1
 b70:	2f 93       	push	r18
 b72:	3f 93       	push	r19
 b74:	4f 93       	push	r20
 b76:	5f 93       	push	r21
 b78:	6f 93       	push	r22
 b7a:	7f 93       	push	r23
 b7c:	8f 93       	push	r24
 b7e:	9f 93       	push	r25
 b80:	af 93       	push	r26
 b82:	bf 93       	push	r27
 b84:	ef 93       	push	r30
 b86:	ff 93       	push	r31
 b88:	8f ef       	ldi	r24, 0xFF	; 255
 b8a:	9f e7       	ldi	r25, 0x7F	; 127
 b8c:	9d bd       	out	0x2d, r25	; 45
 b8e:	8c bd       	out	0x2c, r24	; 44
 b90:	d1 de       	rcall	.-606    	; 0x934 <APP_ISR3>
 b92:	ff 91       	pop	r31
 b94:	ef 91       	pop	r30
 b96:	bf 91       	pop	r27
 b98:	af 91       	pop	r26
 b9a:	9f 91       	pop	r25
 b9c:	8f 91       	pop	r24
 b9e:	7f 91       	pop	r23
 ba0:	6f 91       	pop	r22
 ba2:	5f 91       	pop	r21
 ba4:	4f 91       	pop	r20
 ba6:	3f 91       	pop	r19
 ba8:	2f 91       	pop	r18
 baa:	0f 90       	pop	r0
 bac:	0f be       	out	0x3f, r0	; 63
 bae:	0f 90       	pop	r0
 bb0:	1f 90       	pop	r1
 bb2:	18 95       	reti

00000bb4 <__vector_1>:
 bb4:	1f 92       	push	r1
 bb6:	0f 92       	push	r0
 bb8:	0f b6       	in	r0, 0x3f	; 63
 bba:	0f 92       	push	r0
 bbc:	11 24       	eor	r1, r1
 bbe:	2f 93       	push	r18
 bc0:	3f 93       	push	r19
 bc2:	4f 93       	push	r20
 bc4:	5f 93       	push	r21
 bc6:	6f 93       	push	r22
 bc8:	7f 93       	push	r23
 bca:	8f 93       	push	r24
 bcc:	9f 93       	push	r25
 bce:	af 93       	push	r26
 bd0:	bf 93       	push	r27
 bd2:	ef 93       	push	r30
 bd4:	ff 93       	push	r31
 bd6:	aa de       	rcall	.-684    	; 0x92c <APP_ISR1>
 bd8:	85 b7       	in	r24, 0x35	; 53
 bda:	83 60       	ori	r24, 0x03	; 3
 bdc:	85 bf       	out	0x35, r24	; 53
 bde:	ff 91       	pop	r31
 be0:	ef 91       	pop	r30
 be2:	bf 91       	pop	r27
 be4:	af 91       	pop	r26
 be6:	9f 91       	pop	r25
 be8:	8f 91       	pop	r24
 bea:	7f 91       	pop	r23
 bec:	6f 91       	pop	r22
 bee:	5f 91       	pop	r21
 bf0:	4f 91       	pop	r20
 bf2:	3f 91       	pop	r19
 bf4:	2f 91       	pop	r18
 bf6:	0f 90       	pop	r0
 bf8:	0f be       	out	0x3f, r0	; 63
 bfa:	0f 90       	pop	r0
 bfc:	1f 90       	pop	r1
 bfe:	18 95       	reti

00000c00 <__vector_2>:
 c00:	1f 92       	push	r1
 c02:	0f 92       	push	r0
 c04:	0f b6       	in	r0, 0x3f	; 63
 c06:	0f 92       	push	r0
 c08:	11 24       	eor	r1, r1
 c0a:	2f 93       	push	r18
 c0c:	3f 93       	push	r19
 c0e:	4f 93       	push	r20
 c10:	5f 93       	push	r21
 c12:	6f 93       	push	r22
 c14:	7f 93       	push	r23
 c16:	8f 93       	push	r24
 c18:	9f 93       	push	r25
 c1a:	af 93       	push	r26
 c1c:	bf 93       	push	r27
 c1e:	ef 93       	push	r30
 c20:	ff 93       	push	r31
 c22:	86 de       	rcall	.-756    	; 0x930 <APP_ISR2>
 c24:	ff 91       	pop	r31
 c26:	ef 91       	pop	r30
 c28:	bf 91       	pop	r27
 c2a:	af 91       	pop	r26
 c2c:	9f 91       	pop	r25
 c2e:	8f 91       	pop	r24
 c30:	7f 91       	pop	r23
 c32:	6f 91       	pop	r22
 c34:	5f 91       	pop	r21
 c36:	4f 91       	pop	r20
 c38:	3f 91       	pop	r19
 c3a:	2f 91       	pop	r18
 c3c:	0f 90       	pop	r0
 c3e:	0f be       	out	0x3f, r0	; 63
 c40:	0f 90       	pop	r0
 c42:	1f 90       	pop	r1
 c44:	18 95       	reti

00000c46 <SendMCUtoSleep>:
 c46:	85 b7       	in	r24, 0x35	; 53
 c48:	8c 7f       	andi	r24, 0xFC	; 252
 c4a:	85 bf       	out	0x35, r24	; 53
 c4c:	85 b7       	in	r24, 0x35	; 53
 c4e:	80 62       	ori	r24, 0x20	; 32
 c50:	85 bf       	out	0x35, r24	; 53
 c52:	f8 94       	cli
 c54:	85 b7       	in	r24, 0x35	; 53
 c56:	80 68       	ori	r24, 0x80	; 128
 c58:	85 bf       	out	0x35, r24	; 53
 c5a:	78 94       	sei
 c5c:	88 95       	sleep
 c5e:	85 b7       	in	r24, 0x35	; 53
 c60:	8f 77       	andi	r24, 0x7F	; 127
 c62:	85 bf       	out	0x35, r24	; 53
 c64:	08 95       	ret

00000c66 <HWI_InitOscilatorCalib>:
 c66:	cf 93       	push	r28
 c68:	df 93       	push	r29
 c6a:	0f 92       	push	r0
 c6c:	cd b7       	in	r28, 0x3d	; 61
 c6e:	de b7       	in	r29, 0x3e	; 62
 c70:	80 e0       	ldi	r24, 0x00	; 0
 c72:	be 01       	movw	r22, r28
 c74:	6f 5f       	subi	r22, 0xFF	; 255
 c76:	7f 4f       	sbci	r23, 0xFF	; 255
 c78:	d4 de       	rcall	.-600    	; 0xa22 <HWIeeprom_Read>
 c7a:	88 23       	and	r24, r24
 c7c:	c9 f3       	breq	.-14     	; 0xc70 <HWI_InitOscilatorCalib+0xa>
 c7e:	89 81       	ldd	r24, Y+1	; 0x01
 c80:	81 bf       	out	0x31, r24	; 49
 c82:	0f 90       	pop	r0
 c84:	df 91       	pop	r29
 c86:	cf 91       	pop	r28
 c88:	08 95       	ret

00000c8a <main>:
 c8a:	62 de       	rcall	.-828    	; 0x950 <Start_App>
 c8c:	80 e0       	ldi	r24, 0x00	; 0
 c8e:	90 e0       	ldi	r25, 0x00	; 0
 c90:	08 95       	ret

00000c92 <__mulsi3>:
 c92:	62 9f       	mul	r22, r18
 c94:	d0 01       	movw	r26, r0
 c96:	73 9f       	mul	r23, r19
 c98:	f0 01       	movw	r30, r0
 c9a:	82 9f       	mul	r24, r18
 c9c:	e0 0d       	add	r30, r0
 c9e:	f1 1d       	adc	r31, r1
 ca0:	64 9f       	mul	r22, r20
 ca2:	e0 0d       	add	r30, r0
 ca4:	f1 1d       	adc	r31, r1
 ca6:	92 9f       	mul	r25, r18
 ca8:	f0 0d       	add	r31, r0
 caa:	83 9f       	mul	r24, r19
 cac:	f0 0d       	add	r31, r0
 cae:	74 9f       	mul	r23, r20
 cb0:	f0 0d       	add	r31, r0
 cb2:	65 9f       	mul	r22, r21
 cb4:	f0 0d       	add	r31, r0
 cb6:	99 27       	eor	r25, r25
 cb8:	72 9f       	mul	r23, r18
 cba:	b0 0d       	add	r27, r0
 cbc:	e1 1d       	adc	r30, r1
 cbe:	f9 1f       	adc	r31, r25
 cc0:	63 9f       	mul	r22, r19
 cc2:	b0 0d       	add	r27, r0
 cc4:	e1 1d       	adc	r30, r1
 cc6:	f9 1f       	adc	r31, r25
 cc8:	bd 01       	movw	r22, r26
 cca:	cf 01       	movw	r24, r30
 ccc:	11 24       	eor	r1, r1
 cce:	08 95       	ret

00000cd0 <__udivmodhi4>:
 cd0:	aa 1b       	sub	r26, r26
 cd2:	bb 1b       	sub	r27, r27
 cd4:	51 e1       	ldi	r21, 0x11	; 17
 cd6:	07 c0       	rjmp	.+14     	; 0xce6 <__udivmodhi4_ep>

00000cd8 <__udivmodhi4_loop>:
 cd8:	aa 1f       	adc	r26, r26
 cda:	bb 1f       	adc	r27, r27
 cdc:	a6 17       	cp	r26, r22
 cde:	b7 07       	cpc	r27, r23
 ce0:	10 f0       	brcs	.+4      	; 0xce6 <__udivmodhi4_ep>
 ce2:	a6 1b       	sub	r26, r22
 ce4:	b7 0b       	sbc	r27, r23

00000ce6 <__udivmodhi4_ep>:
 ce6:	88 1f       	adc	r24, r24
 ce8:	99 1f       	adc	r25, r25
 cea:	5a 95       	dec	r21
 cec:	a9 f7       	brne	.-22     	; 0xcd8 <__udivmodhi4_loop>
 cee:	80 95       	com	r24
 cf0:	90 95       	com	r25
 cf2:	bc 01       	movw	r22, r24
 cf4:	cd 01       	movw	r24, r26
 cf6:	08 95       	ret

00000cf8 <__udivmodsi4>:
 cf8:	a1 e2       	ldi	r26, 0x21	; 33
 cfa:	1a 2e       	mov	r1, r26
 cfc:	aa 1b       	sub	r26, r26
 cfe:	bb 1b       	sub	r27, r27
 d00:	fd 01       	movw	r30, r26
 d02:	0d c0       	rjmp	.+26     	; 0xd1e <__udivmodsi4_ep>

00000d04 <__udivmodsi4_loop>:
 d04:	aa 1f       	adc	r26, r26
 d06:	bb 1f       	adc	r27, r27
 d08:	ee 1f       	adc	r30, r30
 d0a:	ff 1f       	adc	r31, r31
 d0c:	a2 17       	cp	r26, r18
 d0e:	b3 07       	cpc	r27, r19
 d10:	e4 07       	cpc	r30, r20
 d12:	f5 07       	cpc	r31, r21
 d14:	20 f0       	brcs	.+8      	; 0xd1e <__udivmodsi4_ep>
 d16:	a2 1b       	sub	r26, r18
 d18:	b3 0b       	sbc	r27, r19
 d1a:	e4 0b       	sbc	r30, r20
 d1c:	f5 0b       	sbc	r31, r21

00000d1e <__udivmodsi4_ep>:
 d1e:	66 1f       	adc	r22, r22
 d20:	77 1f       	adc	r23, r23
 d22:	88 1f       	adc	r24, r24
 d24:	99 1f       	adc	r25, r25
 d26:	1a 94       	dec	r1
 d28:	69 f7       	brne	.-38     	; 0xd04 <__udivmodsi4_loop>
 d2a:	60 95       	com	r22
 d2c:	70 95       	com	r23
 d2e:	80 95       	com	r24
 d30:	90 95       	com	r25
 d32:	9b 01       	movw	r18, r22
 d34:	ac 01       	movw	r20, r24
 d36:	bd 01       	movw	r22, r26
 d38:	cf 01       	movw	r24, r30
 d3a:	08 95       	ret

00000d3c <_exit>:
 d3c:	f8 94       	cli

00000d3e <__stop_program>:
 d3e:	ff cf       	rjmp	.-2      	; 0xd3e <__stop_program>
