
BicMeter.elf:     file format elf32-avr

Sections:
Idx Name          Size      VMA       LMA       File off  Algn
  0 .text         00000628  00000000  00000000  00000094  2**1
                  CONTENTS, ALLOC, LOAD, READONLY, CODE
  1 .data         0000000e  00800060  00000628  000006bc  2**0
                  CONTENTS, ALLOC, LOAD, DATA
  2 .bss          00000024  0080006e  0080006e  000006ca  2**0
                  ALLOC
  3 .stab         000006cc  00000000  00000000  000006cc  2**2
                  CONTENTS, READONLY, DEBUGGING
  4 .stabstr      00000085  00000000  00000000  00000d98  2**0
                  CONTENTS, READONLY, DEBUGGING
  5 .debug_aranges 000000c0  00000000  00000000  00000e20  2**3
                  CONTENTS, READONLY, DEBUGGING
  6 .debug_info   0000052e  00000000  00000000  00000ee0  2**0
                  CONTENTS, READONLY, DEBUGGING
  7 .debug_abbrev 00000078  00000000  00000000  0000140e  2**0
                  CONTENTS, READONLY, DEBUGGING
  8 .debug_line   0000038e  00000000  00000000  00001486  2**0
                  CONTENTS, READONLY, DEBUGGING

Disassembly of section .text:

00000000 <__vectors>:
   0:	12 c0       	rjmp	.+36     	; 0x26 <__ctors_end>
   2:	58 c2       	rjmp	.+1200   	; 0x4b4 <__vector_1>
   4:	7a c2       	rjmp	.+1268   	; 0x4fa <__vector_2>
   6:	2a c0       	rjmp	.+84     	; 0x5c <__bad_interrupt>
   8:	29 c0       	rjmp	.+82     	; 0x5c <__bad_interrupt>
   a:	28 c0       	rjmp	.+80     	; 0x5c <__bad_interrupt>
   c:	27 c0       	rjmp	.+78     	; 0x5c <__bad_interrupt>
   e:	26 c0       	rjmp	.+76     	; 0x5c <__bad_interrupt>
  10:	2a c2       	rjmp	.+1108   	; 0x466 <__vector_8>
  12:	04 c2       	rjmp	.+1032   	; 0x41c <__vector_9>
  14:	23 c0       	rjmp	.+70     	; 0x5c <__bad_interrupt>
  16:	22 c0       	rjmp	.+68     	; 0x5c <__bad_interrupt>
  18:	21 c0       	rjmp	.+66     	; 0x5c <__bad_interrupt>
  1a:	20 c0       	rjmp	.+64     	; 0x5c <__bad_interrupt>
  1c:	1f c0       	rjmp	.+62     	; 0x5c <__bad_interrupt>
  1e:	1e c0       	rjmp	.+60     	; 0x5c <__bad_interrupt>
  20:	1d c0       	rjmp	.+58     	; 0x5c <__bad_interrupt>
  22:	1c c0       	rjmp	.+56     	; 0x5c <__bad_interrupt>
  24:	1b c0       	rjmp	.+54     	; 0x5c <__bad_interrupt>

00000026 <__ctors_end>:
  26:	11 24       	eor	r1, r1
  28:	1f be       	out	0x3f, r1	; 63
  2a:	cf e5       	ldi	r28, 0x5F	; 95
  2c:	d4 e0       	ldi	r29, 0x04	; 4
  2e:	de bf       	out	0x3e, r29	; 62
  30:	cd bf       	out	0x3d, r28	; 61

00000032 <__do_copy_data>:
  32:	10 e0       	ldi	r17, 0x00	; 0
  34:	a0 e6       	ldi	r26, 0x60	; 96
  36:	b0 e0       	ldi	r27, 0x00	; 0
  38:	e8 e2       	ldi	r30, 0x28	; 40
  3a:	f6 e0       	ldi	r31, 0x06	; 6
  3c:	02 c0       	rjmp	.+4      	; 0x42 <__SREG__+0x3>
  3e:	05 90       	lpm	r0, Z+
  40:	0d 92       	st	X+, r0
  42:	ae 36       	cpi	r26, 0x6E	; 110
  44:	b1 07       	cpc	r27, r17
  46:	d9 f7       	brne	.-10     	; 0x3e <__SP_H__>

00000048 <__do_clear_bss>:
  48:	10 e0       	ldi	r17, 0x00	; 0
  4a:	ae e6       	ldi	r26, 0x6E	; 110
  4c:	b0 e0       	ldi	r27, 0x00	; 0
  4e:	01 c0       	rjmp	.+2      	; 0x52 <.do_clear_bss_start>

00000050 <.do_clear_bss_loop>:
  50:	1d 92       	st	X+, r1

00000052 <.do_clear_bss_start>:
  52:	a2 39       	cpi	r26, 0x92	; 146
  54:	b1 07       	cpc	r27, r17
  56:	e1 f7       	brne	.-8      	; 0x50 <.do_clear_bss_loop>
  58:	79 d2       	rcall	.+1266   	; 0x54c <main>
  5a:	e4 c2       	rjmp	.+1480   	; 0x624 <_exit>

0000005c <__bad_interrupt>:
  5c:	d1 cf       	rjmp	.-94     	; 0x0 <__vectors>

0000005e <APP_INITIALIZE>:
  5e:	08 95       	ret

00000060 <APP_MANAGE>:
  60:	cf 93       	push	r28
  62:	df 93       	push	r29
  64:	80 ed       	ldi	r24, 0xD0	; 208
  66:	97 e0       	ldi	r25, 0x07	; 7
  68:	05 d1       	rcall	.+522    	; 0x274 <SetCircumfirunce>
  6a:	81 e0       	ldi	r24, 0x01	; 1
  6c:	08 d1       	rcall	.+528    	; 0x27e <GetAvgSpeed>
  6e:	ec 01       	movw	r28, r24
  70:	f8 d0       	rcall	.+496    	; 0x262 <GetDistance>
  72:	ce 01       	movw	r24, r28
  74:	61 e0       	ldi	r22, 0x01	; 1
  76:	03 d0       	rcall	.+6      	; 0x7e <BCDsendNumber>
  78:	df 91       	pop	r29
  7a:	cf 91       	pop	r28
  7c:	08 95       	ret

0000007e <BCDsendNumber>:
  7e:	0f 93       	push	r16
  80:	1f 93       	push	r17
  82:	cf 93       	push	r28
  84:	df 93       	push	r29
  86:	26 2f       	mov	r18, r22
  88:	ce e6       	ldi	r28, 0x6E	; 110
  8a:	d0 e0       	ldi	r29, 0x00	; 0
  8c:	fc 01       	movw	r30, r24
  8e:	30 e0       	ldi	r19, 0x00	; 0
  90:	0a e0       	ldi	r16, 0x0A	; 10
  92:	10 e0       	ldi	r17, 0x00	; 0
  94:	30 97       	sbiw	r30, 0x00	; 0
  96:	11 f4       	brne	.+4      	; 0x9c <BCDsendNumber+0x1e>
  98:	23 17       	cp	r18, r19
  9a:	b8 f0       	brcs	.+46     	; 0xca <BCDsendNumber+0x4c>
  9c:	cf 01       	movw	r24, r30
  9e:	b8 01       	movw	r22, r16
  a0:	8b d2       	rcall	.+1302   	; 0x5b8 <__udivmodhi4>
  a2:	cb 01       	movw	r24, r22
  a4:	ab 01       	movw	r20, r22
  a6:	44 0f       	add	r20, r20
  a8:	55 1f       	adc	r21, r21
  aa:	b3 e0       	ldi	r27, 0x03	; 3
  ac:	88 0f       	add	r24, r24
  ae:	99 1f       	adc	r25, r25
  b0:	ba 95       	dec	r27
  b2:	e1 f7       	brne	.-8      	; 0xac <BCDsendNumber+0x2e>
  b4:	48 0f       	add	r20, r24
  b6:	59 1f       	adc	r21, r25
  b8:	e4 1b       	sub	r30, r20
  ba:	f5 0b       	sbc	r31, r21
  bc:	e0 5a       	subi	r30, 0xA0	; 160
  be:	ff 4f       	sbci	r31, 0xFF	; 255
  c0:	80 81       	ld	r24, Z
  c2:	88 83       	st	Y, r24
  c4:	19 82       	std	Y+1, r1	; 0x01
  c6:	fb 01       	movw	r30, r22
  c8:	02 c0       	rjmp	.+4      	; 0xce <BCDsendNumber+0x50>
  ca:	19 82       	std	Y+1, r1	; 0x01
  cc:	18 82       	st	Y, r1
  ce:	3f 5f       	subi	r19, 0xFF	; 255
  d0:	22 96       	adiw	r28, 0x02	; 2
  d2:	34 30       	cpi	r19, 0x04	; 4
  d4:	f9 f6       	brne	.-66     	; 0x94 <BCDsendNumber+0x16>
  d6:	22 23       	and	r18, r18
  d8:	59 f0       	breq	.+22     	; 0xf0 <BCDsendNumber+0x72>
  da:	e2 2f       	mov	r30, r18
  dc:	f0 e0       	ldi	r31, 0x00	; 0
  de:	ee 0f       	add	r30, r30
  e0:	ff 1f       	adc	r31, r31
  e2:	e2 59       	subi	r30, 0x92	; 146
  e4:	ff 4f       	sbci	r31, 0xFF	; 255
  e6:	80 81       	ld	r24, Z
  e8:	91 81       	ldd	r25, Z+1	; 0x01
  ea:	81 60       	ori	r24, 0x01	; 1
  ec:	91 83       	std	Z+1, r25	; 0x01
  ee:	80 83       	st	Z, r24
  f0:	df 91       	pop	r29
  f2:	cf 91       	pop	r28
  f4:	1f 91       	pop	r17
  f6:	0f 91       	pop	r16
  f8:	08 95       	ret

000000fa <BCDManage7segment>:
  fa:	68 e0       	ldi	r22, 0x08	; 8
  fc:	70 e0       	ldi	r23, 0x00	; 0
  fe:	00 90 76 00 	lds	r0, 0x0076
 102:	02 c0       	rjmp	.+4      	; 0x108 <BCDManage7segment+0xe>
 104:	75 95       	asr	r23
 106:	67 95       	ror	r22
 108:	0a 94       	dec	r0
 10a:	e2 f7       	brpl	.-8      	; 0x104 <BCDManage7segment+0xa>
 10c:	60 95       	com	r22
 10e:	80 e0       	ldi	r24, 0x00	; 0
 110:	2d d1       	rcall	.+602    	; 0x36c <HWI_4Digit_WRITE>
 112:	e0 91 76 00 	lds	r30, 0x0076
 116:	f0 e0       	ldi	r31, 0x00	; 0
 118:	ee 0f       	add	r30, r30
 11a:	ff 1f       	adc	r31, r31
 11c:	e2 59       	subi	r30, 0x92	; 146
 11e:	ff 4f       	sbci	r31, 0xFF	; 255
 120:	81 e0       	ldi	r24, 0x01	; 1
 122:	60 81       	ld	r22, Z
 124:	3c d1       	rcall	.+632    	; 0x39e <HWI_8Digit_WRITE>
 126:	80 91 76 00 	lds	r24, 0x0076
 12a:	8f 5f       	subi	r24, 0xFF	; 255
 12c:	80 93 76 00 	sts	0x0076, r24
 130:	84 30       	cpi	r24, 0x04	; 4
 132:	11 f4       	brne	.+4      	; 0x138 <BCDManage7segment+0x3e>
 134:	10 92 76 00 	sts	0x0076, r1
 138:	08 95       	ret

0000013a <SpeedCalcNotifyInitialize>:
 13a:	08 95       	ret

0000013c <SensorOneNotify>:
 13c:	80 91 7b 00 	lds	r24, 0x007B
 140:	81 30       	cpi	r24, 0x01	; 1
 142:	19 f4       	brne	.+6      	; 0x14a <SensorOneNotify+0xe>
 144:	10 92 7b 00 	sts	0x007B, r1
 148:	08 95       	ret
 14a:	80 91 7a 00 	lds	r24, 0x007A
 14e:	88 23       	and	r24, r24
 150:	29 f0       	breq	.+10     	; 0x15c <SensorOneNotify+0x20>
 152:	80 91 7a 00 	lds	r24, 0x007A
 156:	81 50       	subi	r24, 0x01	; 1
 158:	80 93 7a 00 	sts	0x007A, r24
 15c:	08 95       	ret

0000015e <SensorTwoNotify>:
 15e:	80 91 7b 00 	lds	r24, 0x007B
 162:	88 23       	and	r24, r24
 164:	a9 f4       	brne	.+42     	; 0x190 <SensorTwoNotify+0x32>
 166:	81 e0       	ldi	r24, 0x01	; 1
 168:	80 93 7b 00 	sts	0x007B, r24
 16c:	80 91 7a 00 	lds	r24, 0x007A
 170:	8f 5f       	subi	r24, 0xFF	; 255
 172:	80 93 7a 00 	sts	0x007A, r24
 176:	81 e0       	ldi	r24, 0x01	; 1
 178:	41 d1       	rcall	.+642    	; 0x3fc <ReloadHWtimer>
 17a:	90 93 79 00 	sts	0x0079, r25
 17e:	80 93 78 00 	sts	0x0078, r24
 182:	80 91 77 00 	lds	r24, 0x0077
 186:	80 93 7c 00 	sts	0x007C, r24
 18a:	10 92 77 00 	sts	0x0077, r1
 18e:	08 95       	ret
 190:	80 91 7a 00 	lds	r24, 0x007A
 194:	88 23       	and	r24, r24
 196:	29 f0       	breq	.+10     	; 0x1a2 <SensorTwoNotify+0x44>
 198:	80 91 7a 00 	lds	r24, 0x007A
 19c:	81 50       	subi	r24, 0x01	; 1
 19e:	80 93 7a 00 	sts	0x007A, r24
 1a2:	08 95       	ret

000001a4 <SpeedCalcManage>:
 1a4:	cf 93       	push	r28
 1a6:	df 93       	push	r29
 1a8:	40 91 78 00 	lds	r20, 0x0078
 1ac:	50 91 79 00 	lds	r21, 0x0079
 1b0:	20 91 7c 00 	lds	r18, 0x007C
 1b4:	30 e0       	ldi	r19, 0x00	; 0
 1b6:	8f e8       	ldi	r24, 0x8F	; 143
 1b8:	92 e0       	ldi	r25, 0x02	; 2
 1ba:	28 9f       	mul	r18, r24
 1bc:	f0 01       	movw	r30, r0
 1be:	29 9f       	mul	r18, r25
 1c0:	f0 0d       	add	r31, r0
 1c2:	38 9f       	mul	r19, r24
 1c4:	f0 0d       	add	r31, r0
 1c6:	11 24       	eor	r1, r1
 1c8:	ca 01       	movw	r24, r20
 1ca:	64 e6       	ldi	r22, 0x64	; 100
 1cc:	70 e0       	ldi	r23, 0x00	; 0
 1ce:	f4 d1       	rcall	.+1000   	; 0x5b8 <__udivmodhi4>
 1d0:	e6 0f       	add	r30, r22
 1d2:	f7 1f       	adc	r31, r23
 1d4:	f0 93 7e 00 	sts	0x007E, r31
 1d8:	e0 93 7d 00 	sts	0x007D, r30
 1dc:	80 91 7a 00 	lds	r24, 0x007A
 1e0:	c0 91 7f 00 	lds	r28, 0x007F
 1e4:	d0 91 80 00 	lds	r29, 0x0080
 1e8:	c8 0f       	add	r28, r24
 1ea:	d1 1d       	adc	r29, r1
 1ec:	d0 93 80 00 	sts	0x0080, r29
 1f0:	c0 93 7f 00 	sts	0x007F, r28
 1f4:	10 92 7a 00 	sts	0x007A, r1
 1f8:	20 91 6b 00 	lds	r18, 0x006B
 1fc:	30 91 6c 00 	lds	r19, 0x006C
 200:	40 e0       	ldi	r20, 0x00	; 0
 202:	50 e0       	ldi	r21, 0x00	; 0
 204:	60 ea       	ldi	r22, 0xA0	; 160
 206:	76 e8       	ldi	r23, 0x86	; 134
 208:	81 e0       	ldi	r24, 0x01	; 1
 20a:	90 e0       	ldi	r25, 0x00	; 0
 20c:	e9 d1       	rcall	.+978    	; 0x5e0 <__udivmodsi4>
 20e:	c2 17       	cp	r28, r18
 210:	d3 07       	cpc	r29, r19
 212:	c8 f0       	brcs	.+50     	; 0x246 <SpeedCalcManage+0xa2>
 214:	80 91 81 00 	lds	r24, 0x0081
 218:	90 91 82 00 	lds	r25, 0x0082
 21c:	a0 91 83 00 	lds	r26, 0x0083
 220:	b0 91 84 00 	lds	r27, 0x0084
 224:	01 96       	adiw	r24, 0x01	; 1
 226:	a1 1d       	adc	r26, r1
 228:	b1 1d       	adc	r27, r1
 22a:	80 93 81 00 	sts	0x0081, r24
 22e:	90 93 82 00 	sts	0x0082, r25
 232:	a0 93 83 00 	sts	0x0083, r26
 236:	b0 93 84 00 	sts	0x0084, r27
 23a:	c2 1b       	sub	r28, r18
 23c:	d3 0b       	sbc	r29, r19
 23e:	d0 93 80 00 	sts	0x0080, r29
 242:	c0 93 7f 00 	sts	0x007F, r28
 246:	df 91       	pop	r29
 248:	cf 91       	pop	r28
 24a:	08 95       	ret

0000024c <SetDistance>:
 24c:	dc 01       	movw	r26, r24
 24e:	cb 01       	movw	r24, r22
 250:	80 93 81 00 	sts	0x0081, r24
 254:	90 93 82 00 	sts	0x0082, r25
 258:	a0 93 83 00 	sts	0x0083, r26
 25c:	b0 93 84 00 	sts	0x0084, r27
 260:	08 95       	ret

00000262 <GetDistance>:
 262:	60 91 81 00 	lds	r22, 0x0081
 266:	70 91 82 00 	lds	r23, 0x0082
 26a:	80 91 83 00 	lds	r24, 0x0083
 26e:	90 91 84 00 	lds	r25, 0x0084
 272:	08 95       	ret

00000274 <SetCircumfirunce>:
 274:	90 93 6c 00 	sts	0x006C, r25
 278:	80 93 6b 00 	sts	0x006B, r24
 27c:	08 95       	ret

0000027e <GetAvgSpeed>:
 27e:	81 30       	cpi	r24, 0x01	; 1
 280:	29 f4       	brne	.+10     	; 0x28c <GetAvgSpeed+0xe>
 282:	68 e6       	ldi	r22, 0x68	; 104
 284:	71 e0       	ldi	r23, 0x01	; 1
 286:	80 e0       	ldi	r24, 0x00	; 0
 288:	90 e0       	ldi	r25, 0x00	; 0
 28a:	04 c0       	rjmp	.+8      	; 0x294 <GetAvgSpeed+0x16>
 28c:	61 ee       	ldi	r22, 0xE1	; 225
 28e:	70 e0       	ldi	r23, 0x00	; 0
 290:	80 e0       	ldi	r24, 0x00	; 0
 292:	90 e0       	ldi	r25, 0x00	; 0
 294:	20 91 6b 00 	lds	r18, 0x006B
 298:	30 91 6c 00 	lds	r19, 0x006C
 29c:	40 e0       	ldi	r20, 0x00	; 0
 29e:	50 e0       	ldi	r21, 0x00	; 0
 2a0:	6c d1       	rcall	.+728    	; 0x57a <__mulsi3>
 2a2:	20 91 7d 00 	lds	r18, 0x007D
 2a6:	30 91 7e 00 	lds	r19, 0x007E
 2aa:	40 e0       	ldi	r20, 0x00	; 0
 2ac:	50 e0       	ldi	r21, 0x00	; 0
 2ae:	98 d1       	rcall	.+816    	; 0x5e0 <__udivmodsi4>
 2b0:	c9 01       	movw	r24, r18
 2b2:	08 95       	ret

000002b4 <HWtimerCallback>:
 2b4:	80 91 77 00 	lds	r24, 0x0077
 2b8:	80 34       	cpi	r24, 0x40	; 64
 2ba:	28 f4       	brcc	.+10     	; 0x2c6 <HWtimerCallback+0x12>
 2bc:	80 91 77 00 	lds	r24, 0x0077
 2c0:	8f 5f       	subi	r24, 0xFF	; 255
 2c2:	80 93 77 00 	sts	0x0077, r24
 2c6:	08 95       	ret

000002c8 <APP_ISR1>:
 2c8:	39 df       	rcall	.-398    	; 0x13c <SensorOneNotify>
 2ca:	08 95       	ret

000002cc <APP_ISR2>:
 2cc:	48 df       	rcall	.-368    	; 0x15e <SensorTwoNotify>
 2ce:	08 95       	ret

000002d0 <APP_ISR3>:
 2d0:	f1 df       	rcall	.-30     	; 0x2b4 <HWtimerCallback>
 2d2:	08 95       	ret

000002d4 <CreateTask>:
 2d4:	63 30       	cpi	r22, 0x03	; 3
 2d6:	60 f4       	brcc	.+24     	; 0x2f0 <CreateTask+0x1c>
 2d8:	e6 2f       	mov	r30, r22
 2da:	f0 e0       	ldi	r31, 0x00	; 0
 2dc:	ee 0f       	add	r30, r30
 2de:	ff 1f       	adc	r31, r31
 2e0:	ee 0f       	add	r30, r30
 2e2:	ff 1f       	adc	r31, r31
 2e4:	eb 57       	subi	r30, 0x7B	; 123
 2e6:	ff 4f       	sbci	r31, 0xFF	; 255
 2e8:	91 83       	std	Z+1, r25	; 0x01
 2ea:	80 83       	st	Z, r24
 2ec:	42 83       	std	Z+2, r20	; 0x02
 2ee:	13 82       	std	Z+3, r1	; 0x03
 2f0:	08 95       	ret

000002f2 <SchedulerTick>:
 2f2:	80 91 88 00 	lds	r24, 0x0088
 2f6:	8f 5f       	subi	r24, 0xFF	; 255
 2f8:	80 93 88 00 	sts	0x0088, r24
 2fc:	80 91 8c 00 	lds	r24, 0x008C
 300:	8f 5f       	subi	r24, 0xFF	; 255
 302:	80 93 8c 00 	sts	0x008C, r24
 306:	80 91 90 00 	lds	r24, 0x0090
 30a:	8f 5f       	subi	r24, 0xFF	; 255
 30c:	80 93 90 00 	sts	0x0090, r24
 310:	08 95       	ret

00000312 <RunScheduler>:
 312:	10 92 91 00 	sts	0x0091, r1
 316:	1e c0       	rjmp	.+60     	; 0x354 <RunScheduler+0x42>
 318:	f0 e0       	ldi	r31, 0x00	; 0
 31a:	ee 0f       	add	r30, r30
 31c:	ff 1f       	adc	r31, r31
 31e:	ee 0f       	add	r30, r30
 320:	ff 1f       	adc	r31, r31
 322:	eb 57       	subi	r30, 0x7B	; 123
 324:	ff 4f       	sbci	r31, 0xFF	; 255
 326:	92 81       	ldd	r25, Z+2	; 0x02
 328:	83 81       	ldd	r24, Z+3	; 0x03
 32a:	89 17       	cp	r24, r25
 32c:	70 f0       	brcs	.+28     	; 0x34a <RunScheduler+0x38>
 32e:	01 90       	ld	r0, Z+
 330:	f0 81       	ld	r31, Z
 332:	e0 2d       	mov	r30, r0
 334:	09 95       	icall
 336:	e0 91 91 00 	lds	r30, 0x0091
 33a:	f0 e0       	ldi	r31, 0x00	; 0
 33c:	ee 0f       	add	r30, r30
 33e:	ff 1f       	adc	r31, r31
 340:	ee 0f       	add	r30, r30
 342:	ff 1f       	adc	r31, r31
 344:	eb 57       	subi	r30, 0x7B	; 123
 346:	ff 4f       	sbci	r31, 0xFF	; 255
 348:	13 82       	std	Z+3, r1	; 0x03
 34a:	80 91 91 00 	lds	r24, 0x0091
 34e:	8f 5f       	subi	r24, 0xFF	; 255
 350:	80 93 91 00 	sts	0x0091, r24
 354:	e0 91 91 00 	lds	r30, 0x0091
 358:	e3 30       	cpi	r30, 0x03	; 3
 35a:	d8 f6       	brcc	.-74     	; 0x312 <RunScheduler>
 35c:	dd cf       	rjmp	.-70     	; 0x318 <RunScheduler+0x6>

0000035e <HWI_DIGITAL_INITIALIZE>:
 35e:	8f ef       	ldi	r24, 0xFF	; 255
 360:	87 bb       	out	0x17, r24	; 23
 362:	84 bb       	out	0x14, r24	; 20
 364:	08 95       	ret

00000366 <HWI_DIGI_READ>:
 366:	80 e0       	ldi	r24, 0x00	; 0
 368:	08 95       	ret

0000036a <HWI_DIGI_WRITE>:
 36a:	08 95       	ret

0000036c <HWI_4Digit_WRITE>:
 36c:	88 23       	and	r24, r24
 36e:	29 f4       	brne	.+10     	; 0x37a <HWI_4Digit_WRITE+0xe>
 370:	85 b3       	in	r24, 0x15	; 21
 372:	80 7f       	andi	r24, 0xF0	; 240
 374:	86 2b       	or	r24, r22
 376:	85 bb       	out	0x15, r24	; 21
 378:	08 95       	ret
 37a:	88 b3       	in	r24, 0x18	; 24
 37c:	80 7f       	andi	r24, 0xF0	; 240
 37e:	86 2b       	or	r24, r22
 380:	88 bb       	out	0x18, r24	; 24
 382:	08 95       	ret

00000384 <HWI_4Digit_READ>:
 384:	88 23       	and	r24, r24
 386:	19 f0       	breq	.+6      	; 0x38e <HWI_4Digit_READ+0xa>
 388:	81 30       	cpi	r24, 0x01	; 1
 38a:	31 f4       	brne	.+12     	; 0x398 <HWI_4Digit_READ+0x14>
 38c:	02 c0       	rjmp	.+4      	; 0x392 <HWI_4Digit_READ+0xe>
 38e:	85 b3       	in	r24, 0x15	; 21
 390:	01 c0       	rjmp	.+2      	; 0x394 <HWI_4Digit_READ+0x10>
 392:	88 b3       	in	r24, 0x18	; 24
 394:	8f 70       	andi	r24, 0x0F	; 15
 396:	08 95       	ret
 398:	88 b3       	in	r24, 0x18	; 24
 39a:	8f 70       	andi	r24, 0x0F	; 15
 39c:	08 95       	ret

0000039e <HWI_8Digit_WRITE>:
 39e:	88 23       	and	r24, r24
 3a0:	11 f4       	brne	.+4      	; 0x3a6 <HWI_8Digit_WRITE+0x8>
 3a2:	65 bb       	out	0x15, r22	; 21
 3a4:	08 95       	ret
 3a6:	68 bb       	out	0x18, r22	; 24
 3a8:	08 95       	ret

000003aa <HWI8Digit_READ>:
 3aa:	88 23       	and	r24, r24
 3ac:	11 f0       	breq	.+4      	; 0x3b2 <HWI8Digit_READ+0x8>
 3ae:	88 b3       	in	r24, 0x18	; 24
 3b0:	08 95       	ret
 3b2:	85 b3       	in	r24, 0x15	; 21
 3b4:	08 95       	ret

000003b6 <HWI_INTERRUPTS_INTITALIZE>:
 3b6:	8e b5       	in	r24, 0x2e	; 46
 3b8:	82 60       	ori	r24, 0x02	; 2
 3ba:	8e bd       	out	0x2e, r24	; 46
 3bc:	8f ef       	ldi	r24, 0xFF	; 255
 3be:	9f e7       	ldi	r25, 0x7F	; 127
 3c0:	9d bd       	out	0x2d, r25	; 45
 3c2:	8c bd       	out	0x2c, r24	; 44
 3c4:	83 b7       	in	r24, 0x33	; 51
 3c6:	83 60       	ori	r24, 0x03	; 3
 3c8:	83 bf       	out	0x33, r24	; 51
 3ca:	82 ec       	ldi	r24, 0xC2	; 194
 3cc:	82 bf       	out	0x32, r24	; 50
 3ce:	89 b7       	in	r24, 0x39	; 57
 3d0:	81 60       	ori	r24, 0x01	; 1
 3d2:	89 bf       	out	0x39, r24	; 57
 3d4:	89 b7       	in	r24, 0x39	; 57
 3d6:	84 60       	ori	r24, 0x04	; 4
 3d8:	89 bf       	out	0x39, r24	; 57
 3da:	8b b7       	in	r24, 0x3b	; 59
 3dc:	80 64       	ori	r24, 0x40	; 64
 3de:	8b bf       	out	0x3b, r24	; 59
 3e0:	85 b7       	in	r24, 0x35	; 53
 3e2:	83 60       	ori	r24, 0x03	; 3
 3e4:	85 bf       	out	0x35, r24	; 53
 3e6:	8b b7       	in	r24, 0x3b	; 59
 3e8:	80 68       	ori	r24, 0x80	; 128
 3ea:	8b bf       	out	0x3b, r24	; 59
 3ec:	85 b7       	in	r24, 0x35	; 53
 3ee:	8c 60       	ori	r24, 0x0C	; 12
 3f0:	85 bf       	out	0x35, r24	; 53
 3f2:	81 b3       	in	r24, 0x11	; 17
 3f4:	8c 60       	ori	r24, 0x0C	; 12
 3f6:	81 bb       	out	0x11, r24	; 17
 3f8:	78 94       	sei
 3fa:	08 95       	ret

000003fc <ReloadHWtimer>:
 3fc:	83 30       	cpi	r24, 0x03	; 3
 3fe:	58 f4       	brcc	.+22     	; 0x416 <ReloadHWtimer+0x1a>
 400:	8c b5       	in	r24, 0x2c	; 44
 402:	9d b5       	in	r25, 0x2d	; 45
 404:	8f 5f       	subi	r24, 0xFF	; 255
 406:	9f 47       	sbci	r25, 0x7F	; 127
 408:	88 0f       	add	r24, r24
 40a:	99 1f       	adc	r25, r25
 40c:	2f ef       	ldi	r18, 0xFF	; 255
 40e:	3f e7       	ldi	r19, 0x7F	; 127
 410:	3d bd       	out	0x2d, r19	; 45
 412:	2c bd       	out	0x2c, r18	; 44
 414:	08 95       	ret
 416:	80 e0       	ldi	r24, 0x00	; 0
 418:	90 e0       	ldi	r25, 0x00	; 0
 41a:	08 95       	ret

0000041c <__vector_9>:
 41c:	1f 92       	push	r1
 41e:	0f 92       	push	r0
 420:	0f b6       	in	r0, 0x3f	; 63
 422:	0f 92       	push	r0
 424:	11 24       	eor	r1, r1
 426:	2f 93       	push	r18
 428:	3f 93       	push	r19
 42a:	4f 93       	push	r20
 42c:	5f 93       	push	r21
 42e:	6f 93       	push	r22
 430:	7f 93       	push	r23
 432:	8f 93       	push	r24
 434:	9f 93       	push	r25
 436:	af 93       	push	r26
 438:	bf 93       	push	r27
 43a:	ef 93       	push	r30
 43c:	ff 93       	push	r31
 43e:	82 ec       	ldi	r24, 0xC2	; 194
 440:	82 bf       	out	0x32, r24	; 50
 442:	57 df       	rcall	.-338    	; 0x2f2 <SchedulerTick>
 444:	ff 91       	pop	r31
 446:	ef 91       	pop	r30
 448:	bf 91       	pop	r27
 44a:	af 91       	pop	r26
 44c:	9f 91       	pop	r25
 44e:	8f 91       	pop	r24
 450:	7f 91       	pop	r23
 452:	6f 91       	pop	r22
 454:	5f 91       	pop	r21
 456:	4f 91       	pop	r20
 458:	3f 91       	pop	r19
 45a:	2f 91       	pop	r18
 45c:	0f 90       	pop	r0
 45e:	0f be       	out	0x3f, r0	; 63
 460:	0f 90       	pop	r0
 462:	1f 90       	pop	r1
 464:	18 95       	reti

00000466 <__vector_8>:
 466:	1f 92       	push	r1
 468:	0f 92       	push	r0
 46a:	0f b6       	in	r0, 0x3f	; 63
 46c:	0f 92       	push	r0
 46e:	11 24       	eor	r1, r1
 470:	2f 93       	push	r18
 472:	3f 93       	push	r19
 474:	4f 93       	push	r20
 476:	5f 93       	push	r21
 478:	6f 93       	push	r22
 47a:	7f 93       	push	r23
 47c:	8f 93       	push	r24
 47e:	9f 93       	push	r25
 480:	af 93       	push	r26
 482:	bf 93       	push	r27
 484:	ef 93       	push	r30
 486:	ff 93       	push	r31
 488:	8f ef       	ldi	r24, 0xFF	; 255
 48a:	9f e7       	ldi	r25, 0x7F	; 127
 48c:	9d bd       	out	0x2d, r25	; 45
 48e:	8c bd       	out	0x2c, r24	; 44
 490:	1f df       	rcall	.-450    	; 0x2d0 <APP_ISR3>
 492:	ff 91       	pop	r31
 494:	ef 91       	pop	r30
 496:	bf 91       	pop	r27
 498:	af 91       	pop	r26
 49a:	9f 91       	pop	r25
 49c:	8f 91       	pop	r24
 49e:	7f 91       	pop	r23
 4a0:	6f 91       	pop	r22
 4a2:	5f 91       	pop	r21
 4a4:	4f 91       	pop	r20
 4a6:	3f 91       	pop	r19
 4a8:	2f 91       	pop	r18
 4aa:	0f 90       	pop	r0
 4ac:	0f be       	out	0x3f, r0	; 63
 4ae:	0f 90       	pop	r0
 4b0:	1f 90       	pop	r1
 4b2:	18 95       	reti

000004b4 <__vector_1>:
 4b4:	1f 92       	push	r1
 4b6:	0f 92       	push	r0
 4b8:	0f b6       	in	r0, 0x3f	; 63
 4ba:	0f 92       	push	r0
 4bc:	11 24       	eor	r1, r1
 4be:	2f 93       	push	r18
 4c0:	3f 93       	push	r19
 4c2:	4f 93       	push	r20
 4c4:	5f 93       	push	r21
 4c6:	6f 93       	push	r22
 4c8:	7f 93       	push	r23
 4ca:	8f 93       	push	r24
 4cc:	9f 93       	push	r25
 4ce:	af 93       	push	r26
 4d0:	bf 93       	push	r27
 4d2:	ef 93       	push	r30
 4d4:	ff 93       	push	r31
 4d6:	f8 de       	rcall	.-528    	; 0x2c8 <APP_ISR1>
 4d8:	ff 91       	pop	r31
 4da:	ef 91       	pop	r30
 4dc:	bf 91       	pop	r27
 4de:	af 91       	pop	r26
 4e0:	9f 91       	pop	r25
 4e2:	8f 91       	pop	r24
 4e4:	7f 91       	pop	r23
 4e6:	6f 91       	pop	r22
 4e8:	5f 91       	pop	r21
 4ea:	4f 91       	pop	r20
 4ec:	3f 91       	pop	r19
 4ee:	2f 91       	pop	r18
 4f0:	0f 90       	pop	r0
 4f2:	0f be       	out	0x3f, r0	; 63
 4f4:	0f 90       	pop	r0
 4f6:	1f 90       	pop	r1
 4f8:	18 95       	reti

000004fa <__vector_2>:
 4fa:	1f 92       	push	r1
 4fc:	0f 92       	push	r0
 4fe:	0f b6       	in	r0, 0x3f	; 63
 500:	0f 92       	push	r0
 502:	11 24       	eor	r1, r1
 504:	2f 93       	push	r18
 506:	3f 93       	push	r19
 508:	4f 93       	push	r20
 50a:	5f 93       	push	r21
 50c:	6f 93       	push	r22
 50e:	7f 93       	push	r23
 510:	8f 93       	push	r24
 512:	9f 93       	push	r25
 514:	af 93       	push	r26
 516:	bf 93       	push	r27
 518:	ef 93       	push	r30
 51a:	ff 93       	push	r31
 51c:	d7 de       	rcall	.-594    	; 0x2cc <APP_ISR2>
 51e:	ff 91       	pop	r31
 520:	ef 91       	pop	r30
 522:	bf 91       	pop	r27
 524:	af 91       	pop	r26
 526:	9f 91       	pop	r25
 528:	8f 91       	pop	r24
 52a:	7f 91       	pop	r23
 52c:	6f 91       	pop	r22
 52e:	5f 91       	pop	r21
 530:	4f 91       	pop	r20
 532:	3f 91       	pop	r19
 534:	2f 91       	pop	r18
 536:	0f 90       	pop	r0
 538:	0f be       	out	0x3f, r0	; 63
 53a:	0f 90       	pop	r0
 53c:	1f 90       	pop	r1
 53e:	18 95       	reti

00000540 <ManageSpeedCalc>:
 540:	31 de       	rcall	.-926    	; 0x1a4 <SpeedCalcManage>
 542:	08 95       	ret

00000544 <ManageApplication>:
 544:	8d dd       	rcall	.-1254   	; 0x60 <APP_MANAGE>
 546:	08 95       	ret

00000548 <DisplayAlphaNumeric>:
 548:	d8 dd       	rcall	.-1104   	; 0xfa <BCDManage7segment>
 54a:	08 95       	ret

0000054c <main>:
 54c:	34 df       	rcall	.-408    	; 0x3b6 <HWI_INTERRUPTS_INTITALIZE>
 54e:	07 df       	rcall	.-498    	; 0x35e <HWI_DIGITAL_INITIALIZE>
 550:	f4 dd       	rcall	.-1048   	; 0x13a <SpeedCalcNotifyInitialize>
 552:	85 dd       	rcall	.-1270   	; 0x5e <APP_INITIALIZE>
 554:	80 ea       	ldi	r24, 0xA0	; 160
 556:	92 e0       	ldi	r25, 0x02	; 2
 558:	60 e0       	ldi	r22, 0x00	; 0
 55a:	44 e1       	ldi	r20, 0x14	; 20
 55c:	bb de       	rcall	.-650    	; 0x2d4 <CreateTask>
 55e:	82 ea       	ldi	r24, 0xA2	; 162
 560:	92 e0       	ldi	r25, 0x02	; 2
 562:	62 e0       	ldi	r22, 0x02	; 2
 564:	44 e6       	ldi	r20, 0x64	; 100
 566:	b6 de       	rcall	.-660    	; 0x2d4 <CreateTask>
 568:	84 ea       	ldi	r24, 0xA4	; 164
 56a:	92 e0       	ldi	r25, 0x02	; 2
 56c:	61 e0       	ldi	r22, 0x01	; 1
 56e:	42 e3       	ldi	r20, 0x32	; 50
 570:	b1 de       	rcall	.-670    	; 0x2d4 <CreateTask>
 572:	cf de       	rcall	.-610    	; 0x312 <RunScheduler>
 574:	80 e0       	ldi	r24, 0x00	; 0
 576:	90 e0       	ldi	r25, 0x00	; 0
 578:	08 95       	ret

0000057a <__mulsi3>:
 57a:	62 9f       	mul	r22, r18
 57c:	d0 01       	movw	r26, r0
 57e:	73 9f       	mul	r23, r19
 580:	f0 01       	movw	r30, r0
 582:	82 9f       	mul	r24, r18
 584:	e0 0d       	add	r30, r0
 586:	f1 1d       	adc	r31, r1
 588:	64 9f       	mul	r22, r20
 58a:	e0 0d       	add	r30, r0
 58c:	f1 1d       	adc	r31, r1
 58e:	92 9f       	mul	r25, r18
 590:	f0 0d       	add	r31, r0
 592:	83 9f       	mul	r24, r19
 594:	f0 0d       	add	r31, r0
 596:	74 9f       	mul	r23, r20
 598:	f0 0d       	add	r31, r0
 59a:	65 9f       	mul	r22, r21
 59c:	f0 0d       	add	r31, r0
 59e:	99 27       	eor	r25, r25
 5a0:	72 9f       	mul	r23, r18
 5a2:	b0 0d       	add	r27, r0
 5a4:	e1 1d       	adc	r30, r1
 5a6:	f9 1f       	adc	r31, r25
 5a8:	63 9f       	mul	r22, r19
 5aa:	b0 0d       	add	r27, r0
 5ac:	e1 1d       	adc	r30, r1
 5ae:	f9 1f       	adc	r31, r25
 5b0:	bd 01       	movw	r22, r26
 5b2:	cf 01       	movw	r24, r30
 5b4:	11 24       	eor	r1, r1
 5b6:	08 95       	ret

000005b8 <__udivmodhi4>:
 5b8:	aa 1b       	sub	r26, r26
 5ba:	bb 1b       	sub	r27, r27
 5bc:	51 e1       	ldi	r21, 0x11	; 17
 5be:	07 c0       	rjmp	.+14     	; 0x5ce <__udivmodhi4_ep>

000005c0 <__udivmodhi4_loop>:
 5c0:	aa 1f       	adc	r26, r26
 5c2:	bb 1f       	adc	r27, r27
 5c4:	a6 17       	cp	r26, r22
 5c6:	b7 07       	cpc	r27, r23
 5c8:	10 f0       	brcs	.+4      	; 0x5ce <__udivmodhi4_ep>
 5ca:	a6 1b       	sub	r26, r22
 5cc:	b7 0b       	sbc	r27, r23

000005ce <__udivmodhi4_ep>:
 5ce:	88 1f       	adc	r24, r24
 5d0:	99 1f       	adc	r25, r25
 5d2:	5a 95       	dec	r21
 5d4:	a9 f7       	brne	.-22     	; 0x5c0 <__udivmodhi4_loop>
 5d6:	80 95       	com	r24
 5d8:	90 95       	com	r25
 5da:	bc 01       	movw	r22, r24
 5dc:	cd 01       	movw	r24, r26
 5de:	08 95       	ret

000005e0 <__udivmodsi4>:
 5e0:	a1 e2       	ldi	r26, 0x21	; 33
 5e2:	1a 2e       	mov	r1, r26
 5e4:	aa 1b       	sub	r26, r26
 5e6:	bb 1b       	sub	r27, r27
 5e8:	fd 01       	movw	r30, r26
 5ea:	0d c0       	rjmp	.+26     	; 0x606 <__udivmodsi4_ep>

000005ec <__udivmodsi4_loop>:
 5ec:	aa 1f       	adc	r26, r26
 5ee:	bb 1f       	adc	r27, r27
 5f0:	ee 1f       	adc	r30, r30
 5f2:	ff 1f       	adc	r31, r31
 5f4:	a2 17       	cp	r26, r18
 5f6:	b3 07       	cpc	r27, r19
 5f8:	e4 07       	cpc	r30, r20
 5fa:	f5 07       	cpc	r31, r21
 5fc:	20 f0       	brcs	.+8      	; 0x606 <__udivmodsi4_ep>
 5fe:	a2 1b       	sub	r26, r18
 600:	b3 0b       	sbc	r27, r19
 602:	e4 0b       	sbc	r30, r20
 604:	f5 0b       	sbc	r31, r21

00000606 <__udivmodsi4_ep>:
 606:	66 1f       	adc	r22, r22
 608:	77 1f       	adc	r23, r23
 60a:	88 1f       	adc	r24, r24
 60c:	99 1f       	adc	r25, r25
 60e:	1a 94       	dec	r1
 610:	69 f7       	brne	.-38     	; 0x5ec <__udivmodsi4_loop>
 612:	60 95       	com	r22
 614:	70 95       	com	r23
 616:	80 95       	com	r24
 618:	90 95       	com	r25
 61a:	9b 01       	movw	r18, r22
 61c:	ac 01       	movw	r20, r24
 61e:	bd 01       	movw	r22, r26
 620:	cf 01       	movw	r24, r30
 622:	08 95       	ret

00000624 <_exit>:
 624:	f8 94       	cli

00000626 <__stop_program>:
 626:	ff cf       	rjmp	.-2      	; 0x626 <__stop_program>
