
BicMeter.elf:     file format elf32-avr

Sections:
Idx Name          Size      VMA       LMA       File off  Algn
  0 .text         00000ffe  00000000  00000000  00000094  2**1
                  CONTENTS, ALLOC, LOAD, READONLY, CODE
  1 .data         00000038  00800060  00000ffe  00001092  2**0
                  CONTENTS, ALLOC, LOAD, DATA
  2 .bss          00000089  00800098  00800098  000010ca  2**0
                  ALLOC
  3 .stab         000006cc  00000000  00000000  000010cc  2**2
                  CONTENTS, READONLY, DEBUGGING
  4 .stabstr      00000085  00000000  00000000  00001798  2**0
                  CONTENTS, READONLY, DEBUGGING
  5 .debug_aranges 000000c0  00000000  00000000  00001820  2**3
                  CONTENTS, READONLY, DEBUGGING
  6 .debug_info   0000052e  00000000  00000000  000018e0  2**0
                  CONTENTS, READONLY, DEBUGGING
  7 .debug_abbrev 00000078  00000000  00000000  00001e0e  2**0
                  CONTENTS, READONLY, DEBUGGING
  8 .debug_line   0000038e  00000000  00000000  00001e86  2**0
                  CONTENTS, READONLY, DEBUGGING

Disassembly of section .text:

00000000 <__vectors>:
   0:	12 c0       	rjmp	.+36     	; 0x26 <__ctors_end>
   2:	37 c7       	rjmp	.+3694   	; 0xe72 <__vector_1>
   4:	5c c7       	rjmp	.+3768   	; 0xebe <__vector_2>
   6:	2a c0       	rjmp	.+84     	; 0x5c <__bad_interrupt>
   8:	29 c0       	rjmp	.+82     	; 0x5c <__bad_interrupt>
   a:	28 c0       	rjmp	.+80     	; 0x5c <__bad_interrupt>
   c:	27 c0       	rjmp	.+78     	; 0x5c <__bad_interrupt>
   e:	26 c0       	rjmp	.+76     	; 0x5c <__bad_interrupt>
  10:	09 c7       	rjmp	.+3602   	; 0xe24 <__vector_8>
  12:	e3 c6       	rjmp	.+3526   	; 0xdda <__vector_9>
  14:	23 c0       	rjmp	.+70     	; 0x5c <__bad_interrupt>
  16:	22 c0       	rjmp	.+68     	; 0x5c <__bad_interrupt>
  18:	21 c0       	rjmp	.+66     	; 0x5c <__bad_interrupt>
  1a:	20 c0       	rjmp	.+64     	; 0x5c <__bad_interrupt>
  1c:	1f c0       	rjmp	.+62     	; 0x5c <__bad_interrupt>
  1e:	1e c0       	rjmp	.+60     	; 0x5c <__bad_interrupt>
  20:	1d c0       	rjmp	.+58     	; 0x5c <__bad_interrupt>
  22:	1c c0       	rjmp	.+56     	; 0x5c <__bad_interrupt>
  24:	1b c0       	rjmp	.+54     	; 0x5c <__bad_interrupt>

00000026 <__ctors_end>:
  26:	11 24       	eor	r1, r1
  28:	1f be       	out	0x3f, r1	; 63
  2a:	cf e5       	ldi	r28, 0x5F	; 95
  2c:	d4 e0       	ldi	r29, 0x04	; 4
  2e:	de bf       	out	0x3e, r29	; 62
  30:	cd bf       	out	0x3d, r28	; 61

00000032 <__do_copy_data>:
  32:	10 e0       	ldi	r17, 0x00	; 0
  34:	a0 e6       	ldi	r26, 0x60	; 96
  36:	b0 e0       	ldi	r27, 0x00	; 0
  38:	ee ef       	ldi	r30, 0xFE	; 254
  3a:	ff e0       	ldi	r31, 0x0F	; 15
  3c:	02 c0       	rjmp	.+4      	; 0x42 <__SREG__+0x3>
  3e:	05 90       	lpm	r0, Z+
  40:	0d 92       	st	X+, r0
  42:	a8 39       	cpi	r26, 0x98	; 152
  44:	b1 07       	cpc	r27, r17
  46:	d9 f7       	brne	.-10     	; 0x3e <__SP_H__>

00000048 <__do_clear_bss>:
  48:	11 e0       	ldi	r17, 0x01	; 1
  4a:	a8 e9       	ldi	r26, 0x98	; 152
  4c:	b0 e0       	ldi	r27, 0x00	; 0
  4e:	01 c0       	rjmp	.+2      	; 0x52 <.do_clear_bss_start>

00000050 <.do_clear_bss_loop>:
  50:	1d 92       	st	X+, r1

00000052 <.do_clear_bss_start>:
  52:	a1 32       	cpi	r26, 0x21	; 33
  54:	b1 07       	cpc	r27, r17
  56:	e1 f7       	brne	.-8      	; 0x50 <.do_clear_bss_loop>
  58:	77 d7       	rcall	.+3822   	; 0xf48 <main>
  5a:	cf c7       	rjmp	.+3998   	; 0xffa <_exit>

0000005c <__bad_interrupt>:
  5c:	d1 cf       	rjmp	.-94     	; 0x0 <__vectors>

0000005e <IncrementDecrementSingleDigit>:
  5e:	cf 92       	push	r12
  60:	df 92       	push	r13
  62:	ef 92       	push	r14
  64:	ff 92       	push	r15
  66:	0f 93       	push	r16
  68:	1f 93       	push	r17
  6a:	cf 93       	push	r28
  6c:	df 93       	push	r29
  6e:	00 d0       	rcall	.+0      	; 0x70 <IncrementDecrementSingleDigit+0x12>
  70:	00 d0       	rcall	.+0      	; 0x72 <IncrementDecrementSingleDigit+0x14>
  72:	cd b7       	in	r28, 0x3d	; 61
  74:	de b7       	in	r29, 0x3e	; 62
  76:	9c 01       	movw	r18, r24
  78:	16 2f       	mov	r17, r22
  7a:	04 2f       	mov	r16, r20
  7c:	6e 01       	movw	r12, r28
  7e:	08 94       	sec
  80:	c1 1c       	adc	r12, r1
  82:	d1 1c       	adc	r13, r1
  84:	f6 01       	movw	r30, r12
  86:	44 e0       	ldi	r20, 0x04	; 4
  88:	aa e0       	ldi	r26, 0x0A	; 10
  8a:	ea 2e       	mov	r14, r26
  8c:	f1 2c       	mov	r15, r1
  8e:	21 15       	cp	r18, r1
  90:	31 05       	cpc	r19, r1
  92:	69 f0       	breq	.+26     	; 0xae <IncrementDecrementSingleDigit+0x50>
  94:	c9 01       	movw	r24, r18
  96:	b7 01       	movw	r22, r14
  98:	7a d7       	rcall	.+3828   	; 0xf8e <__udivmodhi4>
  9a:	96 2f       	mov	r25, r22
  9c:	99 0f       	add	r25, r25
  9e:	89 2f       	mov	r24, r25
  a0:	88 0f       	add	r24, r24
  a2:	88 0f       	add	r24, r24
  a4:	89 0f       	add	r24, r25
  a6:	28 1b       	sub	r18, r24
  a8:	20 83       	st	Z, r18
  aa:	9b 01       	movw	r18, r22
  ac:	01 c0       	rjmp	.+2      	; 0xb0 <IncrementDecrementSingleDigit+0x52>
  ae:	10 82       	st	Z, r1
  b0:	41 50       	subi	r20, 0x01	; 1
  b2:	31 96       	adiw	r30, 0x01	; 1
  b4:	44 23       	and	r20, r20
  b6:	59 f7       	brne	.-42     	; 0x8e <IncrementDecrementSingleDigit+0x30>
  b8:	e1 2f       	mov	r30, r17
  ba:	f0 e0       	ldi	r31, 0x00	; 0
  bc:	00 23       	and	r16, r16
  be:	69 f4       	brne	.+26     	; 0xda <IncrementDecrementSingleDigit+0x7c>
  c0:	81 e0       	ldi	r24, 0x01	; 1
  c2:	90 e0       	ldi	r25, 0x00	; 0
  c4:	8c 0f       	add	r24, r28
  c6:	9d 1f       	adc	r25, r29
  c8:	e8 0f       	add	r30, r24
  ca:	f9 1f       	adc	r31, r25
  cc:	80 81       	ld	r24, Z
  ce:	88 23       	and	r24, r24
  d0:	11 f4       	brne	.+4      	; 0xd6 <IncrementDecrementSingleDigit+0x78>
  d2:	89 e0       	ldi	r24, 0x09	; 9
  d4:	0e c0       	rjmp	.+28     	; 0xf2 <IncrementDecrementSingleDigit+0x94>
  d6:	81 50       	subi	r24, 0x01	; 1
  d8:	0c c0       	rjmp	.+24     	; 0xf2 <IncrementDecrementSingleDigit+0x94>
  da:	a1 e0       	ldi	r26, 0x01	; 1
  dc:	b0 e0       	ldi	r27, 0x00	; 0
  de:	ac 0f       	add	r26, r28
  e0:	bd 1f       	adc	r27, r29
  e2:	ea 0f       	add	r30, r26
  e4:	fb 1f       	adc	r31, r27
  e6:	80 81       	ld	r24, Z
  e8:	89 30       	cpi	r24, 0x09	; 9
  ea:	11 f4       	brne	.+4      	; 0xf0 <IncrementDecrementSingleDigit+0x92>
  ec:	10 82       	st	Z, r1
  ee:	02 c0       	rjmp	.+4      	; 0xf4 <IncrementDecrementSingleDigit+0x96>
  f0:	8f 5f       	subi	r24, 0xFF	; 255
  f2:	80 83       	st	Z, r24
  f4:	20 e0       	ldi	r18, 0x00	; 0
  f6:	60 e0       	ldi	r22, 0x00	; 0
  f8:	70 e0       	ldi	r23, 0x00	; 0
  fa:	1e c0       	rjmp	.+60     	; 0x138 <IncrementDecrementSingleDigit+0xda>
  fc:	ca 01       	movw	r24, r20
  fe:	88 0f       	add	r24, r24
 100:	99 1f       	adc	r25, r25
 102:	f3 e0       	ldi	r31, 0x03	; 3
 104:	44 0f       	add	r20, r20
 106:	55 1f       	adc	r21, r21
 108:	fa 95       	dec	r31
 10a:	e1 f7       	brne	.-8      	; 0x104 <IncrementDecrementSingleDigit+0xa6>
 10c:	48 0f       	add	r20, r24
 10e:	59 1f       	adc	r21, r25
 110:	ef 5f       	subi	r30, 0xFF	; 255
 112:	e2 17       	cp	r30, r18
 114:	99 f7       	brne	.-26     	; 0xfc <IncrementDecrementSingleDigit+0x9e>
 116:	d6 01       	movw	r26, r12
 118:	8d 91       	ld	r24, X+
 11a:	6d 01       	movw	r12, r26
 11c:	90 e0       	ldi	r25, 0x00	; 0
 11e:	48 9f       	mul	r20, r24
 120:	90 01       	movw	r18, r0
 122:	49 9f       	mul	r20, r25
 124:	30 0d       	add	r19, r0
 126:	58 9f       	mul	r21, r24
 128:	30 0d       	add	r19, r0
 12a:	11 24       	eor	r1, r1
 12c:	62 0f       	add	r22, r18
 12e:	73 1f       	adc	r23, r19
 130:	2e 2f       	mov	r18, r30
 132:	2f 5f       	subi	r18, 0xFF	; 255
 134:	24 30       	cpi	r18, 0x04	; 4
 136:	21 f0       	breq	.+8      	; 0x140 <IncrementDecrementSingleDigit+0xe2>
 138:	41 e0       	ldi	r20, 0x01	; 1
 13a:	50 e0       	ldi	r21, 0x00	; 0
 13c:	e0 e0       	ldi	r30, 0x00	; 0
 13e:	e9 cf       	rjmp	.-46     	; 0x112 <IncrementDecrementSingleDigit+0xb4>
 140:	cb 01       	movw	r24, r22
 142:	0f 90       	pop	r0
 144:	0f 90       	pop	r0
 146:	0f 90       	pop	r0
 148:	0f 90       	pop	r0
 14a:	df 91       	pop	r29
 14c:	cf 91       	pop	r28
 14e:	1f 91       	pop	r17
 150:	0f 91       	pop	r16
 152:	ff 90       	pop	r15
 154:	ef 90       	pop	r14
 156:	df 90       	pop	r13
 158:	cf 90       	pop	r12
 15a:	08 95       	ret

0000015c <APP_INITIALIZE>:
 15c:	81 e0       	ldi	r24, 0x01	; 1
 15e:	68 e9       	ldi	r22, 0x98	; 152
 160:	70 e0       	ldi	r23, 0x00	; 0
 162:	4d e0       	ldi	r20, 0x0D	; 13
 164:	76 d3       	rcall	.+1772   	; 0x852 <Eeprom_Read_Block>
 166:	80 91 98 00 	lds	r24, 0x0098
 16a:	90 91 99 00 	lds	r25, 0x0099
 16e:	27 e2       	ldi	r18, 0x27	; 39
 170:	80 31       	cpi	r24, 0x10	; 16
 172:	92 07       	cpc	r25, r18
 174:	30 f0       	brcs	.+12     	; 0x182 <APP_INITIALIZE+0x26>
 176:	80 ed       	ldi	r24, 0xD0	; 208
 178:	97 e0       	ldi	r25, 0x07	; 7
 17a:	90 93 99 00 	sts	0x0099, r25
 17e:	80 93 98 00 	sts	0x0098, r24
 182:	80 91 9d 00 	lds	r24, 0x009D
 186:	90 91 9e 00 	lds	r25, 0x009E
 18a:	a0 91 9f 00 	lds	r26, 0x009F
 18e:	b0 91 a0 00 	lds	r27, 0x00A0
 192:	80 31       	cpi	r24, 0x10	; 16
 194:	27 e2       	ldi	r18, 0x27	; 39
 196:	92 07       	cpc	r25, r18
 198:	20 e0       	ldi	r18, 0x00	; 0
 19a:	a2 07       	cpc	r26, r18
 19c:	20 e0       	ldi	r18, 0x00	; 0
 19e:	b2 07       	cpc	r27, r18
 1a0:	40 f0       	brcs	.+16     	; 0x1b2 <APP_INITIALIZE+0x56>
 1a2:	10 92 9d 00 	sts	0x009D, r1
 1a6:	10 92 9e 00 	sts	0x009E, r1
 1aa:	10 92 9f 00 	sts	0x009F, r1
 1ae:	10 92 a0 00 	sts	0x00A0, r1
 1b2:	80 91 9d 00 	lds	r24, 0x009D
 1b6:	90 91 9e 00 	lds	r25, 0x009E
 1ba:	a0 91 9f 00 	lds	r26, 0x009F
 1be:	b0 91 a0 00 	lds	r27, 0x00A0
 1c2:	80 31       	cpi	r24, 0x10	; 16
 1c4:	27 e2       	ldi	r18, 0x27	; 39
 1c6:	92 07       	cpc	r25, r18
 1c8:	20 e0       	ldi	r18, 0x00	; 0
 1ca:	a2 07       	cpc	r26, r18
 1cc:	20 e0       	ldi	r18, 0x00	; 0
 1ce:	b2 07       	cpc	r27, r18
 1d0:	40 f0       	brcs	.+16     	; 0x1e2 <APP_INITIALIZE+0x86>
 1d2:	10 92 a1 00 	sts	0x00A1, r1
 1d6:	10 92 a2 00 	sts	0x00A2, r1
 1da:	10 92 a3 00 	sts	0x00A3, r1
 1de:	10 92 a4 00 	sts	0x00A4, r1
 1e2:	80 91 98 00 	lds	r24, 0x0098
 1e6:	90 91 99 00 	lds	r25, 0x0099
 1ea:	c5 d4       	rcall	.+2442   	; 0xb76 <SetCircumfirunce>
 1ec:	60 91 9d 00 	lds	r22, 0x009D
 1f0:	70 91 9e 00 	lds	r23, 0x009E
 1f4:	80 91 9f 00 	lds	r24, 0x009F
 1f8:	90 91 a0 00 	lds	r25, 0x00A0
 1fc:	a8 d4       	rcall	.+2384   	; 0xb4e <SetDistance>
 1fe:	60 91 a1 00 	lds	r22, 0x00A1
 202:	70 91 a2 00 	lds	r23, 0x00A2
 206:	80 91 a3 00 	lds	r24, 0x00A3
 20a:	90 91 a4 00 	lds	r25, 0x00A4
 20e:	de d0       	rcall	.+444    	; 0x3cc <APP_CALC_TIMEsetTravelTime>
 210:	08 95       	ret

00000212 <APP_MANAGE>:
 212:	0f 93       	push	r16
 214:	1f 93       	push	r17
 216:	cf 93       	push	r28
 218:	df 93       	push	r29
 21a:	00 d0       	rcall	.+0      	; 0x21c <APP_MANAGE+0xa>
 21c:	cd b7       	in	r28, 0x3d	; 61
 21e:	de b7       	in	r29, 0x3e	; 62
 220:	80 91 9b 00 	lds	r24, 0x009B
 224:	90 91 9c 00 	lds	r25, 0x009C
 228:	9a 83       	std	Y+2, r25	; 0x02
 22a:	89 83       	std	Y+1, r24	; 0x01
 22c:	9b d4       	rcall	.+2358   	; 0xb64 <GetDistance>
 22e:	dc 01       	movw	r26, r24
 230:	cb 01       	movw	r24, r22
 232:	80 93 9d 00 	sts	0x009D, r24
 236:	90 93 9e 00 	sts	0x009E, r25
 23a:	a0 93 9f 00 	sts	0x009F, r26
 23e:	b0 93 a0 00 	sts	0x00A0, r27
 242:	ce 01       	movw	r24, r28
 244:	01 96       	adiw	r24, 0x01	; 1
 246:	14 d1       	rcall	.+552    	; 0x470 <APP_HMImanage>
 248:	ce 01       	movw	r24, r28
 24a:	01 96       	adiw	r24, 0x01	; 1
 24c:	ce d0       	rcall	.+412    	; 0x3ea <APP_CALC_TIMEmanage>
 24e:	ab 01       	movw	r20, r22
 250:	bc 01       	movw	r22, r24
 252:	40 93 a1 00 	sts	0x00A1, r20
 256:	50 93 a2 00 	sts	0x00A2, r21
 25a:	60 93 a3 00 	sts	0x00A3, r22
 25e:	70 93 a4 00 	sts	0x00A4, r23
 262:	00 91 9d 00 	lds	r16, 0x009D
 266:	10 91 9e 00 	lds	r17, 0x009E
 26a:	20 91 9f 00 	lds	r18, 0x009F
 26e:	30 91 a0 00 	lds	r19, 0x00A0
 272:	ce 01       	movw	r24, r28
 274:	01 96       	adiw	r24, 0x01	; 1
 276:	a7 d0       	rcall	.+334    	; 0x3c6 <APP_CALC_AVGSPDemanage>
 278:	ce 01       	movw	r24, r28
 27a:	01 96       	adiw	r24, 0x01	; 1
 27c:	6e d1       	rcall	.+732    	; 0x55a <APP_SLEEPmanage>
 27e:	8a 81       	ldd	r24, Y+2	; 0x02
 280:	86 95       	lsr	r24
 282:	81 70       	andi	r24, 0x01	; 1
 284:	7d d4       	rcall	.+2298   	; 0xb80 <GetAvgSpeed>
 286:	bc 01       	movw	r22, r24
 288:	80 e0       	ldi	r24, 0x00	; 0
 28a:	90 e0       	ldi	r25, 0x00	; 0
 28c:	40 e0       	ldi	r20, 0x00	; 0
 28e:	21 e0       	ldi	r18, 0x01	; 1
 290:	01 e0       	ldi	r16, 0x01	; 1
 292:	67 d1       	rcall	.+718    	; 0x562 <BCDsendNumber>
 294:	29 81       	ldd	r18, Y+1	; 0x01
 296:	82 2f       	mov	r24, r18
 298:	83 70       	andi	r24, 0x03	; 3
 29a:	90 e0       	ldi	r25, 0x00	; 0
 29c:	82 30       	cpi	r24, 0x02	; 2
 29e:	91 05       	cpc	r25, r1
 2a0:	21 f1       	breq	.+72     	; 0x2ea <APP_MANAGE+0xd8>
 2a2:	83 30       	cpi	r24, 0x03	; 3
 2a4:	91 05       	cpc	r25, r1
 2a6:	31 f1       	breq	.+76     	; 0x2f4 <APP_MANAGE+0xe2>
 2a8:	81 30       	cpi	r24, 0x01	; 1
 2aa:	91 05       	cpc	r25, r1
 2ac:	59 f0       	breq	.+22     	; 0x2c4 <APP_MANAGE+0xb2>
 2ae:	60 91 9d 00 	lds	r22, 0x009D
 2b2:	70 91 9e 00 	lds	r23, 0x009E
 2b6:	80 91 9f 00 	lds	r24, 0x009F
 2ba:	90 91 a0 00 	lds	r25, 0x00A0
 2be:	41 e0       	ldi	r20, 0x01	; 1
 2c0:	21 e0       	ldi	r18, 0x01	; 1
 2c2:	11 c0       	rjmp	.+34     	; 0x2e6 <APP_MANAGE+0xd4>
 2c4:	25 ff       	sbrs	r18, 5
 2c6:	04 c0       	rjmp	.+8      	; 0x2d0 <APP_MANAGE+0xbe>
 2c8:	60 e0       	ldi	r22, 0x00	; 0
 2ca:	70 e0       	ldi	r23, 0x00	; 0
 2cc:	cb 01       	movw	r24, r22
 2ce:	7e d0       	rcall	.+252    	; 0x3cc <APP_CALC_TIMEsetTravelTime>
 2d0:	60 91 a1 00 	lds	r22, 0x00A1
 2d4:	70 91 a2 00 	lds	r23, 0x00A2
 2d8:	80 91 a3 00 	lds	r24, 0x00A3
 2dc:	90 91 a4 00 	lds	r25, 0x00A4
 2e0:	41 e0       	ldi	r20, 0x01	; 1
 2e2:	20 e0       	ldi	r18, 0x00	; 0
 2e4:	01 e0       	ldi	r16, 0x01	; 1
 2e6:	3d d1       	rcall	.+634    	; 0x562 <BCDsendNumber>
 2e8:	50 c0       	rjmp	.+160    	; 0x38a <APP_MANAGE+0x178>
 2ea:	61 e0       	ldi	r22, 0x01	; 1
 2ec:	70 e0       	ldi	r23, 0x00	; 0
 2ee:	80 e0       	ldi	r24, 0x00	; 0
 2f0:	90 e0       	ldi	r25, 0x00	; 0
 2f2:	f6 cf       	rjmp	.-20     	; 0x2e0 <APP_MANAGE+0xce>
 2f4:	8a 81       	ldd	r24, Y+2	; 0x02
 2f6:	82 ff       	sbrs	r24, 2
 2f8:	34 c0       	rjmp	.+104    	; 0x362 <APP_MANAGE+0x150>
 2fa:	25 ff       	sbrs	r18, 5
 2fc:	09 c0       	rjmp	.+18     	; 0x310 <APP_MANAGE+0xfe>
 2fe:	80 91 9a 00 	lds	r24, 0x009A
 302:	83 30       	cpi	r24, 0x03	; 3
 304:	19 f4       	brne	.+6      	; 0x30c <APP_MANAGE+0xfa>
 306:	10 92 9a 00 	sts	0x009A, r1
 30a:	26 c0       	rjmp	.+76     	; 0x358 <APP_MANAGE+0x146>
 30c:	8f 5f       	subi	r24, 0xFF	; 255
 30e:	09 c0       	rjmp	.+18     	; 0x322 <APP_MANAGE+0x110>
 310:	26 ff       	sbrs	r18, 6
 312:	0a c0       	rjmp	.+20     	; 0x328 <APP_MANAGE+0x116>
 314:	80 91 9a 00 	lds	r24, 0x009A
 318:	88 23       	and	r24, r24
 31a:	11 f4       	brne	.+4      	; 0x320 <APP_MANAGE+0x10e>
 31c:	83 e0       	ldi	r24, 0x03	; 3
 31e:	01 c0       	rjmp	.+2      	; 0x322 <APP_MANAGE+0x110>
 320:	81 50       	subi	r24, 0x01	; 1
 322:	80 93 9a 00 	sts	0x009A, r24
 326:	18 c0       	rjmp	.+48     	; 0x358 <APP_MANAGE+0x146>
 328:	23 ff       	sbrs	r18, 3
 32a:	08 c0       	rjmp	.+16     	; 0x33c <APP_MANAGE+0x12a>
 32c:	80 91 98 00 	lds	r24, 0x0098
 330:	90 91 99 00 	lds	r25, 0x0099
 334:	60 91 9a 00 	lds	r22, 0x009A
 338:	40 e0       	ldi	r20, 0x00	; 0
 33a:	09 c0       	rjmp	.+18     	; 0x34e <APP_MANAGE+0x13c>
 33c:	24 ff       	sbrs	r18, 4
 33e:	0c c0       	rjmp	.+24     	; 0x358 <APP_MANAGE+0x146>
 340:	80 91 98 00 	lds	r24, 0x0098
 344:	90 91 99 00 	lds	r25, 0x0099
 348:	60 91 9a 00 	lds	r22, 0x009A
 34c:	41 e0       	ldi	r20, 0x01	; 1
 34e:	87 de       	rcall	.-754    	; 0x5e <IncrementDecrementSingleDigit>
 350:	90 93 99 00 	sts	0x0099, r25
 354:	80 93 98 00 	sts	0x0098, r24
 358:	80 91 9a 00 	lds	r24, 0x009A
 35c:	61 e0       	ldi	r22, 0x01	; 1
 35e:	44 e6       	ldi	r20, 0x64	; 100
 360:	04 c0       	rjmp	.+8      	; 0x36a <APP_MANAGE+0x158>
 362:	80 91 9a 00 	lds	r24, 0x009A
 366:	61 e0       	ldi	r22, 0x01	; 1
 368:	40 e0       	ldi	r20, 0x00	; 0
 36a:	f5 d1       	rcall	.+1002   	; 0x756 <BlinkDigit>
 36c:	60 91 98 00 	lds	r22, 0x0098
 370:	70 91 99 00 	lds	r23, 0x0099
 374:	80 e0       	ldi	r24, 0x00	; 0
 376:	90 e0       	ldi	r25, 0x00	; 0
 378:	41 e0       	ldi	r20, 0x01	; 1
 37a:	20 e0       	ldi	r18, 0x00	; 0
 37c:	00 e0       	ldi	r16, 0x00	; 0
 37e:	f1 d0       	rcall	.+482    	; 0x562 <BCDsendNumber>
 380:	80 91 98 00 	lds	r24, 0x0098
 384:	90 91 99 00 	lds	r25, 0x0099
 388:	f6 d3       	rcall	.+2028   	; 0xb76 <SetCircumfirunce>
 38a:	89 81       	ldd	r24, Y+1	; 0x01
 38c:	9a 81       	ldd	r25, Y+2	; 0x02
 38e:	90 93 9c 00 	sts	0x009C, r25
 392:	80 93 9b 00 	sts	0x009B, r24
 396:	89 81       	ldd	r24, Y+1	; 0x01
 398:	82 ff       	sbrs	r24, 2
 39a:	0e c0       	rjmp	.+28     	; 0x3b8 <APP_MANAGE+0x1a6>
 39c:	81 e0       	ldi	r24, 0x01	; 1
 39e:	68 e9       	ldi	r22, 0x98	; 152
 3a0:	70 e0       	ldi	r23, 0x00	; 0
 3a2:	4d e0       	ldi	r20, 0x0D	; 13
 3a4:	20 e0       	ldi	r18, 0x00	; 0
 3a6:	30 e0       	ldi	r19, 0x00	; 0
 3a8:	33 d2       	rcall	.+1126   	; 0x810 <Eeprom_Write_Block>
 3aa:	81 30       	cpi	r24, 0x01	; 1
 3ac:	29 f4       	brne	.+10     	; 0x3b8 <APP_MANAGE+0x1a6>
 3ae:	80 91 9b 00 	lds	r24, 0x009B
 3b2:	8b 7f       	andi	r24, 0xFB	; 251
 3b4:	80 93 9b 00 	sts	0x009B, r24
 3b8:	0f 90       	pop	r0
 3ba:	0f 90       	pop	r0
 3bc:	df 91       	pop	r29
 3be:	cf 91       	pop	r28
 3c0:	1f 91       	pop	r17
 3c2:	0f 91       	pop	r16
 3c4:	08 95       	ret

000003c6 <APP_CALC_AVGSPDemanage>:
 3c6:	80 e0       	ldi	r24, 0x00	; 0
 3c8:	90 e0       	ldi	r25, 0x00	; 0
 3ca:	08 95       	ret

000003cc <APP_CALC_TIMEsetTravelTime>:
 3cc:	dc 01       	movw	r26, r24
 3ce:	cb 01       	movw	r24, r22
 3d0:	80 93 a5 00 	sts	0x00A5, r24
 3d4:	90 93 a6 00 	sts	0x00A6, r25
 3d8:	a0 93 a7 00 	sts	0x00A7, r26
 3dc:	b0 93 a8 00 	sts	0x00A8, r27
 3e0:	10 92 aa 00 	sts	0x00AA, r1
 3e4:	10 92 a9 00 	sts	0x00A9, r1
 3e8:	08 95       	ret

000003ea <APP_CALC_TIMEmanage>:
 3ea:	fc 01       	movw	r30, r24
 3ec:	80 81       	ld	r24, Z
 3ee:	87 ff       	sbrs	r24, 7
 3f0:	0d c0       	rjmp	.+26     	; 0x40c <APP_CALC_TIMEmanage+0x22>
 3f2:	10 92 aa 00 	sts	0x00AA, r1
 3f6:	10 92 a9 00 	sts	0x00A9, r1
 3fa:	10 92 a5 00 	sts	0x00A5, r1
 3fe:	10 92 a6 00 	sts	0x00A6, r1
 402:	10 92 a7 00 	sts	0x00A7, r1
 406:	10 92 a8 00 	sts	0x00A8, r1
 40a:	29 c0       	rjmp	.+82     	; 0x45e <APP_CALC_TIMEmanage+0x74>
 40c:	80 91 a9 00 	lds	r24, 0x00A9
 410:	90 91 aa 00 	lds	r25, 0x00AA
 414:	24 e0       	ldi	r18, 0x04	; 4
 416:	80 3b       	cpi	r24, 0xB0	; 176
 418:	92 07       	cpc	r25, r18
 41a:	e0 f0       	brcs	.+56     	; 0x454 <APP_CALC_TIMEmanage+0x6a>
 41c:	10 92 aa 00 	sts	0x00AA, r1
 420:	10 92 a9 00 	sts	0x00A9, r1
 424:	40 91 a5 00 	lds	r20, 0x00A5
 428:	50 91 a6 00 	lds	r21, 0x00A6
 42c:	60 91 a7 00 	lds	r22, 0x00A7
 430:	70 91 a8 00 	lds	r23, 0x00A8
 434:	4f 5f       	subi	r20, 0xFF	; 255
 436:	5f 4f       	sbci	r21, 0xFF	; 255
 438:	6f 4f       	sbci	r22, 0xFF	; 255
 43a:	7f 4f       	sbci	r23, 0xFF	; 255
 43c:	40 93 a5 00 	sts	0x00A5, r20
 440:	50 93 a6 00 	sts	0x00A6, r21
 444:	60 93 a7 00 	sts	0x00A7, r22
 448:	70 93 a8 00 	sts	0x00A8, r23
 44c:	80 81       	ld	r24, Z
 44e:	84 60       	ori	r24, 0x04	; 4
 450:	80 83       	st	Z, r24
 452:	05 c0       	rjmp	.+10     	; 0x45e <APP_CALC_TIMEmanage+0x74>
 454:	01 96       	adiw	r24, 0x01	; 1
 456:	90 93 aa 00 	sts	0x00AA, r25
 45a:	80 93 a9 00 	sts	0x00A9, r24
 45e:	60 91 a5 00 	lds	r22, 0x00A5
 462:	70 91 a6 00 	lds	r23, 0x00A6
 466:	80 91 a7 00 	lds	r24, 0x00A7
 46a:	90 91 a8 00 	lds	r25, 0x00A8
 46e:	08 95       	ret

00000470 <APP_HMImanage>:
 470:	1f 93       	push	r17
 472:	cf 93       	push	r28
 474:	df 93       	push	r29
 476:	ec 01       	movw	r28, r24
 478:	80 e0       	ldi	r24, 0x00	; 0
 47a:	43 d2       	rcall	.+1158   	; 0x902 <GetKeyStatus>
 47c:	18 2f       	mov	r17, r24
 47e:	81 e0       	ldi	r24, 0x01	; 1
 480:	40 d2       	rcall	.+1152   	; 0x902 <GetKeyStatus>
 482:	90 91 ab 00 	lds	r25, 0x00AB
 486:	91 30       	cpi	r25, 0x01	; 1
 488:	31 f1       	breq	.+76     	; 0x4d6 <APP_HMImanage+0x66>
 48a:	91 30       	cpi	r25, 0x01	; 1
 48c:	38 f0       	brcs	.+14     	; 0x49c <APP_HMImanage+0x2c>
 48e:	92 30       	cpi	r25, 0x02	; 2
 490:	09 f4       	brne	.+2      	; 0x494 <APP_HMImanage+0x24>
 492:	47 c0       	rjmp	.+142    	; 0x522 <APP_HMImanage+0xb2>
 494:	93 30       	cpi	r25, 0x03	; 3
 496:	09 f0       	breq	.+2      	; 0x49a <APP_HMImanage+0x2a>
 498:	51 c0       	rjmp	.+162    	; 0x53c <APP_HMImanage+0xcc>
 49a:	48 c0       	rjmp	.+144    	; 0x52c <APP_HMImanage+0xbc>
 49c:	11 30       	cpi	r17, 0x01	; 1
 49e:	21 f4       	brne	.+8      	; 0x4a8 <APP_HMImanage+0x38>
 4a0:	81 30       	cpi	r24, 0x01	; 1
 4a2:	41 f4       	brne	.+16     	; 0x4b4 <APP_HMImanage+0x44>
 4a4:	83 e0       	ldi	r24, 0x03	; 3
 4a6:	47 c0       	rjmp	.+142    	; 0x536 <APP_HMImanage+0xc6>
 4a8:	10 34       	cpi	r17, 0x40	; 64
 4aa:	21 f4       	brne	.+8      	; 0x4b4 <APP_HMImanage+0x44>
 4ac:	88 81       	ld	r24, Y
 4ae:	98 2f       	mov	r25, r24
 4b0:	9d 5f       	subi	r25, 0xFD	; 253
 4b2:	05 c0       	rjmp	.+10     	; 0x4be <APP_HMImanage+0x4e>
 4b4:	80 34       	cpi	r24, 0x40	; 64
 4b6:	29 f4       	brne	.+10     	; 0x4c2 <APP_HMImanage+0x52>
 4b8:	88 81       	ld	r24, Y
 4ba:	98 2f       	mov	r25, r24
 4bc:	9f 5f       	subi	r25, 0xFF	; 255
 4be:	93 70       	andi	r25, 0x03	; 3
 4c0:	2c c0       	rjmp	.+88     	; 0x51a <APP_HMImanage+0xaa>
 4c2:	12 38       	cpi	r17, 0x82	; 130
 4c4:	e9 f5       	brne	.+122    	; 0x540 <APP_HMImanage+0xd0>
 4c6:	89 81       	ldd	r24, Y+1	; 0x01
 4c8:	98 2f       	mov	r25, r24
 4ca:	90 95       	com	r25
 4cc:	92 70       	andi	r25, 0x02	; 2
 4ce:	8d 7f       	andi	r24, 0xFD	; 253
 4d0:	89 2b       	or	r24, r25
 4d2:	89 83       	std	Y+1, r24	; 0x01
 4d4:	35 c0       	rjmp	.+106    	; 0x540 <APP_HMImanage+0xd0>
 4d6:	98 81       	ld	r25, Y
 4d8:	93 70       	andi	r25, 0x03	; 3
 4da:	19 82       	std	Y+1, r1	; 0x01
 4dc:	18 82       	st	Y, r1
 4de:	11 30       	cpi	r17, 0x01	; 1
 4e0:	41 f4       	brne	.+16     	; 0x4f2 <APP_HMImanage+0x82>
 4e2:	81 30       	cpi	r24, 0x01	; 1
 4e4:	61 f4       	brne	.+24     	; 0x4fe <APP_HMImanage+0x8e>
 4e6:	82 e0       	ldi	r24, 0x02	; 2
 4e8:	80 93 ab 00 	sts	0x00AB, r24
 4ec:	88 81       	ld	r24, Y
 4ee:	84 60       	ori	r24, 0x04	; 4
 4f0:	04 c0       	rjmp	.+8      	; 0x4fa <APP_HMImanage+0x8a>
 4f2:	10 34       	cpi	r17, 0x40	; 64
 4f4:	21 f4       	brne	.+8      	; 0x4fe <APP_HMImanage+0x8e>
 4f6:	88 81       	ld	r24, Y
 4f8:	80 61       	ori	r24, 0x10	; 16
 4fa:	88 83       	st	Y, r24
 4fc:	0d c0       	rjmp	.+26     	; 0x518 <APP_HMImanage+0xa8>
 4fe:	28 81       	ld	r18, Y
 500:	80 34       	cpi	r24, 0x40	; 64
 502:	11 f4       	brne	.+4      	; 0x508 <APP_HMImanage+0x98>
 504:	28 60       	ori	r18, 0x08	; 8
 506:	07 c0       	rjmp	.+14     	; 0x516 <APP_HMImanage+0xa6>
 508:	12 38       	cpi	r17, 0x82	; 130
 50a:	11 f4       	brne	.+4      	; 0x510 <APP_HMImanage+0xa0>
 50c:	20 64       	ori	r18, 0x40	; 64
 50e:	03 c0       	rjmp	.+6      	; 0x516 <APP_HMImanage+0xa6>
 510:	82 38       	cpi	r24, 0x82	; 130
 512:	11 f4       	brne	.+4      	; 0x518 <APP_HMImanage+0xa8>
 514:	20 62       	ori	r18, 0x20	; 32
 516:	28 83       	st	Y, r18
 518:	88 81       	ld	r24, Y
 51a:	8c 7f       	andi	r24, 0xFC	; 252
 51c:	89 2b       	or	r24, r25
 51e:	88 83       	st	Y, r24
 520:	0f c0       	rjmp	.+30     	; 0x540 <APP_HMImanage+0xd0>
 522:	11 23       	and	r17, r17
 524:	69 f4       	brne	.+26     	; 0x540 <APP_HMImanage+0xd0>
 526:	88 23       	and	r24, r24
 528:	59 f4       	brne	.+22     	; 0x540 <APP_HMImanage+0xd0>
 52a:	08 c0       	rjmp	.+16     	; 0x53c <APP_HMImanage+0xcc>
 52c:	11 23       	and	r17, r17
 52e:	41 f4       	brne	.+16     	; 0x540 <APP_HMImanage+0xd0>
 530:	88 23       	and	r24, r24
 532:	31 f4       	brne	.+12     	; 0x540 <APP_HMImanage+0xd0>
 534:	81 e0       	ldi	r24, 0x01	; 1
 536:	80 93 ab 00 	sts	0x00AB, r24
 53a:	02 c0       	rjmp	.+4      	; 0x540 <APP_HMImanage+0xd0>
 53c:	10 92 ab 00 	sts	0x00AB, r1
 540:	90 91 ab 00 	lds	r25, 0x00AB
 544:	91 70       	andi	r25, 0x01	; 1
 546:	99 0f       	add	r25, r25
 548:	99 0f       	add	r25, r25
 54a:	89 81       	ldd	r24, Y+1	; 0x01
 54c:	8b 7f       	andi	r24, 0xFB	; 251
 54e:	89 2b       	or	r24, r25
 550:	89 83       	std	Y+1, r24	; 0x01
 552:	df 91       	pop	r29
 554:	cf 91       	pop	r28
 556:	1f 91       	pop	r17
 558:	08 95       	ret

0000055a <APP_SLEEPmanage>:
 55a:	08 95       	ret

0000055c <BCDInitialize>:
 55c:	80 93 ac 00 	sts	0x00AC, r24
 560:	08 95       	ret

00000562 <BCDsendNumber>:
 562:	2f 92       	push	r2
 564:	3f 92       	push	r3
 566:	4f 92       	push	r4
 568:	5f 92       	push	r5
 56a:	7f 92       	push	r7
 56c:	8f 92       	push	r8
 56e:	9f 92       	push	r9
 570:	af 92       	push	r10
 572:	bf 92       	push	r11
 574:	cf 92       	push	r12
 576:	df 92       	push	r13
 578:	ef 92       	push	r14
 57a:	ff 92       	push	r15
 57c:	0f 93       	push	r16
 57e:	1f 93       	push	r17
 580:	cf 93       	push	r28
 582:	df 93       	push	r29
 584:	00 d0       	rcall	.+0      	; 0x586 <BCDsendNumber+0x24>
 586:	00 d0       	rcall	.+0      	; 0x588 <BCDsendNumber+0x26>
 588:	cd b7       	in	r28, 0x3d	; 61
 58a:	de b7       	in	r29, 0x3e	; 62
 58c:	12 2f       	mov	r17, r18
 58e:	70 2e       	mov	r7, r16
 590:	24 2f       	mov	r18, r20
 592:	30 e0       	ldi	r19, 0x00	; 0
 594:	3a 83       	std	Y+2, r19	; 0x02
 596:	29 83       	std	Y+1, r18	; 0x01
 598:	43 e0       	ldi	r20, 0x03	; 3
 59a:	22 0f       	add	r18, r18
 59c:	33 1f       	adc	r19, r19
 59e:	4a 95       	dec	r20
 5a0:	e1 f7       	brne	.-8      	; 0x59a <BCDsendNumber+0x38>
 5a2:	23 55       	subi	r18, 0x53	; 83
 5a4:	3f 4f       	sbci	r19, 0xFF	; 255
 5a6:	6b 01       	movw	r12, r22
 5a8:	7c 01       	movw	r14, r24
 5aa:	88 24       	eor	r8, r8
 5ac:	5a e0       	ldi	r21, 0x0A	; 10
 5ae:	25 2e       	mov	r2, r21
 5b0:	31 2c       	mov	r3, r1
 5b2:	41 2c       	mov	r4, r1
 5b4:	51 2c       	mov	r5, r1
 5b6:	3c 83       	std	Y+4, r19	; 0x04
 5b8:	2b 83       	std	Y+3, r18	; 0x03
 5ba:	91 2e       	mov	r9, r17
 5bc:	c1 14       	cp	r12, r1
 5be:	d1 04       	cpc	r13, r1
 5c0:	e1 04       	cpc	r14, r1
 5c2:	f1 04       	cpc	r15, r1
 5c4:	11 f4       	brne	.+4      	; 0x5ca <BCDsendNumber+0x68>
 5c6:	98 14       	cp	r9, r8
 5c8:	38 f1       	brcs	.+78     	; 0x618 <BCDsendNumber+0xb6>
 5ca:	c7 01       	movw	r24, r14
 5cc:	b6 01       	movw	r22, r12
 5ce:	a2 01       	movw	r20, r4
 5d0:	91 01       	movw	r18, r2
 5d2:	f1 d4       	rcall	.+2530   	; 0xfb6 <__udivmodsi4>
 5d4:	12 2f       	mov	r17, r18
 5d6:	03 2f       	mov	r16, r19
 5d8:	b4 2e       	mov	r11, r20
 5da:	a5 2e       	mov	r10, r21
 5dc:	62 2f       	mov	r22, r18
 5de:	73 2f       	mov	r23, r19
 5e0:	84 2f       	mov	r24, r20
 5e2:	95 2f       	mov	r25, r21
 5e4:	2a e0       	ldi	r18, 0x0A	; 10
 5e6:	30 e0       	ldi	r19, 0x00	; 0
 5e8:	40 e0       	ldi	r20, 0x00	; 0
 5ea:	50 e0       	ldi	r21, 0x00	; 0
 5ec:	b1 d4       	rcall	.+2402   	; 0xf50 <__mulsi3>
 5ee:	dc 01       	movw	r26, r24
 5f0:	cb 01       	movw	r24, r22
 5f2:	c8 1a       	sub	r12, r24
 5f4:	d9 0a       	sbc	r13, r25
 5f6:	ea 0a       	sbc	r14, r26
 5f8:	fb 0a       	sbc	r15, r27
 5fa:	f6 01       	movw	r30, r12
 5fc:	e0 5a       	subi	r30, 0xA0	; 160
 5fe:	ff 4f       	sbci	r31, 0xFF	; 255
 600:	80 81       	ld	r24, Z
 602:	ab 81       	ldd	r26, Y+3	; 0x03
 604:	bc 81       	ldd	r27, Y+4	; 0x04
 606:	8c 93       	st	X, r24
 608:	11 96       	adiw	r26, 0x01	; 1
 60a:	1c 92       	st	X, r1
 60c:	11 97       	sbiw	r26, 0x01	; 1
 60e:	c1 2e       	mov	r12, r17
 610:	d0 2e       	mov	r13, r16
 612:	eb 2c       	mov	r14, r11
 614:	fa 2c       	mov	r15, r10
 616:	0e c0       	rjmp	.+28     	; 0x634 <BCDsendNumber+0xd2>
 618:	77 20       	and	r7, r7
 61a:	39 f4       	brne	.+14     	; 0x62a <BCDsendNumber+0xc8>
 61c:	2c ef       	ldi	r18, 0xFC	; 252
 61e:	30 e0       	ldi	r19, 0x00	; 0
 620:	eb 81       	ldd	r30, Y+3	; 0x03
 622:	fc 81       	ldd	r31, Y+4	; 0x04
 624:	31 83       	std	Z+1, r19	; 0x01
 626:	20 83       	st	Z, r18
 628:	05 c0       	rjmp	.+10     	; 0x634 <BCDsendNumber+0xd2>
 62a:	ab 81       	ldd	r26, Y+3	; 0x03
 62c:	bc 81       	ldd	r27, Y+4	; 0x04
 62e:	11 96       	adiw	r26, 0x01	; 1
 630:	1c 92       	st	X, r1
 632:	1e 92       	st	-X, r1
 634:	83 94       	inc	r8
 636:	eb 81       	ldd	r30, Y+3	; 0x03
 638:	fc 81       	ldd	r31, Y+4	; 0x04
 63a:	32 96       	adiw	r30, 0x02	; 2
 63c:	fc 83       	std	Y+4, r31	; 0x04
 63e:	eb 83       	std	Y+3, r30	; 0x03
 640:	f4 e0       	ldi	r31, 0x04	; 4
 642:	8f 16       	cp	r8, r31
 644:	09 f0       	breq	.+2      	; 0x648 <BCDsendNumber+0xe6>
 646:	ba cf       	rjmp	.-140    	; 0x5bc <BCDsendNumber+0x5a>
 648:	99 20       	and	r9, r9
 64a:	89 f0       	breq	.+34     	; 0x66e <BCDsendNumber+0x10c>
 64c:	e9 81       	ldd	r30, Y+1	; 0x01
 64e:	fa 81       	ldd	r31, Y+2	; 0x02
 650:	ee 0f       	add	r30, r30
 652:	ff 1f       	adc	r31, r31
 654:	ee 0f       	add	r30, r30
 656:	ff 1f       	adc	r31, r31
 658:	e9 0d       	add	r30, r9
 65a:	f1 1d       	adc	r31, r1
 65c:	ee 0f       	add	r30, r30
 65e:	ff 1f       	adc	r31, r31
 660:	e3 55       	subi	r30, 0x53	; 83
 662:	ff 4f       	sbci	r31, 0xFF	; 255
 664:	80 81       	ld	r24, Z
 666:	91 81       	ldd	r25, Z+1	; 0x01
 668:	81 60       	ori	r24, 0x01	; 1
 66a:	91 83       	std	Z+1, r25	; 0x01
 66c:	80 83       	st	Z, r24
 66e:	0f 90       	pop	r0
 670:	0f 90       	pop	r0
 672:	0f 90       	pop	r0
 674:	0f 90       	pop	r0
 676:	df 91       	pop	r29
 678:	cf 91       	pop	r28
 67a:	1f 91       	pop	r17
 67c:	0f 91       	pop	r16
 67e:	ff 90       	pop	r15
 680:	ef 90       	pop	r14
 682:	df 90       	pop	r13
 684:	cf 90       	pop	r12
 686:	bf 90       	pop	r11
 688:	af 90       	pop	r10
 68a:	9f 90       	pop	r9
 68c:	8f 90       	pop	r8
 68e:	7f 90       	pop	r7
 690:	5f 90       	pop	r5
 692:	4f 90       	pop	r4
 694:	3f 90       	pop	r3
 696:	2f 90       	pop	r2
 698:	08 95       	ret

0000069a <BCDManage7segment>:
 69a:	cf 93       	push	r28
 69c:	90 91 bd 00 	lds	r25, 0x00BD
 6a0:	99 23       	and	r25, r25
 6a2:	81 f0       	breq	.+32     	; 0x6c4 <BCDManage7segment+0x2a>
 6a4:	80 91 be 00 	lds	r24, 0x00BE
 6a8:	8f 5f       	subi	r24, 0xFF	; 255
 6aa:	80 93 be 00 	sts	0x00BE, r24
 6ae:	89 17       	cp	r24, r25
 6b0:	59 f4       	brne	.+22     	; 0x6c8 <BCDManage7segment+0x2e>
 6b2:	80 91 bf 00 	lds	r24, 0x00BF
 6b6:	91 e0       	ldi	r25, 0x01	; 1
 6b8:	89 27       	eor	r24, r25
 6ba:	80 93 bf 00 	sts	0x00BF, r24
 6be:	10 92 be 00 	sts	0x00BE, r1
 6c2:	02 c0       	rjmp	.+4      	; 0x6c8 <BCDManage7segment+0x2e>
 6c4:	10 92 bf 00 	sts	0x00BF, r1
 6c8:	80 91 bf 00 	lds	r24, 0x00BF
 6cc:	81 30       	cpi	r24, 0x01	; 1
 6ce:	61 f4       	brne	.+24     	; 0x6e8 <BCDManage7segment+0x4e>
 6d0:	90 91 c0 00 	lds	r25, 0x00C0
 6d4:	80 91 c1 00 	lds	r24, 0x00C1
 6d8:	98 17       	cp	r25, r24
 6da:	31 f4       	brne	.+12     	; 0x6e8 <BCDManage7segment+0x4e>
 6dc:	90 91 c2 00 	lds	r25, 0x00C2
 6e0:	80 91 c3 00 	lds	r24, 0x00C3
 6e4:	98 17       	cp	r25, r24
 6e6:	89 f0       	breq	.+34     	; 0x70a <BCDManage7segment+0x70>
 6e8:	80 91 c0 00 	lds	r24, 0x00C0
 6ec:	e0 91 c3 00 	lds	r30, 0x00C3
 6f0:	f0 e0       	ldi	r31, 0x00	; 0
 6f2:	ee 0f       	add	r30, r30
 6f4:	ff 1f       	adc	r31, r31
 6f6:	ee 0f       	add	r30, r30
 6f8:	ff 1f       	adc	r31, r31
 6fa:	e8 0f       	add	r30, r24
 6fc:	f1 1d       	adc	r31, r1
 6fe:	ee 0f       	add	r30, r30
 700:	ff 1f       	adc	r31, r31
 702:	e3 55       	subi	r30, 0x53	; 83
 704:	ff 4f       	sbci	r31, 0xFF	; 255
 706:	c0 81       	ld	r28, Z
 708:	01 c0       	rjmp	.+2      	; 0x70c <BCDManage7segment+0x72>
 70a:	c0 e0       	ldi	r28, 0x00	; 0
 70c:	80 91 ac 00 	lds	r24, 0x00AC
 710:	81 30       	cpi	r24, 0x01	; 1
 712:	09 f4       	brne	.+2      	; 0x716 <BCDManage7segment+0x7c>
 714:	c0 95       	com	r28
 716:	60 91 c3 00 	lds	r22, 0x00C3
 71a:	66 0f       	add	r22, r22
 71c:	66 0f       	add	r22, r22
 71e:	80 91 c0 00 	lds	r24, 0x00C0
 722:	68 0f       	add	r22, r24
 724:	80 e0       	ldi	r24, 0x00	; 0
 726:	01 d3       	rcall	.+1538   	; 0xd2a <HWI_4Digit_WRITE>
 728:	81 e0       	ldi	r24, 0x01	; 1
 72a:	6c 2f       	mov	r22, r28
 72c:	17 d3       	rcall	.+1582   	; 0xd5c <HWI_8Digit_WRITE>
 72e:	80 91 c0 00 	lds	r24, 0x00C0
 732:	8f 5f       	subi	r24, 0xFF	; 255
 734:	80 93 c0 00 	sts	0x00C0, r24
 738:	84 30       	cpi	r24, 0x04	; 4
 73a:	59 f4       	brne	.+22     	; 0x752 <BCDManage7segment+0xb8>
 73c:	10 92 c0 00 	sts	0x00C0, r1
 740:	80 91 c3 00 	lds	r24, 0x00C3
 744:	8f 5f       	subi	r24, 0xFF	; 255
 746:	80 93 c3 00 	sts	0x00C3, r24
 74a:	82 30       	cpi	r24, 0x02	; 2
 74c:	11 f4       	brne	.+4      	; 0x752 <BCDManage7segment+0xb8>
 74e:	10 92 c3 00 	sts	0x00C3, r1
 752:	cf 91       	pop	r28
 754:	08 95       	ret

00000756 <BlinkDigit>:
 756:	80 93 c1 00 	sts	0x00C1, r24
 75a:	40 93 bd 00 	sts	0x00BD, r20
 75e:	60 93 c2 00 	sts	0x00C2, r22
 762:	08 95       	ret

00000764 <Segment7SendString>:
 764:	cf 93       	push	r28
 766:	df 93       	push	r29
 768:	da 01       	movw	r26, r20
 76a:	42 2f       	mov	r20, r18
 76c:	50 e0       	ldi	r21, 0x00	; 0
 76e:	48 0f       	add	r20, r24
 770:	51 1d       	adc	r21, r1
 772:	45 30       	cpi	r20, 0x05	; 5
 774:	51 05       	cpc	r21, r1
 776:	cc f4       	brge	.+50     	; 0x7aa <Segment7SendString+0x46>
 778:	70 e0       	ldi	r23, 0x00	; 0
 77a:	66 0f       	add	r22, r22
 77c:	77 1f       	adc	r23, r23
 77e:	66 0f       	add	r22, r22
 780:	77 1f       	adc	r23, r23
 782:	0e c0       	rjmp	.+28     	; 0x7a0 <Segment7SendString+0x3c>
 784:	fb 01       	movw	r30, r22
 786:	e2 0f       	add	r30, r18
 788:	f3 1f       	adc	r31, r19
 78a:	ee 0f       	add	r30, r30
 78c:	ff 1f       	adc	r31, r31
 78e:	e3 55       	subi	r30, 0x53	; 83
 790:	ff 4f       	sbci	r31, 0xFF	; 255
 792:	2a 0f       	add	r18, r26
 794:	3b 1f       	adc	r19, r27
 796:	e9 01       	movw	r28, r18
 798:	98 81       	ld	r25, Y
 79a:	90 83       	st	Z, r25
 79c:	11 82       	std	Z+1, r1	; 0x01
 79e:	8f 5f       	subi	r24, 0xFF	; 255
 7a0:	28 2f       	mov	r18, r24
 7a2:	30 e0       	ldi	r19, 0x00	; 0
 7a4:	24 17       	cp	r18, r20
 7a6:	35 07       	cpc	r19, r21
 7a8:	6c f3       	brlt	.-38     	; 0x784 <Segment7SendString+0x20>
 7aa:	df 91       	pop	r29
 7ac:	cf 91       	pop	r28
 7ae:	08 95       	ret

000007b0 <DisplaySendString>:
 7b0:	ef 92       	push	r14
 7b2:	ff 92       	push	r15
 7b4:	0f 93       	push	r16
 7b6:	1f 93       	push	r17
 7b8:	cf 93       	push	r28
 7ba:	df 93       	push	r29
 7bc:	00 d0       	rcall	.+0      	; 0x7be <DisplaySendString+0xe>
 7be:	00 d0       	rcall	.+0      	; 0x7c0 <DisplaySendString+0x10>
 7c0:	cd b7       	in	r28, 0x3d	; 61
 7c2:	de b7       	in	r29, 0x3e	; 62
 7c4:	de 01       	movw	r26, r28
 7c6:	a2 0f       	add	r26, r18
 7c8:	b1 1d       	adc	r27, r1
 7ca:	7a 01       	movw	r14, r20
 7cc:	0e c0       	rjmp	.+28     	; 0x7ea <DisplaySendString+0x3a>
 7ce:	f7 01       	movw	r30, r14
 7d0:	91 91       	ld	r25, Z+
 7d2:	7f 01       	movw	r14, r30
 7d4:	09 2f       	mov	r16, r25
 7d6:	01 54       	subi	r16, 0x41	; 65
 7d8:	06 32       	cpi	r16, 0x26	; 38
 7da:	28 f4       	brcc	.+10     	; 0x7e6 <DisplaySendString+0x36>
 7dc:	10 e0       	ldi	r17, 0x00	; 0
 7de:	05 59       	subi	r16, 0x95	; 149
 7e0:	1f 4f       	sbci	r17, 0xFF	; 255
 7e2:	f8 01       	movw	r30, r16
 7e4:	90 81       	ld	r25, Z
 7e6:	9c 93       	st	X, r25
 7e8:	11 97       	sbiw	r26, 0x01	; 1
 7ea:	9e 2d       	mov	r25, r14
 7ec:	94 1b       	sub	r25, r20
 7ee:	92 17       	cp	r25, r18
 7f0:	70 f3       	brcs	.-36     	; 0x7ce <DisplaySendString+0x1e>
 7f2:	ae 01       	movw	r20, r28
 7f4:	4f 5f       	subi	r20, 0xFF	; 255
 7f6:	5f 4f       	sbci	r21, 0xFF	; 255
 7f8:	b5 df       	rcall	.-150    	; 0x764 <Segment7SendString>
 7fa:	0f 90       	pop	r0
 7fc:	0f 90       	pop	r0
 7fe:	0f 90       	pop	r0
 800:	0f 90       	pop	r0
 802:	df 91       	pop	r29
 804:	cf 91       	pop	r28
 806:	1f 91       	pop	r17
 808:	0f 91       	pop	r16
 80a:	ff 90       	pop	r15
 80c:	ef 90       	pop	r14
 80e:	08 95       	ret

00000810 <Eeprom_Write_Block>:
 810:	90 91 c4 00 	lds	r25, 0x00C4
 814:	99 23       	and	r25, r25
 816:	c9 f4       	brne	.+50     	; 0x84a <Eeprom_Write_Block+0x3a>
 818:	43 33       	cpi	r20, 0x33	; 51
 81a:	c8 f4       	brcc	.+50     	; 0x84e <Eeprom_Write_Block+0x3e>
 81c:	91 e0       	ldi	r25, 0x01	; 1
 81e:	90 93 c4 00 	sts	0x00C4, r25
 822:	a5 ec       	ldi	r26, 0xC5	; 197
 824:	b0 e0       	ldi	r27, 0x00	; 0
 826:	fb 01       	movw	r30, r22
 828:	02 c0       	rjmp	.+4      	; 0x82e <Eeprom_Write_Block+0x1e>
 82a:	91 91       	ld	r25, Z+
 82c:	9d 93       	st	X+, r25
 82e:	9e 2f       	mov	r25, r30
 830:	96 1b       	sub	r25, r22
 832:	94 17       	cp	r25, r20
 834:	d0 f3       	brcs	.-12     	; 0x82a <Eeprom_Write_Block+0x1a>
 836:	40 93 f7 00 	sts	0x00F7, r20
 83a:	80 93 f8 00 	sts	0x00F8, r24
 83e:	30 93 fa 00 	sts	0x00FA, r19
 842:	20 93 f9 00 	sts	0x00F9, r18
 846:	81 e0       	ldi	r24, 0x01	; 1
 848:	08 95       	ret
 84a:	80 e0       	ldi	r24, 0x00	; 0
 84c:	08 95       	ret
 84e:	80 e0       	ldi	r24, 0x00	; 0
 850:	08 95       	ret

00000852 <Eeprom_Read_Block>:
 852:	ef 92       	push	r14
 854:	ff 92       	push	r15
 856:	0f 93       	push	r16
 858:	1f 93       	push	r17
 85a:	cf 93       	push	r28
 85c:	df 93       	push	r29
 85e:	0f 92       	push	r0
 860:	cd b7       	in	r28, 0x3d	; 61
 862:	de b7       	in	r29, 0x3e	; 62
 864:	18 2f       	mov	r17, r24
 866:	7b 01       	movw	r14, r22
 868:	80 91 c4 00 	lds	r24, 0x00C4
 86c:	88 23       	and	r24, r24
 86e:	71 f0       	breq	.+28     	; 0x88c <Eeprom_Read_Block+0x3a>
 870:	80 e0       	ldi	r24, 0x00	; 0
 872:	10 c0       	rjmp	.+32     	; 0x894 <Eeprom_Read_Block+0x42>
 874:	b7 01       	movw	r22, r14
 876:	60 0f       	add	r22, r16
 878:	71 1d       	adc	r23, r1
 87a:	80 2f       	mov	r24, r16
 87c:	81 0f       	add	r24, r17
 87e:	49 83       	std	Y+1, r20	; 0x01
 880:	2f d2       	rcall	.+1118   	; 0xce0 <HWIeeprom_Read>
 882:	49 81       	ldd	r20, Y+1	; 0x01
 884:	81 30       	cpi	r24, 0x01	; 1
 886:	19 f4       	brne	.+6      	; 0x88e <Eeprom_Read_Block+0x3c>
 888:	0f 5f       	subi	r16, 0xFF	; 255
 88a:	01 c0       	rjmp	.+2      	; 0x88e <Eeprom_Read_Block+0x3c>
 88c:	00 e0       	ldi	r16, 0x00	; 0
 88e:	04 17       	cp	r16, r20
 890:	88 f3       	brcs	.-30     	; 0x874 <Eeprom_Read_Block+0x22>
 892:	81 e0       	ldi	r24, 0x01	; 1
 894:	0f 90       	pop	r0
 896:	df 91       	pop	r29
 898:	cf 91       	pop	r28
 89a:	1f 91       	pop	r17
 89c:	0f 91       	pop	r16
 89e:	ff 90       	pop	r15
 8a0:	ef 90       	pop	r14
 8a2:	08 95       	ret

000008a4 <EepromManage>:
 8a4:	80 91 c4 00 	lds	r24, 0x00C4
 8a8:	81 30       	cpi	r24, 0x01	; 1
 8aa:	11 f5       	brne	.+68     	; 0x8f0 <EepromManage+0x4c>
 8ac:	80 91 fb 00 	lds	r24, 0x00FB
 8b0:	90 91 f7 00 	lds	r25, 0x00F7
 8b4:	89 17       	cp	r24, r25
 8b6:	61 f4       	brne	.+24     	; 0x8d0 <EepromManage+0x2c>
 8b8:	10 92 fb 00 	sts	0x00FB, r1
 8bc:	10 92 c4 00 	sts	0x00C4, r1
 8c0:	e0 91 f9 00 	lds	r30, 0x00F9
 8c4:	f0 91 fa 00 	lds	r31, 0x00FA
 8c8:	30 97       	sbiw	r30, 0x00	; 0
 8ca:	91 f0       	breq	.+36     	; 0x8f0 <EepromManage+0x4c>
 8cc:	09 95       	icall
 8ce:	08 95       	ret
 8d0:	90 91 f8 00 	lds	r25, 0x00F8
 8d4:	e8 2f       	mov	r30, r24
 8d6:	f0 e0       	ldi	r31, 0x00	; 0
 8d8:	eb 53       	subi	r30, 0x3B	; 59
 8da:	ff 4f       	sbci	r31, 0xFF	; 255
 8dc:	89 0f       	add	r24, r25
 8de:	60 81       	ld	r22, Z
 8e0:	f3 d1       	rcall	.+998    	; 0xcc8 <HWIeeprom_Write>
 8e2:	81 30       	cpi	r24, 0x01	; 1
 8e4:	29 f4       	brne	.+10     	; 0x8f0 <EepromManage+0x4c>
 8e6:	80 91 fb 00 	lds	r24, 0x00FB
 8ea:	8f 5f       	subi	r24, 0xFF	; 255
 8ec:	80 93 fb 00 	sts	0x00FB, r24
 8f0:	08 95       	ret

000008f2 <KeyInitialize>:
 8f2:	86 e0       	ldi	r24, 0x06	; 6
 8f4:	ec ef       	ldi	r30, 0xFC	; 252
 8f6:	f0 e0       	ldi	r31, 0x00	; 0
 8f8:	df 01       	movw	r26, r30
 8fa:	1d 92       	st	X+, r1
 8fc:	8a 95       	dec	r24
 8fe:	e9 f7       	brne	.-6      	; 0x8fa <KeyInitialize+0x8>
 900:	08 95       	ret

00000902 <GetKeyStatus>:
 902:	90 e0       	ldi	r25, 0x00	; 0
 904:	fc 01       	movw	r30, r24
 906:	ee 0f       	add	r30, r30
 908:	ff 1f       	adc	r31, r31
 90a:	e8 0f       	add	r30, r24
 90c:	f9 1f       	adc	r31, r25
 90e:	e4 50       	subi	r30, 0x04	; 4
 910:	ff 4f       	sbci	r31, 0xFF	; 255
 912:	80 81       	ld	r24, Z
 914:	98 2f       	mov	r25, r24
 916:	9f 73       	andi	r25, 0x3F	; 63
 918:	90 83       	st	Z, r25
 91a:	08 95       	ret

0000091c <MangeKeys>:
 91c:	ef 92       	push	r14
 91e:	ff 92       	push	r15
 920:	0f 93       	push	r16
 922:	1f 93       	push	r17
 924:	cf 93       	push	r28
 926:	df 93       	push	r29
 928:	0f 92       	push	r0
 92a:	cd b7       	in	r28, 0x3d	; 61
 92c:	de b7       	in	r29, 0x3e	; 62
 92e:	90 e0       	ldi	r25, 0x00	; 0
 930:	7c 01       	movw	r14, r24
 932:	ee 0c       	add	r14, r14
 934:	ff 1c       	adc	r15, r15
 936:	e8 0e       	add	r14, r24
 938:	f9 1e       	adc	r15, r25
 93a:	2c ef       	ldi	r18, 0xFC	; 252
 93c:	30 e0       	ldi	r19, 0x00	; 0
 93e:	e2 0e       	add	r14, r18
 940:	f3 1e       	adc	r15, r19
 942:	f7 01       	movw	r30, r14
 944:	20 81       	ld	r18, Z
 946:	2f 73       	andi	r18, 0x3F	; 63
 948:	8c 01       	movw	r16, r24
 94a:	43 e0       	ldi	r20, 0x03	; 3
 94c:	00 0f       	add	r16, r16
 94e:	11 1f       	adc	r17, r17
 950:	4a 95       	dec	r20
 952:	e1 f7       	brne	.-8      	; 0x94c <MangeKeys+0x30>
 954:	0b 57       	subi	r16, 0x7B	; 123
 956:	1f 4f       	sbci	r17, 0xFF	; 255
 958:	f8 01       	movw	r30, r16
 95a:	80 81       	ld	r24, Z
 95c:	29 83       	std	Y+1, r18	; 0x01
 95e:	d3 d1       	rcall	.+934    	; 0xd06 <HWI_DIGI_READ>
 960:	29 81       	ldd	r18, Y+1	; 0x01
 962:	21 30       	cpi	r18, 0x01	; 1
 964:	f9 f0       	breq	.+62     	; 0x9a4 <MangeKeys+0x88>
 966:	21 30       	cpi	r18, 0x01	; 1
 968:	20 f0       	brcs	.+8      	; 0x972 <MangeKeys+0x56>
 96a:	22 30       	cpi	r18, 0x02	; 2
 96c:	09 f0       	breq	.+2      	; 0x970 <MangeKeys+0x54>
 96e:	5c c0       	rjmp	.+184    	; 0xa28 <MangeKeys+0x10c>
 970:	46 c0       	rjmp	.+140    	; 0x9fe <MangeKeys+0xe2>
 972:	f8 01       	movw	r30, r16
 974:	91 81       	ldd	r25, Z+1	; 0x01
 976:	f7 01       	movw	r30, r14
 978:	98 17       	cp	r25, r24
 97a:	89 f4       	brne	.+34     	; 0x99e <MangeKeys+0x82>
 97c:	81 81       	ldd	r24, Z+1	; 0x01
 97e:	92 81       	ldd	r25, Z+2	; 0x02
 980:	01 96       	adiw	r24, 0x01	; 1
 982:	92 83       	std	Z+2, r25	; 0x02
 984:	81 83       	std	Z+1, r24	; 0x01
 986:	f8 01       	movw	r30, r16
 988:	24 81       	ldd	r18, Z+4	; 0x04
 98a:	35 81       	ldd	r19, Z+5	; 0x05
 98c:	28 17       	cp	r18, r24
 98e:	39 07       	cpc	r19, r25
 990:	09 f0       	breq	.+2      	; 0x994 <MangeKeys+0x78>
 992:	4c c0       	rjmp	.+152    	; 0xa2c <MangeKeys+0x110>
 994:	81 e8       	ldi	r24, 0x81	; 129
 996:	f7 01       	movw	r30, r14
 998:	80 83       	st	Z, r24
 99a:	f8 01       	movw	r30, r16
 99c:	34 c0       	rjmp	.+104    	; 0xa06 <MangeKeys+0xea>
 99e:	12 82       	std	Z+2, r1	; 0x02
 9a0:	11 82       	std	Z+1, r1	; 0x01
 9a2:	44 c0       	rjmp	.+136    	; 0xa2c <MangeKeys+0x110>
 9a4:	f8 01       	movw	r30, r16
 9a6:	91 81       	ldd	r25, Z+1	; 0x01
 9a8:	f7 01       	movw	r30, r14
 9aa:	21 81       	ldd	r18, Z+1	; 0x01
 9ac:	32 81       	ldd	r19, Z+2	; 0x02
 9ae:	f8 01       	movw	r30, r16
 9b0:	42 81       	ldd	r20, Z+2	; 0x02
 9b2:	53 81       	ldd	r21, Z+3	; 0x03
 9b4:	98 17       	cp	r25, r24
 9b6:	b1 f4       	brne	.+44     	; 0x9e4 <MangeKeys+0xc8>
 9b8:	24 17       	cp	r18, r20
 9ba:	35 07       	cpc	r19, r21
 9bc:	78 f0       	brcs	.+30     	; 0x9dc <MangeKeys+0xc0>
 9be:	2f 5f       	subi	r18, 0xFF	; 255
 9c0:	3f 4f       	sbci	r19, 0xFF	; 255
 9c2:	f7 01       	movw	r30, r14
 9c4:	32 83       	std	Z+2, r19	; 0x02
 9c6:	21 83       	std	Z+1, r18	; 0x01
 9c8:	f8 01       	movw	r30, r16
 9ca:	86 81       	ldd	r24, Z+6	; 0x06
 9cc:	97 81       	ldd	r25, Z+7	; 0x07
 9ce:	82 17       	cp	r24, r18
 9d0:	93 07       	cpc	r25, r19
 9d2:	61 f5       	brne	.+88     	; 0xa2c <MangeKeys+0x110>
 9d4:	82 e8       	ldi	r24, 0x82	; 130
 9d6:	f7 01       	movw	r30, r14
 9d8:	80 83       	st	Z, r24
 9da:	01 c0       	rjmp	.+2      	; 0x9de <MangeKeys+0xc2>
 9dc:	f7 01       	movw	r30, r14
 9de:	52 83       	std	Z+2, r21	; 0x02
 9e0:	41 83       	std	Z+1, r20	; 0x01
 9e2:	24 c0       	rjmp	.+72     	; 0xa2c <MangeKeys+0x110>
 9e4:	42 17       	cp	r20, r18
 9e6:	53 07       	cpc	r21, r19
 9e8:	c8 f3       	brcs	.-14     	; 0x9dc <MangeKeys+0xc0>
 9ea:	21 50       	subi	r18, 0x01	; 1
 9ec:	30 40       	sbci	r19, 0x00	; 0
 9ee:	f7 01       	movw	r30, r14
 9f0:	32 83       	std	Z+2, r19	; 0x02
 9f2:	21 83       	std	Z+1, r18	; 0x01
 9f4:	21 15       	cp	r18, r1
 9f6:	31 05       	cpc	r19, r1
 9f8:	c9 f4       	brne	.+50     	; 0xa2c <MangeKeys+0x110>
 9fa:	80 e4       	ldi	r24, 0x40	; 64
 9fc:	13 c0       	rjmp	.+38     	; 0xa24 <MangeKeys+0x108>
 9fe:	f8 01       	movw	r30, r16
 a00:	91 81       	ldd	r25, Z+1	; 0x01
 a02:	98 17       	cp	r25, r24
 a04:	31 f4       	brne	.+12     	; 0xa12 <MangeKeys+0xf6>
 a06:	82 81       	ldd	r24, Z+2	; 0x02
 a08:	93 81       	ldd	r25, Z+3	; 0x03
 a0a:	f7 01       	movw	r30, r14
 a0c:	92 83       	std	Z+2, r25	; 0x02
 a0e:	81 83       	std	Z+1, r24	; 0x01
 a10:	0d c0       	rjmp	.+26     	; 0xa2c <MangeKeys+0x110>
 a12:	f7 01       	movw	r30, r14
 a14:	81 81       	ldd	r24, Z+1	; 0x01
 a16:	92 81       	ldd	r25, Z+2	; 0x02
 a18:	01 97       	sbiw	r24, 0x01	; 1
 a1a:	92 83       	std	Z+2, r25	; 0x02
 a1c:	81 83       	std	Z+1, r24	; 0x01
 a1e:	00 97       	sbiw	r24, 0x00	; 0
 a20:	29 f4       	brne	.+10     	; 0xa2c <MangeKeys+0x110>
 a22:	80 e8       	ldi	r24, 0x80	; 128
 a24:	80 83       	st	Z, r24
 a26:	02 c0       	rjmp	.+4      	; 0xa2c <MangeKeys+0x110>
 a28:	f7 01       	movw	r30, r14
 a2a:	10 82       	st	Z, r1
 a2c:	0f 90       	pop	r0
 a2e:	df 91       	pop	r29
 a30:	cf 91       	pop	r28
 a32:	1f 91       	pop	r17
 a34:	0f 91       	pop	r16
 a36:	ff 90       	pop	r15
 a38:	ef 90       	pop	r14
 a3a:	08 95       	ret

00000a3c <SpeedCalcNotifyInitialize>:
 a3c:	08 95       	ret

00000a3e <SensorOneNotify>:
 a3e:	80 91 06 01 	lds	r24, 0x0106
 a42:	81 30       	cpi	r24, 0x01	; 1
 a44:	19 f4       	brne	.+6      	; 0xa4c <SensorOneNotify+0xe>
 a46:	10 92 06 01 	sts	0x0106, r1
 a4a:	08 95       	ret
 a4c:	80 91 05 01 	lds	r24, 0x0105
 a50:	88 23       	and	r24, r24
 a52:	29 f0       	breq	.+10     	; 0xa5e <SensorOneNotify+0x20>
 a54:	80 91 05 01 	lds	r24, 0x0105
 a58:	81 50       	subi	r24, 0x01	; 1
 a5a:	80 93 05 01 	sts	0x0105, r24
 a5e:	08 95       	ret

00000a60 <SensorTwoNotify>:
 a60:	80 91 06 01 	lds	r24, 0x0106
 a64:	88 23       	and	r24, r24
 a66:	a9 f4       	brne	.+42     	; 0xa92 <SensorTwoNotify+0x32>
 a68:	81 e0       	ldi	r24, 0x01	; 1
 a6a:	80 93 06 01 	sts	0x0106, r24
 a6e:	80 91 05 01 	lds	r24, 0x0105
 a72:	8f 5f       	subi	r24, 0xFF	; 255
 a74:	80 93 05 01 	sts	0x0105, r24
 a78:	81 e0       	ldi	r24, 0x01	; 1
 a7a:	9f d1       	rcall	.+830    	; 0xdba <ReloadHWtimer>
 a7c:	90 93 04 01 	sts	0x0104, r25
 a80:	80 93 03 01 	sts	0x0103, r24
 a84:	80 91 02 01 	lds	r24, 0x0102
 a88:	80 93 07 01 	sts	0x0107, r24
 a8c:	10 92 02 01 	sts	0x0102, r1
 a90:	08 95       	ret
 a92:	80 91 05 01 	lds	r24, 0x0105
 a96:	88 23       	and	r24, r24
 a98:	29 f0       	breq	.+10     	; 0xaa4 <SensorTwoNotify+0x44>
 a9a:	80 91 05 01 	lds	r24, 0x0105
 a9e:	81 50       	subi	r24, 0x01	; 1
 aa0:	80 93 05 01 	sts	0x0105, r24
 aa4:	08 95       	ret

00000aa6 <SpeedCalcManage>:
 aa6:	cf 93       	push	r28
 aa8:	df 93       	push	r29
 aaa:	40 91 03 01 	lds	r20, 0x0103
 aae:	50 91 04 01 	lds	r21, 0x0104
 ab2:	20 91 07 01 	lds	r18, 0x0107
 ab6:	30 e0       	ldi	r19, 0x00	; 0
 ab8:	8f e8       	ldi	r24, 0x8F	; 143
 aba:	92 e0       	ldi	r25, 0x02	; 2
 abc:	28 9f       	mul	r18, r24
 abe:	f0 01       	movw	r30, r0
 ac0:	29 9f       	mul	r18, r25
 ac2:	f0 0d       	add	r31, r0
 ac4:	38 9f       	mul	r19, r24
 ac6:	f0 0d       	add	r31, r0
 ac8:	11 24       	eor	r1, r1
 aca:	ca 01       	movw	r24, r20
 acc:	64 e6       	ldi	r22, 0x64	; 100
 ace:	70 e0       	ldi	r23, 0x00	; 0
 ad0:	5e d2       	rcall	.+1212   	; 0xf8e <__udivmodhi4>
 ad2:	e6 0f       	add	r30, r22
 ad4:	f7 1f       	adc	r31, r23
 ad6:	f0 93 09 01 	sts	0x0109, r31
 ada:	e0 93 08 01 	sts	0x0108, r30
 ade:	80 91 05 01 	lds	r24, 0x0105
 ae2:	c0 91 0a 01 	lds	r28, 0x010A
 ae6:	d0 91 0b 01 	lds	r29, 0x010B
 aea:	c8 0f       	add	r28, r24
 aec:	d1 1d       	adc	r29, r1
 aee:	d0 93 0b 01 	sts	0x010B, r29
 af2:	c0 93 0a 01 	sts	0x010A, r28
 af6:	10 92 05 01 	sts	0x0105, r1
 afa:	20 91 95 00 	lds	r18, 0x0095
 afe:	30 91 96 00 	lds	r19, 0x0096
 b02:	40 e0       	ldi	r20, 0x00	; 0
 b04:	50 e0       	ldi	r21, 0x00	; 0
 b06:	60 ea       	ldi	r22, 0xA0	; 160
 b08:	76 e8       	ldi	r23, 0x86	; 134
 b0a:	81 e0       	ldi	r24, 0x01	; 1
 b0c:	90 e0       	ldi	r25, 0x00	; 0
 b0e:	53 d2       	rcall	.+1190   	; 0xfb6 <__udivmodsi4>
 b10:	c2 17       	cp	r28, r18
 b12:	d3 07       	cpc	r29, r19
 b14:	c8 f0       	brcs	.+50     	; 0xb48 <SpeedCalcManage+0xa2>
 b16:	80 91 0c 01 	lds	r24, 0x010C
 b1a:	90 91 0d 01 	lds	r25, 0x010D
 b1e:	a0 91 0e 01 	lds	r26, 0x010E
 b22:	b0 91 0f 01 	lds	r27, 0x010F
 b26:	01 96       	adiw	r24, 0x01	; 1
 b28:	a1 1d       	adc	r26, r1
 b2a:	b1 1d       	adc	r27, r1
 b2c:	80 93 0c 01 	sts	0x010C, r24
 b30:	90 93 0d 01 	sts	0x010D, r25
 b34:	a0 93 0e 01 	sts	0x010E, r26
 b38:	b0 93 0f 01 	sts	0x010F, r27
 b3c:	c2 1b       	sub	r28, r18
 b3e:	d3 0b       	sbc	r29, r19
 b40:	d0 93 0b 01 	sts	0x010B, r29
 b44:	c0 93 0a 01 	sts	0x010A, r28
 b48:	df 91       	pop	r29
 b4a:	cf 91       	pop	r28
 b4c:	08 95       	ret

00000b4e <SetDistance>:
 b4e:	dc 01       	movw	r26, r24
 b50:	cb 01       	movw	r24, r22
 b52:	80 93 0c 01 	sts	0x010C, r24
 b56:	90 93 0d 01 	sts	0x010D, r25
 b5a:	a0 93 0e 01 	sts	0x010E, r26
 b5e:	b0 93 0f 01 	sts	0x010F, r27
 b62:	08 95       	ret

00000b64 <GetDistance>:
 b64:	60 91 0c 01 	lds	r22, 0x010C
 b68:	70 91 0d 01 	lds	r23, 0x010D
 b6c:	80 91 0e 01 	lds	r24, 0x010E
 b70:	90 91 0f 01 	lds	r25, 0x010F
 b74:	08 95       	ret

00000b76 <SetCircumfirunce>:
 b76:	90 93 96 00 	sts	0x0096, r25
 b7a:	80 93 95 00 	sts	0x0095, r24
 b7e:	08 95       	ret

00000b80 <GetAvgSpeed>:
 b80:	cf 93       	push	r28
 b82:	df 93       	push	r29
 b84:	81 30       	cpi	r24, 0x01	; 1
 b86:	29 f4       	brne	.+10     	; 0xb92 <GetAvgSpeed+0x12>
 b88:	68 e6       	ldi	r22, 0x68	; 104
 b8a:	71 e0       	ldi	r23, 0x01	; 1
 b8c:	80 e0       	ldi	r24, 0x00	; 0
 b8e:	90 e0       	ldi	r25, 0x00	; 0
 b90:	04 c0       	rjmp	.+8      	; 0xb9a <GetAvgSpeed+0x1a>
 b92:	61 ee       	ldi	r22, 0xE1	; 225
 b94:	70 e0       	ldi	r23, 0x00	; 0
 b96:	80 e0       	ldi	r24, 0x00	; 0
 b98:	90 e0       	ldi	r25, 0x00	; 0
 b9a:	c0 91 08 01 	lds	r28, 0x0108
 b9e:	d0 91 09 01 	lds	r29, 0x0109
 ba2:	20 97       	sbiw	r28, 0x00	; 0
 ba4:	69 f0       	breq	.+26     	; 0xbc0 <GetAvgSpeed+0x40>
 ba6:	20 91 95 00 	lds	r18, 0x0095
 baa:	30 91 96 00 	lds	r19, 0x0096
 bae:	40 e0       	ldi	r20, 0x00	; 0
 bb0:	50 e0       	ldi	r21, 0x00	; 0
 bb2:	ce d1       	rcall	.+924    	; 0xf50 <__mulsi3>
 bb4:	9e 01       	movw	r18, r28
 bb6:	40 e0       	ldi	r20, 0x00	; 0
 bb8:	50 e0       	ldi	r21, 0x00	; 0
 bba:	fd d1       	rcall	.+1018   	; 0xfb6 <__udivmodsi4>
 bbc:	c9 01       	movw	r24, r18
 bbe:	02 c0       	rjmp	.+4      	; 0xbc4 <GetAvgSpeed+0x44>
 bc0:	80 e0       	ldi	r24, 0x00	; 0
 bc2:	90 e0       	ldi	r25, 0x00	; 0
 bc4:	20 91 02 01 	lds	r18, 0x0102
 bc8:	20 34       	cpi	r18, 0x40	; 64
 bca:	11 f4       	brne	.+4      	; 0xbd0 <GetAvgSpeed+0x50>
 bcc:	80 e0       	ldi	r24, 0x00	; 0
 bce:	90 e0       	ldi	r25, 0x00	; 0
 bd0:	df 91       	pop	r29
 bd2:	cf 91       	pop	r28
 bd4:	08 95       	ret

00000bd6 <HWtimerCallback>:
 bd6:	80 91 02 01 	lds	r24, 0x0102
 bda:	80 34       	cpi	r24, 0x40	; 64
 bdc:	28 f4       	brcc	.+10     	; 0xbe8 <HWtimerCallback+0x12>
 bde:	80 91 02 01 	lds	r24, 0x0102
 be2:	8f 5f       	subi	r24, 0xFF	; 255
 be4:	80 93 02 01 	sts	0x0102, r24
 be8:	08 95       	ret

00000bea <APP_ISR1>:
 bea:	29 df       	rcall	.-430    	; 0xa3e <SensorOneNotify>
 bec:	08 95       	ret

00000bee <APP_ISR2>:
 bee:	38 df       	rcall	.-400    	; 0xa60 <SensorTwoNotify>
 bf0:	08 95       	ret

00000bf2 <APP_ISR3>:
 bf2:	f1 df       	rcall	.-30     	; 0xbd6 <HWtimerCallback>
 bf4:	08 95       	ret

00000bf6 <ManageDrivers>:
 bf6:	80 e0       	ldi	r24, 0x00	; 0
 bf8:	91 de       	rcall	.-734    	; 0x91c <MangeKeys>
 bfa:	81 e0       	ldi	r24, 0x01	; 1
 bfc:	8f de       	rcall	.-738    	; 0x91c <MangeKeys>
 bfe:	52 de       	rcall	.-860    	; 0x8a4 <EepromManage>
 c00:	08 95       	ret

00000c02 <ManageSpeedCalc>:
 c02:	51 df       	rcall	.-350    	; 0xaa6 <SpeedCalcManage>
 c04:	08 95       	ret

00000c06 <ManageApplication>:
 c06:	05 db       	rcall	.-2550   	; 0x212 <APP_MANAGE>
 c08:	08 95       	ret

00000c0a <DisplayAlphaNumeric>:
 c0a:	47 dd       	rcall	.-1394   	; 0x69a <BCDManage7segment>
 c0c:	08 95       	ret

00000c0e <Start_App>:
 c0e:	8a d1       	rcall	.+788    	; 0xf24 <HWI_InitOscilatorCalib>
 c10:	b1 d0       	rcall	.+354    	; 0xd74 <HWI_INTERRUPTS_INTITALIZE>
 c12:	73 d0       	rcall	.+230    	; 0xcfa <HWI_DIGITAL_INITIALIZE>
 c14:	13 df       	rcall	.-474    	; 0xa3c <SpeedCalcNotifyInitialize>
 c16:	a2 da       	rcall	.-2748   	; 0x15c <APP_INITIALIZE>
 c18:	81 e0       	ldi	r24, 0x01	; 1
 c1a:	a0 dc       	rcall	.-1728   	; 0x55c <BCDInitialize>
 c1c:	81 e0       	ldi	r24, 0x01	; 1
 c1e:	96 e0       	ldi	r25, 0x06	; 6
 c20:	60 e0       	ldi	r22, 0x00	; 0
 c22:	44 e1       	ldi	r20, 0x14	; 20
 c24:	11 d0       	rcall	.+34     	; 0xc48 <CreateTask>
 c26:	83 e0       	ldi	r24, 0x03	; 3
 c28:	96 e0       	ldi	r25, 0x06	; 6
 c2a:	62 e0       	ldi	r22, 0x02	; 2
 c2c:	42 e3       	ldi	r20, 0x32	; 50
 c2e:	0c d0       	rcall	.+24     	; 0xc48 <CreateTask>
 c30:	85 e0       	ldi	r24, 0x05	; 5
 c32:	96 e0       	ldi	r25, 0x06	; 6
 c34:	61 e0       	ldi	r22, 0x01	; 1
 c36:	42 e0       	ldi	r20, 0x02	; 2
 c38:	07 d0       	rcall	.+14     	; 0xc48 <CreateTask>
 c3a:	8b ef       	ldi	r24, 0xFB	; 251
 c3c:	95 e0       	ldi	r25, 0x05	; 5
 c3e:	63 e0       	ldi	r22, 0x03	; 3
 c40:	4a e0       	ldi	r20, 0x0A	; 10
 c42:	02 d0       	rcall	.+4      	; 0xc48 <CreateTask>
 c44:	1b d0       	rcall	.+54     	; 0xc7c <RunScheduler>
 c46:	08 95       	ret

00000c48 <CreateTask>:
 c48:	64 30       	cpi	r22, 0x04	; 4
 c4a:	60 f4       	brcc	.+24     	; 0xc64 <CreateTask+0x1c>
 c4c:	e6 2f       	mov	r30, r22
 c4e:	f0 e0       	ldi	r31, 0x00	; 0
 c50:	ee 0f       	add	r30, r30
 c52:	ff 1f       	adc	r31, r31
 c54:	ee 0f       	add	r30, r30
 c56:	ff 1f       	adc	r31, r31
 c58:	e0 5f       	subi	r30, 0xF0	; 240
 c5a:	fe 4f       	sbci	r31, 0xFE	; 254
 c5c:	91 83       	std	Z+1, r25	; 0x01
 c5e:	80 83       	st	Z, r24
 c60:	42 83       	std	Z+2, r20	; 0x02
 c62:	13 82       	std	Z+3, r1	; 0x03
 c64:	08 95       	ret

00000c66 <SchedulerTick>:
 c66:	e3 e1       	ldi	r30, 0x13	; 19
 c68:	f1 e0       	ldi	r31, 0x01	; 1
 c6a:	84 e0       	ldi	r24, 0x04	; 4
 c6c:	90 81       	ld	r25, Z
 c6e:	9f 5f       	subi	r25, 0xFF	; 255
 c70:	90 83       	st	Z, r25
 c72:	81 50       	subi	r24, 0x01	; 1
 c74:	34 96       	adiw	r30, 0x04	; 4
 c76:	88 23       	and	r24, r24
 c78:	c9 f7       	brne	.-14     	; 0xc6c <SchedulerTick+0x6>
 c7a:	08 95       	ret

00000c7c <RunScheduler>:
 c7c:	10 92 20 01 	sts	0x0120, r1
 c80:	1e c0       	rjmp	.+60     	; 0xcbe <RunScheduler+0x42>
 c82:	f0 e0       	ldi	r31, 0x00	; 0
 c84:	ee 0f       	add	r30, r30
 c86:	ff 1f       	adc	r31, r31
 c88:	ee 0f       	add	r30, r30
 c8a:	ff 1f       	adc	r31, r31
 c8c:	e0 5f       	subi	r30, 0xF0	; 240
 c8e:	fe 4f       	sbci	r31, 0xFE	; 254
 c90:	92 81       	ldd	r25, Z+2	; 0x02
 c92:	83 81       	ldd	r24, Z+3	; 0x03
 c94:	89 17       	cp	r24, r25
 c96:	70 f0       	brcs	.+28     	; 0xcb4 <RunScheduler+0x38>
 c98:	01 90       	ld	r0, Z+
 c9a:	f0 81       	ld	r31, Z
 c9c:	e0 2d       	mov	r30, r0
 c9e:	09 95       	icall
 ca0:	e0 91 20 01 	lds	r30, 0x0120
 ca4:	f0 e0       	ldi	r31, 0x00	; 0
 ca6:	ee 0f       	add	r30, r30
 ca8:	ff 1f       	adc	r31, r31
 caa:	ee 0f       	add	r30, r30
 cac:	ff 1f       	adc	r31, r31
 cae:	e0 5f       	subi	r30, 0xF0	; 240
 cb0:	fe 4f       	sbci	r31, 0xFE	; 254
 cb2:	13 82       	std	Z+3, r1	; 0x03
 cb4:	80 91 20 01 	lds	r24, 0x0120
 cb8:	8f 5f       	subi	r24, 0xFF	; 255
 cba:	80 93 20 01 	sts	0x0120, r24
 cbe:	e0 91 20 01 	lds	r30, 0x0120
 cc2:	e4 30       	cpi	r30, 0x04	; 4
 cc4:	d8 f6       	brcc	.-74     	; 0xc7c <RunScheduler>
 cc6:	dd cf       	rjmp	.-70     	; 0xc82 <RunScheduler+0x6>

00000cc8 <HWIeeprom_Write>:
 cc8:	e1 99       	sbic	0x1c, 1	; 28
 cca:	08 c0       	rjmp	.+16     	; 0xcdc <HWIeeprom_Write+0x14>
 ccc:	90 e0       	ldi	r25, 0x00	; 0
 cce:	9f bb       	out	0x1f, r25	; 31
 cd0:	8e bb       	out	0x1e, r24	; 30
 cd2:	6d bb       	out	0x1d, r22	; 29
 cd4:	e2 9a       	sbi	0x1c, 2	; 28
 cd6:	e1 9a       	sbi	0x1c, 1	; 28
 cd8:	81 e0       	ldi	r24, 0x01	; 1
 cda:	08 95       	ret
 cdc:	80 e0       	ldi	r24, 0x00	; 0
 cde:	08 95       	ret

00000ce0 <HWIeeprom_Read>:
 ce0:	e1 99       	sbic	0x1c, 1	; 28
 ce2:	09 c0       	rjmp	.+18     	; 0xcf6 <HWIeeprom_Read+0x16>
 ce4:	90 e0       	ldi	r25, 0x00	; 0
 ce6:	9f bb       	out	0x1f, r25	; 31
 ce8:	8e bb       	out	0x1e, r24	; 30
 cea:	e0 9a       	sbi	0x1c, 0	; 28
 cec:	8d b3       	in	r24, 0x1d	; 29
 cee:	fb 01       	movw	r30, r22
 cf0:	80 83       	st	Z, r24
 cf2:	81 e0       	ldi	r24, 0x01	; 1
 cf4:	08 95       	ret
 cf6:	80 e0       	ldi	r24, 0x00	; 0
 cf8:	08 95       	ret

00000cfa <HWI_DIGITAL_INITIALIZE>:
 cfa:	8f ef       	ldi	r24, 0xFF	; 255
 cfc:	87 bb       	out	0x17, r24	; 23
 cfe:	84 bb       	out	0x14, r24	; 20
 d00:	11 ba       	out	0x11, r1	; 17
 d02:	82 bb       	out	0x12, r24	; 18
 d04:	08 95       	ret

00000d06 <HWI_DIGI_READ>:
 d06:	80 31       	cpi	r24, 0x10	; 16
 d08:	39 f0       	breq	.+14     	; 0xd18 <HWI_DIGI_READ+0x12>
 d0a:	81 31       	cpi	r24, 0x11	; 17
 d0c:	41 f0       	breq	.+16     	; 0xd1e <HWI_DIGI_READ+0x18>
 d0e:	8f 30       	cpi	r24, 0x0F	; 15
 d10:	49 f4       	brne	.+18     	; 0xd24 <HWI_DIGI_READ+0x1e>
 d12:	80 b3       	in	r24, 0x10	; 16
 d14:	80 71       	andi	r24, 0x10	; 16
 d16:	08 95       	ret
 d18:	80 b3       	in	r24, 0x10	; 16
 d1a:	80 72       	andi	r24, 0x20	; 32
 d1c:	08 95       	ret
 d1e:	80 b3       	in	r24, 0x10	; 16
 d20:	80 74       	andi	r24, 0x40	; 64
 d22:	08 95       	ret
 d24:	80 e0       	ldi	r24, 0x00	; 0
 d26:	08 95       	ret

00000d28 <HWI_DIGI_WRITE>:
 d28:	08 95       	ret

00000d2a <HWI_4Digit_WRITE>:
 d2a:	88 23       	and	r24, r24
 d2c:	29 f4       	brne	.+10     	; 0xd38 <HWI_4Digit_WRITE+0xe>
 d2e:	85 b3       	in	r24, 0x15	; 21
 d30:	80 7f       	andi	r24, 0xF0	; 240
 d32:	86 2b       	or	r24, r22
 d34:	85 bb       	out	0x15, r24	; 21
 d36:	08 95       	ret
 d38:	88 b3       	in	r24, 0x18	; 24
 d3a:	80 7f       	andi	r24, 0xF0	; 240
 d3c:	86 2b       	or	r24, r22
 d3e:	88 bb       	out	0x18, r24	; 24
 d40:	08 95       	ret

00000d42 <HWI_4Digit_READ>:
 d42:	88 23       	and	r24, r24
 d44:	19 f0       	breq	.+6      	; 0xd4c <HWI_4Digit_READ+0xa>
 d46:	81 30       	cpi	r24, 0x01	; 1
 d48:	31 f4       	brne	.+12     	; 0xd56 <HWI_4Digit_READ+0x14>
 d4a:	02 c0       	rjmp	.+4      	; 0xd50 <HWI_4Digit_READ+0xe>
 d4c:	83 b3       	in	r24, 0x13	; 19
 d4e:	01 c0       	rjmp	.+2      	; 0xd52 <HWI_4Digit_READ+0x10>
 d50:	86 b3       	in	r24, 0x16	; 22
 d52:	8f 70       	andi	r24, 0x0F	; 15
 d54:	08 95       	ret
 d56:	86 b3       	in	r24, 0x16	; 22
 d58:	8f 70       	andi	r24, 0x0F	; 15
 d5a:	08 95       	ret

00000d5c <HWI_8Digit_WRITE>:
 d5c:	88 23       	and	r24, r24
 d5e:	11 f4       	brne	.+4      	; 0xd64 <HWI_8Digit_WRITE+0x8>
 d60:	65 bb       	out	0x15, r22	; 21
 d62:	08 95       	ret
 d64:	68 bb       	out	0x18, r22	; 24
 d66:	08 95       	ret

00000d68 <HWI8Digit_READ>:
 d68:	88 23       	and	r24, r24
 d6a:	11 f0       	breq	.+4      	; 0xd70 <HWI8Digit_READ+0x8>
 d6c:	86 b3       	in	r24, 0x16	; 22
 d6e:	08 95       	ret
 d70:	83 b3       	in	r24, 0x13	; 19
 d72:	08 95       	ret

00000d74 <HWI_INTERRUPTS_INTITALIZE>:
 d74:	8e b5       	in	r24, 0x2e	; 46
 d76:	82 60       	ori	r24, 0x02	; 2
 d78:	8e bd       	out	0x2e, r24	; 46
 d7a:	8f ef       	ldi	r24, 0xFF	; 255
 d7c:	9f e7       	ldi	r25, 0x7F	; 127
 d7e:	9d bd       	out	0x2d, r25	; 45
 d80:	8c bd       	out	0x2c, r24	; 44
 d82:	83 b7       	in	r24, 0x33	; 51
 d84:	83 60       	ori	r24, 0x03	; 3
 d86:	83 bf       	out	0x33, r24	; 51
 d88:	82 ec       	ldi	r24, 0xC2	; 194
 d8a:	82 bf       	out	0x32, r24	; 50
 d8c:	89 b7       	in	r24, 0x39	; 57
 d8e:	81 60       	ori	r24, 0x01	; 1
 d90:	89 bf       	out	0x39, r24	; 57
 d92:	89 b7       	in	r24, 0x39	; 57
 d94:	84 60       	ori	r24, 0x04	; 4
 d96:	89 bf       	out	0x39, r24	; 57
 d98:	8b b7       	in	r24, 0x3b	; 59
 d9a:	80 64       	ori	r24, 0x40	; 64
 d9c:	8b bf       	out	0x3b, r24	; 59
 d9e:	85 b7       	in	r24, 0x35	; 53
 da0:	83 60       	ori	r24, 0x03	; 3
 da2:	85 bf       	out	0x35, r24	; 53
 da4:	8b b7       	in	r24, 0x3b	; 59
 da6:	80 68       	ori	r24, 0x80	; 128
 da8:	8b bf       	out	0x3b, r24	; 59
 daa:	85 b7       	in	r24, 0x35	; 53
 dac:	8c 60       	ori	r24, 0x0C	; 12
 dae:	85 bf       	out	0x35, r24	; 53
 db0:	81 b3       	in	r24, 0x11	; 17
 db2:	8c 60       	ori	r24, 0x0C	; 12
 db4:	81 bb       	out	0x11, r24	; 17
 db6:	78 94       	sei
 db8:	08 95       	ret

00000dba <ReloadHWtimer>:
 dba:	83 30       	cpi	r24, 0x03	; 3
 dbc:	58 f4       	brcc	.+22     	; 0xdd4 <ReloadHWtimer+0x1a>
 dbe:	8c b5       	in	r24, 0x2c	; 44
 dc0:	9d b5       	in	r25, 0x2d	; 45
 dc2:	8f 5f       	subi	r24, 0xFF	; 255
 dc4:	9f 47       	sbci	r25, 0x7F	; 127
 dc6:	88 0f       	add	r24, r24
 dc8:	99 1f       	adc	r25, r25
 dca:	2f ef       	ldi	r18, 0xFF	; 255
 dcc:	3f e7       	ldi	r19, 0x7F	; 127
 dce:	3d bd       	out	0x2d, r19	; 45
 dd0:	2c bd       	out	0x2c, r18	; 44
 dd2:	08 95       	ret
 dd4:	80 e0       	ldi	r24, 0x00	; 0
 dd6:	90 e0       	ldi	r25, 0x00	; 0
 dd8:	08 95       	ret

00000dda <__vector_9>:
 dda:	1f 92       	push	r1
 ddc:	0f 92       	push	r0
 dde:	0f b6       	in	r0, 0x3f	; 63
 de0:	0f 92       	push	r0
 de2:	11 24       	eor	r1, r1
 de4:	2f 93       	push	r18
 de6:	3f 93       	push	r19
 de8:	4f 93       	push	r20
 dea:	5f 93       	push	r21
 dec:	6f 93       	push	r22
 dee:	7f 93       	push	r23
 df0:	8f 93       	push	r24
 df2:	9f 93       	push	r25
 df4:	af 93       	push	r26
 df6:	bf 93       	push	r27
 df8:	ef 93       	push	r30
 dfa:	ff 93       	push	r31
 dfc:	82 ec       	ldi	r24, 0xC2	; 194
 dfe:	82 bf       	out	0x32, r24	; 50
 e00:	32 df       	rcall	.-412    	; 0xc66 <SchedulerTick>
 e02:	ff 91       	pop	r31
 e04:	ef 91       	pop	r30
 e06:	bf 91       	pop	r27
 e08:	af 91       	pop	r26
 e0a:	9f 91       	pop	r25
 e0c:	8f 91       	pop	r24
 e0e:	7f 91       	pop	r23
 e10:	6f 91       	pop	r22
 e12:	5f 91       	pop	r21
 e14:	4f 91       	pop	r20
 e16:	3f 91       	pop	r19
 e18:	2f 91       	pop	r18
 e1a:	0f 90       	pop	r0
 e1c:	0f be       	out	0x3f, r0	; 63
 e1e:	0f 90       	pop	r0
 e20:	1f 90       	pop	r1
 e22:	18 95       	reti

00000e24 <__vector_8>:
 e24:	1f 92       	push	r1
 e26:	0f 92       	push	r0
 e28:	0f b6       	in	r0, 0x3f	; 63
 e2a:	0f 92       	push	r0
 e2c:	11 24       	eor	r1, r1
 e2e:	2f 93       	push	r18
 e30:	3f 93       	push	r19
 e32:	4f 93       	push	r20
 e34:	5f 93       	push	r21
 e36:	6f 93       	push	r22
 e38:	7f 93       	push	r23
 e3a:	8f 93       	push	r24
 e3c:	9f 93       	push	r25
 e3e:	af 93       	push	r26
 e40:	bf 93       	push	r27
 e42:	ef 93       	push	r30
 e44:	ff 93       	push	r31
 e46:	8f ef       	ldi	r24, 0xFF	; 255
 e48:	9f e7       	ldi	r25, 0x7F	; 127
 e4a:	9d bd       	out	0x2d, r25	; 45
 e4c:	8c bd       	out	0x2c, r24	; 44
 e4e:	d1 de       	rcall	.-606    	; 0xbf2 <APP_ISR3>
 e50:	ff 91       	pop	r31
 e52:	ef 91       	pop	r30
 e54:	bf 91       	pop	r27
 e56:	af 91       	pop	r26
 e58:	9f 91       	pop	r25
 e5a:	8f 91       	pop	r24
 e5c:	7f 91       	pop	r23
 e5e:	6f 91       	pop	r22
 e60:	5f 91       	pop	r21
 e62:	4f 91       	pop	r20
 e64:	3f 91       	pop	r19
 e66:	2f 91       	pop	r18
 e68:	0f 90       	pop	r0
 e6a:	0f be       	out	0x3f, r0	; 63
 e6c:	0f 90       	pop	r0
 e6e:	1f 90       	pop	r1
 e70:	18 95       	reti

00000e72 <__vector_1>:
 e72:	1f 92       	push	r1
 e74:	0f 92       	push	r0
 e76:	0f b6       	in	r0, 0x3f	; 63
 e78:	0f 92       	push	r0
 e7a:	11 24       	eor	r1, r1
 e7c:	2f 93       	push	r18
 e7e:	3f 93       	push	r19
 e80:	4f 93       	push	r20
 e82:	5f 93       	push	r21
 e84:	6f 93       	push	r22
 e86:	7f 93       	push	r23
 e88:	8f 93       	push	r24
 e8a:	9f 93       	push	r25
 e8c:	af 93       	push	r26
 e8e:	bf 93       	push	r27
 e90:	ef 93       	push	r30
 e92:	ff 93       	push	r31
 e94:	aa de       	rcall	.-684    	; 0xbea <APP_ISR1>
 e96:	85 b7       	in	r24, 0x35	; 53
 e98:	83 60       	ori	r24, 0x03	; 3
 e9a:	85 bf       	out	0x35, r24	; 53
 e9c:	ff 91       	pop	r31
 e9e:	ef 91       	pop	r30
 ea0:	bf 91       	pop	r27
 ea2:	af 91       	pop	r26
 ea4:	9f 91       	pop	r25
 ea6:	8f 91       	pop	r24
 ea8:	7f 91       	pop	r23
 eaa:	6f 91       	pop	r22
 eac:	5f 91       	pop	r21
 eae:	4f 91       	pop	r20
 eb0:	3f 91       	pop	r19
 eb2:	2f 91       	pop	r18
 eb4:	0f 90       	pop	r0
 eb6:	0f be       	out	0x3f, r0	; 63
 eb8:	0f 90       	pop	r0
 eba:	1f 90       	pop	r1
 ebc:	18 95       	reti

00000ebe <__vector_2>:
 ebe:	1f 92       	push	r1
 ec0:	0f 92       	push	r0
 ec2:	0f b6       	in	r0, 0x3f	; 63
 ec4:	0f 92       	push	r0
 ec6:	11 24       	eor	r1, r1
 ec8:	2f 93       	push	r18
 eca:	3f 93       	push	r19
 ecc:	4f 93       	push	r20
 ece:	5f 93       	push	r21
 ed0:	6f 93       	push	r22
 ed2:	7f 93       	push	r23
 ed4:	8f 93       	push	r24
 ed6:	9f 93       	push	r25
 ed8:	af 93       	push	r26
 eda:	bf 93       	push	r27
 edc:	ef 93       	push	r30
 ede:	ff 93       	push	r31
 ee0:	86 de       	rcall	.-756    	; 0xbee <APP_ISR2>
 ee2:	ff 91       	pop	r31
 ee4:	ef 91       	pop	r30
 ee6:	bf 91       	pop	r27
 ee8:	af 91       	pop	r26
 eea:	9f 91       	pop	r25
 eec:	8f 91       	pop	r24
 eee:	7f 91       	pop	r23
 ef0:	6f 91       	pop	r22
 ef2:	5f 91       	pop	r21
 ef4:	4f 91       	pop	r20
 ef6:	3f 91       	pop	r19
 ef8:	2f 91       	pop	r18
 efa:	0f 90       	pop	r0
 efc:	0f be       	out	0x3f, r0	; 63
 efe:	0f 90       	pop	r0
 f00:	1f 90       	pop	r1
 f02:	18 95       	reti

00000f04 <SendMCUtoSleep>:
 f04:	85 b7       	in	r24, 0x35	; 53
 f06:	8c 7f       	andi	r24, 0xFC	; 252
 f08:	85 bf       	out	0x35, r24	; 53
 f0a:	85 b7       	in	r24, 0x35	; 53
 f0c:	80 62       	ori	r24, 0x20	; 32
 f0e:	85 bf       	out	0x35, r24	; 53
 f10:	f8 94       	cli
 f12:	85 b7       	in	r24, 0x35	; 53
 f14:	80 68       	ori	r24, 0x80	; 128
 f16:	85 bf       	out	0x35, r24	; 53
 f18:	78 94       	sei
 f1a:	88 95       	sleep
 f1c:	85 b7       	in	r24, 0x35	; 53
 f1e:	8f 77       	andi	r24, 0x7F	; 127
 f20:	85 bf       	out	0x35, r24	; 53
 f22:	08 95       	ret

00000f24 <HWI_InitOscilatorCalib>:
 f24:	cf 93       	push	r28
 f26:	df 93       	push	r29
 f28:	0f 92       	push	r0
 f2a:	cd b7       	in	r28, 0x3d	; 61
 f2c:	de b7       	in	r29, 0x3e	; 62
 f2e:	80 e0       	ldi	r24, 0x00	; 0
 f30:	be 01       	movw	r22, r28
 f32:	6f 5f       	subi	r22, 0xFF	; 255
 f34:	7f 4f       	sbci	r23, 0xFF	; 255
 f36:	d4 de       	rcall	.-600    	; 0xce0 <HWIeeprom_Read>
 f38:	88 23       	and	r24, r24
 f3a:	c9 f3       	breq	.-14     	; 0xf2e <HWI_InitOscilatorCalib+0xa>
 f3c:	89 81       	ldd	r24, Y+1	; 0x01
 f3e:	81 bf       	out	0x31, r24	; 49
 f40:	0f 90       	pop	r0
 f42:	df 91       	pop	r29
 f44:	cf 91       	pop	r28
 f46:	08 95       	ret

00000f48 <main>:
 f48:	62 de       	rcall	.-828    	; 0xc0e <Start_App>
 f4a:	80 e0       	ldi	r24, 0x00	; 0
 f4c:	90 e0       	ldi	r25, 0x00	; 0
 f4e:	08 95       	ret

00000f50 <__mulsi3>:
 f50:	62 9f       	mul	r22, r18
 f52:	d0 01       	movw	r26, r0
 f54:	73 9f       	mul	r23, r19
 f56:	f0 01       	movw	r30, r0
 f58:	82 9f       	mul	r24, r18
 f5a:	e0 0d       	add	r30, r0
 f5c:	f1 1d       	adc	r31, r1
 f5e:	64 9f       	mul	r22, r20
 f60:	e0 0d       	add	r30, r0
 f62:	f1 1d       	adc	r31, r1
 f64:	92 9f       	mul	r25, r18
 f66:	f0 0d       	add	r31, r0
 f68:	83 9f       	mul	r24, r19
 f6a:	f0 0d       	add	r31, r0
 f6c:	74 9f       	mul	r23, r20
 f6e:	f0 0d       	add	r31, r0
 f70:	65 9f       	mul	r22, r21
 f72:	f0 0d       	add	r31, r0
 f74:	99 27       	eor	r25, r25
 f76:	72 9f       	mul	r23, r18
 f78:	b0 0d       	add	r27, r0
 f7a:	e1 1d       	adc	r30, r1
 f7c:	f9 1f       	adc	r31, r25
 f7e:	63 9f       	mul	r22, r19
 f80:	b0 0d       	add	r27, r0
 f82:	e1 1d       	adc	r30, r1
 f84:	f9 1f       	adc	r31, r25
 f86:	bd 01       	movw	r22, r26
 f88:	cf 01       	movw	r24, r30
 f8a:	11 24       	eor	r1, r1
 f8c:	08 95       	ret

00000f8e <__udivmodhi4>:
 f8e:	aa 1b       	sub	r26, r26
 f90:	bb 1b       	sub	r27, r27
 f92:	51 e1       	ldi	r21, 0x11	; 17
 f94:	07 c0       	rjmp	.+14     	; 0xfa4 <__udivmodhi4_ep>

00000f96 <__udivmodhi4_loop>:
 f96:	aa 1f       	adc	r26, r26
 f98:	bb 1f       	adc	r27, r27
 f9a:	a6 17       	cp	r26, r22
 f9c:	b7 07       	cpc	r27, r23
 f9e:	10 f0       	brcs	.+4      	; 0xfa4 <__udivmodhi4_ep>
 fa0:	a6 1b       	sub	r26, r22
 fa2:	b7 0b       	sbc	r27, r23

00000fa4 <__udivmodhi4_ep>:
 fa4:	88 1f       	adc	r24, r24
 fa6:	99 1f       	adc	r25, r25
 fa8:	5a 95       	dec	r21
 faa:	a9 f7       	brne	.-22     	; 0xf96 <__udivmodhi4_loop>
 fac:	80 95       	com	r24
 fae:	90 95       	com	r25
 fb0:	bc 01       	movw	r22, r24
 fb2:	cd 01       	movw	r24, r26
 fb4:	08 95       	ret

00000fb6 <__udivmodsi4>:
 fb6:	a1 e2       	ldi	r26, 0x21	; 33
 fb8:	1a 2e       	mov	r1, r26
 fba:	aa 1b       	sub	r26, r26
 fbc:	bb 1b       	sub	r27, r27
 fbe:	fd 01       	movw	r30, r26
 fc0:	0d c0       	rjmp	.+26     	; 0xfdc <__udivmodsi4_ep>

00000fc2 <__udivmodsi4_loop>:
 fc2:	aa 1f       	adc	r26, r26
 fc4:	bb 1f       	adc	r27, r27
 fc6:	ee 1f       	adc	r30, r30
 fc8:	ff 1f       	adc	r31, r31
 fca:	a2 17       	cp	r26, r18
 fcc:	b3 07       	cpc	r27, r19
 fce:	e4 07       	cpc	r30, r20
 fd0:	f5 07       	cpc	r31, r21
 fd2:	20 f0       	brcs	.+8      	; 0xfdc <__udivmodsi4_ep>
 fd4:	a2 1b       	sub	r26, r18
 fd6:	b3 0b       	sbc	r27, r19
 fd8:	e4 0b       	sbc	r30, r20
 fda:	f5 0b       	sbc	r31, r21

00000fdc <__udivmodsi4_ep>:
 fdc:	66 1f       	adc	r22, r22
 fde:	77 1f       	adc	r23, r23
 fe0:	88 1f       	adc	r24, r24
 fe2:	99 1f       	adc	r25, r25
 fe4:	1a 94       	dec	r1
 fe6:	69 f7       	brne	.-38     	; 0xfc2 <__udivmodsi4_loop>
 fe8:	60 95       	com	r22
 fea:	70 95       	com	r23
 fec:	80 95       	com	r24
 fee:	90 95       	com	r25
 ff0:	9b 01       	movw	r18, r22
 ff2:	ac 01       	movw	r20, r24
 ff4:	bd 01       	movw	r22, r26
 ff6:	cf 01       	movw	r24, r30
 ff8:	08 95       	ret

00000ffa <_exit>:
 ffa:	f8 94       	cli

00000ffc <__stop_program>:
 ffc:	ff cf       	rjmp	.-2      	; 0xffc <__stop_program>
