Microchip MPLAB XC8 Compiler V1.41 ()

Linker command line:

--edf=C:\Program Files\Microchip\xc8\v1.41\dat\en_msgs.txt -cs \
  -h+dist/default/production\BicMeter.X.production.sym \
  --cmf=dist/default/production\BicMeter.X.production.cmf -z -Q18F4520 \
  -oC:\Users\0E57~1\AppData\Local\Temp\s7qk.2 \
  -Mdist/default/production/BicMeter.X.production.map -E1 -ver=XC8 \
  -ASTACK=08Ch-05ffh -pstack=STACK -ACODE=00h-07FFFh -ACONST=00h-07FFFh \
  -ASMALLCONST=0600h-06FFhx122 -AMEDIUMCONST=0600h-07FFFh -ACOMRAM=01h-07Fh \
  -AABS1=00h-05FFh -ABIGRAM=01h-05FFh -ARAM=080h-0FFh,0100h-01FFhx5 \
  -ABANK0=080h-0FFh -ABANK1=0100h-01FFh -ABANK2=0200h-02FFh \
  -ABANK3=0300h-03FFh -ABANK4=0400h-04FFh -ABANK5=0500h-05FFh \
  -ASFR=0F80h-0FFFh -preset_vec=00h,intcode=08h,intcodelo,powerup,init \
  -pramtop=0600h -psmallconst=SMALLCONST -pmediumconst=MEDIUMCONST \
  -pconst=CONST -AFARRAM=00h-00h -ACONFIG=0300000h-030000Dh -pconfig=CONFIG \
  -AIDLOC=0200000h-0200007h -pidloc=IDLOC -AEEDATA=0F00000h-0F000FFh \
  -peeprom_data=EEDATA \
  -prdata=COMRAM,nvrram=COMRAM,nvbit=COMRAM,rbss=COMRAM,rbit=COMRAM \
  -pfarbss=FARRAM,fardata=FARRAM,nvFARRAM=FARRAM \
  -pintsave_regs=BIGRAM,bigbss=BIGRAM,bigdata=BIGRAM -pbss=RAM \
  -pidata=CODE,irdata=CODE,ibigdata=CODE,ifardata=CODE -prparam=COMRAM \
  C:\Users\0E57~1\AppData\Local\Temp\s7qk.obj \
  dist/default/production\BicMeter.X.production.obj 

Object code version is 3.11

Machine type is 18F4520

Call graph: (short form)




                Name                               Link     Load   Length Selector   Space Scale
C:\Users\0E57~1\AppData\Local\Temp\s7qk.obj
                init                                  E        E        4        4       0
                reset_vec                             0        0        4        0       0
                idloc                            200000   200000        8   200000       0
                config                           300000   300000        E   300000       0
dist/default/production\BicMeter.X.production.obj
                intcode                               8        8        6        4       0
                temp                                 6C       6C        1        1       1
                smallconst                          600      600       1E      300       0
                text38                             1336     1336       16      30F       0
                text37                             13AC     13AC        6      30F       0
                text36                             1166     1166       3C      30F       0
                text35                             1262     1262       2E      30F       0
                text34                             13A6     13A6        6      30F       0
                text33                             1374     1374        A      30F       0
                text32                             13A0     13A0        6      30F       0
                text31                             1290     1290       2A      30F       0
                intcode_body                        C2C      C2C       BC      30F       0
                text29                             13B6     13B6        2      30F       0
                text28                             1386     1386        8      30F       0
                text27                             1028     1028       58      30F       0
                text26                             1306     1306       1A      30F       0
                text25                             1128     1128       3E      30F       0
                text24                             11D4     11D4       32      30F       0
                text23                             12E0     12E0       26      30F       0
                text22                              D86      D86       98      30F       0
                text21                             10D6     10D6       52      30F       0
                text20                             12BA     12BA       26      30F       0
                text19                              A4C      A4C       F6      30F       0
                text18                             135E     135E        C      30F       0
                text17                              F3A      F3A       82      30F       0
                text16                             1080     1080       56      30F       0
                text15                              CE8      CE8       9E      30F       0
                text14                             134C     134C       12      30F       0
                text13                             1234     1234       2E      30F       0
                text12                             136A     136A        A      30F       0
                text11                              B42      B42       EA      30F       0
                text10                             1206     1206       2E      30F       0
                text9                               61E      61E      42E      30F       0
                text8                               E1E      E1E       90      30F       0
                text7                              139A     139A        6      30F       0
                text6                              1394     1394        6      30F       0
                text5                              138E     138E        6      30F       0
                text4                              1320     1320       16      30F       0
                text3                               EAE      EAE       8C      30F       0
                text2                              13B4     13B4        2      30F       0
                text1                               FBC      FBC       6C      30F       0
                text0                              137E     137E        8      30F       0
                cstackCOMRAM                         37       37       32        1       1
                cstackBANK0                          80       80        C       80       1
                dataCOMRAM                           69       69        2        1       1
                bssCOMRAM                             1        1       36        1       1
                cinit                              11A2     11A2       32      30F       0
                nvCOMRAM                             6B       6B        1        1       1
                idataCOMRAM                        13B2     13B2        2      30F       0

TOTAL           Name                               Link     Load   Length     Space
        CLASS   STACK          

        CLASS   CODE           
                intcode                               8        8        6         0
                init                                  E        E        4         0
                reset_vec                             0        0        4         0
                text38                             1336     1336       16         0
                text37                             13AC     13AC        6         0
                text36                             1166     1166       3C         0
                text35                             1262     1262       2E         0
                text34                             13A6     13A6        6         0
                text33                             1374     1374        A         0
                text32                             13A0     13A0        6         0
                text31                             1290     1290       2A         0
                intcode_body                        C2C      C2C       BC         0
                text29                             13B6     13B6        2         0
                text28                             1386     1386        8         0
                text27                             1028     1028       58         0
                text26                             1306     1306       1A         0
                text25                             1128     1128       3E         0
                text24                             11D4     11D4       32         0
                text23                             12E0     12E0       26         0
                text22                              D86      D86       98         0
                text21                             10D6     10D6       52         0
                text20                             12BA     12BA       26         0
                text19                              A4C      A4C       F6         0
                text18                             135E     135E        C         0
                text17                              F3A      F3A       82         0
                text16                             1080     1080       56         0
                text15                              CE8      CE8       9E         0
                text14                             134C     134C       12         0
                text13                             1234     1234       2E         0
                text12                             136A     136A        A         0
                text11                              B42      B42       EA         0
                text10                             1206     1206       2E         0
                text9                               61E      61E      42E         0
                text8                               E1E      E1E       90         0
                text7                              139A     139A        6         0
                text6                              1394     1394        6         0
                text5                              138E     138E        6         0
                text4                              1320     1320       16         0
                text3                               EAE      EAE       8C         0
                text2                              13B4     13B4        2         0
                text1                               FBC      FBC       6C         0
                text0                              137E     137E        8         0
                cinit                              11A2     11A2       32         0
                idataCOMRAM                        13B2     13B2        2         0

        CLASS   CONST          

        CLASS   SMALLCONST     
                smallconst                          600      600       1E         0

        CLASS   MEDIUMCONST    

        CLASS   COMRAM         
                temp                                 6C       6C        1         1
                cstackCOMRAM                         37       37       32         1
                dataCOMRAM                           69       69        2         1
                bssCOMRAM                             1        1       36         1
                nvCOMRAM                             6B       6B        1         1

        CLASS   ABS1           

        CLASS   BIGRAM         

        CLASS   RAM            

        CLASS   BANK0          
                cstackBANK0                          80       80        C         1

        CLASS   BANK1          

        CLASS   BANK2          

        CLASS   BANK3          

        CLASS   BANK4          

        CLASS   BANK5          

        CLASS   SFR            

        CLASS   FARRAM         

        CLASS   CONFIG         
                config                           300000   300000        E         0

        CLASS   IDLOC          
                idloc                            200000   200000        8         0

        CLASS   EEDATA         



SEGMENTS        Name                           Load    Length   Top    Selector   Space  Class

                reset_vec                      000000  000004  000004         0       0  CODE    
                bssCOMRAM                      000001  00006C  00006D         1       1  COMRAM  
                intcode                        000008  00000A  000012         4       0  CODE    
                cstackBANK0                    000080  00000C  00008C        80       1  BANK0   
                smallconst                     000600  00001E  00061E       300       0  SMALLCON
                text9                          00061E  000D9A  0013B8       30F       0  CODE    
                idloc                          200000  000008  200008    200000       0  IDLOC   
                config                         300000  00000E  30000E    300000       0  CONFIG  


UNUSED ADDRESS RANGES

        Name                Unused          Largest block    Delta
        BANK0            00008C-0000FF               74
        BANK1            000100-0001FF              100
        BANK2            000200-0002FF              100
        BANK3            000300-0003FF              100
        BANK4            000400-0004FF              100
        BANK5            000500-0005FF              100
        BIGRAM           00006D-00007F               13
                         00008C-0005FF              574
        CODE             000004-000007                4
                         000012-0005FF              5EE
                         0013B8-007FFF             6C48
        COMRAM           00006D-00007F               13
        CONST            000004-000007                4
                         000012-0005FF              5EE
                         0013B8-007FFF             6C48
        EEDATA           F00000-F000FF              100
        MEDIUMCONST      0013B8-007FFF             6C48
        RAM              00008C-0005FF              100
        SFR              000F80-000FFF               80
        SMALLCONST       0013B8-007FFF              100
        STACK            00008C-0005FF              574

                                  Symbol Table

?_GetAvgSpeed                         cstackCOMRAM 000063
?_GetDistance                         cstackCOMRAM 00004A
?_ReloadHWtimer                       cstackCOMRAM 000037
?___lldiv                             cstackCOMRAM 000056
?___lmul                              cstackCOMRAM 00004A
?___lwdiv                             cstackCOMRAM 00004A
?___wmul                              cstackCOMRAM 00004A
APP_MANAGE@AvgSpeedKph                cstackBANK0  000087
APP_MANAGE@TravelledDistance          cstackBANK0  000089
APP_MANAGE@bIsBlinkMode               bssCOMRAM    000023
APP_MANAGE@blinkIndex                 bssCOMRAM    000025
APP_MANAGE@keystatus                  cstackBANK0  00008B
BCDInitialize@bIsCommonAnode          cstackCOMRAM 00004A
BCDManage7segment@BCD                 cstackCOMRAM 00004F
BCDManage7segment@BlinkCounter        bssCOMRAM    00002C
BCDManage7segment@DigitIndex          bssCOMRAM    000036
BCDManage7segment@Index               cstackCOMRAM 00004E
BCDsendNumber@Buffer                  cstackCOMRAM 00005A
BCDsendNumber@DecimalPlace            cstackCOMRAM 000053
BCDsendNumber@Link                    cstackCOMRAM 000056
BCDsendNumber@LoopIndex               cstackCOMRAM 00005C
BCDsendNumber@Number                  cstackCOMRAM 000051
BCDsendNumber@Output                  cstackCOMRAM 000058
BlinkDigit@Index                      cstackCOMRAM 00004B
BlinkDigit@duration                   cstackCOMRAM 00004A
CreateTask@MangeFunction              cstackCOMRAM 00004A
CreateTask@Period                     cstackCOMRAM 00004D
CreateTask@TaskId                     cstackCOMRAM 00004C
GetAvgSpeed@AvgSpeedKphMph            cstackBANK0  000085
GetAvgSpeed@KphMphFactor              cstackBANK0  000081
GetAvgSpeed@bIsKph                    cstackBANK0  000080
GetKeyStatus@KeyID                    cstackCOMRAM 00004B
GetKeyStatus@KeyStatus                cstackCOMRAM 00004A
HWI_4Digit_WRITE@port                 cstackCOMRAM 00004B
HWI_4Digit_WRITE@value                cstackCOMRAM 00004A
HWI_8Digit_WRITE@port                 cstackCOMRAM 00004B
HWI_8Digit_WRITE@value                cstackCOMRAM 00004A
HWI_DIGI_READ@HWIread                 cstackCOMRAM 00004B
HWI_DIGI_READ@pin                     cstackCOMRAM 00004A
ManageDrivers@LoopIndex               cstackCOMRAM 000051
MangeKeys@HWIreading                  cstackCOMRAM 00004F
MangeKeys@KeyID                       cstackCOMRAM 000050
MangeKeys@KeyState                    cstackCOMRAM 00004E
ReloadHWtimer@ElapsedTime             cstackCOMRAM 00003A
ReloadHWtimer@TimerId                 cstackCOMRAM 000039
RunScheduler@TaskIndex                bssCOMRAM    000027
SchedulerTick@TaskIndex               cstackCOMRAM 000037
SetCircumfirunce@Circum               cstackCOMRAM 00004A
SpeedCalcManage@HundredMeterReference cstackCOMRAM 000065
_APP_INITIALIZE                       text29       0013B6
_APP_ISR1                             text37       0013AC
_APP_ISR2                             text34       0013A6
_APP_ISR3                             text32       0013A0
_APP_MANAGE                           text11       000B42
_ArrayTask                            bssCOMRAM    000001
_BCDInitialize                        text28       001386
_BCDManage7segment                    text22       000D86
_BCDNumber                            bssCOMRAM    000011
_BCDsendNumber                        text19       000A4C
_BlinkDigit                           text18       00135E
_BlinkDuration                        bssCOMRAM    00002E
_BlinkFlag                            bssCOMRAM    00002D
_BlinkIndex                           bssCOMRAM    00002F
_CircumFactor                         dataCOMRAM   000069
_CreateTask                           text27       001028
_DisplayAlphaNumeric                  text5        00138E
_DistTravelCntr                       bssCOMRAM    000019
_GetAvgSpeed                          text15       000CE8
_GetDistance                          text14       00134C
_GetKeyStatus                         text13       001234
_HWI_4Digit_WRITE                     text24       0011D4
_HWI_8Digit_WRITE                     text23       0012E0
_HWI_DIGITAL_INITIALIZE               text26       001306
_HWI_DIGI_READ                        text10       001206
_HWI_INTERRUPTS_INTITALIZE            text25       001128
_HWtimerCallback                      text33       001374
_HWtimerCount                         bssCOMRAM    00001D
_HwTimerOVFLcount                     bssCOMRAM    000028
_INT0IF                               (abs)        007F91
_INT1IF                               (abs)        007F80
_INTCON                               (abs)        000FF2
_INTCON2bits                          (abs)        000FF1
_INTCON3                              (abs)        000FF0
_ISR                                  intcode      000008
_KeyArrayConfig                       smallconst   000601
_KeyInternalData                      bssCOMRAM    000030
_LATC                                 (abs)        000F8B
_LATD                                 (abs)        000F8C
_LapCounter                           bssCOMRAM    00002A
_LapDistanceCounter                   bssCOMRAM    000021
_LapTimeTenthMilli                    bssCOMRAM    00001F
_ManageApplication                    text6        001394
_ManageDrivers                        text4        001320
_ManageSpeedCalc                      text7        00139A
_MangeKeys                            text9        00061E
_NotifyFlag                           bssCOMRAM    00002B
_PORTBbits                            (abs)        000F81
_PORTC                                (abs)        000F82
_PORTD                                (abs)        000F83
_ReloadHWtimer                        text36       001166
_RunScheduler                         text3        000EAE
_SchedulerTick                        text31       001290
_SensorOneNotify                      text38       001336
_SensorTwoNotify                      text35       001262
_SetCircumfirunce                     text12       00136A
_SevenSegmentMAP                      smallconst   000611
_SpeedCalcManage                      text8        000E1E
_SpeedCalcNotifyInitialize            text2        0013B4
_Start_App                            text1        000FBC
_T0CON                                (abs)        000FD5
_T1CON                                (abs)        000FCD
_T3CON                                (abs)        000FB1
_TMR0IE                               (abs)        007F95
_TMR0IF                               (abs)        007F92
_TMR0L                                (abs)        000FD6
_TMR1                                 (abs)        000FCE
_TMR1IE                               (abs)        007CE8
_TMR1IF                               (abs)        007CF0
_TMR2IF                               (abs)        007CF1
_TMR3H                                (abs)        000FB3
_TMR3IE                               (abs)        007D01
_TMR3IF                               (abs)        007D09
_TMR3L                                (abs)        000FB2
_TRISBbits                            (abs)        000F93
_TRISC                                (abs)        000F94
_TRISD                                (abs)        000F95
_TimerOVFLcount                       bssCOMRAM    000029
__CFG_BOREN$SBORDIS                   (abs)        000000
__CFG_BORV$3                          (abs)        000000
__CFG_CCP2MX$PORTC                    (abs)        000000
__CFG_CP0$OFF                         (abs)        000000
__CFG_CP1$OFF                         (abs)        000000
__CFG_CP2$OFF                         (abs)        000000
__CFG_CP3$OFF                         (abs)        000000
__CFG_CPB$OFF                         (abs)        000000
__CFG_CPD$OFF                         (abs)        000000
__CFG_EBTR0$OFF                       (abs)        000000
__CFG_EBTR1$OFF                       (abs)        000000
__CFG_EBTR2$OFF                       (abs)        000000
__CFG_EBTR3$OFF                       (abs)        000000
__CFG_EBTRB$OFF                       (abs)        000000
__CFG_FCMEN$OFF                       (abs)        000000
__CFG_IESO$OFF                        (abs)        000000
__CFG_LPT1OSC$OFF                     (abs)        000000
__CFG_LVP$ON                          (abs)        000000
__CFG_MCLRE$OFF                       (abs)        000000
__CFG_OSC$XT                          (abs)        000000
__CFG_PBADEN$OFF                      (abs)        000000
__CFG_PWRT$OFF                        (abs)        000000
__CFG_STVREN$ON                       (abs)        000000
__CFG_WDT$OFF                         (abs)        000000
__CFG_WDTPS$32768                     (abs)        000000
__CFG_WRT0$OFF                        (abs)        000000
__CFG_WRT1$OFF                        (abs)        000000
__CFG_WRT2$OFF                        (abs)        000000
__CFG_WRT3$OFF                        (abs)        000000
__CFG_WRTB$OFF                        (abs)        000000
__CFG_WRTC$OFF                        (abs)        000000
__CFG_WRTD$OFF                        (abs)        000000
__CFG_XINST$OFF                       (abs)        000000
__HRAM                                (abs)        000000
__Habs1                               abs1         000000
__Hbank0                              bank0        000000
__Hbank1                              bank1        000000
__Hbank2                              bank2        000000
__Hbank3                              bank3        000000
__Hbank4                              bank4        000000
__Hbank5                              bank5        000000
__Hbigbss                             bigbss       000000
__Hbigdata                            bigdata      000000
__Hbigram                             bigram       000000
__Hbss                                bss          000000
__HbssCOMRAM                          bssCOMRAM    000000
__Hcinit                              cinit        000000
__Hclrtext                            clrtext      000000
__Hcomram                             comram       000000
__Hconfig                             config       30000E
__Hconst                              const        000000
__HcstackBANK0                        cstackBANK0  000000
__HcstackCOMRAM                       cstackCOMRAM 000000
__Hdata                               data         000000
__HdataCOMRAM                         dataCOMRAM   000000
__Heeprom_data                        eeprom_data  000000
__Hfarbss                             farbss       000000
__Hfardata                            fardata      000000
__Hibigdata                           ibigdata     000000
__Hidata                              idata        000000
__HidataCOMRAM                        idataCOMRAM  000000
__Hidloc                              idloc        200008
__Hifardata                           ifardata     000000
__Hinit                               init         000012
__Hintcode                            intcode      00000E
__Hintcode_body                       intcode_body 000000
__Hintcodelo                          intcodelo    00000E
__Hintentry                           intentry     000000
__Hintret                             intret       000000
__Hintsave_regs                       intsave_regs 000000
__Hirdata                             irdata       000000
__Hmediumconst                        mediumconst  000000
__HnvCOMRAM                           nvCOMRAM     000000
__HnvFARRAM                           nvFARRAM     000000
__Hnvbit                              nvbit        000000
__Hnvrram                             nvrram       000000
__Hparam                              rparam       000000
__Hpowerup                            powerup      00000E
__Hram                                ram          000000
__Hramtop                             ramtop       000600
__Hrbit                               rbit         000000
__Hrbss                               rbss         000000
__Hrdata                              rdata        000000
__Hreset_vec                          reset_vec    000004
__Hrparam                             rparam       000000
__Hsfr                                sfr          000000
__Hsmallconst                         smallconst   00061E
__Hspace_0                            (abs)        30000E
__Hspace_1                            (abs)        00008C
__Hspace_2                            (abs)        000000
__Hstack                              stack        000000
__Hstruct                             struct       000000
__Htemp                               temp         00006D
__Htext                               text         000000
__Htext0                              text0        000000
__Htext1                              text1        000000
__Htext10                             text10       000000
__Htext11                             text11       000000
__Htext12                             text12       000000
__Htext13                             text13       000000
__Htext14                             text14       000000
__Htext15                             text15       000000
__Htext16                             text16       000000
__Htext17                             text17       000000
__Htext18                             text18       000000
__Htext19                             text19       000000
__Htext2                              text2        000000
__Htext20                             text20       000000
__Htext21                             text21       000000
__Htext22                             text22       000000
__Htext23                             text23       000000
__Htext24                             text24       000000
__Htext25                             text25       000000
__Htext26                             text26       000000
__Htext27                             text27       000000
__Htext28                             text28       000000
__Htext29                             text29       000000
__Htext3                              text3        000000
__Htext31                             text31       000000
__Htext32                             text32       000000
__Htext33                             text33       000000
__Htext34                             text34       000000
__Htext35                             text35       000000
__Htext36                             text36       000000
__Htext37                             text37       000000
__Htext38                             text38       000000
__Htext39                             text39       000000
__Htext4                              text4        000000
__Htext5                              text5        000000
__Htext6                              text6        000000
__Htext7                              text7        000000
__Htext8                              text8        000000
__Htext9                              text9        000000
__LRAM                                (abs)        000001
__Labs1                               abs1         000000
__Lbank0                              bank0        000000
__Lbank1                              bank1        000000
__Lbank2                              bank2        000000
__Lbank3                              bank3        000000
__Lbank4                              bank4        000000
__Lbank5                              bank5        000000
__Lbigbss                             bigbss       000000
__Lbigdata                            bigdata      000000
__Lbigram                             bigram       000000
__Lbss                                bss          000000
__LbssCOMRAM                          bssCOMRAM    000000
__Lcinit                              cinit        000000
__Lclrtext                            clrtext      000000
__Lcomram                             comram       000000
__Lconfig                             config       300000
__Lconst                              const        000000
__LcstackBANK0                        cstackBANK0  000000
__LcstackCOMRAM                       cstackCOMRAM 000000
__Ldata                               data         000000
__LdataCOMRAM                         dataCOMRAM   000000
__Leeprom_data                        eeprom_data  000000
__Lfarbss                             farbss       000000
__Lfardata                            fardata      000000
__Libigdata                           ibigdata     000000
__Lidata                              idata        000000
__LidataCOMRAM                        idataCOMRAM  000000
__Lidloc                              idloc        200000
__Lifardata                           ifardata     000000
__Linit                               init         00000E
__Lintcode                            intcode      000008
__Lintcode_body                       intcode_body 000000
__Lintcodelo                          intcodelo    00000E
__Lintentry                           intentry     000000
__Lintret                             intret       000000
__Lintsave_regs                       intsave_regs 000000
__Lirdata                             irdata       000000
__Lmediumconst                        mediumconst  000000
__LnvCOMRAM                           nvCOMRAM     000000
__LnvFARRAM                           nvFARRAM     000000
__Lnvbit                              nvbit        000000
__Lnvrram                             nvrram       000000
__Lparam                              rparam       000000
__Lpowerup                            powerup      00000E
__Lram                                ram          000000
__Lramtop                             ramtop       000600
__Lrbit                               rbit         000000
__Lrbss                               rbss         000000
__Lrdata                              rdata        000000
__Lreset_vec                          reset_vec    000000
__Lrparam                             rparam       000000
__Lsfr                                sfr          000000
__Lsmallconst                         smallconst   000600
__Lspace_0                            (abs)        000000
__Lspace_1                            (abs)        000000
__Lspace_2                            (abs)        000000
__Lstack                              stack        000000
__Lstruct                             struct       000000
__Ltemp                               temp         00006C
__Ltext                               text         000000
__Ltext0                              text0        000000
__Ltext1                              text1        000000
__Ltext10                             text10       000000
__Ltext11                             text11       000000
__Ltext12                             text12       000000
__Ltext13                             text13       000000
__Ltext14                             text14       000000
__Ltext15                             text15       000000
__Ltext16                             text16       000000
__Ltext17                             text17       000000
__Ltext18                             text18       000000
__Ltext19                             text19       000000
__Ltext2                              text2        000000
__Ltext20                             text20       000000
__Ltext21                             text21       000000
__Ltext22                             text22       000000
__Ltext23                             text23       000000
__Ltext24                             text24       000000
__Ltext25                             text25       000000
__Ltext26                             text26       000000
__Ltext27                             text27       000000
__Ltext28                             text28       000000
__Ltext29                             text29       000000
__Ltext3                              text3        000000
__Ltext31                             text31       000000
__Ltext32                             text32       000000
__Ltext33                             text33       000000
__Ltext34                             text34       000000
__Ltext35                             text35       000000
__Ltext36                             text36       000000
__Ltext37                             text37       000000
__Ltext38                             text38       000000
__Ltext39                             text39       000000
__Ltext4                              text4        000000
__Ltext5                              text5        000000
__Ltext6                              text6        000000
__Ltext7                              text7        000000
__Ltext8                              text8        000000
__Ltext9                              text9        000000
__S0                                  (abs)        30000E
__S1                                  (abs)        00008C
__S2                                  (abs)        000000
___inthi_sp                           stack        000000
___intlo_sp                           stack        000000
___lldiv                              text17       000F3A
___lldiv@counter                      cstackCOMRAM 000062
___lldiv@dividend                     cstackCOMRAM 000056
___lldiv@divisor                      cstackCOMRAM 00005A
___lldiv@quotient                     cstackCOMRAM 00005E
___lmul                               text16       001080
___lmul@multiplicand                  cstackCOMRAM 00004E
___lmul@multiplier                    cstackCOMRAM 00004A
___lmul@product                       cstackCOMRAM 000052
___lwdiv                              text21       0010D6
___lwdiv@counter                      cstackCOMRAM 00004E
___lwdiv@dividend                     cstackCOMRAM 00004A
___lwdiv@divisor                      cstackCOMRAM 00004C
___lwdiv@quotient                     cstackCOMRAM 00004F
___param_bank                         (abs)        000000
___rparam_used                        (abs)        000001
___sp                                 stack        000000
___wmul                               text20       0012BA
___wmul@multiplicand                  cstackCOMRAM 00004C
___wmul@multiplier                    cstackCOMRAM 00004A
___wmul@product                       cstackCOMRAM 00004E
__accesstop                           (abs)        000080
__activetblptr                        (abs)        000002
__end_of_APP_INITIALIZE               text29       0013B8
__end_of_APP_ISR1                     text37       0013B2
__end_of_APP_ISR2                     text34       0013AC
__end_of_APP_ISR3                     text32       0013A6
__end_of_APP_MANAGE                   text11       000C2C
__end_of_BCDInitialize                text28       00138E
__end_of_BCDManage7segment            text22       000E1E
__end_of_BCDsendNumber                text19       000B42
__end_of_BlinkDigit                   text18       00136A
__end_of_CreateTask                   text27       001080
__end_of_DisplayAlphaNumeric          text5        001394
__end_of_GetAvgSpeed                  text15       000D86
__end_of_GetDistance                  text14       00135E
__end_of_GetKeyStatus                 text13       001262
__end_of_HWI_4Digit_WRITE             text24       001206
__end_of_HWI_8Digit_WRITE             text23       001306
__end_of_HWI_DIGITAL_INITIALIZE       text26       001320
__end_of_HWI_DIGI_READ                text10       001234
__end_of_HWI_INTERRUPTS_INTITALIZE    text25       001166
__end_of_HWtimerCallback              text33       00137E
__end_of_ISR                          intcode_body 000CE8
__end_of_KeyArrayConfig               smallconst   000611
__end_of_ManageApplication            text6        00139A
__end_of_ManageDrivers                text4        001336
__end_of_ManageSpeedCalc              text7        0013A0
__end_of_MangeKeys                    text9        000A4C
__end_of_ReloadHWtimer                text36       0011A2
__end_of_RunScheduler                 text3        000F3A
__end_of_SchedulerTick                text31       0012BA
__end_of_SensorOneNotify              text38       00134C
__end_of_SensorTwoNotify              text35       001290
__end_of_SetCircumfirunce             text12       001374
__end_of_SevenSegmentMAP              smallconst   00061C
__end_of_SpeedCalcManage              text8        000EAE
__end_of_SpeedCalcNotifyInitialize    text2        0013B6
__end_of_Start_App                    text1        001028
__end_of___lldiv                      text17       000FBC
__end_of___lmul                       text16       0010D6
__end_of___lwdiv                      text21       001128
__end_of___wmul                       text20       0012E0
__end_of__initialization              cinit        0011C6
__end_of_main                         text0        001386
__initialization                      cinit        0011A2
__mediumconst                         mediumconst  000000
__pbssCOMRAM                          bssCOMRAM    000001
__pcinit                              cinit        0011A2
__pcstackBANK0                        cstackBANK0  000080
__pcstackCOMRAM                       cstackCOMRAM 000037
__pdataCOMRAM                         dataCOMRAM   000069
__pidataCOMRAM                        idataCOMRAM  0013B2
__pintcode                            intcode      000008
__pintcode_body                       intcode_body 000C2C
__pnvCOMRAM                           nvCOMRAM     00006B
__psmallconst                         smallconst   000600
__ptext0                              text0        00137E
__ptext1                              text1        000FBC
__ptext10                             text10       001206
__ptext11                             text11       000B42
__ptext12                             text12       00136A
__ptext13                             text13       001234
__ptext14                             text14       00134C
__ptext15                             text15       000CE8
__ptext16                             text16       001080
__ptext17                             text17       000F3A
__ptext18                             text18       00135E
__ptext19                             text19       000A4C
__ptext2                              text2        0013B4
__ptext20                             text20       0012BA
__ptext21                             text21       0010D6
__ptext22                             text22       000D86
__ptext23                             text23       0012E0
__ptext24                             text24       0011D4
__ptext25                             text25       001128
__ptext26                             text26       001306
__ptext27                             text27       001028
__ptext28                             text28       001386
__ptext29                             text29       0013B6
__ptext3                              text3        000EAE
__ptext31                             text31       001290
__ptext32                             text32       0013A0
__ptext33                             text33       001374
__ptext34                             text34       0013A6
__ptext35                             text35       001262
__ptext36                             text36       001166
__ptext37                             text37       0013AC
__ptext38                             text38       001336
__ptext39                             text39       000000
__ptext4                              text4        001320
__ptext5                              text5        00138E
__ptext6                              text6        001394
__ptext7                              text7        00139A
__ptext8                              text8        000E1E
__ptext9                              text9        00061E
__ramtop                              ramtop       000600
__size_of_APP_INITIALIZE              (abs)        000000
__size_of_APP_ISR1                    (abs)        000000
__size_of_APP_ISR2                    (abs)        000000
__size_of_APP_ISR3                    (abs)        000000
__size_of_APP_MANAGE                  (abs)        000000
__size_of_BCDInitialize               (abs)        000000
__size_of_BCDManage7segment           (abs)        000000
__size_of_BCDsendNumber               (abs)        000000
__size_of_BlinkDigit                  (abs)        000000
__size_of_CreateTask                  (abs)        000000
__size_of_DisplayAlphaNumeric         (abs)        000000
__size_of_GetAvgSpeed                 (abs)        000000
__size_of_GetDistance                 (abs)        000000
__size_of_GetKeyStatus                (abs)        000000
__size_of_HWI_4Digit_WRITE            (abs)        000000
__size_of_HWI_8Digit_WRITE            (abs)        000000
__size_of_HWI_DIGITAL_INITIALIZE      (abs)        000000
__size_of_HWI_DIGI_READ               (abs)        000000
__size_of_HWI_INTERRUPTS_INTITALIZE   (abs)        000000
__size_of_HWtimerCallback             (abs)        000000
__size_of_ISR                         (abs)        000000
__size_of_ManageApplication           (abs)        000000
__size_of_ManageDrivers               (abs)        000000
__size_of_ManageSpeedCalc             (abs)        000000
__size_of_MangeKeys                   (abs)        000000
__size_of_ReloadHWtimer               (abs)        000000
__size_of_RunScheduler                (abs)        000000
__size_of_SchedulerTick               (abs)        000000
__size_of_SensorOneNotify             (abs)        000000
__size_of_SensorTwoNotify             (abs)        000000
__size_of_SetCircumfirunce            (abs)        000000
__size_of_SpeedCalcManage             (abs)        000000
__size_of_SpeedCalcNotifyInitialize   (abs)        000000
__size_of_Start_App                   (abs)        000000
__size_of___lldiv                     (abs)        000000
__size_of___lmul                      (abs)        000000
__size_of___lwdiv                     (abs)        000000
__size_of___wmul                      (abs)        000000
__size_of_main                        (abs)        000000
__smallconst                          smallconst   000600
_bIsAnodeUsed                         nvCOMRAM     00006B
_main                                 text0        00137E
btemp                                 temp         00006C
end_of_initialization                 cinit        0011C6
int$flags                             temp         00006C
int_func                              intcode_body 000C2C
intlevel0                             text         000000
intlevel1                             text         000000
intlevel2                             text         000000
intlevel3                             text         000000
stackhi                               (abs)        0005FF
stacklo                               (abs)        00008C
start                                 init         00000E
start_initialization                  cinit        0011A2


FUNCTION INFORMATION:

 *************** function _main *****************
 Defined at:
		line 78 in file "main.c"
 Parameters:    Size  Location     Type
		None
 Auto vars:     Size  Location     Type
		None
 Return value:  Size  Location     Type
                  1    wreg      void 
 Registers used:
		wreg, fsr1l, fsr1h, fsr2l, fsr2h, status,2, status,0, pclath, tosl, tblptrl, tblptrh, tblptru, prodl, prodh, cstack
 Tracked objects:
		On entry : 
		On exit  : 
		Unchanged: 
 Data sizes:     COMRAM   BANK0   BANK1   BANK2   BANK3   BANK4   BANK5
      Params:         0       0       0       0       0       0       0
      Locals:         0       0       0       0       0       0       0
      Temps:          0       0       0       0       0       0       0
      Totals:         0       0       0       0       0       0       0
Total ram usage:        0 bytes
 Hardware stack levels required when called:   10
 This function calls:
		_Start_App
 This function is called by:
		Startup code after reset
 This function uses a non-reentrant model


 *************** function _Start_App *****************
 Defined at:
		line 21 in file "../../../../OS/OS_manage/OS_manage.c"
 Parameters:    Size  Location     Type
		None
 Auto vars:     Size  Location     Type
		None
 Return value:  Size  Location     Type
                  1    wreg      void 
 Registers used:
		wreg, fsr1l, fsr1h, fsr2l, fsr2h, status,2, status,0, pclath, tosl, tblptrl, tblptrh, tblptru, prodl, prodh, cstack
 Tracked objects:
		On entry : 
		On exit  : 
		Unchanged: 
 Data sizes:     COMRAM   BANK0   BANK1   BANK2   BANK3   BANK4   BANK5
      Params:         0       0       0       0       0       0       0
      Locals:         0       0       0       0       0       0       0
      Temps:          0       0       0       0       0       0       0
      Totals:         0       0       0       0       0       0       0
Total ram usage:        0 bytes
 Hardware stack levels used:    1
 Hardware stack levels required when called:    9
 This function calls:
		_APP_INITIALIZE
		_BCDInitialize
		_CreateTask
		_HWI_DIGITAL_INITIALIZE
		_HWI_INTERRUPTS_INTITALIZE
		_RunScheduler
		_SpeedCalcNotifyInitialize
 This function is called by:
		_main
 This function uses a non-reentrant model


 *************** function _SpeedCalcNotifyInitialize *****************
 Defined at:
		line 24 in file "../../../../Common/Driver/SpeedCalc/SpeedCalc.c"
 Parameters:    Size  Location     Type
		None
 Auto vars:     Size  Location     Type
		None
 Return value:  Size  Location     Type
                  1    wreg      void 
 Registers used:
		None
 Tracked objects:
		On entry : 
		On exit  : 
		Unchanged: 
 Data sizes:     COMRAM   BANK0   BANK1   BANK2   BANK3   BANK4   BANK5
      Params:         0       0       0       0       0       0       0
      Locals:         0       0       0       0       0       0       0
      Temps:          0       0       0       0       0       0       0
      Totals:         0       0       0       0       0       0       0
Total ram usage:        0 bytes
 Hardware stack levels used:    1
 Hardware stack levels required when called:    4
 This function calls:
		Nothing
 This function is called by:
		_Start_App
 This function uses a non-reentrant model


 *************** function _RunScheduler *****************
 Defined at:
		line 25 in file "../../../../OS/Scheduler/Scheduler.c"
 Parameters:    Size  Location     Type
		None
 Auto vars:     Size  Location     Type
		None
 Return value:  Size  Location     Type
                  1    wreg      void 
 Registers used:
		wreg, fsr1l, fsr1h, fsr2l, fsr2h, status,2, status,0, pclath, tosl, tblptrl, tblptrh, tblptru, prodl, prodh, cstack
 Tracked objects:
		On entry : 
		On exit  : 
		Unchanged: 
 Data sizes:     COMRAM   BANK0   BANK1   BANK2   BANK3   BANK4   BANK5
      Params:         0       0       0       0       0       0       0
      Locals:         0       0       0       0       0       0       0
      Temps:          2       0       0       0       0       0       0
      Totals:         2       0       0       0       0       0       0
Total ram usage:        2 bytes
 Hardware stack levels used:    1
 Hardware stack levels required when called:    8
 This function calls:
		_DisplayAlphaNumeric
		_ManageApplication
		_ManageDrivers
		_ManageSpeedCalc
 This function is called by:
		_Start_App
 This function uses a non-reentrant model


 *************** function _ManageDrivers *****************
 Defined at:
		line 54 in file "../../../../OS/OS_manage/OS_manage.c"
 Parameters:    Size  Location     Type
		None
 Auto vars:     Size  Location     Type
  LoopIndex       1   26[COMRAM] unsigned char 
 Return value:  Size  Location     Type
                  1    wreg      void 
 Registers used:
		wreg, fsr2l, fsr2h, status,2, status,0, tblptrl, tblptrh, tblptru, prodl, prodh, cstack
 Tracked objects:
		On entry : 
		On exit  : 
		Unchanged: 
 Data sizes:     COMRAM   BANK0   BANK1   BANK2   BANK3   BANK4   BANK5
      Params:         0       0       0       0       0       0       0
      Locals:         1       0       0       0       0       0       0
      Temps:          0       0       0       0       0       0       0
      Totals:         1       0       0       0       0       0       0
Total ram usage:        1 bytes
 Hardware stack levels used:    1
 Hardware stack levels required when called:    6
 This function calls:
		_MangeKeys
 This function is called by:
		_Start_App
		_RunScheduler
 This function uses a non-reentrant model


 *************** function _DisplayAlphaNumeric *****************
 Defined at:
		line 41 in file "../../../../OS/OS_manage/OS_manage.c"
 Parameters:    Size  Location     Type
		None
 Auto vars:     Size  Location     Type
		None
 Return value:  Size  Location     Type
                  1    wreg      void 
 Registers used:
		wreg, fsr2l, fsr2h, status,2, status,0, prodl, prodh, cstack
 Tracked objects:
		On entry : 
		On exit  : 
		Unchanged: 
 Data sizes:     COMRAM   BANK0   BANK1   BANK2   BANK3   BANK4   BANK5
      Params:         0       0       0       0       0       0       0
      Locals:         0       0       0       0       0       0       0
      Temps:          0       0       0       0       0       0       0
      Totals:         0       0       0       0       0       0       0
Total ram usage:        0 bytes
 Hardware stack levels used:    1
 Hardware stack levels required when called:    6
 This function calls:
		_BCDManage7segment
 This function is called by:
		_Start_App
		_RunScheduler
 This function uses a non-reentrant model


 *************** function _ManageApplication *****************
 Defined at:
		line 45 in file "../../../../OS/OS_manage/OS_manage.c"
 Parameters:    Size  Location     Type
		None
 Auto vars:     Size  Location     Type
		None
 Return value:  Size  Location     Type
                  1    wreg      void 
 Registers used:
		wreg, fsr2l, fsr2h, status,2, status,0, tblptrl, tblptrh, tblptru, prodl, prodh, cstack
 Tracked objects:
		On entry : 
		On exit  : 
		Unchanged: 
 Data sizes:     COMRAM   BANK0   BANK1   BANK2   BANK3   BANK4   BANK5
      Params:         0       0       0       0       0       0       0
      Locals:         0       0       0       0       0       0       0
      Temps:          0       0       0       0       0       0       0
      Totals:         0       0       0       0       0       0       0
Total ram usage:        0 bytes
 Hardware stack levels used:    1
 Hardware stack levels required when called:    7
 This function calls:
		_APP_MANAGE
 This function is called by:
		_Start_App
		_RunScheduler
 This function uses a non-reentrant model


 *************** function _ManageSpeedCalc *****************
 Defined at:
		line 49 in file "../../../../OS/OS_manage/OS_manage.c"
 Parameters:    Size  Location     Type
		None
 Auto vars:     Size  Location     Type
		None
 Return value:  Size  Location     Type
                  1    wreg      void 
 Registers used:
		wreg, status,2, status,0, prodl, prodh, cstack
 Tracked objects:
		On entry : 
		On exit  : 
		Unchanged: 
 Data sizes:     COMRAM   BANK0   BANK1   BANK2   BANK3   BANK4   BANK5
      Params:         0       0       0       0       0       0       0
      Locals:         0       0       0       0       0       0       0
      Temps:          0       0       0       0       0       0       0
      Totals:         0       0       0       0       0       0       0
Total ram usage:        0 bytes
 Hardware stack levels used:    1
 Hardware stack levels required when called:    6
 This function calls:
		_SpeedCalcManage
 This function is called by:
		_Start_App
		_RunScheduler
 This function uses a non-reentrant model


 *************** function _SpeedCalcManage *****************
 Defined at:
		line 63 in file "../../../../Common/Driver/SpeedCalc/SpeedCalc.c"
 Parameters:    Size  Location     Type
		None
 Auto vars:     Size  Location     Type
  HundredMeter    2   46[COMRAM] unsigned short 
 Return value:  Size  Location     Type
                  1    wreg      void 
 Registers used:
		wreg, status,2, status,0, prodl, prodh, cstack
 Tracked objects:
		On entry : 
		On exit  : 
		Unchanged: 
 Data sizes:     COMRAM   BANK0   BANK1   BANK2   BANK3   BANK4   BANK5
      Params:         0       0       0       0       0       0       0
      Locals:         2       0       0       0       0       0       0
      Temps:          2       0       0       0       0       0       0
      Totals:         4       0       0       0       0       0       0
Total ram usage:        4 bytes
 Hardware stack levels used:    1
 Hardware stack levels required when called:    5
 This function calls:
		___lldiv
		___lwdiv
		___wmul
 This function is called by:
		_ManageSpeedCalc
 This function uses a non-reentrant model


 *************** function _MangeKeys *****************
 Defined at:
		line 29 in file "../../../../Common/Driver/Key/Key.c"
 Parameters:    Size  Location     Type
  KeyID           1    wreg     unsigned char 
 Auto vars:     Size  Location     Type
  KeyID           1   25[COMRAM] unsigned char 
  HWIreading      1   24[COMRAM] unsigned char 
  KeyState        1   23[COMRAM] unsigned char 
 Return value:  Size  Location     Type
                  1    wreg      void 
 Registers used:
		wreg, fsr2l, fsr2h, status,2, status,0, tblptrl, tblptrh, tblptru, prodl, prodh, cstack
 Tracked objects:
		On entry : 
		On exit  : 
		Unchanged: 
 Data sizes:     COMRAM   BANK0   BANK1   BANK2   BANK3   BANK4   BANK5
      Params:         0       0       0       0       0       0       0
      Locals:         3       0       0       0       0       0       0
      Temps:          2       0       0       0       0       0       0
      Totals:         5       0       0       0       0       0       0
Total ram usage:        5 bytes
 Hardware stack levels used:    1
 Hardware stack levels required when called:    5
 This function calls:
		_HWI_DIGI_READ
 This function is called by:
		_ManageDrivers
 This function uses a non-reentrant model


 *************** function _HWI_DIGI_READ *****************
 Defined at:
		line 91 in file "../../HWIsource/HWI_DIGITAL.c"
 Parameters:    Size  Location     Type
  pin             1    wreg     unsigned char 
 Auto vars:     Size  Location     Type
  pin             1   19[COMRAM] unsigned char 
  HWIread         1   20[COMRAM] unsigned char 
 Return value:  Size  Location     Type
                  1    wreg      unsigned char 
 Registers used:
		wreg, status,2, status,0
 Tracked objects:
		On entry : 
		On exit  : 
		Unchanged: 
 Data sizes:     COMRAM   BANK0   BANK1   BANK2   BANK3   BANK4   BANK5
      Params:         0       0       0       0       0       0       0
      Locals:         2       0       0       0       0       0       0
      Temps:          0       0       0       0       0       0       0
      Totals:         2       0       0       0       0       0       0
Total ram usage:        2 bytes
 Hardware stack levels used:    1
 Hardware stack levels required when called:    4
 This function calls:
		Nothing
 This function is called by:
		_MangeKeys
 This function uses a non-reentrant model


 *************** function _APP_MANAGE *****************
 Defined at:
		line 16 in file "../../../../Common/App/APP.c"
 Parameters:    Size  Location     Type
		None
 Auto vars:     Size  Location     Type
  TravelledDis    2    9[BANK0 ] unsigned short 
  AvgSpeedKph     2    7[BANK0 ] unsigned short 
  keystatus       1   11[BANK0 ] unsigned char 
 Return value:  Size  Location     Type
                  1    wreg      void 
 Registers used:
		wreg, fsr2l, fsr2h, status,2, status,0, tblptrl, tblptrh, tblptru, prodl, prodh, cstack
 Tracked objects:
		On entry : 
		On exit  : 
		Unchanged: 
 Data sizes:     COMRAM   BANK0   BANK1   BANK2   BANK3   BANK4   BANK5
      Params:         0       0       0       0       0       0       0
      Locals:         0       5       0       0       0       0       0
      Temps:          0       0       0       0       0       0       0
      Totals:         0       5       0       0       0       0       0
Total ram usage:        5 bytes
 Hardware stack levels used:    1
 Hardware stack levels required when called:    6
 This function calls:
		_BCDsendNumber
		_BlinkDigit
		_GetAvgSpeed
		_GetDistance
		_GetKeyStatus
		_SetCircumfirunce
		___wmul
 This function is called by:
		_ManageApplication
 This function uses a non-reentrant model


 *************** function _SetCircumfirunce *****************
 Defined at:
		line 99 in file "../../../../Common/Driver/SpeedCalc/SpeedCalc.c"
 Parameters:    Size  Location     Type
  Circum          2   19[COMRAM] unsigned short 
 Auto vars:     Size  Location     Type
		None
 Return value:  Size  Location     Type
                  1    wreg      void 
 Registers used:
		None
 Tracked objects:
		On entry : 
		On exit  : 
		Unchanged: 
 Data sizes:     COMRAM   BANK0   BANK1   BANK2   BANK3   BANK4   BANK5
      Params:         2       0       0       0       0       0       0
      Locals:         0       0       0       0       0       0       0
      Temps:          0       0       0       0       0       0       0
      Totals:         2       0       0       0       0       0       0
Total ram usage:        2 bytes
 Hardware stack levels used:    1
 Hardware stack levels required when called:    4
 This function calls:
		Nothing
 This function is called by:
		_APP_MANAGE
 This function uses a non-reentrant model


 *************** function _GetKeyStatus *****************
 Defined at:
		line 19 in file "../../../../Common/Driver/Key/Key.c"
 Parameters:    Size  Location     Type
  KeyID           1    wreg     unsigned char 
 Auto vars:     Size  Location     Type
  KeyID           1   20[COMRAM] unsigned char 
  KeyStatus       1   19[COMRAM] unsigned char 
 Return value:  Size  Location     Type
                  1    wreg      unsigned char 
 Registers used:
		wreg, fsr2l, fsr2h, status,2, status,0, prodl, prodh
 Tracked objects:
		On entry : 
		On exit  : 
		Unchanged: 
 Data sizes:     COMRAM   BANK0   BANK1   BANK2   BANK3   BANK4   BANK5
      Params:         0       0       0       0       0       0       0
      Locals:         2       0       0       0       0       0       0
      Temps:          0       0       0       0       0       0       0
      Totals:         2       0       0       0       0       0       0
Total ram usage:        2 bytes
 Hardware stack levels used:    1
 Hardware stack levels required when called:    4
 This function calls:
		Nothing
 This function is called by:
		_APP_MANAGE
 This function uses a non-reentrant model


 *************** function _GetDistance *****************
 Defined at:
		line 93 in file "../../../../Common/Driver/SpeedCalc/SpeedCalc.c"
 Parameters:    Size  Location     Type
		None
 Auto vars:     Size  Location     Type
		None
 Return value:  Size  Location     Type
                  4   19[COMRAM] unsigned long 
 Registers used:
		None
 Tracked objects:
		On entry : 
		On exit  : 
		Unchanged: 
 Data sizes:     COMRAM   BANK0   BANK1   BANK2   BANK3   BANK4   BANK5
      Params:         4       0       0       0       0       0       0
      Locals:         0       0       0       0       0       0       0
      Temps:          0       0       0       0       0       0       0
      Totals:         4       0       0       0       0       0       0
Total ram usage:        4 bytes
 Hardware stack levels used:    1
 Hardware stack levels required when called:    4
 This function calls:
		Nothing
 This function is called by:
		_APP_MANAGE
 This function uses a non-reentrant model


 *************** function _GetAvgSpeed *****************
 Defined at:
		line 105 in file "../../../../Common/Driver/SpeedCalc/SpeedCalc.c"
 Parameters:    Size  Location     Type
  bIsKph          1    wreg     unsigned char 
 Auto vars:     Size  Location     Type
  bIsKph          1    0[BANK0 ] unsigned char 
  KphMphFactor    4    1[BANK0 ] unsigned long 
  AvgSpeedKphM    2    5[BANK0 ] unsigned short 
 Return value:  Size  Location     Type
                  2   44[COMRAM] unsigned short 
 Registers used:
		wreg, status,2, status,0, cstack
 Tracked objects:
		On entry : 
		On exit  : 
		Unchanged: 
 Data sizes:     COMRAM   BANK0   BANK1   BANK2   BANK3   BANK4   BANK5
      Params:         2       0       0       0       0       0       0
      Locals:         0       7       0       0       0       0       0
      Temps:          0       0       0       0       0       0       0
      Totals:         2       7       0       0       0       0       0
Total ram usage:        9 bytes
 Hardware stack levels used:    1
 Hardware stack levels required when called:    5
 This function calls:
		___lldiv
		___lmul
 This function is called by:
		_APP_MANAGE
 This function uses a non-reentrant model


 *************** function ___lmul *****************
 Defined at:
		line 15 in file "C:\Program Files\Microchip\xc8\v1.41\sources\common\Umul32.c"
 Parameters:    Size  Location     Type
  multiplier      4   19[COMRAM] unsigned long 
  multiplicand    4   23[COMRAM] unsigned long 
 Auto vars:     Size  Location     Type
  product         4   27[COMRAM] unsigned long 
 Return value:  Size  Location     Type
                  4   19[COMRAM] unsigned long 
 Registers used:
		wreg, status,2, status,0
 Tracked objects:
		On entry : 
		On exit  : 
		Unchanged: 
 Data sizes:     COMRAM   BANK0   BANK1   BANK2   BANK3   BANK4   BANK5
      Params:         8       0       0       0       0       0       0
      Locals:         4       0       0       0       0       0       0
      Temps:          0       0       0       0       0       0       0
      Totals:        12       0       0       0       0       0       0
Total ram usage:       12 bytes
 Hardware stack levels used:    1
 Hardware stack levels required when called:    4
 This function calls:
		Nothing
 This function is called by:
		_GetAvgSpeed
 This function uses a non-reentrant model


 *************** function ___lldiv *****************
 Defined at:
		line 8 in file "C:\Program Files\Microchip\xc8\v1.41\sources\common\lldiv.c"
 Parameters:    Size  Location     Type
  dividend        4   31[COMRAM] unsigned long 
  divisor         4   35[COMRAM] unsigned long 
 Auto vars:     Size  Location     Type
  quotient        4   39[COMRAM] unsigned long 
  counter         1   43[COMRAM] unsigned char 
 Return value:  Size  Location     Type
                  4   31[COMRAM] unsigned long 
 Registers used:
		wreg, status,2, status,0
 Tracked objects:
		On entry : 
		On exit  : 
		Unchanged: 
 Data sizes:     COMRAM   BANK0   BANK1   BANK2   BANK3   BANK4   BANK5
      Params:         8       0       0       0       0       0       0
      Locals:         5       0       0       0       0       0       0
      Temps:          0       0       0       0       0       0       0
      Totals:        13       0       0       0       0       0       0
Total ram usage:       13 bytes
 Hardware stack levels used:    1
 Hardware stack levels required when called:    4
 This function calls:
		Nothing
 This function is called by:
		_SpeedCalcManage
		_GetAvgSpeed
 This function uses a non-reentrant model


 *************** function _BlinkDigit *****************
 Defined at:
		line 121 in file "../../../../Common/Driver/BCDdisplay/BCDdisplay.c"
 Parameters:    Size  Location     Type
  Index           1    wreg     unsigned char 
  duration        1   19[COMRAM] unsigned char 
 Auto vars:     Size  Location     Type
  Index           1   20[COMRAM] unsigned char 
 Return value:  Size  Location     Type
                  1    wreg      void 
 Registers used:
		wreg
 Tracked objects:
		On entry : 
		On exit  : 
		Unchanged: 
 Data sizes:     COMRAM   BANK0   BANK1   BANK2   BANK3   BANK4   BANK5
      Params:         1       0       0       0       0       0       0
      Locals:         1       0       0       0       0       0       0
      Temps:          0       0       0       0       0       0       0
      Totals:         2       0       0       0       0       0       0
Total ram usage:        2 bytes
 Hardware stack levels used:    1
 Hardware stack levels required when called:    4
 This function calls:
		Nothing
 This function is called by:
		_APP_MANAGE
 This function uses a non-reentrant model


 *************** function _BCDsendNumber *****************
 Defined at:
		line 34 in file "../../../../Common/Driver/BCDdisplay/BCDdisplay.c"
 Parameters:    Size  Location     Type
  Number          2   26[COMRAM] unsigned short 
  DecimalPlace    1   28[COMRAM] unsigned char 
 Auto vars:     Size  Location     Type
  Buffer          2   35[COMRAM] unsigned short 
  Output          2   33[COMRAM] unsigned short 
  Link            2   31[COMRAM] unsigned short 
  LoopIndex       1   37[COMRAM] unsigned char 
 Return value:  Size  Location     Type
                  1    wreg      void 
 Registers used:
		wreg, fsr2l, fsr2h, status,2, status,0, tblptrl, tblptrh, tblptru, prodl, prodh, cstack
 Tracked objects:
		On entry : 
		On exit  : 
		Unchanged: 
 Data sizes:     COMRAM   BANK0   BANK1   BANK2   BANK3   BANK4   BANK5
      Params:         3       0       0       0       0       0       0
      Locals:         7       0       0       0       0       0       0
      Temps:          2       0       0       0       0       0       0
      Totals:        12       0       0       0       0       0       0
Total ram usage:       12 bytes
 Hardware stack levels used:    1
 Hardware stack levels required when called:    5
 This function calls:
		___lwdiv
		___wmul
 This function is called by:
		_APP_MANAGE
 This function uses a non-reentrant model


 *************** function ___wmul *****************
 Defined at:
		line 15 in file "C:\Program Files\Microchip\xc8\v1.41\sources\common\Umul16.c"
 Parameters:    Size  Location     Type
  multiplier      2   19[COMRAM] unsigned int 
  multiplicand    2   21[COMRAM] unsigned int 
 Auto vars:     Size  Location     Type
  product         2   23[COMRAM] unsigned int 
 Return value:  Size  Location     Type
                  2   19[COMRAM] unsigned int 
 Registers used:
		wreg, status,2, status,0, prodl, prodh
 Tracked objects:
		On entry : 
		On exit  : 
		Unchanged: 
 Data sizes:     COMRAM   BANK0   BANK1   BANK2   BANK3   BANK4   BANK5
      Params:         4       0       0       0       0       0       0
      Locals:         2       0       0       0       0       0       0
      Temps:          0       0       0       0       0       0       0
      Totals:         6       0       0       0       0       0       0
Total ram usage:        6 bytes
 Hardware stack levels used:    1
 Hardware stack levels required when called:    4
 This function calls:
		Nothing
 This function is called by:
		_APP_MANAGE
		_BCDsendNumber
		_SpeedCalcManage
 This function uses a non-reentrant model


 *************** function ___lwdiv *****************
 Defined at:
		line 8 in file "C:\Program Files\Microchip\xc8\v1.41\sources\common\lwdiv.c"
 Parameters:    Size  Location     Type
  dividend        2   19[COMRAM] unsigned int 
  divisor         2   21[COMRAM] unsigned int 
 Auto vars:     Size  Location     Type
  quotient        2   24[COMRAM] unsigned int 
  counter         1   23[COMRAM] unsigned char 
 Return value:  Size  Location     Type
                  2   19[COMRAM] unsigned int 
 Registers used:
		wreg, status,2, status,0
 Tracked objects:
		On entry : 
		On exit  : 
		Unchanged: 
 Data sizes:     COMRAM   BANK0   BANK1   BANK2   BANK3   BANK4   BANK5
      Params:         4       0       0       0       0       0       0
      Locals:         3       0       0       0       0       0       0
      Temps:          0       0       0       0       0       0       0
      Totals:         7       0       0       0       0       0       0
Total ram usage:        7 bytes
 Hardware stack levels used:    1
 Hardware stack levels required when called:    4
 This function calls:
		Nothing
 This function is called by:
		_BCDsendNumber
		_SpeedCalcManage
 This function uses a non-reentrant model


 *************** function _BCDManage7segment *****************
 Defined at:
		line 65 in file "../../../../Common/Driver/BCDdisplay/BCDdisplay.c"
 Parameters:    Size  Location     Type
		None
 Auto vars:     Size  Location     Type
  BCD             1   24[COMRAM] unsigned char 
  Index           1   23[COMRAM] unsigned char 
 Return value:  Size  Location     Type
                  1    wreg      void 
 Registers used:
		wreg, fsr2l, fsr2h, status,2, status,0, prodl, prodh, cstack
 Tracked objects:
		On entry : 
		On exit  : 
		Unchanged: 
 Data sizes:     COMRAM   BANK0   BANK1   BANK2   BANK3   BANK4   BANK5
      Params:         0       0       0       0       0       0       0
      Locals:         2       0       0       0       0       0       0
      Temps:          2       0       0       0       0       0       0
      Totals:         4       0       0       0       0       0       0
Total ram usage:        4 bytes
 Hardware stack levels used:    1
 Hardware stack levels required when called:    5
 This function calls:
		_HWI_4Digit_WRITE
		_HWI_8Digit_WRITE
 This function is called by:
		_DisplayAlphaNumeric
 This function uses a non-reentrant model


 *************** function _HWI_8Digit_WRITE *****************
 Defined at:
		line 41 in file "../../HWIsource/HWI_DIGITAL.c"
 Parameters:    Size  Location     Type
  port            1    wreg     unsigned char 
  value           1   19[COMRAM] unsigned char 
 Auto vars:     Size  Location     Type
  port            1   20[COMRAM] unsigned char 
 Return value:  Size  Location     Type
                  1    wreg      void 
 Registers used:
		wreg, status,2, status,0
 Tracked objects:
		On entry : 
		On exit  : 
		Unchanged: 
 Data sizes:     COMRAM   BANK0   BANK1   BANK2   BANK3   BANK4   BANK5
      Params:         1       0       0       0       0       0       0
      Locals:         1       0       0       0       0       0       0
      Temps:          0       0       0       0       0       0       0
      Totals:         2       0       0       0       0       0       0
Total ram usage:        2 bytes
 Hardware stack levels used:    1
 Hardware stack levels required when called:    4
 This function calls:
		Nothing
 This function is called by:
		_BCDManage7segment
 This function uses a non-reentrant model


 *************** function _HWI_4Digit_WRITE *****************
 Defined at:
		line 8 in file "../../HWIsource/HWI_DIGITAL.c"
 Parameters:    Size  Location     Type
  port            1    wreg     unsigned char 
  value           1   19[COMRAM] unsigned char 
 Auto vars:     Size  Location     Type
  port            1   20[COMRAM] unsigned char 
 Return value:  Size  Location     Type
                  1    wreg      void 
 Registers used:
		wreg, status,2, status,0
 Tracked objects:
		On entry : 
		On exit  : 
		Unchanged: 
 Data sizes:     COMRAM   BANK0   BANK1   BANK2   BANK3   BANK4   BANK5
      Params:         1       0       0       0       0       0       0
      Locals:         1       0       0       0       0       0       0
      Temps:          0       0       0       0       0       0       0
      Totals:         2       0       0       0       0       0       0
Total ram usage:        2 bytes
 Hardware stack levels used:    1
 Hardware stack levels required when called:    4
 This function calls:
		Nothing
 This function is called by:
		_BCDManage7segment
 This function uses a non-reentrant model


 *************** function _HWI_INTERRUPTS_INTITALIZE *****************
 Defined at:
		line 10 in file "../../HWIsource/HWI_Interrupts.c"
 Parameters:    Size  Location     Type
		None
 Auto vars:     Size  Location     Type
		None
 Return value:  Size  Location     Type
                  1    wreg      void 
 Registers used:
		wreg, status,2
 Tracked objects:
		On entry : 
		On exit  : 
		Unchanged: 
 Data sizes:     COMRAM   BANK0   BANK1   BANK2   BANK3   BANK4   BANK5
      Params:         0       0       0       0       0       0       0
      Locals:         0       0       0       0       0       0       0
      Temps:          0       0       0       0       0       0       0
      Totals:         0       0       0       0       0       0       0
Total ram usage:        0 bytes
 Hardware stack levels used:    1
 Hardware stack levels required when called:    4
 This function calls:
		Nothing
 This function is called by:
		_Start_App
 This function uses a non-reentrant model


 *************** function _HWI_DIGITAL_INITIALIZE *****************
 Defined at:
		line 74 in file "../../HWIsource/HWI_DIGITAL.c"
 Parameters:    Size  Location     Type
		None
 Auto vars:     Size  Location     Type
		None
 Return value:  Size  Location     Type
                  1    wreg      void 
 Registers used:
		wreg, status,2
 Tracked objects:
		On entry : 
		On exit  : 
		Unchanged: 
 Data sizes:     COMRAM   BANK0   BANK1   BANK2   BANK3   BANK4   BANK5
      Params:         0       0       0       0       0       0       0
      Locals:         0       0       0       0       0       0       0
      Temps:          0       0       0       0       0       0       0
      Totals:         0       0       0       0       0       0       0
Total ram usage:        0 bytes
 Hardware stack levels used:    1
 Hardware stack levels required when called:    4
 This function calls:
		Nothing
 This function is called by:
		_Start_App
 This function uses a non-reentrant model


 *************** function _CreateTask *****************
 Defined at:
		line 6 in file "../../../../OS/Scheduler/Scheduler.c"
 Parameters:    Size  Location     Type
  MangeFunctio    2   19[COMRAM] PTR FTN()void 
		 -> ManageDrivers(1), DisplayAlphaNumeric(1), ManageApplication(1), ManageSpeedCalc(1), 
  TaskId          1   21[COMRAM] unsigned char 
  Period          1   22[COMRAM] unsigned char 
 Auto vars:     Size  Location     Type
		None
 Return value:  Size  Location     Type
                  1    wreg      void 
 Registers used:
		wreg, fsr2l, fsr2h, status,2, status,0, prodl, prodh
 Tracked objects:
		On entry : 
		On exit  : 
		Unchanged: 
 Data sizes:     COMRAM   BANK0   BANK1   BANK2   BANK3   BANK4   BANK5
      Params:         4       0       0       0       0       0       0
      Locals:         0       0       0       0       0       0       0
      Temps:          0       0       0       0       0       0       0
      Totals:         4       0       0       0       0       0       0
Total ram usage:        4 bytes
 Hardware stack levels used:    1
 Hardware stack levels required when called:    4
 This function calls:
		Nothing
 This function is called by:
		_Start_App
 This function uses a non-reentrant model


 *************** function _BCDInitialize *****************
 Defined at:
		line 29 in file "../../../../Common/Driver/BCDdisplay/BCDdisplay.c"
 Parameters:    Size  Location     Type
  bIsCommonAno    1    wreg     unsigned char 
 Auto vars:     Size  Location     Type
  bIsCommonAno    1   19[COMRAM] unsigned char 
 Return value:  Size  Location     Type
                  1    wreg      void 
 Registers used:
		wreg
 Tracked objects:
		On entry : 
		On exit  : 
		Unchanged: 
 Data sizes:     COMRAM   BANK0   BANK1   BANK2   BANK3   BANK4   BANK5
      Params:         0       0       0       0       0       0       0
      Locals:         1       0       0       0       0       0       0
      Temps:          0       0       0       0       0       0       0
      Totals:         1       0       0       0       0       0       0
Total ram usage:        1 bytes
 Hardware stack levels used:    1
 Hardware stack levels required when called:    4
 This function calls:
		Nothing
 This function is called by:
		_Start_App
 This function uses a non-reentrant model


 *************** function _APP_INITIALIZE *****************
 Defined at:
		line 11 in file "../../../../Common/App/APP.c"
 Parameters:    Size  Location     Type
		None
 Auto vars:     Size  Location     Type
		None
 Return value:  Size  Location     Type
                  1    wreg      void 
 Registers used:
		None
 Tracked objects:
		On entry : 
		On exit  : 
		Unchanged: 
 Data sizes:     COMRAM   BANK0   BANK1   BANK2   BANK3   BANK4   BANK5
      Params:         0       0       0       0       0       0       0
      Locals:         0       0       0       0       0       0       0
      Temps:          0       0       0       0       0       0       0
      Totals:         0       0       0       0       0       0       0
Total ram usage:        0 bytes
 Hardware stack levels used:    1
 Hardware stack levels required when called:    4
 This function calls:
		Nothing
 This function is called by:
		_Start_App
 This function uses a non-reentrant model


 *************** function _ISR *****************
 Defined at:
		line 52 in file "../../HWIsource/HWI_Interrupts.c"
 Parameters:    Size  Location     Type
		None
 Auto vars:     Size  Location     Type
		None
 Return value:  Size  Location     Type
                  1    wreg      void 
 Registers used:
		wreg, fsr2l, fsr2h, status,2, status,0, prodl, prodh, cstack
 Tracked objects:
		On entry : 
		On exit  : 
		Unchanged: 
 Data sizes:     COMRAM   BANK0   BANK1   BANK2   BANK3   BANK4   BANK5
      Params:         0       0       0       0       0       0       0
      Locals:         0       0       0       0       0       0       0
      Temps:         14       0       0       0       0       0       0
      Totals:        14       0       0       0       0       0       0
Total ram usage:       14 bytes
 Hardware stack levels used:    1
 Hardware stack levels required when called:    3
 This function calls:
		_APP_ISR1
		_APP_ISR2
		_APP_ISR3
		_SchedulerTick
 This function is called by:
		Interrupt level 2
 This function uses a non-reentrant model


 *************** function _SchedulerTick *****************
 Defined at:
		line 16 in file "../../../../OS/Scheduler/Scheduler.c"
 Parameters:    Size  Location     Type
		None
 Auto vars:     Size  Location     Type
  TaskIndex       1    0[COMRAM] unsigned char 
 Return value:  Size  Location     Type
                  1    wreg      void 
 Registers used:
		wreg, fsr2l, fsr2h, status,2, status,0, prodl, prodh
 Tracked objects:
		On entry : 
		On exit  : 
		Unchanged: 
 Data sizes:     COMRAM   BANK0   BANK1   BANK2   BANK3   BANK4   BANK5
      Params:         0       0       0       0       0       0       0
      Locals:         1       0       0       0       0       0       0
      Temps:          0       0       0       0       0       0       0
      Totals:         1       0       0       0       0       0       0
Total ram usage:        1 bytes
 Hardware stack levels used:    1
 This function calls:
		Nothing
 This function is called by:
		_ISR
 This function uses a non-reentrant model


 *************** function _APP_ISR3 *****************
 Defined at:
		line 18 in file "../../../../Common/Interrupts/AppInterrupts.c"
 Parameters:    Size  Location     Type
		None
 Auto vars:     Size  Location     Type
		None
 Return value:  Size  Location     Type
                  1    wreg      void 
 Registers used:
		wreg, status,2, status,0, cstack
 Tracked objects:
		On entry : 
		On exit  : 
		Unchanged: 
 Data sizes:     COMRAM   BANK0   BANK1   BANK2   BANK3   BANK4   BANK5
      Params:         0       0       0       0       0       0       0
      Locals:         0       0       0       0       0       0       0
      Temps:          0       0       0       0       0       0       0
      Totals:         0       0       0       0       0       0       0
Total ram usage:        0 bytes
 Hardware stack levels used:    1
 Hardware stack levels required when called:    1
 This function calls:
		_HWtimerCallback
 This function is called by:
		_ISR
 This function uses a non-reentrant model


 *************** function _HWtimerCallback *****************
 Defined at:
		line 133 in file "../../../../Common/Driver/SpeedCalc/SpeedCalc.c"
 Parameters:    Size  Location     Type
		None
 Auto vars:     Size  Location     Type
		None
 Return value:  Size  Location     Type
                  1    wreg      void 
 Registers used:
		wreg, status,2, status,0
 Tracked objects:
		On entry : 
		On exit  : 
		Unchanged: 
 Data sizes:     COMRAM   BANK0   BANK1   BANK2   BANK3   BANK4   BANK5
      Params:         0       0       0       0       0       0       0
      Locals:         0       0       0       0       0       0       0
      Temps:          0       0       0       0       0       0       0
      Totals:         0       0       0       0       0       0       0
Total ram usage:        0 bytes
 Hardware stack levels used:    1
 This function calls:
		Nothing
 This function is called by:
		_APP_ISR3
 This function uses a non-reentrant model


 *************** function _APP_ISR2 *****************
 Defined at:
		line 13 in file "../../../../Common/Interrupts/AppInterrupts.c"
 Parameters:    Size  Location     Type
		None
 Auto vars:     Size  Location     Type
		None
 Return value:  Size  Location     Type
                  1    wreg      void 
 Registers used:
		wreg, status,2, status,0, cstack
 Tracked objects:
		On entry : 
		On exit  : 
		Unchanged: 
 Data sizes:     COMRAM   BANK0   BANK1   BANK2   BANK3   BANK4   BANK5
      Params:         0       0       0       0       0       0       0
      Locals:         0       0       0       0       0       0       0
      Temps:          0       0       0       0       0       0       0
      Totals:         0       0       0       0       0       0       0
Total ram usage:        0 bytes
 Hardware stack levels used:    1
 Hardware stack levels required when called:    2
 This function calls:
		_SensorTwoNotify
 This function is called by:
		_ISR
 This function uses a non-reentrant model


 *************** function _SensorTwoNotify *****************
 Defined at:
		line 44 in file "../../../../Common/Driver/SpeedCalc/SpeedCalc.c"
 Parameters:    Size  Location     Type
		None
 Auto vars:     Size  Location     Type
		None
 Return value:  Size  Location     Type
                  1    wreg      void 
 Registers used:
		wreg, status,2, status,0, cstack
 Tracked objects:
		On entry : 
		On exit  : 
		Unchanged: 
 Data sizes:     COMRAM   BANK0   BANK1   BANK2   BANK3   BANK4   BANK5
      Params:         0       0       0       0       0       0       0
      Locals:         0       0       0       0       0       0       0
      Temps:          0       0       0       0       0       0       0
      Totals:         0       0       0       0       0       0       0
Total ram usage:        0 bytes
 Hardware stack levels used:    1
 Hardware stack levels required when called:    1
 This function calls:
		_ReloadHWtimer
 This function is called by:
		_APP_ISR2
 This function uses a non-reentrant model


 *************** function _ReloadHWtimer *****************
 Defined at:
		line 91 in file "../../HWIsource/HWI_Interrupts.c"
 Parameters:    Size  Location     Type
  TimerId         1    wreg     unsigned char 
 Auto vars:     Size  Location     Type
  TimerId         1    2[COMRAM] unsigned char 
  ElapsedTime     2    3[COMRAM] unsigned short 
 Return value:  Size  Location     Type
                  2    0[COMRAM] unsigned short 
 Registers used:
		wreg, status,2, status,0
 Tracked objects:
		On entry : 
		On exit  : 
		Unchanged: 
 Data sizes:     COMRAM   BANK0   BANK1   BANK2   BANK3   BANK4   BANK5
      Params:         2       0       0       0       0       0       0
      Locals:         3       0       0       0       0       0       0
      Temps:          0       0       0       0       0       0       0
      Totals:         5       0       0       0       0       0       0
Total ram usage:        5 bytes
 Hardware stack levels used:    1
 This function calls:
		Nothing
 This function is called by:
		_SensorTwoNotify
 This function uses a non-reentrant model


 *************** function _APP_ISR1 *****************
 Defined at:
		line 8 in file "../../../../Common/Interrupts/AppInterrupts.c"
 Parameters:    Size  Location     Type
		None
 Auto vars:     Size  Location     Type
		None
 Return value:  Size  Location     Type
                  1    wreg      void 
 Registers used:
		wreg, status,2, status,0, cstack
 Tracked objects:
		On entry : 
		On exit  : 
		Unchanged: 
 Data sizes:     COMRAM   BANK0   BANK1   BANK2   BANK3   BANK4   BANK5
      Params:         0       0       0       0       0       0       0
      Locals:         0       0       0       0       0       0       0
      Temps:          0       0       0       0       0       0       0
      Totals:         0       0       0       0       0       0       0
Total ram usage:        0 bytes
 Hardware stack levels used:    1
 Hardware stack levels required when called:    1
 This function calls:
		_SensorOneNotify
 This function is called by:
		_ISR
 This function uses a non-reentrant model


 *************** function _SensorOneNotify *****************
 Defined at:
		line 29 in file "../../../../Common/Driver/SpeedCalc/SpeedCalc.c"
 Parameters:    Size  Location     Type
		None
 Auto vars:     Size  Location     Type
		None
 Return value:  Size  Location     Type
                  1    wreg      void 
 Registers used:
		wreg, status,2, status,0
 Tracked objects:
		On entry : 
		On exit  : 
		Unchanged: 
 Data sizes:     COMRAM   BANK0   BANK1   BANK2   BANK3   BANK4   BANK5
      Params:         0       0       0       0       0       0       0
      Locals:         0       0       0       0       0       0       0
      Temps:          0       0       0       0       0       0       0
      Totals:         0       0       0       0       0       0       0
Total ram usage:        0 bytes
 Hardware stack levels used:    1
 This function calls:
		Nothing
 This function is called by:
		_APP_ISR1
 This function uses a non-reentrant model



MODULE INFORMATION

Module		Function		Class		Link	Load	Size
../../../../Common/Interrupts/AppInterrupts.c
		_APP_ISR1      		CODE           	13AC	0000	7
		_APP_ISR2      		CODE           	13A6	0000	7
		_APP_ISR3      		CODE           	13A0	0000	7

../../../../Common/Interrupts/AppInterrupts.c estimated size: 21

../../../../Common/Driver/BCDdisplay/BCDdisplay.c
		_BlinkDigit    		CODE           	135E	0000	13
		_BCDsendNumber 		CODE           	0A4C	0000	247
		_BCDInitialize 		CODE           	1386	0000	9
		_BCDManage7segment		CODE           	0D86	0000	153

../../../../Common/Driver/BCDdisplay/BCDdisplay.c estimated size: 422

C:\Program Files\Microchip\xc8\v1.41\sources\common\Umul32.c
		___lmul        		CODE           	1080	0000	87

C:\Program Files\Microchip\xc8\v1.41\sources\common\Umul32.c estimated size: 87

../../../../Common/Driver/Key/Key.c
		_MangeKeys     		CODE           	061E	0000	1071
		_GetKeyStatus  		CODE           	1234	0000	47

../../../../Common/Driver/Key/Key.c estimated size: 1118

../../../../OS/OS_manage/OS_manage.c
		_ManageSpeedCalc		CODE           	139A	0000	7
		_ManageDrivers 		CODE           	1320	0000	23
		_ManageApplication		CODE           	1394	0000	7
		_DisplayAlphaNumeric		CODE           	138E	0000	7
		_Start_App     		CODE           	0FBC	0000	109

../../../../OS/OS_manage/OS_manage.c estimated size: 153

../../HWIsource/HWI_Interrupts.c
		_ReloadHWtimer 		CODE           	1166	0000	61
		_ISR           		CODE           	0008	0000	195
		_HWI_INTERRUPTS_INTITALIZE		CODE           	1128	0000	63

../../HWIsource/HWI_Interrupts.c estimated size: 319

shared
		_SevenSegmentMAP		SMALLCONST     	0611	0000	12
		__initialization		CODE           	11A2	0000	37
		_KeyArrayConfig		SMALLCONST     	0601	0000	17

shared estimated size: 66

C:\Program Files\Microchip\xc8\v1.41\sources\common\lwdiv.c
		___lwdiv       		CODE           	10D6	0000	83

C:\Program Files\Microchip\xc8\v1.41\sources\common\lwdiv.c estimated size: 83

C:\Program Files\Microchip\xc8\v1.41\sources\common\Umul16.c
		___wmul        		CODE           	12BA	0000	39

C:\Program Files\Microchip\xc8\v1.41\sources\common\Umul16.c estimated size: 39

../../../../Common/Driver/SpeedCalc/SpeedCalc.c
		_SensorOneNotify		CODE           	1336	0000	23
		_HWtimerCallback		CODE           	1374	0000	11
		_GetDistance   		CODE           	134C	0000	19
		_SetCircumfirunce		CODE           	136A	0000	11
		_GetAvgSpeed   		CODE           	0CE8	0000	159
		_SensorTwoNotify		CODE           	1262	0000	47
		_SpeedCalcNotifyInitialize		CODE           	13B4	0000	3
		_SpeedCalcManage		CODE           	0E1E	0000	145

../../../../Common/Driver/SpeedCalc/SpeedCalc.c estimated size: 418

C:\Program Files\Microchip\xc8\v1.41\sources\common\lldiv.c
		___lldiv       		CODE           	0F3A	0000	131

C:\Program Files\Microchip\xc8\v1.41\sources\common\lldiv.c estimated size: 131

../../../../Common/App/APP.c
		_APP_MANAGE    		CODE           	0B42	0000	235
		_APP_INITIALIZE		CODE           	13B6	0000	3

../../../../Common/App/APP.c estimated size: 238

../../HWIsource/HWI_DIGITAL.c
		_HWI_8Digit_WRITE		CODE           	12E0	0000	39
		_HWI_4Digit_WRITE		CODE           	11D4	0000	51
		_HWI_DIGITAL_INITIALIZE		CODE           	1306	0000	27
		_HWI_DIGI_READ 		CODE           	1206	0000	47

../../HWIsource/HWI_DIGITAL.c estimated size: 164

../../../../OS/Scheduler/Scheduler.c
		_SchedulerTick 		CODE           	1290	0000	43
		_CreateTask    		CODE           	1028	0000	89
		_RunScheduler  		CODE           	0EAE	0000	141

../../../../OS/Scheduler/Scheduler.c estimated size: 273

main.c
		_main          		CODE           	137E	0000	9

main.c estimated size: 9

