Microchip MPLAB XC8 Compiler V1.41 ()

Linker command line:

--edf=C:\Program Files\Microchip\xc8\v1.41\dat\en_msgs.txt -cs \
  -h+dist/default/production\BicMeter.X.production.sym \
  --cmf=dist/default/production\BicMeter.X.production.cmf -z -Q18F4520 \
  -oC:\Users\0E57~1\AppData\Local\Temp\s4r4.2 \
  -Mdist/default/production/BicMeter.X.production.map -E1 -ver=XC8 \
  -ASTACK=0F1h-05ffh -pstack=STACK -ACODE=00h-07FFFh -ACONST=00h-07FFFh \
  -ASMALLCONST=0600h-06FFhx122 -AMEDIUMCONST=0600h-07FFFh -ACOMRAM=01h-07Fh \
  -AABS1=00h-05FFh -ABIGRAM=01h-05FFh -ARAM=080h-0FFh,0100h-01FFhx5 \
  -ABANK0=080h-0FFh -ABANK1=0100h-01FFh -ABANK2=0200h-02FFh \
  -ABANK3=0300h-03FFh -ABANK4=0400h-04FFh -ABANK5=0500h-05FFh \
  -ASFR=0F80h-0FFFh -preset_vec=00h,intcode=08h,intcodelo,powerup,init \
  -pramtop=0600h -psmallconst=SMALLCONST -pmediumconst=MEDIUMCONST \
  -pconst=CONST -AFARRAM=00h-00h -ACONFIG=0300000h-030000Dh -pconfig=CONFIG \
  -AIDLOC=0200000h-0200007h -pidloc=IDLOC -AEEDATA=0F00000h-0F000FFh \
  -peeprom_data=EEDATA \
  -prdata=COMRAM,nvrram=COMRAM,nvbit=COMRAM,rbss=COMRAM,rbit=COMRAM \
  -pfarbss=FARRAM,fardata=FARRAM,nvFARRAM=FARRAM \
  -pintsave_regs=BIGRAM,bigbss=BIGRAM,bigdata=BIGRAM -pbss=RAM \
  -pidata=CODE,irdata=CODE,ibigdata=CODE,ifardata=CODE -prparam=COMRAM \
  C:\Users\0E57~1\AppData\Local\Temp\s4r4.obj \
  dist/default/production\BicMeter.X.production.obj 

Object code version is 3.11

Machine type is 18F4520

Call graph: (short form)




                Name                               Link     Load   Length Selector   Space Scale
C:\Users\0E57~1\AppData\Local\Temp\s4r4.obj
                init                                  E        E        4        4       0
                reset_vec                             0        0        4        0       0
                idloc                            200000   200000        8   200000       0
                config                           300000   300000        E   300000       0
dist/default/production\BicMeter.X.production.obj
                intcode                               8        8        6        4       0
                temp                                 6C       6C        1        1       1
                smallconst                          600      600       38      300       0
                text56                             1CDA     1CDA       16      31C       0
                text55                             1D70     1D70        6      31C       0
                text54                             1A8C     1A8C       3C      31C       0
                text53                             1B56     1B56       2E      31C       0
                text52                             1D6A     1D6A        6      31C       0
                text51                             1D30     1D30        A      31C       0
                text50                             1D64     1D64        6      31C       0
                text49                             1BB0     1BB0       2A      31C       0
                intcode_body                       1306     1306       BC      31C       0
                text47                             1D26     1D26        A      31C       0
                text46                             1CA4     1CA4       1C      31C       0
                text45                             1BDA     1BDA       28      31C       0
                text44                             190A     190A       4A      31C       0
                text43                             1D1C     1D1C        A      31C       0
                text42                             1C88     1C88       1C      31C       0
                text41                             1246     1246       C0      31C       0
                text40                             1D4A     1D4A        8      31C       0
                text39                             180A     180A       58      31C       0
                text38                             1CC0     1CC0       1A      31C       0
                text37                             1A12     1A12       3E      31C       0
                text36                             1D7C     1D7C        2      31C       0
                text35                             1AC8     1AC8       32      31C       0
                text34                             1C28     1C28       26      31C       0
                text33                             1464     1464       A2      31C       0
                text32                             1D12     1D12        A      31C       0
                text31                             1C4E     1C4E       1E      31C       0
                text30                             1624     1624       8A      31C       0
                text29                             1B28     1B28       2E      31C       0
                text28                             1B84     1B84       2C      31C       0
                text27                              D2A      D2A      1EE      31C       0
                text26                             1D7A     1D7A        2      31C       0
                text25                             16AE     16AE       82      31C       0
                text24                             1862     1862       56      31C       0
                text23                              F18      F18      1B2      31C       0
                text22                             1D02     1D02       10      31C       0
                text21                             1D42     1D42        8      31C       0
                text20                             17A0     17A0       6A      31C       0
                text19                             1506     1506       92      31C       0
                text18                             1CF0     1CF0       12      31C       0
                text17                             18B8     18B8       52      31C       0
                text16                             1C02     1C02       26      31C       0
                text15                             10CA     10CA      17C      31C       0
                text14                             1994     1994       40      31C       0
                text13                              A66      A66      2C4      31C       0
                text12                             1AFA     1AFA       2E      31C       0
                text11                             1954     1954       40      31C       0
                text10                             1A50     1A50       3C      31C       0
                text9                               638      638      42E      31C       0
                text8                              13C2     13C2       A2      31C       0
                text7                              1D5E     1D5E        6      31C       0
                text6                              1D58     1D58        6      31C       0
                text5                              1D52     1D52        6      31C       0
                text4                              1C6C     1C6C       1C      31C       0
                text3                              1598     1598       8C      31C       0
                text2                              1D78     1D78        2      31C       0
                text1                              1730     1730       70      31C       0
                text0                              1D3A     1D3A        8      31C       0
                cstackCOMRAM                          1        1       39        1       1
                cstackBANK0                          DE       DE       13       80       1
                bssBANK0                             80       80       5E       80       1
                dataCOMRAM                           6A       6A        2        1       1
                bssCOMRAM                            3A       3A       30        1       1
                cinit                              19D4     19D4       3E      31C       0
                idataCOMRAM                        1D76     1D76        2      31C       0

TOTAL           Name                               Link     Load   Length     Space
        CLASS   STACK          

        CLASS   CODE           
                intcode                               8        8        6         0
                init                                  E        E        4         0
                reset_vec                             0        0        4         0
                text56                             1CDA     1CDA       16         0
                text55                             1D70     1D70        6         0
                text54                             1A8C     1A8C       3C         0
                text53                             1B56     1B56       2E         0
                text52                             1D6A     1D6A        6         0
                text51                             1D30     1D30        A         0
                text50                             1D64     1D64        6         0
                text49                             1BB0     1BB0       2A         0
                intcode_body                       1306     1306       BC         0
                text47                             1D26     1D26        A         0
                text46                             1CA4     1CA4       1C         0
                text45                             1BDA     1BDA       28         0
                text44                             190A     190A       4A         0
                text43                             1D1C     1D1C        A         0
                text42                             1C88     1C88       1C         0
                text41                             1246     1246       C0         0
                text40                             1D4A     1D4A        8         0
                text39                             180A     180A       58         0
                text38                             1CC0     1CC0       1A         0
                text37                             1A12     1A12       3E         0
                text36                             1D7C     1D7C        2         0
                text35                             1AC8     1AC8       32         0
                text34                             1C28     1C28       26         0
                text33                             1464     1464       A2         0
                text32                             1D12     1D12        A         0
                text31                             1C4E     1C4E       1E         0
                text30                             1624     1624       8A         0
                text29                             1B28     1B28       2E         0
                text28                             1B84     1B84       2C         0
                text27                              D2A      D2A      1EE         0
                text26                             1D7A     1D7A        2         0
                text25                             16AE     16AE       82         0
                text24                             1862     1862       56         0
                text23                              F18      F18      1B2         0
                text22                             1D02     1D02       10         0
                text21                             1D42     1D42        8         0
                text20                             17A0     17A0       6A         0
                text19                             1506     1506       92         0
                text18                             1CF0     1CF0       12         0
                text17                             18B8     18B8       52         0
                text16                             1C02     1C02       26         0
                text15                             10CA     10CA      17C         0
                text14                             1994     1994       40         0
                text13                              A66      A66      2C4         0
                text12                             1AFA     1AFA       2E         0
                text11                             1954     1954       40         0
                text10                             1A50     1A50       3C         0
                text9                               638      638      42E         0
                text8                              13C2     13C2       A2         0
                text7                              1D5E     1D5E        6         0
                text6                              1D58     1D58        6         0
                text5                              1D52     1D52        6         0
                text4                              1C6C     1C6C       1C         0
                text3                              1598     1598       8C         0
                text2                              1D78     1D78        2         0
                text1                              1730     1730       70         0
                text0                              1D3A     1D3A        8         0
                cinit                              19D4     19D4       3E         0
                idataCOMRAM                        1D76     1D76        2         0

        CLASS   CONST          

        CLASS   SMALLCONST     
                smallconst                          600      600       38         0

        CLASS   MEDIUMCONST    

        CLASS   COMRAM         
                temp                                 6C       6C        1         1
                cstackCOMRAM                          1        1       39         1
                dataCOMRAM                           6A       6A        2         1
                bssCOMRAM                            3A       3A       30         1

        CLASS   ABS1           

        CLASS   BIGRAM         

        CLASS   RAM            

        CLASS   BANK0          
                cstackBANK0                          DE       DE       13         1
                bssBANK0                             80       80       5E         1

        CLASS   BANK1          

        CLASS   BANK2          

        CLASS   BANK3          

        CLASS   BANK4          

        CLASS   BANK5          

        CLASS   SFR            

        CLASS   FARRAM         

        CLASS   CONFIG         
                config                           300000   300000        E         0

        CLASS   IDLOC          
                idloc                            200000   200000        8         0

        CLASS   EEDATA         



SEGMENTS        Name                           Load    Length   Top    Selector   Space  Class

                reset_vec                      000000  000004  000004         0       0  CODE    
                cstackCOMRAM                   000001  00006C  00006D         1       1  COMRAM  
                intcode                        000008  00000A  000012         4       0  CODE    
                bssBANK0                       000080  000071  0000F1        80       1  BANK0   
                smallconst                     000600  000038  000638       300       0  SMALLCON
                text9                          000638  001746  001D7E       31C       0  CODE    
                idloc                          200000  000008  200008    200000       0  IDLOC   
                config                         300000  00000E  30000E    300000       0  CONFIG  


UNUSED ADDRESS RANGES

        Name                Unused          Largest block    Delta
        BANK0            0000F1-0000FF                F
        BANK1            000100-0001FF              100
        BANK2            000200-0002FF              100
        BANK3            000300-0003FF              100
        BANK4            000400-0004FF              100
        BANK5            000500-0005FF              100
        BIGRAM           00006D-00007F               13
                         0000F1-0005FF              50F
        CODE             000004-000007                4
                         000012-0005FF              5EE
                         001D7E-007FFF             6282
        COMRAM           00006D-00007F               13
        CONST            000004-000007                4
                         000012-0005FF              5EE
                         001D7E-007FFF             6282
        EEDATA           F00000-F000FF              100
        MEDIUMCONST      001D7E-007FFF             6282
        RAM              0000F1-0005FF              100
        SFR              000F80-000FFF               80
        SMALLCONST       001D7E-007FFF              100
        STACK            0000F1-0005FF              50F

                                  Symbol Table

?_APP_CALC_AVGSPDmanage                      cstackCOMRAM 000014
?_APP_CALC_MAXSPDmanage                      cstackCOMRAM 000014
?_APP_CALC_TIMEmanage                        cstackCOMRAM 000014
?_GetAvgSpeed                                cstackCOMRAM 00002D
?_GetDistance                                cstackCOMRAM 000014
?_IncrementDecrementSingleDigit              cstackCOMRAM 00001B
?_ReloadHWtimer                              cstackCOMRAM 000001
?___lldiv                                    cstackCOMRAM 000020
?___lmul                                     cstackCOMRAM 000014
?___lwdiv                                    cstackCOMRAM 000014
?___wmul                                     cstackCOMRAM 000014
APP_CALC_AVGSPDmanage@Distance               cstackCOMRAM 00001A
APP_CALC_AVGSPDmanage@StatusByte             cstackCOMRAM 000014
APP_CALC_AVGSPDmanage@TravelTime             cstackCOMRAM 000016
APP_CALC_MAXSPDmanage@CurrentSpeed           cstackCOMRAM 000014
APP_CALC_MAXSPDmanage_Set@MaxSpeed           cstackCOMRAM 000014
APP_CALC_TIMEmanage@StatusByte               cstackCOMRAM 000014
APP_CALC_TIMEsetTravelTime@TravelTime        cstackCOMRAM 000014
APP_HMImanage@DisplayState                   bssCOMRAM    000042
APP_HMImanage@KeyStatusLeft                  cstackCOMRAM 000021
APP_HMImanage@KeyStatusRight                 cstackCOMRAM 000022
APP_HMImanage@StatusByte                     cstackCOMRAM 00001C
APP_HMImanage@TempVar                        cstackCOMRAM 000020
APP_MANAGE@AvgSpeed                          cstackBANK0  0000EB
APP_MANAGE@CurrentSpeed                      cstackBANK0  0000ED
APP_MANAGE@StatusByte                        cstackBANK0  0000EF
APP_SLEEPmanage@StatusByte                   cstackCOMRAM 000014
BCDInitialize@bIsCommonAnode                 cstackCOMRAM 000014
BCDManage7segment@BCD                        cstackCOMRAM 000019
BCDManage7segment@BlinkCounter               bssCOMRAM    00004E
BCDManage7segment@DigitIndex                 bssCOMRAM    00004F
BCDManage7segment@Index                      cstackCOMRAM 000018
BCDManage7segment@LineIndex                  bssCOMRAM    00004D
BCDsendNumber@Buffer                         cstackBANK0  0000E6
BCDsendNumber@DecimalPlace                   cstackCOMRAM 000032
BCDsendNumber@EnableTranc                    cstackCOMRAM 000033
BCDsendNumber@Line                           cstackCOMRAM 000031
BCDsendNumber@Link                           cstackBANK0  0000DE
BCDsendNumber@LoopIndex                      cstackBANK0  0000EA
BCDsendNumber@Number                         cstackCOMRAM 00002D
BCDsendNumber@Output                         cstackBANK0  0000E2
BlinkDigit@Index                             cstackCOMRAM 000016
BlinkDigit@Line                              cstackCOMRAM 000014
BlinkDigit@duration                          cstackCOMRAM 000015
CreateTask@MangeFunction                     cstackCOMRAM 000014
CreateTask@Period                            cstackCOMRAM 000017
CreateTask@TaskId                            cstackCOMRAM 000016
DisableDistanceCntr@bIsDisabled              cstackCOMRAM 000014
EepromManage@WriteIndex                      bssCOMRAM    000049
EepromManage@WriteSuccess                    cstackCOMRAM 000017
Eeprom_Read_Block@BlockSize                  cstackCOMRAM 00001A
Eeprom_Read_Block@DataPtr                    cstackCOMRAM 000018
Eeprom_Read_Block@LocDataPtr                 cstackCOMRAM 00001C
Eeprom_Read_Block@LoopIndex                  cstackCOMRAM 000020
Eeprom_Read_Block@ReadGranted                cstackCOMRAM 00001B
Eeprom_Read_Block@ReadSuccess                cstackCOMRAM 00001F
Eeprom_Read_Block@address                    cstackCOMRAM 00001E
Eeprom_Write_Block@BlockSize                 cstackCOMRAM 000016
Eeprom_Write_Block@DataPtr                   cstackCOMRAM 000014
Eeprom_Write_Block@LocDataPtr                cstackCOMRAM 00001A
Eeprom_Write_Block@LoopIndex                 cstackCOMRAM 00001D
Eeprom_Write_Block@WriteGranted              cstackCOMRAM 00001C
Eeprom_Write_Block@address                   cstackCOMRAM 000019
Eeprom_Write_Block@ptrFnCallback             cstackCOMRAM 000017
GetAvgSpeed@AvgSpeedKphMph                   cstackCOMRAM 000034
GetAvgSpeed@KphMphFactor                     cstackCOMRAM 000030
GetAvgSpeed@bIsKph                           cstackCOMRAM 00002F
GetKeyStatus@KeyID                           cstackCOMRAM 000015
GetKeyStatus@KeyStatus                       cstackCOMRAM 000014
HWI_4Digit_WRITE@port                        cstackCOMRAM 000015
HWI_4Digit_WRITE@value                       cstackCOMRAM 000014
HWI_8Digit_WRITE@port                        cstackCOMRAM 000015
HWI_8Digit_WRITE@value                       cstackCOMRAM 000014
HWI_DIGI_READ@HWIread                        cstackCOMRAM 000015
HWI_DIGI_READ@pin                            cstackCOMRAM 000014
HWIeeprom_Read@Data                          cstackCOMRAM 000014
HWIeeprom_Read@ReadSuccess                   cstackCOMRAM 000017
HWIeeprom_Read@address                       cstackCOMRAM 000016
HWIeeprom_Write@Data                         cstackCOMRAM 000014
HWIeeprom_Write@WriteSuccess                 cstackCOMRAM 000016
HWIeeprom_Write@address                      cstackCOMRAM 000015
IncrementDecrementSingleDigit@Index          cstackCOMRAM 00001D
IncrementDecrementSingleDigit@Link           cstackCOMRAM 000020
IncrementDecrementSingleDigit@LoopIndex      cstackCOMRAM 00002B
IncrementDecrementSingleDigit@Number         cstackCOMRAM 00001B
IncrementDecrementSingleDigit@NumberReturned cstackCOMRAM 000022
IncrementDecrementSingleDigit@Output         cstackCOMRAM 000027
IncrementDecrementSingleDigit@PowIndex       cstackCOMRAM 000024
IncrementDecrementSingleDigit@bIsincrement   cstackCOMRAM 00001E
IncrementDecrementSingleDigit@unitPosition   cstackCOMRAM 000025
ManageDrivers@LoopIndex                      cstackCOMRAM 00001B
MangeKeys@HWIreading                         cstackCOMRAM 000019
MangeKeys@KeyID                              cstackCOMRAM 00001A
MangeKeys@KeyState                           cstackCOMRAM 000018
ReloadHWtimer@ElapsedTime                    cstackCOMRAM 000004
ReloadHWtimer@TimerId                        cstackCOMRAM 000003
RunScheduler@TaskIndex                       bssCOMRAM    000043
SchedulerTick@TaskIndex                      cstackCOMRAM 000001
SetCircumfirunce@Circum                      cstackCOMRAM 000014
SetDistance@Distance                         cstackCOMRAM 000014
SpeedCalcManage@HundredMeterReference        cstackCOMRAM 00002F
_APP_CALC_AVGSPDmanage                       text32       001D12
_APP_CALC_MAXSPDmanage                       text31       001C4E
_APP_CALC_MAXSPDmanage_Set                   text47       001D26
_APP_CALC_TIMEmanage                         text30       001624
_APP_CALC_TIMEsetTravelTime                  text46       001CA4
_APP_DATA                                    bssCOMRAM    000055
_APP_HMImanage                               text27       000D2A
_APP_INITIALIZE                              text41       001246
_APP_ISR1                                    text55       001D70
_APP_ISR2                                    text52       001D6A
_APP_ISR3                                    text50       001D64
_APP_MANAGE                                  text13       000A66
_APP_SLEEPmanage                             text26       001D7A
_ArrayTask                                   bssBANK0     0000B2
_BCDAlpha                                    bssBANK0     0000C2
_BCDInitialize                               text40       001D4A
_BCDManage7segment                           text33       001464
_BCDsendNumber                               text23       000F18
_BlinkDigit                                  text22       001D02
_BlinkDuration                               bssCOMRAM    000052
_BlinkFlag                                   bssCOMRAM    000050
_BlinkIndex                                  bssCOMRAM    000053
_CalcMaxSpeed                                bssCOMRAM    00003A
_CircumFactor                                dataCOMRAM   00006A
_CreateTask                                  text39       00180A
_DataArray                                   bssBANK0     000080
_DataSize                                    bssCOMRAM    00004A
_DisableDistanceCntr                         text21       001D42
_DisplayAlphaNumeric                         text5        001D52
_DistTravelCntr                              bssBANK0     0000D6
_DistTravelCntrDisable                       bssCOMRAM    000045
_EEADR                                       (abs)        000FA9
_EECON1bits                                  (abs)        000FA6
_EECON2                                      (abs)        000FA7
_EEDATA                                      (abs)        000FA8
_EEPROMaddr                                  bssCOMRAM    00004B
_EepromManage                                text11       001954
_Eeprom_Read_Block                           text44       00190A
_Eeprom_Write_Block                          text20       0017A0
_ElapsedTimeMinutes                          bssBANK0     0000D2
_ElapsedTimePeriod                           bssBANK0     0000DA
_GetAvgSpeed                                 text19       001506
_GetDistance                                 text18       001CF0
_GetKeyStatus                                text29       001B28
_HWI_4Digit_WRITE                            text35       001AC8
_HWI_8Digit_WRITE                            text34       001C28
_HWI_DIGITAL_INITIALIZE                      text38       001CC0
_HWI_DIGI_READ                               text10       001A50
_HWI_INTERRUPTS_INTITALIZE                   text37       001A12
_HWI_InitOscilatorCalib                      text36       001D7C
_HWIeeprom_Read                              text45       001BDA
_HWIeeprom_Write                             text12       001AFA
_HWtimerCallback                             text51       001D30
_HWtimerCount                                bssCOMRAM    00003C
_HwTimerOVFLcount                            bssCOMRAM    000044
_INT0IF                                      (abs)        007F91
_INT1IF                                      (abs)        007F80
_INTCON                                      (abs)        000FF2
_INTCON2bits                                 (abs)        000FF1
_INTCON3                                     (abs)        000FF0
_INTCONbits                                  (abs)        000FF2
_ISR                                         intcode      000008
_IncrementDecrementSingleDigit               text15       0010CA
_KeyArrayConfig                              smallconst   00061B
_KeyInternalData                             bssCOMRAM    000064
_LATC                                        (abs)        000F8B
_LATD                                        (abs)        000F8C
_LapCounter                                  bssCOMRAM    000047
_LapDistanceCounter                          bssBANK0     0000DC
_LapTimeTenthMilli                           bssCOMRAM    00003E
_LineBlinkIndex                              bssCOMRAM    000051
_ManageApplication                           text6        001D58
_ManageDrivers                               text4        001C6C
_ManageSpeedCalc                             text7        001D5E
_MangeKeys                                   text9        000638
_NotifyFlag                                  bssCOMRAM    000048
_PORTBbits                                   (abs)        000F81
_PORTC                                       (abs)        000F82
_PORTD                                       (abs)        000F83
_ReloadHWtimer                               text54       001A8C
_RunScheduler                                text3        001598
_SchedulerTick                               text49       001BB0
_Segment7ASCIItable                          smallconst   000601
_SensorOneNotify                             text56       001CDA
_SensorTwoNotify                             text53       001B56
_SetCircumfirunce                            text43       001D1C
_SetDistance                                 text42       001C88
_SevenSegmentMAP                             smallconst   00062B
_SpeedCalcManage                             text8        0013C2
_SpeedCalcNotifyInitialize                   text2        001D78
_Start_App                                   text1        001730
_T0CON                                       (abs)        000FD5
_T1CON                                       (abs)        000FCD
_T3CON                                       (abs)        000FB1
_TMR0IE                                      (abs)        007F95
_TMR0IF                                      (abs)        007F92
_TMR0L                                       (abs)        000FD6
_TMR1                                        (abs)        000FCE
_TMR1IE                                      (abs)        007CE8
_TMR1IF                                      (abs)        007CF0
_TMR2IF                                      (abs)        007CF1
_TMR3H                                       (abs)        000FB3
_TMR3IE                                      (abs)        007D01
_TMR3IF                                      (abs)        007D09
_TMR3L                                       (abs)        000FB2
_TRISBbits                                   (abs)        000F93
_TRISC                                       (abs)        000F94
_TRISD                                       (abs)        000F95
_TimerOVFLcount                              bssCOMRAM    000046
_WriteFnCallback                             bssCOMRAM    000040
_WriteRequest                                bssCOMRAM    00004C
__CFG_BOREN$SBORDIS                          (abs)        000000
__CFG_BORV$3                                 (abs)        000000
__CFG_CCP2MX$PORTC                           (abs)        000000
__CFG_CP0$OFF                                (abs)        000000
__CFG_CP1$OFF                                (abs)        000000
__CFG_CP2$OFF                                (abs)        000000
__CFG_CP3$OFF                                (abs)        000000
__CFG_CPB$OFF                                (abs)        000000
__CFG_CPD$OFF                                (abs)        000000
__CFG_EBTR0$OFF                              (abs)        000000
__CFG_EBTR1$OFF                              (abs)        000000
__CFG_EBTR2$OFF                              (abs)        000000
__CFG_EBTR3$OFF                              (abs)        000000
__CFG_EBTRB$OFF                              (abs)        000000
__CFG_FCMEN$OFF                              (abs)        000000
__CFG_IESO$OFF                               (abs)        000000
__CFG_LPT1OSC$OFF                            (abs)        000000
__CFG_LVP$ON                                 (abs)        000000
__CFG_MCLRE$OFF                              (abs)        000000
__CFG_OSC$XT                                 (abs)        000000
__CFG_PBADEN$OFF                             (abs)        000000
__CFG_PWRT$OFF                               (abs)        000000
__CFG_STVREN$ON                              (abs)        000000
__CFG_WDT$OFF                                (abs)        000000
__CFG_WDTPS$32768                            (abs)        000000
__CFG_WRT0$OFF                               (abs)        000000
__CFG_WRT1$OFF                               (abs)        000000
__CFG_WRT2$OFF                               (abs)        000000
__CFG_WRT3$OFF                               (abs)        000000
__CFG_WRTB$OFF                               (abs)        000000
__CFG_WRTC$OFF                               (abs)        000000
__CFG_WRTD$OFF                               (abs)        000000
__CFG_XINST$OFF                              (abs)        000000
__HRAM                                       (abs)        000000
__Habs1                                      abs1         000000
__Hbank0                                     bank0        000000
__Hbank1                                     bank1        000000
__Hbank2                                     bank2        000000
__Hbank3                                     bank3        000000
__Hbank4                                     bank4        000000
__Hbank5                                     bank5        000000
__Hbigbss                                    bigbss       000000
__Hbigdata                                   bigdata      000000
__Hbigram                                    bigram       000000
__Hbss                                       bss          000000
__HbssBANK0                                  bssBANK0     000000
__HbssCOMRAM                                 bssCOMRAM    000000
__Hcinit                                     cinit        000000
__Hclrtext                                   clrtext      000000
__Hcomram                                    comram       000000
__Hconfig                                    config       30000E
__Hconst                                     const        000000
__HcstackBANK0                               cstackBANK0  000000
__HcstackCOMRAM                              cstackCOMRAM 000000
__Hdata                                      data         000000
__HdataCOMRAM                                dataCOMRAM   000000
__Heeprom_data                               eeprom_data  000000
__Hfarbss                                    farbss       000000
__Hfardata                                   fardata      000000
__Hibigdata                                  ibigdata     000000
__Hidata                                     idata        000000
__HidataCOMRAM                               idataCOMRAM  000000
__Hidloc                                     idloc        200008
__Hifardata                                  ifardata     000000
__Hinit                                      init         000012
__Hintcode                                   intcode      00000E
__Hintcode_body                              intcode_body 000000
__Hintcodelo                                 intcodelo    00000E
__Hintentry                                  intentry     000000
__Hintret                                    intret       000000
__Hintsave_regs                              intsave_regs 000000
__Hirdata                                    irdata       000000
__Hmediumconst                               mediumconst  000000
__HnvFARRAM                                  nvFARRAM     000000
__Hnvbit                                     nvbit        000000
__Hnvrram                                    nvrram       000000
__Hparam                                     rparam       000000
__Hpowerup                                   powerup      00000E
__Hram                                       ram          000000
__Hramtop                                    ramtop       000600
__Hrbit                                      rbit         000000
__Hrbss                                      rbss         000000
__Hrdata                                     rdata        000000
__Hreset_vec                                 reset_vec    000004
__Hrparam                                    rparam       000000
__Hsfr                                       sfr          000000
__Hsmallconst                                smallconst   000638
__Hspace_0                                   (abs)        30000E
__Hspace_1                                   (abs)        0000F1
__Hspace_2                                   (abs)        000000
__Hstack                                     stack        000000
__Hstruct                                    struct       000000
__Htemp                                      temp         00006D
__Htext                                      text         000000
__Htext0                                     text0        000000
__Htext1                                     text1        000000
__Htext10                                    text10       000000
__Htext11                                    text11       000000
__Htext12                                    text12       000000
__Htext13                                    text13       000000
__Htext14                                    text14       000000
__Htext15                                    text15       000000
__Htext16                                    text16       000000
__Htext17                                    text17       000000
__Htext18                                    text18       000000
__Htext19                                    text19       000000
__Htext2                                     text2        000000
__Htext20                                    text20       000000
__Htext21                                    text21       000000
__Htext22                                    text22       000000
__Htext23                                    text23       000000
__Htext24                                    text24       000000
__Htext25                                    text25       000000
__Htext26                                    text26       000000
__Htext27                                    text27       000000
__Htext28                                    text28       000000
__Htext29                                    text29       000000
__Htext3                                     text3        000000
__Htext30                                    text30       000000
__Htext31                                    text31       000000
__Htext32                                    text32       000000
__Htext33                                    text33       000000
__Htext34                                    text34       000000
__Htext35                                    text35       000000
__Htext36                                    text36       000000
__Htext37                                    text37       000000
__Htext38                                    text38       000000
__Htext39                                    text39       000000
__Htext4                                     text4        000000
__Htext40                                    text40       000000
__Htext41                                    text41       000000
__Htext42                                    text42       000000
__Htext43                                    text43       000000
__Htext44                                    text44       000000
__Htext45                                    text45       000000
__Htext46                                    text46       000000
__Htext47                                    text47       000000
__Htext49                                    text49       000000
__Htext5                                     text5        000000
__Htext50                                    text50       000000
__Htext51                                    text51       000000
__Htext52                                    text52       000000
__Htext53                                    text53       000000
__Htext54                                    text54       000000
__Htext55                                    text55       000000
__Htext56                                    text56       000000
__Htext57                                    text57       000000
__Htext6                                     text6        000000
__Htext7                                     text7        000000
__Htext8                                     text8        000000
__Htext9                                     text9        000000
__LRAM                                       (abs)        000001
__Labs1                                      abs1         000000
__Lbank0                                     bank0        000000
__Lbank1                                     bank1        000000
__Lbank2                                     bank2        000000
__Lbank3                                     bank3        000000
__Lbank4                                     bank4        000000
__Lbank5                                     bank5        000000
__Lbigbss                                    bigbss       000000
__Lbigdata                                   bigdata      000000
__Lbigram                                    bigram       000000
__Lbss                                       bss          000000
__LbssBANK0                                  bssBANK0     000000
__LbssCOMRAM                                 bssCOMRAM    000000
__Lcinit                                     cinit        000000
__Lclrtext                                   clrtext      000000
__Lcomram                                    comram       000000
__Lconfig                                    config       300000
__Lconst                                     const        000000
__LcstackBANK0                               cstackBANK0  000000
__LcstackCOMRAM                              cstackCOMRAM 000000
__Ldata                                      data         000000
__LdataCOMRAM                                dataCOMRAM   000000
__Leeprom_data                               eeprom_data  000000
__Lfarbss                                    farbss       000000
__Lfardata                                   fardata      000000
__Libigdata                                  ibigdata     000000
__Lidata                                     idata        000000
__LidataCOMRAM                               idataCOMRAM  000000
__Lidloc                                     idloc        200000
__Lifardata                                  ifardata     000000
__Linit                                      init         00000E
__Lintcode                                   intcode      000008
__Lintcode_body                              intcode_body 000000
__Lintcodelo                                 intcodelo    00000E
__Lintentry                                  intentry     000000
__Lintret                                    intret       000000
__Lintsave_regs                              intsave_regs 000000
__Lirdata                                    irdata       000000
__Lmediumconst                               mediumconst  000000
__LnvFARRAM                                  nvFARRAM     000000
__Lnvbit                                     nvbit        000000
__Lnvrram                                    nvrram       000000
__Lparam                                     rparam       000000
__Lpowerup                                   powerup      00000E
__Lram                                       ram          000000
__Lramtop                                    ramtop       000600
__Lrbit                                      rbit         000000
__Lrbss                                      rbss         000000
__Lrdata                                     rdata        000000
__Lreset_vec                                 reset_vec    000000
__Lrparam                                    rparam       000000
__Lsfr                                       sfr          000000
__Lsmallconst                                smallconst   000600
__Lspace_0                                   (abs)        000000
__Lspace_1                                   (abs)        000000
__Lspace_2                                   (abs)        000000
__Lstack                                     stack        000000
__Lstruct                                    struct       000000
__Ltemp                                      temp         00006C
__Ltext                                      text         000000
__Ltext0                                     text0        000000
__Ltext1                                     text1        000000
__Ltext10                                    text10       000000
__Ltext11                                    text11       000000
__Ltext12                                    text12       000000
__Ltext13                                    text13       000000
__Ltext14                                    text14       000000
__Ltext15                                    text15       000000
__Ltext16                                    text16       000000
__Ltext17                                    text17       000000
__Ltext18                                    text18       000000
__Ltext19                                    text19       000000
__Ltext2                                     text2        000000
__Ltext20                                    text20       000000
__Ltext21                                    text21       000000
__Ltext22                                    text22       000000
__Ltext23                                    text23       000000
__Ltext24                                    text24       000000
__Ltext25                                    text25       000000
__Ltext26                                    text26       000000
__Ltext27                                    text27       000000
__Ltext28                                    text28       000000
__Ltext29                                    text29       000000
__Ltext3                                     text3        000000
__Ltext30                                    text30       000000
__Ltext31                                    text31       000000
__Ltext32                                    text32       000000
__Ltext33                                    text33       000000
__Ltext34                                    text34       000000
__Ltext35                                    text35       000000
__Ltext36                                    text36       000000
__Ltext37                                    text37       000000
__Ltext38                                    text38       000000
__Ltext39                                    text39       000000
__Ltext4                                     text4        000000
__Ltext40                                    text40       000000
__Ltext41                                    text41       000000
__Ltext42                                    text42       000000
__Ltext43                                    text43       000000
__Ltext44                                    text44       000000
__Ltext45                                    text45       000000
__Ltext46                                    text46       000000
__Ltext47                                    text47       000000
__Ltext49                                    text49       000000
__Ltext5                                     text5        000000
__Ltext50                                    text50       000000
__Ltext51                                    text51       000000
__Ltext52                                    text52       000000
__Ltext53                                    text53       000000
__Ltext54                                    text54       000000
__Ltext55                                    text55       000000
__Ltext56                                    text56       000000
__Ltext57                                    text57       000000
__Ltext6                                     text6        000000
__Ltext7                                     text7        000000
__Ltext8                                     text8        000000
__Ltext9                                     text9        000000
__S0                                         (abs)        30000E
__S1                                         (abs)        0000F1
__S2                                         (abs)        000000
___inthi_sp                                  stack        000000
___intlo_sp                                  stack        000000
___lldiv                                     text25       0016AE
___lldiv@counter                             cstackCOMRAM 00002C
___lldiv@dividend                            cstackCOMRAM 000020
___lldiv@divisor                             cstackCOMRAM 000024
___lldiv@quotient                            cstackCOMRAM 000028
___lmul                                      text24       001862
___lmul@multiplicand                         cstackCOMRAM 000018
___lmul@multiplier                           cstackCOMRAM 000014
___lmul@product                              cstackCOMRAM 00001C
___lwdiv                                     text17       0018B8
___lwdiv@counter                             cstackCOMRAM 000018
___lwdiv@dividend                            cstackCOMRAM 000014
___lwdiv@divisor                             cstackCOMRAM 000016
___lwdiv@quotient                            cstackCOMRAM 000019
___param_bank                                (abs)        000000
___rparam_used                               (abs)        000001
___sp                                        stack        000000
___wmul                                      text16       001C02
___wmul@multiplicand                         cstackCOMRAM 000016
___wmul@multiplier                           cstackCOMRAM 000014
___wmul@product                              cstackCOMRAM 000018
__accesstop                                  (abs)        000080
__activetblptr                               (abs)        000002
__end_of_APP_CALC_AVGSPDmanage               text32       001D1C
__end_of_APP_CALC_MAXSPDmanage               text31       001C6C
__end_of_APP_CALC_MAXSPDmanage_Set           text47       001D30
__end_of_APP_CALC_TIMEmanage                 text30       0016AE
__end_of_APP_CALC_TIMEsetTravelTime          text46       001CC0
__end_of_APP_HMImanage                       text27       000F18
__end_of_APP_INITIALIZE                      text41       001306
__end_of_APP_ISR1                            text55       001D76
__end_of_APP_ISR2                            text52       001D70
__end_of_APP_ISR3                            text50       001D6A
__end_of_APP_MANAGE                          text13       000D2A
__end_of_APP_SLEEPmanage                     text26       001D7C
__end_of_BCDInitialize                       text40       001D52
__end_of_BCDManage7segment                   text33       001506
__end_of_BCDsendNumber                       text23       0010CA
__end_of_BlinkDigit                          text22       001D12
__end_of_CreateTask                          text39       001862
__end_of_DisableDistanceCntr                 text21       001D4A
__end_of_DisplayAlphaNumeric                 text5        001D58
__end_of_EepromManage                        text11       001994
__end_of_Eeprom_Read_Block                   text44       001954
__end_of_Eeprom_Write_Block                  text20       00180A
__end_of_GetAvgSpeed                         text19       001598
__end_of_GetDistance                         text18       001D02
__end_of_GetKeyStatus                        text29       001B56
__end_of_HWI_4Digit_WRITE                    text35       001AFA
__end_of_HWI_8Digit_WRITE                    text34       001C4E
__end_of_HWI_DIGITAL_INITIALIZE              text38       001CDA
__end_of_HWI_DIGI_READ                       text10       001A8C
__end_of_HWI_INTERRUPTS_INTITALIZE           text37       001A50
__end_of_HWI_InitOscilatorCalib              text36       001D7E
__end_of_HWIeeprom_Read                      text45       001C02
__end_of_HWIeeprom_Write                     text12       001B28
__end_of_HWtimerCallback                     text51       001D3A
__end_of_ISR                                 intcode_body 0013C2
__end_of_IncrementDecrementSingleDigit       text15       001246
__end_of_KeyArrayConfig                      smallconst   00062B
__end_of_ManageApplication                   text6        001D5E
__end_of_ManageDrivers                       text4        001C88
__end_of_ManageSpeedCalc                     text7        001D64
__end_of_MangeKeys                           text9        000A66
__end_of_ReloadHWtimer                       text54       001AC8
__end_of_RunScheduler                        text3        001624
__end_of_SchedulerTick                       text49       001BDA
__end_of_Segment7ASCIItable                  smallconst   00061B
__end_of_SensorOneNotify                     text56       001CF0
__end_of_SensorTwoNotify                     text53       001B84
__end_of_SetCircumfirunce                    text43       001D26
__end_of_SetDistance                         text42       001CA4
__end_of_SevenSegmentMAP                     smallconst   000636
__end_of_SpeedCalcManage                     text8        001464
__end_of_SpeedCalcNotifyInitialize           text2        001D7A
__end_of_Start_App                           text1        0017A0
__end_of___lldiv                             text25       001730
__end_of___lmul                              text24       0018B8
__end_of___lwdiv                             text17       00190A
__end_of___wmul                              text16       001C28
__end_of__initialization                     cinit        001A04
__end_of_main                                text0        001D42
__end_of_memcpy                              text14       0019D4
__end_of_memset                              text28       001BB0
__initialization                             cinit        0019D4
__mediumconst                                mediumconst  000000
__pbssBANK0                                  bssBANK0     000080
__pbssCOMRAM                                 bssCOMRAM    00003A
__pcinit                                     cinit        0019D4
__pcstackBANK0                               cstackBANK0  0000DE
__pcstackCOMRAM                              cstackCOMRAM 000001
__pdataCOMRAM                                dataCOMRAM   00006A
__pidataCOMRAM                               idataCOMRAM  001D76
__pintcode                                   intcode      000008
__pintcode_body                              intcode_body 001306
__psmallconst                                smallconst   000600
__ptext0                                     text0        001D3A
__ptext1                                     text1        001730
__ptext10                                    text10       001A50
__ptext11                                    text11       001954
__ptext12                                    text12       001AFA
__ptext13                                    text13       000A66
__ptext14                                    text14       001994
__ptext15                                    text15       0010CA
__ptext16                                    text16       001C02
__ptext17                                    text17       0018B8
__ptext18                                    text18       001CF0
__ptext19                                    text19       001506
__ptext2                                     text2        001D78
__ptext20                                    text20       0017A0
__ptext21                                    text21       001D42
__ptext22                                    text22       001D02
__ptext23                                    text23       000F18
__ptext24                                    text24       001862
__ptext25                                    text25       0016AE
__ptext26                                    text26       001D7A
__ptext27                                    text27       000D2A
__ptext28                                    text28       001B84
__ptext29                                    text29       001B28
__ptext3                                     text3        001598
__ptext30                                    text30       001624
__ptext31                                    text31       001C4E
__ptext32                                    text32       001D12
__ptext33                                    text33       001464
__ptext34                                    text34       001C28
__ptext35                                    text35       001AC8
__ptext36                                    text36       001D7C
__ptext37                                    text37       001A12
__ptext38                                    text38       001CC0
__ptext39                                    text39       00180A
__ptext4                                     text4        001C6C
__ptext40                                    text40       001D4A
__ptext41                                    text41       001246
__ptext42                                    text42       001C88
__ptext43                                    text43       001D1C
__ptext44                                    text44       00190A
__ptext45                                    text45       001BDA
__ptext46                                    text46       001CA4
__ptext47                                    text47       001D26
__ptext49                                    text49       001BB0
__ptext5                                     text5        001D52
__ptext50                                    text50       001D64
__ptext51                                    text51       001D30
__ptext52                                    text52       001D6A
__ptext53                                    text53       001B56
__ptext54                                    text54       001A8C
__ptext55                                    text55       001D70
__ptext56                                    text56       001CDA
__ptext57                                    text57       000000
__ptext6                                     text6        001D58
__ptext7                                     text7        001D5E
__ptext8                                     text8        0013C2
__ptext9                                     text9        000638
__ramtop                                     ramtop       000600
__size_of_APP_CALC_AVGSPDmanage              (abs)        000000
__size_of_APP_CALC_MAXSPDmanage              (abs)        000000
__size_of_APP_CALC_MAXSPDmanage_Set          (abs)        000000
__size_of_APP_CALC_TIMEmanage                (abs)        000000
__size_of_APP_CALC_TIMEsetTravelTime         (abs)        000000
__size_of_APP_HMImanage                      (abs)        000000
__size_of_APP_INITIALIZE                     (abs)        000000
__size_of_APP_ISR1                           (abs)        000000
__size_of_APP_ISR2                           (abs)        000000
__size_of_APP_ISR3                           (abs)        000000
__size_of_APP_MANAGE                         (abs)        000000
__size_of_APP_SLEEPmanage                    (abs)        000000
__size_of_BCDInitialize                      (abs)        000000
__size_of_BCDManage7segment                  (abs)        000000
__size_of_BCDsendNumber                      (abs)        000000
__size_of_BlinkDigit                         (abs)        000000
__size_of_CreateTask                         (abs)        000000
__size_of_DisableDistanceCntr                (abs)        000000
__size_of_DisplayAlphaNumeric                (abs)        000000
__size_of_EepromManage                       (abs)        000000
__size_of_Eeprom_Read_Block                  (abs)        000000
__size_of_Eeprom_Write_Block                 (abs)        000000
__size_of_GetAvgSpeed                        (abs)        000000
__size_of_GetDistance                        (abs)        000000
__size_of_GetKeyStatus                       (abs)        000000
__size_of_HWI_4Digit_WRITE                   (abs)        000000
__size_of_HWI_8Digit_WRITE                   (abs)        000000
__size_of_HWI_DIGITAL_INITIALIZE             (abs)        000000
__size_of_HWI_DIGI_READ                      (abs)        000000
__size_of_HWI_INTERRUPTS_INTITALIZE          (abs)        000000
__size_of_HWI_InitOscilatorCalib             (abs)        000000
__size_of_HWIeeprom_Read                     (abs)        000000
__size_of_HWIeeprom_Write                    (abs)        000000
__size_of_HWtimerCallback                    (abs)        000000
__size_of_ISR                                (abs)        000000
__size_of_IncrementDecrementSingleDigit      (abs)        000000
__size_of_ManageApplication                  (abs)        000000
__size_of_ManageDrivers                      (abs)        000000
__size_of_ManageSpeedCalc                    (abs)        000000
__size_of_MangeKeys                          (abs)        000000
__size_of_ReloadHWtimer                      (abs)        000000
__size_of_RunScheduler                       (abs)        000000
__size_of_SchedulerTick                      (abs)        000000
__size_of_SensorOneNotify                    (abs)        000000
__size_of_SensorTwoNotify                    (abs)        000000
__size_of_SetCircumfirunce                   (abs)        000000
__size_of_SetDistance                        (abs)        000000
__size_of_SpeedCalcManage                    (abs)        000000
__size_of_SpeedCalcNotifyInitialize          (abs)        000000
__size_of_Start_App                          (abs)        000000
__size_of___lldiv                            (abs)        000000
__size_of___lmul                             (abs)        000000
__size_of___lwdiv                            (abs)        000000
__size_of___wmul                             (abs)        000000
__size_of_main                               (abs)        000000
__size_of_memcpy                             (abs)        000000
__size_of_memset                             (abs)        000000
__smallconst                                 smallconst   000600
_bIsAnodeUsed                                bssCOMRAM    000054
_main                                        text0        001D3A
_memcpy                                      text14       001994
_memset                                      text28       001B84
btemp                                        temp         00006C
end_of_initialization                        cinit        001A04
int$flags                                    temp         00006C
int_func                                     intcode_body 001306
intlevel0                                    text         000000
intlevel1                                    text         000000
intlevel2                                    text         000000
intlevel3                                    text         000000
memcpy@d                                     cstackCOMRAM 00001A
memcpy@d1                                    cstackCOMRAM 000014
memcpy@n                                     cstackCOMRAM 000018
memcpy@s                                     cstackCOMRAM 00001C
memcpy@s1                                    cstackCOMRAM 000016
memset@c                                     cstackCOMRAM 000016
memset@n                                     cstackCOMRAM 000018
memset@p                                     cstackCOMRAM 00001A
memset@p1                                    cstackCOMRAM 000014
stackhi                                      (abs)        0005FF
stacklo                                      (abs)        0000F1
start                                        init         00000E
start_initialization                         cinit        0019D4


FUNCTION INFORMATION:

 *************** function _main *****************
 Defined at:
		line 78 in file "main.c"
 Parameters:    Size  Location     Type
		None
 Auto vars:     Size  Location     Type
		None
 Return value:  Size  Location     Type
                  1    wreg      void 
 Registers used:
		wreg, fsr1l, fsr1h, fsr2l, fsr2h, status,2, status,0, pclath, tosl, tblptrl, tblptrh, tblptru, prodl, prodh, cstack
 Tracked objects:
		On entry : 
		On exit  : 
		Unchanged: 
 Data sizes:     COMRAM   BANK0   BANK1   BANK2   BANK3   BANK4   BANK5
      Params:         0       0       0       0       0       0       0
      Locals:         0       0       0       0       0       0       0
      Temps:          0       0       0       0       0       0       0
      Totals:         0       0       0       0       0       0       0
Total ram usage:        0 bytes
 Hardware stack levels required when called:   10
 This function calls:
		_Start_App
 This function is called by:
		Startup code after reset
 This function uses a non-reentrant model


 *************** function _Start_App *****************
 Defined at:
		line 21 in file "../../../../OS/OS_manage/OS_manage.c"
 Parameters:    Size  Location     Type
		None
 Auto vars:     Size  Location     Type
		None
 Return value:  Size  Location     Type
                  1    wreg      void 
 Registers used:
		wreg, fsr1l, fsr1h, fsr2l, fsr2h, status,2, status,0, pclath, tosl, tblptrl, tblptrh, tblptru, prodl, prodh, cstack
 Tracked objects:
		On entry : 
		On exit  : 
		Unchanged: 
 Data sizes:     COMRAM   BANK0   BANK1   BANK2   BANK3   BANK4   BANK5
      Params:         0       0       0       0       0       0       0
      Locals:         0       0       0       0       0       0       0
      Temps:          0       0       0       0       0       0       0
      Totals:         0       0       0       0       0       0       0
Total ram usage:        0 bytes
 Hardware stack levels used:    1
 Hardware stack levels required when called:    9
 This function calls:
		_APP_INITIALIZE
		_BCDInitialize
		_CreateTask
		_HWI_DIGITAL_INITIALIZE
		_HWI_INTERRUPTS_INTITALIZE
		_HWI_InitOscilatorCalib
		_RunScheduler
		_SpeedCalcNotifyInitialize
 This function is called by:
		_main
 This function uses a non-reentrant model


 *************** function _SpeedCalcNotifyInitialize *****************
 Defined at:
		line 25 in file "../../../../Common/Driver/SpeedCalc/SpeedCalc.c"
 Parameters:    Size  Location     Type
		None
 Auto vars:     Size  Location     Type
		None
 Return value:  Size  Location     Type
                  1    wreg      void 
 Registers used:
		None
 Tracked objects:
		On entry : 
		On exit  : 
		Unchanged: 
 Data sizes:     COMRAM   BANK0   BANK1   BANK2   BANK3   BANK4   BANK5
      Params:         0       0       0       0       0       0       0
      Locals:         0       0       0       0       0       0       0
      Temps:          0       0       0       0       0       0       0
      Totals:         0       0       0       0       0       0       0
Total ram usage:        0 bytes
 Hardware stack levels used:    1
 Hardware stack levels required when called:    4
 This function calls:
		Nothing
 This function is called by:
		_Start_App
 This function uses a non-reentrant model


 *************** function _RunScheduler *****************
 Defined at:
		line 25 in file "../../../../OS/Scheduler/Scheduler.c"
 Parameters:    Size  Location     Type
		None
 Auto vars:     Size  Location     Type
		None
 Return value:  Size  Location     Type
                  1    wreg      void 
 Registers used:
		wreg, fsr1l, fsr1h, fsr2l, fsr2h, status,2, status,0, pclath, tosl, tblptrl, tblptrh, tblptru, prodl, prodh, cstack
 Tracked objects:
		On entry : 
		On exit  : 
		Unchanged: 
 Data sizes:     COMRAM   BANK0   BANK1   BANK2   BANK3   BANK4   BANK5
      Params:         0       0       0       0       0       0       0
      Locals:         0       0       0       0       0       0       0
      Temps:          2       0       0       0       0       0       0
      Totals:         2       0       0       0       0       0       0
Total ram usage:        2 bytes
 Hardware stack levels used:    1
 Hardware stack levels required when called:    8
 This function calls:
		_DisplayAlphaNumeric
		_ManageApplication
		_ManageDrivers
		_ManageSpeedCalc
 This function is called by:
		_Start_App
 This function uses a non-reentrant model


 *************** function _ManageDrivers *****************
 Defined at:
		line 55 in file "../../../../OS/OS_manage/OS_manage.c"
 Parameters:    Size  Location     Type
		None
 Auto vars:     Size  Location     Type
  LoopIndex       1   26[COMRAM] unsigned char 
 Return value:  Size  Location     Type
                  1    wreg      void 
 Registers used:
		wreg, fsr2l, fsr2h, status,2, status,0, tblptrl, tblptrh, tblptru, prodl, prodh, cstack
 Tracked objects:
		On entry : 
		On exit  : 
		Unchanged: 
 Data sizes:     COMRAM   BANK0   BANK1   BANK2   BANK3   BANK4   BANK5
      Params:         0       0       0       0       0       0       0
      Locals:         1       0       0       0       0       0       0
      Temps:          0       0       0       0       0       0       0
      Totals:         1       0       0       0       0       0       0
Total ram usage:        1 bytes
 Hardware stack levels used:    1
 Hardware stack levels required when called:    6
 This function calls:
		_EepromManage
		_MangeKeys
 This function is called by:
		_Start_App
		_RunScheduler
 This function uses a non-reentrant model


 *************** function _DisplayAlphaNumeric *****************
 Defined at:
		line 42 in file "../../../../OS/OS_manage/OS_manage.c"
 Parameters:    Size  Location     Type
		None
 Auto vars:     Size  Location     Type
		None
 Return value:  Size  Location     Type
                  1    wreg      void 
 Registers used:
		wreg, fsr2l, fsr2h, status,2, status,0, prodl, prodh, cstack
 Tracked objects:
		On entry : 
		On exit  : 
		Unchanged: 
 Data sizes:     COMRAM   BANK0   BANK1   BANK2   BANK3   BANK4   BANK5
      Params:         0       0       0       0       0       0       0
      Locals:         0       0       0       0       0       0       0
      Temps:          0       0       0       0       0       0       0
      Totals:         0       0       0       0       0       0       0
Total ram usage:        0 bytes
 Hardware stack levels used:    1
 Hardware stack levels required when called:    6
 This function calls:
		_BCDManage7segment
 This function is called by:
		_Start_App
		_RunScheduler
 This function uses a non-reentrant model


 *************** function _ManageApplication *****************
 Defined at:
		line 46 in file "../../../../OS/OS_manage/OS_manage.c"
 Parameters:    Size  Location     Type
		None
 Auto vars:     Size  Location     Type
		None
 Return value:  Size  Location     Type
                  1    wreg      void 
 Registers used:
		wreg, fsr1l, fsr1h, fsr2l, fsr2h, status,2, status,0, tblptrl, tblptrh, tblptru, prodl, prodh, cstack
 Tracked objects:
		On entry : 
		On exit  : 
		Unchanged: 
 Data sizes:     COMRAM   BANK0   BANK1   BANK2   BANK3   BANK4   BANK5
      Params:         0       0       0       0       0       0       0
      Locals:         0       0       0       0       0       0       0
      Temps:          0       0       0       0       0       0       0
      Totals:         0       0       0       0       0       0       0
Total ram usage:        0 bytes
 Hardware stack levels used:    1
 Hardware stack levels required when called:    7
 This function calls:
		_APP_MANAGE
 This function is called by:
		_Start_App
		_RunScheduler
 This function uses a non-reentrant model


 *************** function _ManageSpeedCalc *****************
 Defined at:
		line 50 in file "../../../../OS/OS_manage/OS_manage.c"
 Parameters:    Size  Location     Type
		None
 Auto vars:     Size  Location     Type
		None
 Return value:  Size  Location     Type
                  1    wreg      void 
 Registers used:
		wreg, status,2, status,0, prodl, prodh, cstack
 Tracked objects:
		On entry : 
		On exit  : 
		Unchanged: 
 Data sizes:     COMRAM   BANK0   BANK1   BANK2   BANK3   BANK4   BANK5
      Params:         0       0       0       0       0       0       0
      Locals:         0       0       0       0       0       0       0
      Temps:          0       0       0       0       0       0       0
      Totals:         0       0       0       0       0       0       0
Total ram usage:        0 bytes
 Hardware stack levels used:    1
 Hardware stack levels required when called:    6
 This function calls:
		_SpeedCalcManage
 This function is called by:
		_Start_App
		_RunScheduler
 This function uses a non-reentrant model


 *************** function _SpeedCalcManage *****************
 Defined at:
		line 64 in file "../../../../Common/Driver/SpeedCalc/SpeedCalc.c"
 Parameters:    Size  Location     Type
		None
 Auto vars:     Size  Location     Type
  HundredMeter    2   46[COMRAM] unsigned short 
 Return value:  Size  Location     Type
                  1    wreg      void 
 Registers used:
		wreg, status,2, status,0, prodl, prodh, cstack
 Tracked objects:
		On entry : 
		On exit  : 
		Unchanged: 
 Data sizes:     COMRAM   BANK0   BANK1   BANK2   BANK3   BANK4   BANK5
      Params:         0       0       0       0       0       0       0
      Locals:         2       0       0       0       0       0       0
      Temps:          2       0       0       0       0       0       0
      Totals:         4       0       0       0       0       0       0
Total ram usage:        4 bytes
 Hardware stack levels used:    1
 Hardware stack levels required when called:    5
 This function calls:
		___lldiv
		___lwdiv
		___wmul
 This function is called by:
		_ManageSpeedCalc
 This function uses a non-reentrant model


 *************** function _MangeKeys *****************
 Defined at:
		line 29 in file "../../../../Common/Driver/Key/Key.c"
 Parameters:    Size  Location     Type
  KeyID           1    wreg     unsigned char 
 Auto vars:     Size  Location     Type
  KeyID           1   25[COMRAM] unsigned char 
  HWIreading      1   24[COMRAM] unsigned char 
  KeyState        1   23[COMRAM] unsigned char 
 Return value:  Size  Location     Type
                  1    wreg      void 
 Registers used:
		wreg, fsr2l, fsr2h, status,2, status,0, tblptrl, tblptrh, tblptru, prodl, prodh, cstack
 Tracked objects:
		On entry : 
		On exit  : 
		Unchanged: 
 Data sizes:     COMRAM   BANK0   BANK1   BANK2   BANK3   BANK4   BANK5
      Params:         0       0       0       0       0       0       0
      Locals:         3       0       0       0       0       0       0
      Temps:          2       0       0       0       0       0       0
      Totals:         5       0       0       0       0       0       0
Total ram usage:        5 bytes
 Hardware stack levels used:    1
 Hardware stack levels required when called:    5
 This function calls:
		_HWI_DIGI_READ
 This function is called by:
		_ManageDrivers
 This function uses a non-reentrant model


 *************** function _HWI_DIGI_READ *****************
 Defined at:
		line 92 in file "../../HWIsource/HWI_DIGITAL.c"
 Parameters:    Size  Location     Type
  pin             1    wreg     unsigned char 
 Auto vars:     Size  Location     Type
  pin             1   19[COMRAM] unsigned char 
  HWIread         1   20[COMRAM] unsigned char 
 Return value:  Size  Location     Type
                  1    wreg      unsigned char 
 Registers used:
		wreg, status,2, status,0
 Tracked objects:
		On entry : 
		On exit  : 
		Unchanged: 
 Data sizes:     COMRAM   BANK0   BANK1   BANK2   BANK3   BANK4   BANK5
      Params:         0       0       0       0       0       0       0
      Locals:         2       0       0       0       0       0       0
      Temps:          0       0       0       0       0       0       0
      Totals:         2       0       0       0       0       0       0
Total ram usage:        2 bytes
 Hardware stack levels used:    1
 Hardware stack levels required when called:    4
 This function calls:
		Nothing
 This function is called by:
		_MangeKeys
 This function uses a non-reentrant model


 *************** function _EepromManage *****************
 Defined at:
		line 82 in file "../../../../Common/Driver/EEPROM/Eeprom.c"
 Parameters:    Size  Location     Type
		None
 Auto vars:     Size  Location     Type
  WriteSuccess    1   22[COMRAM] unsigned char 
 Return value:  Size  Location     Type
                  1    wreg      void 
 Registers used:
		wreg, fsr2l, fsr2h, status,2, status,0, prodl, prodh, cstack
 Tracked objects:
		On entry : 
		On exit  : 
		Unchanged: 
 Data sizes:     COMRAM   BANK0   BANK1   BANK2   BANK3   BANK4   BANK5
      Params:         0       0       0       0       0       0       0
      Locals:         1       0       0       0       0       0       0
      Temps:          0       0       0       0       0       0       0
      Totals:         1       0       0       0       0       0       0
Total ram usage:        1 bytes
 Hardware stack levels used:    1
 Hardware stack levels required when called:    5
 This function calls:
		_HWIeeprom_Write
 This function is called by:
		_ManageDrivers
 This function uses a non-reentrant model


 *************** function _HWIeeprom_Write *****************
 Defined at:
		line 6 in file "../../HWIeeprom/HWIeeprom.c"
 Parameters:    Size  Location     Type
  address         1    wreg     unsigned char 
  Data            1   19[COMRAM] unsigned char 
 Auto vars:     Size  Location     Type
  address         1   20[COMRAM] unsigned char 
  WriteSuccess    1   21[COMRAM] unsigned char 
 Return value:  Size  Location     Type
                  1    wreg      unsigned char 
 Registers used:
		wreg, status,2
 Tracked objects:
		On entry : 
		On exit  : 
		Unchanged: 
 Data sizes:     COMRAM   BANK0   BANK1   BANK2   BANK3   BANK4   BANK5
      Params:         1       0       0       0       0       0       0
      Locals:         2       0       0       0       0       0       0
      Temps:          0       0       0       0       0       0       0
      Totals:         3       0       0       0       0       0       0
Total ram usage:        3 bytes
 Hardware stack levels used:    1
 Hardware stack levels required when called:    4
 This function calls:
		Nothing
 This function is called by:
		_EepromManage
 This function uses a non-reentrant model


 *************** function _APP_MANAGE *****************
 Defined at:
		line 66 in file "../../../../Common/App/APP.c"
 Parameters:    Size  Location     Type
		None
 Auto vars:     Size  Location     Type
  StatusByte      2   17[BANK0 ] struct .
  CurrentSpeed    2   15[BANK0 ] unsigned short 
  AvgSpeed        2   13[BANK0 ] unsigned short 
 Return value:  Size  Location     Type
                  1    wreg      void 
 Registers used:
		wreg, fsr1l, fsr1h, fsr2l, fsr2h, status,2, status,0, tblptrl, tblptrh, tblptru, prodl, prodh, cstack
 Tracked objects:
		On entry : 
		On exit  : 
		Unchanged: 
 Data sizes:     COMRAM   BANK0   BANK1   BANK2   BANK3   BANK4   BANK5
      Params:         0       0       0       0       0       0       0
      Locals:         0       6       0       0       0       0       0
      Temps:          0       0       0       0       0       0       0
      Totals:         0       6       0       0       0       0       0
Total ram usage:        6 bytes
 Hardware stack levels used:    1
 Hardware stack levels required when called:    6
 This function calls:
		_APP_CALC_AVGSPDmanage
		_APP_CALC_MAXSPDmanage
		_APP_CALC_TIMEmanage
		_APP_CALC_TIMEsetTravelTime
		_APP_HMImanage
		_APP_SLEEPmanage
		_BCDsendNumber
		_BlinkDigit
		_DisableDistanceCntr
		_Eeprom_Write_Block
		_GetAvgSpeed
		_GetDistance
		_IncrementDecrementSingleDigit
		_SetCircumfirunce
		_memcpy
		_memset
 This function is called by:
		_ManageApplication
 This function uses a non-reentrant model


 *************** function _memcpy *****************
 Defined at:
		line 11 in file "C:\Program Files\Microchip\xc8\v1.41\sources\common\memcpy.c"
 Parameters:    Size  Location     Type
  d1              2   19[COMRAM] PTR void 
		 -> APP_MANAGE@StatusByte(2), APP_DATA(15), 
  s1              2   21[COMRAM] PTR const void 
		 -> APP_DATA.StatusByte(2), APP_MANAGE@StatusByte(2), APP_DATA(15), 
  n               2   23[COMRAM] unsigned int 
 Auto vars:     Size  Location     Type
  s               2   27[COMRAM] PTR const unsigned char 
		 -> APP_DATA.StatusByte(2), APP_MANAGE@StatusByte(2), APP_DATA(15), 
  d               2   25[COMRAM] PTR unsigned char 
		 -> APP_MANAGE@StatusByte(2), APP_DATA(15), 
 Return value:  Size  Location     Type
                  2   19[COMRAM] PTR void 
 Registers used:
		wreg, fsr1l, fsr1h, fsr2l, fsr2h, status,2, status,0
 Tracked objects:
		On entry : 
		On exit  : 
		Unchanged: 
 Data sizes:     COMRAM   BANK0   BANK1   BANK2   BANK3   BANK4   BANK5
      Params:         6       0       0       0       0       0       0
      Locals:         4       0       0       0       0       0       0
      Temps:          0       0       0       0       0       0       0
      Totals:        10       0       0       0       0       0       0
Total ram usage:       10 bytes
 Hardware stack levels used:    1
 Hardware stack levels required when called:    4
 This function calls:
		Nothing
 This function is called by:
		_APP_MANAGE
 This function uses a non-reentrant model


 *************** function _IncrementDecrementSingleDigit *****************
 Defined at:
		line 182 in file "../../../../Common/App/APP.c"
 Parameters:    Size  Location     Type
  Number          2   26[COMRAM] unsigned short 
  Index           1   28[COMRAM] unsigned char 
  bIsincrement    1   29[COMRAM] unsigned char 
 Auto vars:     Size  Location     Type
  Output          4   38[COMRAM] unsigned char [4]
  unitPosition    2   36[COMRAM] unsigned short 
  NumberReturn    2   33[COMRAM] unsigned short 
  Link            2   31[COMRAM] unsigned short 
  LoopIndex       1   42[COMRAM] unsigned char 
  PowIndex        1   35[COMRAM] unsigned char 
 Return value:  Size  Location     Type
                  2   26[COMRAM] unsigned short 
 Registers used:
		wreg, fsr2l, fsr2h, status,2, status,0, prodl, prodh, cstack
 Tracked objects:
		On entry : 
		On exit  : 
		Unchanged: 
 Data sizes:     COMRAM   BANK0   BANK1   BANK2   BANK3   BANK4   BANK5
      Params:         4       0       0       0       0       0       0
      Locals:        12       0       0       0       0       0       0
      Temps:          1       0       0       0       0       0       0
      Totals:        17       0       0       0       0       0       0
Total ram usage:       17 bytes
 Hardware stack levels used:    1
 Hardware stack levels required when called:    5
 This function calls:
		___lwdiv
		___wmul
 This function is called by:
		_APP_MANAGE
 This function uses a non-reentrant model


 *************** function ___wmul *****************
 Defined at:
		line 15 in file "C:\Program Files\Microchip\xc8\v1.41\sources\common\Umul16.c"
 Parameters:    Size  Location     Type
  multiplier      2   19[COMRAM] unsigned int 
  multiplicand    2   21[COMRAM] unsigned int 
 Auto vars:     Size  Location     Type
  product         2   23[COMRAM] unsigned int 
 Return value:  Size  Location     Type
                  2   19[COMRAM] unsigned int 
 Registers used:
		wreg, status,2, status,0, prodl, prodh
 Tracked objects:
		On entry : 
		On exit  : 
		Unchanged: 
 Data sizes:     COMRAM   BANK0   BANK1   BANK2   BANK3   BANK4   BANK5
      Params:         4       0       0       0       0       0       0
      Locals:         2       0       0       0       0       0       0
      Temps:          0       0       0       0       0       0       0
      Totals:         6       0       0       0       0       0       0
Total ram usage:        6 bytes
 Hardware stack levels used:    1
 Hardware stack levels required when called:    4
 This function calls:
		Nothing
 This function is called by:
		_IncrementDecrementSingleDigit
		_SpeedCalcManage
 This function uses a non-reentrant model


 *************** function ___lwdiv *****************
 Defined at:
		line 8 in file "C:\Program Files\Microchip\xc8\v1.41\sources\common\lwdiv.c"
 Parameters:    Size  Location     Type
  dividend        2   19[COMRAM] unsigned int 
  divisor         2   21[COMRAM] unsigned int 
 Auto vars:     Size  Location     Type
  quotient        2   24[COMRAM] unsigned int 
  counter         1   23[COMRAM] unsigned char 
 Return value:  Size  Location     Type
                  2   19[COMRAM] unsigned int 
 Registers used:
		wreg, status,2, status,0
 Tracked objects:
		On entry : 
		On exit  : 
		Unchanged: 
 Data sizes:     COMRAM   BANK0   BANK1   BANK2   BANK3   BANK4   BANK5
      Params:         4       0       0       0       0       0       0
      Locals:         3       0       0       0       0       0       0
      Temps:          0       0       0       0       0       0       0
      Totals:         7       0       0       0       0       0       0
Total ram usage:        7 bytes
 Hardware stack levels used:    1
 Hardware stack levels required when called:    4
 This function calls:
		Nothing
 This function is called by:
		_IncrementDecrementSingleDigit
		_SpeedCalcManage
 This function uses a non-reentrant model


 *************** function _GetDistance *****************
 Defined at:
		line 104 in file "../../../../Common/Driver/SpeedCalc/SpeedCalc.c"
 Parameters:    Size  Location     Type
		None
 Auto vars:     Size  Location     Type
		None
 Return value:  Size  Location     Type
                  4   19[COMRAM] unsigned long 
 Registers used:
		None
 Tracked objects:
		On entry : 
		On exit  : 
		Unchanged: 
 Data sizes:     COMRAM   BANK0   BANK1   BANK2   BANK3   BANK4   BANK5
      Params:         4       0       0       0       0       0       0
      Locals:         0       0       0       0       0       0       0
      Temps:          0       0       0       0       0       0       0
      Totals:         4       0       0       0       0       0       0
Total ram usage:        4 bytes
 Hardware stack levels used:    1
 Hardware stack levels required when called:    4
 This function calls:
		Nothing
 This function is called by:
		_APP_MANAGE
 This function uses a non-reentrant model


 *************** function _GetAvgSpeed *****************
 Defined at:
		line 116 in file "../../../../Common/Driver/SpeedCalc/SpeedCalc.c"
 Parameters:    Size  Location     Type
  bIsKph          1    wreg     unsigned char 
 Auto vars:     Size  Location     Type
  bIsKph          1   46[COMRAM] unsigned char 
  KphMphFactor    4   47[COMRAM] unsigned long 
  AvgSpeedKphM    2   51[COMRAM] unsigned short 
 Return value:  Size  Location     Type
                  2   44[COMRAM] unsigned short 
 Registers used:
		wreg, status,2, status,0, cstack
 Tracked objects:
		On entry : 
		On exit  : 
		Unchanged: 
 Data sizes:     COMRAM   BANK0   BANK1   BANK2   BANK3   BANK4   BANK5
      Params:         2       0       0       0       0       0       0
      Locals:         7       0       0       0       0       0       0
      Temps:          0       0       0       0       0       0       0
      Totals:         9       0       0       0       0       0       0
Total ram usage:        9 bytes
 Hardware stack levels used:    1
 Hardware stack levels required when called:    5
 This function calls:
		___lldiv
		___lmul
 This function is called by:
		_APP_MANAGE
 This function uses a non-reentrant model


 *************** function _Eeprom_Write_Block *****************
 Defined at:
		line 13 in file "../../../../Common/Driver/EEPROM/Eeprom.c"
 Parameters:    Size  Location     Type
  address         1    wreg     unsigned char 
  DataPtr         2   19[COMRAM] PTR void 
		 -> APP_DATA(15), 
  BlockSize       1   21[COMRAM] unsigned char 
  ptrFnCallbac    2   22[COMRAM] PTR FTN()void 
		 -> Absolute function(1), 
 Auto vars:     Size  Location     Type
  address         1   24[COMRAM] unsigned char 
  LocDataPtr      2   25[COMRAM] PTR unsigned char 
		 -> APP_DATA(15), 
  LoopIndex       1   28[COMRAM] unsigned char 
  WriteGranted    1   27[COMRAM] unsigned char 
 Return value:  Size  Location     Type
                  1    wreg      unsigned char 
 Registers used:
		wreg, fsr1l, fsr1h, fsr2l, fsr2h, status,2, status,0, prodl, prodh
 Tracked objects:
		On entry : 
		On exit  : 
		Unchanged: 
 Data sizes:     COMRAM   BANK0   BANK1   BANK2   BANK3   BANK4   BANK5
      Params:         5       0       0       0       0       0       0
      Locals:         5       0       0       0       0       0       0
      Temps:          0       0       0       0       0       0       0
      Totals:        10       0       0       0       0       0       0
Total ram usage:       10 bytes
 Hardware stack levels used:    1
 Hardware stack levels required when called:    4
 This function calls:
		Nothing
 This function is called by:
		_APP_MANAGE
 This function uses a non-reentrant model


 *************** function _DisableDistanceCntr *****************
 Defined at:
		line 93 in file "../../../../Common/Driver/SpeedCalc/SpeedCalc.c"
 Parameters:    Size  Location     Type
  bIsDisabled     1    wreg     unsigned char 
 Auto vars:     Size  Location     Type
  bIsDisabled     1   19[COMRAM] unsigned char 
 Return value:  Size  Location     Type
                  1    wreg      void 
 Registers used:
		wreg
 Tracked objects:
		On entry : 
		On exit  : 
		Unchanged: 
 Data sizes:     COMRAM   BANK0   BANK1   BANK2   BANK3   BANK4   BANK5
      Params:         0       0       0       0       0       0       0
      Locals:         1       0       0       0       0       0       0
      Temps:          0       0       0       0       0       0       0
      Totals:         1       0       0       0       0       0       0
Total ram usage:        1 bytes
 Hardware stack levels used:    1
 Hardware stack levels required when called:    4
 This function calls:
		Nothing
 This function is called by:
		_APP_MANAGE
 This function uses a non-reentrant model


 *************** function _BlinkDigit *****************
 Defined at:
		line 139 in file "../../../../Common/Driver/BCDdisplay/BCDdisplay.c"
 Parameters:    Size  Location     Type
  Index           1    wreg     unsigned char 
  Line            1   19[COMRAM] unsigned char 
  duration        1   20[COMRAM] unsigned char 
 Auto vars:     Size  Location     Type
  Index           1   21[COMRAM] unsigned char 
 Return value:  Size  Location     Type
                  1    wreg      void 
 Registers used:
		wreg
 Tracked objects:
		On entry : 
		On exit  : 
		Unchanged: 
 Data sizes:     COMRAM   BANK0   BANK1   BANK2   BANK3   BANK4   BANK5
      Params:         2       0       0       0       0       0       0
      Locals:         1       0       0       0       0       0       0
      Temps:          0       0       0       0       0       0       0
      Totals:         3       0       0       0       0       0       0
Total ram usage:        3 bytes
 Hardware stack levels used:    1
 Hardware stack levels required when called:    4
 This function calls:
		Nothing
 This function is called by:
		_APP_MANAGE
 This function uses a non-reentrant model


 *************** function _BCDsendNumber *****************
 Defined at:
		line 35 in file "../../../../Common/Driver/BCDdisplay/BCDdisplay.c"
 Parameters:    Size  Location     Type
  Number          4   44[COMRAM] unsigned long 
  Line            1   48[COMRAM] unsigned char 
  DecimalPlace    1   49[COMRAM] unsigned char 
  EnableTranc     1   50[COMRAM] unsigned char 
 Auto vars:     Size  Location     Type
  Buffer          4    8[BANK0 ] unsigned long 
  Output          4    4[BANK0 ] unsigned long 
  Link            4    0[BANK0 ] unsigned long 
  LoopIndex       1   12[BANK0 ] unsigned char 
 Return value:  Size  Location     Type
                  1    wreg      void 
 Registers used:
		wreg, fsr2l, fsr2h, status,2, status,0, tblptrl, tblptrh, tblptru, prodl, prodh, cstack
 Tracked objects:
		On entry : 
		On exit  : 
		Unchanged: 
 Data sizes:     COMRAM   BANK0   BANK1   BANK2   BANK3   BANK4   BANK5
      Params:         7       0       0       0       0       0       0
      Locals:         0      13       0       0       0       0       0
      Temps:          4       0       0       0       0       0       0
      Totals:        11      13       0       0       0       0       0
Total ram usage:       24 bytes
 Hardware stack levels used:    1
 Hardware stack levels required when called:    5
 This function calls:
		___lldiv
		___lmul
 This function is called by:
		_APP_MANAGE
 This function uses a non-reentrant model


 *************** function ___lmul *****************
 Defined at:
		line 15 in file "C:\Program Files\Microchip\xc8\v1.41\sources\common\Umul32.c"
 Parameters:    Size  Location     Type
  multiplier      4   19[COMRAM] unsigned long 
  multiplicand    4   23[COMRAM] unsigned long 
 Auto vars:     Size  Location     Type
  product         4   27[COMRAM] unsigned long 
 Return value:  Size  Location     Type
                  4   19[COMRAM] unsigned long 
 Registers used:
		wreg, status,2, status,0
 Tracked objects:
		On entry : 
		On exit  : 
		Unchanged: 
 Data sizes:     COMRAM   BANK0   BANK1   BANK2   BANK3   BANK4   BANK5
      Params:         8       0       0       0       0       0       0
      Locals:         4       0       0       0       0       0       0
      Temps:          0       0       0       0       0       0       0
      Totals:        12       0       0       0       0       0       0
Total ram usage:       12 bytes
 Hardware stack levels used:    1
 Hardware stack levels required when called:    4
 This function calls:
		Nothing
 This function is called by:
		_BCDsendNumber
		_GetAvgSpeed
 This function uses a non-reentrant model


 *************** function ___lldiv *****************
 Defined at:
		line 8 in file "C:\Program Files\Microchip\xc8\v1.41\sources\common\lldiv.c"
 Parameters:    Size  Location     Type
  dividend        4   31[COMRAM] unsigned long 
  divisor         4   35[COMRAM] unsigned long 
 Auto vars:     Size  Location     Type
  quotient        4   39[COMRAM] unsigned long 
  counter         1   43[COMRAM] unsigned char 
 Return value:  Size  Location     Type
                  4   31[COMRAM] unsigned long 
 Registers used:
		wreg, status,2, status,0
 Tracked objects:
		On entry : 
		On exit  : 
		Unchanged: 
 Data sizes:     COMRAM   BANK0   BANK1   BANK2   BANK3   BANK4   BANK5
      Params:         8       0       0       0       0       0       0
      Locals:         5       0       0       0       0       0       0
      Temps:          0       0       0       0       0       0       0
      Totals:        13       0       0       0       0       0       0
Total ram usage:       13 bytes
 Hardware stack levels used:    1
 Hardware stack levels required when called:    4
 This function calls:
		Nothing
 This function is called by:
		_BCDsendNumber
		_SpeedCalcManage
		_GetAvgSpeed
 This function uses a non-reentrant model


 *************** function _APP_SLEEPmanage *****************
 Defined at:
		line 8 in file "../../../../Common/App/APP_SleepManage/APP_SleepManage.c"
 Parameters:    Size  Location     Type
  StatusByte      2   19[COMRAM] PTR struct .
		 -> APP_MANAGE@StatusByte(2), 
 Auto vars:     Size  Location     Type
		None
 Return value:  Size  Location     Type
                  1    wreg      void 
 Registers used:
		None
 Tracked objects:
		On entry : 
		On exit  : 
		Unchanged: 
 Data sizes:     COMRAM   BANK0   BANK1   BANK2   BANK3   BANK4   BANK5
      Params:         2       0       0       0       0       0       0
      Locals:         0       0       0       0       0       0       0
      Temps:          0       0       0       0       0       0       0
      Totals:         2       0       0       0       0       0       0
Total ram usage:        2 bytes
 Hardware stack levels used:    1
 Hardware stack levels required when called:    4
 This function calls:
		Nothing
 This function is called by:
		_APP_MANAGE
 This function uses a non-reentrant model


 *************** function _APP_HMImanage *****************
 Defined at:
		line 18 in file "../../../../Common/App/APP_HMI/APP_HMI.c"
 Parameters:    Size  Location     Type
  StatusByte      2   27[COMRAM] PTR struct .
		 -> APP_MANAGE@StatusByte(2), 
 Auto vars:     Size  Location     Type
  KeyStatusRig    1   33[COMRAM] unsigned char 
  KeyStatusLef    1   32[COMRAM] unsigned char 
  TempVar         1   31[COMRAM] unsigned char 
 Return value:  Size  Location     Type
                  1    wreg      void 
 Registers used:
		wreg, fsr2l, fsr2h, status,2, status,0, prodl, prodh, cstack
 Tracked objects:
		On entry : 
		On exit  : 
		Unchanged: 
 Data sizes:     COMRAM   BANK0   BANK1   BANK2   BANK3   BANK4   BANK5
      Params:         2       0       0       0       0       0       0
      Locals:         3       0       0       0       0       0       0
      Temps:          2       0       0       0       0       0       0
      Totals:         7       0       0       0       0       0       0
Total ram usage:        7 bytes
 Hardware stack levels used:    1
 Hardware stack levels required when called:    5
 This function calls:
		_GetKeyStatus
		_memset
 This function is called by:
		_APP_MANAGE
 This function uses a non-reentrant model


 *************** function _memset *****************
 Defined at:
		line 8 in file "C:\Program Files\Microchip\xc8\v1.41\sources\common\memset.c"
 Parameters:    Size  Location     Type
  p1              2   19[COMRAM] PTR void 
		 -> KeyInternalData(6), APP_MANAGE@StatusByte(2), 
  c               2   21[COMRAM] int 
  n               2   23[COMRAM] unsigned int 
 Auto vars:     Size  Location     Type
  p               2   25[COMRAM] PTR unsigned char 
		 -> KeyInternalData(6), APP_MANAGE@StatusByte(2), 
 Return value:  Size  Location     Type
                  2   19[COMRAM] PTR void 
 Registers used:
		wreg, fsr2l, fsr2h, status,2, status,0
 Tracked objects:
		On entry : 
		On exit  : 
		Unchanged: 
 Data sizes:     COMRAM   BANK0   BANK1   BANK2   BANK3   BANK4   BANK5
      Params:         6       0       0       0       0       0       0
      Locals:         2       0       0       0       0       0       0
      Temps:          0       0       0       0       0       0       0
      Totals:         8       0       0       0       0       0       0
Total ram usage:        8 bytes
 Hardware stack levels used:    1
 Hardware stack levels required when called:    4
 This function calls:
		Nothing
 This function is called by:
		_APP_MANAGE
		_APP_HMImanage
		_KeyInitialize
 This function uses a non-reentrant model


 *************** function _GetKeyStatus *****************
 Defined at:
		line 19 in file "../../../../Common/Driver/Key/Key.c"
 Parameters:    Size  Location     Type
  KeyID           1    wreg     unsigned char 
 Auto vars:     Size  Location     Type
  KeyID           1   20[COMRAM] unsigned char 
  KeyStatus       1   19[COMRAM] unsigned char 
 Return value:  Size  Location     Type
                  1    wreg      unsigned char 
 Registers used:
		wreg, fsr2l, fsr2h, status,2, status,0, prodl, prodh
 Tracked objects:
		On entry : 
		On exit  : 
		Unchanged: 
 Data sizes:     COMRAM   BANK0   BANK1   BANK2   BANK3   BANK4   BANK5
      Params:         0       0       0       0       0       0       0
      Locals:         2       0       0       0       0       0       0
      Temps:          0       0       0       0       0       0       0
      Totals:         2       0       0       0       0       0       0
Total ram usage:        2 bytes
 Hardware stack levels used:    1
 Hardware stack levels required when called:    4
 This function calls:
		Nothing
 This function is called by:
		_APP_HMImanage
 This function uses a non-reentrant model


 *************** function _APP_CALC_TIMEmanage *****************
 Defined at:
		line 20 in file "../../../../Common/App/APP_Calculations/APP_CalcTime.c"
 Parameters:    Size  Location     Type
  StatusByte      2   19[COMRAM] PTR struct .
		 -> APP_MANAGE@StatusByte(2), 
 Auto vars:     Size  Location     Type
		None
 Return value:  Size  Location     Type
                  4   19[COMRAM] unsigned long 
 Registers used:
		wreg, fsr2l, fsr2h, status,2, status,0
 Tracked objects:
		On entry : 
		On exit  : 
		Unchanged: 
 Data sizes:     COMRAM   BANK0   BANK1   BANK2   BANK3   BANK4   BANK5
      Params:         4       0       0       0       0       0       0
      Locals:         0       0       0       0       0       0       0
      Temps:          0       0       0       0       0       0       0
      Totals:         4       0       0       0       0       0       0
Total ram usage:        4 bytes
 Hardware stack levels used:    1
 Hardware stack levels required when called:    4
 This function calls:
		Nothing
 This function is called by:
		_APP_MANAGE
 This function uses a non-reentrant model


 *************** function _APP_CALC_MAXSPDmanage *****************
 Defined at:
		line 24 in file "../../../../Common/App/APP_Calculations/APP_CalcSpeed.c"
 Parameters:    Size  Location     Type
  CurrentSpeed    2   19[COMRAM] unsigned short 
 Auto vars:     Size  Location     Type
		None
 Return value:  Size  Location     Type
                  2   19[COMRAM] unsigned short 
 Registers used:
		wreg, status,2, status,0
 Tracked objects:
		On entry : 
		On exit  : 
		Unchanged: 
 Data sizes:     COMRAM   BANK0   BANK1   BANK2   BANK3   BANK4   BANK5
      Params:         2       0       0       0       0       0       0
      Locals:         0       0       0       0       0       0       0
      Temps:          0       0       0       0       0       0       0
      Totals:         2       0       0       0       0       0       0
Total ram usage:        2 bytes
 Hardware stack levels used:    1
 Hardware stack levels required when called:    4
 This function calls:
		Nothing
 This function is called by:
		_APP_MANAGE
 This function uses a non-reentrant model


 *************** function _APP_CALC_AVGSPDmanage *****************
 Defined at:
		line 8 in file "../../../../Common/App/APP_Calculations/APP_CalcSpeed.c"
 Parameters:    Size  Location     Type
  StatusByte      2   19[COMRAM] PTR struct .
		 -> APP_MANAGE@StatusByte(2), 
  TravelTime      4   21[COMRAM] unsigned long 
  Distance        4   25[COMRAM] unsigned long 
 Auto vars:     Size  Location     Type
		None
 Return value:  Size  Location     Type
                  2   19[COMRAM] unsigned short 
 Registers used:
		wreg, status,2
 Tracked objects:
		On entry : 
		On exit  : 
		Unchanged: 
 Data sizes:     COMRAM   BANK0   BANK1   BANK2   BANK3   BANK4   BANK5
      Params:        10       0       0       0       0       0       0
      Locals:         0       0       0       0       0       0       0
      Temps:          0       0       0       0       0       0       0
      Totals:        10       0       0       0       0       0       0
Total ram usage:       10 bytes
 Hardware stack levels used:    1
 Hardware stack levels required when called:    4
 This function calls:
		Nothing
 This function is called by:
		_APP_MANAGE
 This function uses a non-reentrant model


 *************** function _BCDManage7segment *****************
 Defined at:
		line 73 in file "../../../../Common/Driver/BCDdisplay/BCDdisplay.c"
 Parameters:    Size  Location     Type
		None
 Auto vars:     Size  Location     Type
  BCD             1   24[COMRAM] unsigned char 
  Index           1   23[COMRAM] unsigned char 
 Return value:  Size  Location     Type
                  1    wreg      void 
 Registers used:
		wreg, fsr2l, fsr2h, status,2, status,0, prodl, prodh, cstack
 Tracked objects:
		On entry : 
		On exit  : 
		Unchanged: 
 Data sizes:     COMRAM   BANK0   BANK1   BANK2   BANK3   BANK4   BANK5
      Params:         0       0       0       0       0       0       0
      Locals:         2       0       0       0       0       0       0
      Temps:          2       0       0       0       0       0       0
      Totals:         4       0       0       0       0       0       0
Total ram usage:        4 bytes
 Hardware stack levels used:    1
 Hardware stack levels required when called:    5
 This function calls:
		_HWI_4Digit_WRITE
		_HWI_8Digit_WRITE
 This function is called by:
		_DisplayAlphaNumeric
 This function uses a non-reentrant model


 *************** function _HWI_8Digit_WRITE *****************
 Defined at:
		line 41 in file "../../HWIsource/HWI_DIGITAL.c"
 Parameters:    Size  Location     Type
  port            1    wreg     unsigned char 
  value           1   19[COMRAM] unsigned char 
 Auto vars:     Size  Location     Type
  port            1   20[COMRAM] unsigned char 
 Return value:  Size  Location     Type
                  1    wreg      void 
 Registers used:
		wreg, status,2, status,0
 Tracked objects:
		On entry : 
		On exit  : 
		Unchanged: 
 Data sizes:     COMRAM   BANK0   BANK1   BANK2   BANK3   BANK4   BANK5
      Params:         1       0       0       0       0       0       0
      Locals:         1       0       0       0       0       0       0
      Temps:          0       0       0       0       0       0       0
      Totals:         2       0       0       0       0       0       0
Total ram usage:        2 bytes
 Hardware stack levels used:    1
 Hardware stack levels required when called:    4
 This function calls:
		Nothing
 This function is called by:
		_BCDManage7segment
 This function uses a non-reentrant model


 *************** function _HWI_4Digit_WRITE *****************
 Defined at:
		line 8 in file "../../HWIsource/HWI_DIGITAL.c"
 Parameters:    Size  Location     Type
  port            1    wreg     unsigned char 
  value           1   19[COMRAM] unsigned char 
 Auto vars:     Size  Location     Type
  port            1   20[COMRAM] unsigned char 
 Return value:  Size  Location     Type
                  1    wreg      void 
 Registers used:
		wreg, status,2, status,0
 Tracked objects:
		On entry : 
		On exit  : 
		Unchanged: 
 Data sizes:     COMRAM   BANK0   BANK1   BANK2   BANK3   BANK4   BANK5
      Params:         1       0       0       0       0       0       0
      Locals:         1       0       0       0       0       0       0
      Temps:          0       0       0       0       0       0       0
      Totals:         2       0       0       0       0       0       0
Total ram usage:        2 bytes
 Hardware stack levels used:    1
 Hardware stack levels required when called:    4
 This function calls:
		Nothing
 This function is called by:
		_BCDManage7segment
 This function uses a non-reentrant model


 *************** function _HWI_InitOscilatorCalib *****************
 Defined at:
		line 11 in file "../../HWIsource/HWI_StartConfig.c"
 Parameters:    Size  Location     Type
		None
 Auto vars:     Size  Location     Type
		None
 Return value:  Size  Location     Type
                  1    wreg      void 
 Registers used:
		None
 Tracked objects:
		On entry : 
		On exit  : 
		Unchanged: 
 Data sizes:     COMRAM   BANK0   BANK1   BANK2   BANK3   BANK4   BANK5
      Params:         0       0       0       0       0       0       0
      Locals:         0       0       0       0       0       0       0
      Temps:          0       0       0       0       0       0       0
      Totals:         0       0       0       0       0       0       0
Total ram usage:        0 bytes
 Hardware stack levels used:    1
 Hardware stack levels required when called:    4
 This function calls:
		Nothing
 This function is called by:
		_Start_App
 This function uses a non-reentrant model


 *************** function _HWI_INTERRUPTS_INTITALIZE *****************
 Defined at:
		line 10 in file "../../HWIsource/HWI_Interrupts.c"
 Parameters:    Size  Location     Type
		None
 Auto vars:     Size  Location     Type
		None
 Return value:  Size  Location     Type
                  1    wreg      void 
 Registers used:
		wreg, status,2
 Tracked objects:
		On entry : 
		On exit  : 
		Unchanged: 
 Data sizes:     COMRAM   BANK0   BANK1   BANK2   BANK3   BANK4   BANK5
      Params:         0       0       0       0       0       0       0
      Locals:         0       0       0       0       0       0       0
      Temps:          0       0       0       0       0       0       0
      Totals:         0       0       0       0       0       0       0
Total ram usage:        0 bytes
 Hardware stack levels used:    1
 Hardware stack levels required when called:    4
 This function calls:
		Nothing
 This function is called by:
		_Start_App
 This function uses a non-reentrant model


 *************** function _HWI_DIGITAL_INITIALIZE *****************
 Defined at:
		line 75 in file "../../HWIsource/HWI_DIGITAL.c"
 Parameters:    Size  Location     Type
		None
 Auto vars:     Size  Location     Type
		None
 Return value:  Size  Location     Type
                  1    wreg      void 
 Registers used:
		wreg, status,2
 Tracked objects:
		On entry : 
		On exit  : 
		Unchanged: 
 Data sizes:     COMRAM   BANK0   BANK1   BANK2   BANK3   BANK4   BANK5
      Params:         0       0       0       0       0       0       0
      Locals:         0       0       0       0       0       0       0
      Temps:          0       0       0       0       0       0       0
      Totals:         0       0       0       0       0       0       0
Total ram usage:        0 bytes
 Hardware stack levels used:    1
 Hardware stack levels required when called:    4
 This function calls:
		Nothing
 This function is called by:
		_Start_App
 This function uses a non-reentrant model


 *************** function _CreateTask *****************
 Defined at:
		line 6 in file "../../../../OS/Scheduler/Scheduler.c"
 Parameters:    Size  Location     Type
  MangeFunctio    2   19[COMRAM] PTR FTN()void 
		 -> ManageDrivers(1), DisplayAlphaNumeric(1), ManageApplication(1), ManageSpeedCalc(1), 
  TaskId          1   21[COMRAM] unsigned char 
  Period          1   22[COMRAM] unsigned char 
 Auto vars:     Size  Location     Type
		None
 Return value:  Size  Location     Type
                  1    wreg      void 
 Registers used:
		wreg, fsr2l, fsr2h, status,2, status,0, prodl, prodh
 Tracked objects:
		On entry : 
		On exit  : 
		Unchanged: 
 Data sizes:     COMRAM   BANK0   BANK1   BANK2   BANK3   BANK4   BANK5
      Params:         4       0       0       0       0       0       0
      Locals:         0       0       0       0       0       0       0
      Temps:          0       0       0       0       0       0       0
      Totals:         4       0       0       0       0       0       0
Total ram usage:        4 bytes
 Hardware stack levels used:    1
 Hardware stack levels required when called:    4
 This function calls:
		Nothing
 This function is called by:
		_Start_App
 This function uses a non-reentrant model


 *************** function _BCDInitialize *****************
 Defined at:
		line 30 in file "../../../../Common/Driver/BCDdisplay/BCDdisplay.c"
 Parameters:    Size  Location     Type
  bIsCommonAno    1    wreg     unsigned char 
 Auto vars:     Size  Location     Type
  bIsCommonAno    1   19[COMRAM] unsigned char 
 Return value:  Size  Location     Type
                  1    wreg      void 
 Registers used:
		wreg
 Tracked objects:
		On entry : 
		On exit  : 
		Unchanged: 
 Data sizes:     COMRAM   BANK0   BANK1   BANK2   BANK3   BANK4   BANK5
      Params:         0       0       0       0       0       0       0
      Locals:         1       0       0       0       0       0       0
      Temps:          0       0       0       0       0       0       0
      Totals:         1       0       0       0       0       0       0
Total ram usage:        1 bytes
 Hardware stack levels used:    1
 Hardware stack levels required when called:    4
 This function calls:
		Nothing
 This function is called by:
		_Start_App
 This function uses a non-reentrant model


 *************** function _APP_INITIALIZE *****************
 Defined at:
		line 40 in file "../../../../Common/App/APP.c"
 Parameters:    Size  Location     Type
		None
 Auto vars:     Size  Location     Type
		None
 Return value:  Size  Location     Type
                  1    wreg      void 
 Registers used:
		wreg, fsr2l, fsr2h, status,2, status,0, prodl, prodh, cstack
 Tracked objects:
		On entry : 
		On exit  : 
		Unchanged: 
 Data sizes:     COMRAM   BANK0   BANK1   BANK2   BANK3   BANK4   BANK5
      Params:         0       0       0       0       0       0       0
      Locals:         0       0       0       0       0       0       0
      Temps:          0       0       0       0       0       0       0
      Totals:         0       0       0       0       0       0       0
Total ram usage:        0 bytes
 Hardware stack levels used:    1
 Hardware stack levels required when called:    6
 This function calls:
		_APP_CALC_MAXSPDmanage_Set
		_APP_CALC_TIMEsetTravelTime
		_Eeprom_Read_Block
		_SetCircumfirunce
		_SetDistance
 This function is called by:
		_Start_App
 This function uses a non-reentrant model


 *************** function _SetDistance *****************
 Defined at:
		line 98 in file "../../../../Common/Driver/SpeedCalc/SpeedCalc.c"
 Parameters:    Size  Location     Type
  Distance        4   19[COMRAM] unsigned long 
 Auto vars:     Size  Location     Type
		None
 Return value:  Size  Location     Type
                  1    wreg      void 
 Registers used:
		wreg, status,2
 Tracked objects:
		On entry : 
		On exit  : 
		Unchanged: 
 Data sizes:     COMRAM   BANK0   BANK1   BANK2   BANK3   BANK4   BANK5
      Params:         4       0       0       0       0       0       0
      Locals:         0       0       0       0       0       0       0
      Temps:          0       0       0       0       0       0       0
      Totals:         4       0       0       0       0       0       0
Total ram usage:        4 bytes
 Hardware stack levels used:    1
 Hardware stack levels required when called:    4
 This function calls:
		Nothing
 This function is called by:
		_APP_INITIALIZE
 This function uses a non-reentrant model


 *************** function _SetCircumfirunce *****************
 Defined at:
		line 110 in file "../../../../Common/Driver/SpeedCalc/SpeedCalc.c"
 Parameters:    Size  Location     Type
  Circum          2   19[COMRAM] unsigned short 
 Auto vars:     Size  Location     Type
		None
 Return value:  Size  Location     Type
                  1    wreg      void 
 Registers used:
		None
 Tracked objects:
		On entry : 
		On exit  : 
		Unchanged: 
 Data sizes:     COMRAM   BANK0   BANK1   BANK2   BANK3   BANK4   BANK5
      Params:         2       0       0       0       0       0       0
      Locals:         0       0       0       0       0       0       0
      Temps:          0       0       0       0       0       0       0
      Totals:         2       0       0       0       0       0       0
Total ram usage:        2 bytes
 Hardware stack levels used:    1
 Hardware stack levels required when called:    4
 This function calls:
		Nothing
 This function is called by:
		_APP_INITIALIZE
		_APP_MANAGE
 This function uses a non-reentrant model


 *************** function _Eeprom_Read_Block *****************
 Defined at:
		line 48 in file "../../../../Common/Driver/EEPROM/Eeprom.c"
 Parameters:    Size  Location     Type
  address         1    wreg     unsigned char 
  DataPtr         2   23[COMRAM] PTR void 
		 -> APP_DATA(15), 
  BlockSize       1   25[COMRAM] unsigned char 
 Auto vars:     Size  Location     Type
  address         1   29[COMRAM] unsigned char 
  LocDataPtr      2   27[COMRAM] PTR unsigned char 
		 -> APP_DATA(15), 
  LoopIndex       1   31[COMRAM] unsigned char 
  ReadSuccess     1   30[COMRAM] unsigned char 
  ReadGranted     1   26[COMRAM] unsigned char 
 Return value:  Size  Location     Type
                  1    wreg      unsigned char 
 Registers used:
		wreg, fsr2l, fsr2h, status,2, status,0, prodl, prodh, cstack
 Tracked objects:
		On entry : 
		On exit  : 
		Unchanged: 
 Data sizes:     COMRAM   BANK0   BANK1   BANK2   BANK3   BANK4   BANK5
      Params:         3       0       0       0       0       0       0
      Locals:         6       0       0       0       0       0       0
      Temps:          0       0       0       0       0       0       0
      Totals:         9       0       0       0       0       0       0
Total ram usage:        9 bytes
 Hardware stack levels used:    1
 Hardware stack levels required when called:    5
 This function calls:
		_HWIeeprom_Read
 This function is called by:
		_APP_INITIALIZE
 This function uses a non-reentrant model


 *************** function _HWIeeprom_Read *****************
 Defined at:
		line 31 in file "../../HWIeeprom/HWIeeprom.c"
 Parameters:    Size  Location     Type
  address         1    wreg     unsigned char 
  Data            2   19[COMRAM] PTR unsigned char 
		 -> APP_DATA(15), 
 Auto vars:     Size  Location     Type
  address         1   21[COMRAM] unsigned char 
  ReadSuccess     1   22[COMRAM] unsigned char 
 Return value:  Size  Location     Type
                  1    wreg      unsigned char 
 Registers used:
		wreg, fsr2l, fsr2h, status,2
 Tracked objects:
		On entry : 
		On exit  : 
		Unchanged: 
 Data sizes:     COMRAM   BANK0   BANK1   BANK2   BANK3   BANK4   BANK5
      Params:         2       0       0       0       0       0       0
      Locals:         2       0       0       0       0       0       0
      Temps:          0       0       0       0       0       0       0
      Totals:         4       0       0       0       0       0       0
Total ram usage:        4 bytes
 Hardware stack levels used:    1
 Hardware stack levels required when called:    4
 This function calls:
		Nothing
 This function is called by:
		_Eeprom_Read_Block
 This function uses a non-reentrant model


 *************** function _APP_CALC_TIMEsetTravelTime *****************
 Defined at:
		line 13 in file "../../../../Common/App/APP_Calculations/APP_CalcTime.c"
 Parameters:    Size  Location     Type
  TravelTime      4   19[COMRAM] unsigned long 
 Auto vars:     Size  Location     Type
		None
 Return value:  Size  Location     Type
                  1    wreg      void 
 Registers used:
		wreg, status,2
 Tracked objects:
		On entry : 
		On exit  : 
		Unchanged: 
 Data sizes:     COMRAM   BANK0   BANK1   BANK2   BANK3   BANK4   BANK5
      Params:         4       0       0       0       0       0       0
      Locals:         0       0       0       0       0       0       0
      Temps:          0       0       0       0       0       0       0
      Totals:         4       0       0       0       0       0       0
Total ram usage:        4 bytes
 Hardware stack levels used:    1
 Hardware stack levels required when called:    4
 This function calls:
		Nothing
 This function is called by:
		_APP_INITIALIZE
		_APP_MANAGE
 This function uses a non-reentrant model


 *************** function _APP_CALC_MAXSPDmanage_Set *****************
 Defined at:
		line 19 in file "../../../../Common/App/APP_Calculations/APP_CalcSpeed.c"
 Parameters:    Size  Location     Type
  MaxSpeed        2   19[COMRAM] unsigned short 
 Auto vars:     Size  Location     Type
		None
 Return value:  Size  Location     Type
                  1    wreg      void 
 Registers used:
		None
 Tracked objects:
		On entry : 
		On exit  : 
		Unchanged: 
 Data sizes:     COMRAM   BANK0   BANK1   BANK2   BANK3   BANK4   BANK5
      Params:         2       0       0       0       0       0       0
      Locals:         0       0       0       0       0       0       0
      Temps:          0       0       0       0       0       0       0
      Totals:         2       0       0       0       0       0       0
Total ram usage:        2 bytes
 Hardware stack levels used:    1
 Hardware stack levels required when called:    4
 This function calls:
		Nothing
 This function is called by:
		_APP_INITIALIZE
 This function uses a non-reentrant model


 *************** function _ISR *****************
 Defined at:
		line 52 in file "../../HWIsource/HWI_Interrupts.c"
 Parameters:    Size  Location     Type
		None
 Auto vars:     Size  Location     Type
		None
 Return value:  Size  Location     Type
                  1    wreg      void 
 Registers used:
		wreg, fsr2l, fsr2h, status,2, status,0, prodl, prodh, cstack
 Tracked objects:
		On entry : 
		On exit  : 
		Unchanged: 
 Data sizes:     COMRAM   BANK0   BANK1   BANK2   BANK3   BANK4   BANK5
      Params:         0       0       0       0       0       0       0
      Locals:         0       0       0       0       0       0       0
      Temps:         14       0       0       0       0       0       0
      Totals:        14       0       0       0       0       0       0
Total ram usage:       14 bytes
 Hardware stack levels used:    1
 Hardware stack levels required when called:    3
 This function calls:
		_APP_ISR1
		_APP_ISR2
		_APP_ISR3
		_SchedulerTick
 This function is called by:
		Interrupt level 2
 This function uses a non-reentrant model


 *************** function _SchedulerTick *****************
 Defined at:
		line 16 in file "../../../../OS/Scheduler/Scheduler.c"
 Parameters:    Size  Location     Type
		None
 Auto vars:     Size  Location     Type
  TaskIndex       1    0[COMRAM] unsigned char 
 Return value:  Size  Location     Type
                  1    wreg      void 
 Registers used:
		wreg, fsr2l, fsr2h, status,2, status,0, prodl, prodh
 Tracked objects:
		On entry : 
		On exit  : 
		Unchanged: 
 Data sizes:     COMRAM   BANK0   BANK1   BANK2   BANK3   BANK4   BANK5
      Params:         0       0       0       0       0       0       0
      Locals:         1       0       0       0       0       0       0
      Temps:          0       0       0       0       0       0       0
      Totals:         1       0       0       0       0       0       0
Total ram usage:        1 bytes
 Hardware stack levels used:    1
 This function calls:
		Nothing
 This function is called by:
		_ISR
 This function uses a non-reentrant model


 *************** function _APP_ISR3 *****************
 Defined at:
		line 18 in file "../../../../Common/Interrupts/AppInterrupts.c"
 Parameters:    Size  Location     Type
		None
 Auto vars:     Size  Location     Type
		None
 Return value:  Size  Location     Type
                  1    wreg      void 
 Registers used:
		wreg, status,2, status,0, cstack
 Tracked objects:
		On entry : 
		On exit  : 
		Unchanged: 
 Data sizes:     COMRAM   BANK0   BANK1   BANK2   BANK3   BANK4   BANK5
      Params:         0       0       0       0       0       0       0
      Locals:         0       0       0       0       0       0       0
      Temps:          0       0       0       0       0       0       0
      Totals:         0       0       0       0       0       0       0
Total ram usage:        0 bytes
 Hardware stack levels used:    1
 Hardware stack levels required when called:    1
 This function calls:
		_HWtimerCallback
 This function is called by:
		_ISR
 This function uses a non-reentrant model


 *************** function _HWtimerCallback *****************
 Defined at:
		line 144 in file "../../../../Common/Driver/SpeedCalc/SpeedCalc.c"
 Parameters:    Size  Location     Type
		None
 Auto vars:     Size  Location     Type
		None
 Return value:  Size  Location     Type
                  1    wreg      void 
 Registers used:
		wreg, status,2, status,0
 Tracked objects:
		On entry : 
		On exit  : 
		Unchanged: 
 Data sizes:     COMRAM   BANK0   BANK1   BANK2   BANK3   BANK4   BANK5
      Params:         0       0       0       0       0       0       0
      Locals:         0       0       0       0       0       0       0
      Temps:          0       0       0       0       0       0       0
      Totals:         0       0       0       0       0       0       0
Total ram usage:        0 bytes
 Hardware stack levels used:    1
 This function calls:
		Nothing
 This function is called by:
		_APP_ISR3
 This function uses a non-reentrant model


 *************** function _APP_ISR2 *****************
 Defined at:
		line 13 in file "../../../../Common/Interrupts/AppInterrupts.c"
 Parameters:    Size  Location     Type
		None
 Auto vars:     Size  Location     Type
		None
 Return value:  Size  Location     Type
                  1    wreg      void 
 Registers used:
		wreg, status,2, status,0, cstack
 Tracked objects:
		On entry : 
		On exit  : 
		Unchanged: 
 Data sizes:     COMRAM   BANK0   BANK1   BANK2   BANK3   BANK4   BANK5
      Params:         0       0       0       0       0       0       0
      Locals:         0       0       0       0       0       0       0
      Temps:          0       0       0       0       0       0       0
      Totals:         0       0       0       0       0       0       0
Total ram usage:        0 bytes
 Hardware stack levels used:    1
 Hardware stack levels required when called:    2
 This function calls:
		_SensorTwoNotify
 This function is called by:
		_ISR
 This function uses a non-reentrant model


 *************** function _SensorTwoNotify *****************
 Defined at:
		line 45 in file "../../../../Common/Driver/SpeedCalc/SpeedCalc.c"
 Parameters:    Size  Location     Type
		None
 Auto vars:     Size  Location     Type
		None
 Return value:  Size  Location     Type
                  1    wreg      void 
 Registers used:
		wreg, status,2, status,0, cstack
 Tracked objects:
		On entry : 
		On exit  : 
		Unchanged: 
 Data sizes:     COMRAM   BANK0   BANK1   BANK2   BANK3   BANK4   BANK5
      Params:         0       0       0       0       0       0       0
      Locals:         0       0       0       0       0       0       0
      Temps:          0       0       0       0       0       0       0
      Totals:         0       0       0       0       0       0       0
Total ram usage:        0 bytes
 Hardware stack levels used:    1
 Hardware stack levels required when called:    1
 This function calls:
		_ReloadHWtimer
 This function is called by:
		_APP_ISR2
 This function uses a non-reentrant model


 *************** function _ReloadHWtimer *****************
 Defined at:
		line 91 in file "../../HWIsource/HWI_Interrupts.c"
 Parameters:    Size  Location     Type
  TimerId         1    wreg     unsigned char 
 Auto vars:     Size  Location     Type
  TimerId         1    2[COMRAM] unsigned char 
  ElapsedTime     2    3[COMRAM] unsigned short 
 Return value:  Size  Location     Type
                  2    0[COMRAM] unsigned short 
 Registers used:
		wreg, status,2, status,0
 Tracked objects:
		On entry : 
		On exit  : 
		Unchanged: 
 Data sizes:     COMRAM   BANK0   BANK1   BANK2   BANK3   BANK4   BANK5
      Params:         2       0       0       0       0       0       0
      Locals:         3       0       0       0       0       0       0
      Temps:          0       0       0       0       0       0       0
      Totals:         5       0       0       0       0       0       0
Total ram usage:        5 bytes
 Hardware stack levels used:    1
 This function calls:
		Nothing
 This function is called by:
		_SensorTwoNotify
 This function uses a non-reentrant model


 *************** function _APP_ISR1 *****************
 Defined at:
		line 8 in file "../../../../Common/Interrupts/AppInterrupts.c"
 Parameters:    Size  Location     Type
		None
 Auto vars:     Size  Location     Type
		None
 Return value:  Size  Location     Type
                  1    wreg      void 
 Registers used:
		wreg, status,2, status,0, cstack
 Tracked objects:
		On entry : 
		On exit  : 
		Unchanged: 
 Data sizes:     COMRAM   BANK0   BANK1   BANK2   BANK3   BANK4   BANK5
      Params:         0       0       0       0       0       0       0
      Locals:         0       0       0       0       0       0       0
      Temps:          0       0       0       0       0       0       0
      Totals:         0       0       0       0       0       0       0
Total ram usage:        0 bytes
 Hardware stack levels used:    1
 Hardware stack levels required when called:    1
 This function calls:
		_SensorOneNotify
 This function is called by:
		_ISR
 This function uses a non-reentrant model


 *************** function _SensorOneNotify *****************
 Defined at:
		line 30 in file "../../../../Common/Driver/SpeedCalc/SpeedCalc.c"
 Parameters:    Size  Location     Type
		None
 Auto vars:     Size  Location     Type
		None
 Return value:  Size  Location     Type
                  1    wreg      void 
 Registers used:
		wreg, status,2, status,0
 Tracked objects:
		On entry : 
		On exit  : 
		Unchanged: 
 Data sizes:     COMRAM   BANK0   BANK1   BANK2   BANK3   BANK4   BANK5
      Params:         0       0       0       0       0       0       0
      Locals:         0       0       0       0       0       0       0
      Temps:          0       0       0       0       0       0       0
      Totals:         0       0       0       0       0       0       0
Total ram usage:        0 bytes
 Hardware stack levels used:    1
 This function calls:
		Nothing
 This function is called by:
		_APP_ISR1
 This function uses a non-reentrant model



MODULE INFORMATION

Module		Function		Class		Link	Load	Size
../../../../Common/Interrupts/AppInterrupts.c
		_APP_ISR1      		CODE           	1D70	0000	7
		_APP_ISR2      		CODE           	1D6A	0000	7
		_APP_ISR3      		CODE           	1D64	0000	7

../../../../Common/Interrupts/AppInterrupts.c estimated size: 21

../../../../Common/Driver/BCDdisplay/BCDdisplay.c
		_BlinkDigit    		CODE           	1D02	0000	17
		_BCDsendNumber 		CODE           	0F18	0000	435
		_BCDInitialize 		CODE           	1D4A	0000	9
		_BCDManage7segment		CODE           	1464	0000	163

../../../../Common/Driver/BCDdisplay/BCDdisplay.c estimated size: 624

C:\Program Files\Microchip\xc8\v1.41\sources\common\Umul32.c
		___lmul        		CODE           	1862	0000	87

C:\Program Files\Microchip\xc8\v1.41\sources\common\Umul32.c estimated size: 87

../../../../Common/Driver/Key/Key.c
		_MangeKeys     		CODE           	0638	0000	1071
		_GetKeyStatus  		CODE           	1B28	0000	47

../../../../Common/Driver/Key/Key.c estimated size: 1118

../../HWIeeprom/HWIeeprom.c
		_HWIeeprom_Read		CODE           	1BDA	0000	41
		_HWIeeprom_Write		CODE           	1AFA	0000	47

../../HWIeeprom/HWIeeprom.c estimated size: 88

../../../../OS/OS_manage/OS_manage.c
		_ManageSpeedCalc		CODE           	1D5E	0000	7
		_ManageDrivers 		CODE           	1C6C	0000	29
		_ManageApplication		CODE           	1D58	0000	7
		_DisplayAlphaNumeric		CODE           	1D52	0000	7
		_Start_App     		CODE           	1730	0000	113

../../../../OS/OS_manage/OS_manage.c estimated size: 163

../../../../Common/App/APP_SleepManage/APP_SleepManage.c
		_APP_SLEEPmanage		CODE           	1D7A	0000	3

../../../../Common/App/APP_SleepManage/APP_SleepManage.c estimated size: 3

../../HWIsource/HWI_Interrupts.c
		_ReloadHWtimer 		CODE           	1A8C	0000	61
		_ISR           		CODE           	0008	0000	195
		_HWI_INTERRUPTS_INTITALIZE		CODE           	1A12	0000	63

../../HWIsource/HWI_Interrupts.c estimated size: 319

C:\Program Files\Microchip\xc8\v1.41\sources\common\memset.c
		_memset        		CODE           	1B84	0000	45

C:\Program Files\Microchip\xc8\v1.41\sources\common\memset.c estimated size: 45

shared
		_SevenSegmentMAP		SMALLCONST     	062B	0000	12
		_Segment7ASCIItable		SMALLCONST     	0601	0000	27
		__initialization		CODE           	19D4	0000	49
		_KeyArrayConfig		SMALLCONST     	061B	0000	17

shared estimated size: 105

C:\Program Files\Microchip\xc8\v1.41\sources\common\lwdiv.c
		___lwdiv       		CODE           	18B8	0000	83

C:\Program Files\Microchip\xc8\v1.41\sources\common\lwdiv.c estimated size: 83

C:\Program Files\Microchip\xc8\v1.41\sources\common\Umul16.c
		___wmul        		CODE           	1C02	0000	39

C:\Program Files\Microchip\xc8\v1.41\sources\common\Umul16.c estimated size: 39

../../../../Common/Driver/SpeedCalc/SpeedCalc.c
		_SensorOneNotify		CODE           	1CDA	0000	23
		_HWtimerCallback		CODE           	1D30	0000	11
		_GetDistance   		CODE           	1CF0	0000	19
		_DisableDistanceCntr		CODE           	1D42	0000	9
		_SetCircumfirunce		CODE           	1D1C	0000	11
		_SetDistance   		CODE           	1C88	0000	29
		_GetAvgSpeed   		CODE           	1506	0000	147
		_SensorTwoNotify		CODE           	1B56	0000	47
		_SpeedCalcNotifyInitialize		CODE           	1D78	0000	3
		_SpeedCalcManage		CODE           	13C2	0000	163

../../../../Common/Driver/SpeedCalc/SpeedCalc.c estimated size: 462

../../../../Common/Driver/EEPROM/Eeprom.c
		_Eeprom_Write_Block		CODE           	17A0	0000	107
		_EepromManage  		CODE           	1954	0000	65
		_Eeprom_Read_Block		CODE           	190A	0000	75

../../../../Common/Driver/EEPROM/Eeprom.c estimated size: 247

C:\Program Files\Microchip\xc8\v1.41\sources\common\lldiv.c
		___lldiv       		CODE           	16AE	0000	131

C:\Program Files\Microchip\xc8\v1.41\sources\common\lldiv.c estimated size: 131

../../../../Common/App/APP.c
		_APP_MANAGE    		CODE           	0A66	0000	709
		_IncrementDecrementSingleDigit		CODE           	10CA	0000	381
		_APP_INITIALIZE		CODE           	1246	0000	193

../../../../Common/App/APP.c estimated size: 1283

../../../../Common/App/APP_Calculations/APP_CalcTime.c
		_APP_CALC_TIMEsetTravelTime		CODE           	1CA4	0000	29
		_APP_CALC_TIMEmanage		CODE           	1624	0000	139

../../../../Common/App/APP_Calculations/APP_CalcTime.c estimated size: 168

../../HWIsource/HWI_DIGITAL.c
		_HWI_8Digit_WRITE		CODE           	1C28	0000	39
		_HWI_4Digit_WRITE		CODE           	1AC8	0000	51
		_HWI_DIGITAL_INITIALIZE		CODE           	1CC0	0000	27
		_HWI_DIGI_READ 		CODE           	1A50	0000	61

../../HWIsource/HWI_DIGITAL.c estimated size: 178

../../../../Common/App/APP_Calculations/APP_CalcSpeed.c
		_APP_CALC_AVGSPDmanage		CODE           	1D12	0000	11
		_APP_CALC_MAXSPDmanage		CODE           	1C4E	0000	31
		_APP_CALC_MAXSPDmanage_Set		CODE           	1D26	0000	11

../../../../Common/App/APP_Calculations/APP_CalcSpeed.c estimated size: 53

../../../../OS/Scheduler/Scheduler.c
		_SchedulerTick 		CODE           	1BB0	0000	43
		_CreateTask    		CODE           	180A	0000	89
		_RunScheduler  		CODE           	1598	0000	141

../../../../OS/Scheduler/Scheduler.c estimated size: 273

main.c
		_main          		CODE           	1D3A	0000	9

main.c estimated size: 9

C:\Program Files\Microchip\xc8\v1.41\sources\common\memcpy.c
		_memcpy        		CODE           	1994	0000	65

C:\Program Files\Microchip\xc8\v1.41\sources\common\memcpy.c estimated size: 65

../../../../Common/App/APP_HMI/APP_HMI.c
		_APP_HMImanage 		CODE           	0D2A	0000	495

../../../../Common/App/APP_HMI/APP_HMI.c estimated size: 495

../../HWIsource/HWI_StartConfig.c
		_HWI_InitOscilatorCalib		CODE           	1D7C	0000	3

../../HWIsource/HWI_StartConfig.c estimated size: 3

