Microchip MPLAB XC8 Compiler V1.41 ()

Linker command line:

--edf=C:\Program Files\Microchip\xc8\v1.41\dat\en_msgs.txt -cs \
  -h+dist/default/production\BicMeter.X.production.sym \
  --cmf=dist/default/production\BicMeter.X.production.cmf -z -Q18F4520 \
  -oC:\Users\0E57~1\AppData\Local\Temp\s424.2 \
  -Mdist/default/production/BicMeter.X.production.map -E1 -ver=XC8 \
  -ASTACK=098h-05ffh -pstack=STACK -ACODE=00h-07FFFh -ACONST=00h-07FFFh \
  -ASMALLCONST=0600h-06FFhx122 -AMEDIUMCONST=0600h-07FFFh -ACOMRAM=01h-07Fh \
  -AABS1=00h-05FFh -ABIGRAM=01h-05FFh -ARAM=080h-0FFh,0100h-01FFhx5 \
  -ABANK0=080h-0FFh -ABANK1=0100h-01FFh -ABANK2=0200h-02FFh \
  -ABANK3=0300h-03FFh -ABANK4=0400h-04FFh -ABANK5=0500h-05FFh \
  -ASFR=0F80h-0FFFh -preset_vec=00h,intcode=08h,intcodelo,powerup,init \
  -pramtop=0600h -psmallconst=SMALLCONST -pmediumconst=MEDIUMCONST \
  -pconst=CONST -AFARRAM=00h-00h -ACONFIG=0300000h-030000Dh -pconfig=CONFIG \
  -AIDLOC=0200000h-0200007h -pidloc=IDLOC -AEEDATA=0F00000h-0F000FFh \
  -peeprom_data=EEDATA \
  -prdata=COMRAM,nvrram=COMRAM,nvbit=COMRAM,rbss=COMRAM,rbit=COMRAM \
  -pfarbss=FARRAM,fardata=FARRAM,nvFARRAM=FARRAM \
  -pintsave_regs=BIGRAM,bigbss=BIGRAM,bigdata=BIGRAM -pbss=RAM \
  -pidata=CODE,irdata=CODE,ibigdata=CODE,ifardata=CODE -prparam=COMRAM \
  C:\Users\0E57~1\AppData\Local\Temp\s424.obj \
  dist/default/production\BicMeter.X.production.obj 

Object code version is 3.11

Machine type is 18F4520

Call graph: (short form)




                Name                               Link     Load   Length Selector   Space Scale
C:\Users\0E57~1\AppData\Local\Temp\s424.obj
                init                                  E        E        4        4       0
                reset_vec                             0        0        4        0       0
                idloc                            200000   200000        8   200000       0
                config                           300000   300000        E   300000       0
dist/default/production\BicMeter.X.production.obj
                intcode                               8        8        6        4       0
                temp                                 6C       6C        1        1       1
                smallconst                          600      600       1E      300       0
                text43                             1490     1490       16      30F       0
                text42                             1506     1506        6      30F       0
                text41                             1264     1264       3C      30F       0
                text40                             138E     138E       2E      30F       0
                text39                             1500     1500        6      30F       0
                text38                             14CE     14CE        A      30F       0
                text37                             14FA     14FA        6      30F       0
                text36                             13BC     13BC       2A      30F       0
                intcode_body                        C50      C50       BC      30F       0
                text34                             1510     1510        2      30F       0
                text33                             14E0     14E0        8      30F       0
                text32                             1054     1054       58      30F       0
                text31                             1476     1476       1A      30F       0
                text30                             1226     1226       3E      30F       0
                text29                             12D2     12D2       32      30F       0
                text28                             1434     1434       26      30F       0
                text27                              E42      E42       98      30F       0
                text26                             1156     1156       52      30F       0
                text25                             140E     140E       26      30F       0
                text24                              B5A      B5A       F6      30F       0
                text23                             14B8     14B8        C      30F       0
                text22                             13E6     13E6       28      30F       0
                text21                             12A0     12A0       32      30F       0
                text20                             1102     1102       54      30F       0
                text19                              F66      F66       82      30F       0
                text18                             10AC     10AC       56      30F       0
                text17                              D0C      D0C       9E      30F       0
                text16                             14A6     14A6       12      30F       0
                text15                             1360     1360       2E      30F       0
                text14                             14C4     14C4        A      30F       0
                text13                              A4C      A4C      10E      30F       0
                text12                             1332     1332       2E      30F       0
                text11                             11A8     11A8       40      30F       0
                text10                             1304     1304       2E      30F       0
                text9                               61E      61E      42E      30F       0
                text8                               DAA      DAA       98      30F       0
                text7                              14F4     14F4        6      30F       0
                text6                              14EE     14EE        6      30F       0
                text5                              14E8     14E8        6      30F       0
                text4                              145A     145A       1C      30F       0
                text3                               EDA      EDA       8C      30F       0
                text2                              150E     150E        2      30F       0
                text1                               FE8      FE8       6C      30F       0
                text0                              14D8     14D8        8      30F       0
                cstackCOMRAM                         3B       3B       2E        1       1
                cstackBANK0                          80       80        E       80       1
                bssBANK0                             8E       8E        A       80       1
                dataCOMRAM                           69       69        2        1       1
                bssCOMRAM                             1        1       3A        1       1
                cinit                              11E8     11E8       3E      30F       0
                nvCOMRAM                             6B       6B        1        1       1
                idataCOMRAM                        150C     150C        2      30F       0

TOTAL           Name                               Link     Load   Length     Space
        CLASS   STACK          

        CLASS   CODE           
                intcode                               8        8        6         0
                init                                  E        E        4         0
                reset_vec                             0        0        4         0
                text43                             1490     1490       16         0
                text42                             1506     1506        6         0
                text41                             1264     1264       3C         0
                text40                             138E     138E       2E         0
                text39                             1500     1500        6         0
                text38                             14CE     14CE        A         0
                text37                             14FA     14FA        6         0
                text36                             13BC     13BC       2A         0
                intcode_body                        C50      C50       BC         0
                text34                             1510     1510        2         0
                text33                             14E0     14E0        8         0
                text32                             1054     1054       58         0
                text31                             1476     1476       1A         0
                text30                             1226     1226       3E         0
                text29                             12D2     12D2       32         0
                text28                             1434     1434       26         0
                text27                              E42      E42       98         0
                text26                             1156     1156       52         0
                text25                             140E     140E       26         0
                text24                              B5A      B5A       F6         0
                text23                             14B8     14B8        C         0
                text22                             13E6     13E6       28         0
                text21                             12A0     12A0       32         0
                text20                             1102     1102       54         0
                text19                              F66      F66       82         0
                text18                             10AC     10AC       56         0
                text17                              D0C      D0C       9E         0
                text16                             14A6     14A6       12         0
                text15                             1360     1360       2E         0
                text14                             14C4     14C4        A         0
                text13                              A4C      A4C      10E         0
                text12                             1332     1332       2E         0
                text11                             11A8     11A8       40         0
                text10                             1304     1304       2E         0
                text9                               61E      61E      42E         0
                text8                               DAA      DAA       98         0
                text7                              14F4     14F4        6         0
                text6                              14EE     14EE        6         0
                text5                              14E8     14E8        6         0
                text4                              145A     145A       1C         0
                text3                               EDA      EDA       8C         0
                text2                              150E     150E        2         0
                text1                               FE8      FE8       6C         0
                text0                              14D8     14D8        8         0
                cinit                              11E8     11E8       3E         0
                idataCOMRAM                        150C     150C        2         0

        CLASS   CONST          

        CLASS   SMALLCONST     
                smallconst                          600      600       1E         0

        CLASS   MEDIUMCONST    

        CLASS   COMRAM         
                temp                                 6C       6C        1         1
                cstackCOMRAM                         3B       3B       2E         1
                dataCOMRAM                           69       69        2         1
                bssCOMRAM                             1        1       3A         1
                nvCOMRAM                             6B       6B        1         1

        CLASS   ABS1           

        CLASS   BIGRAM         

        CLASS   RAM            

        CLASS   BANK0          
                cstackBANK0                          80       80        E         1
                bssBANK0                             8E       8E        A         1

        CLASS   BANK1          

        CLASS   BANK2          

        CLASS   BANK3          

        CLASS   BANK4          

        CLASS   BANK5          

        CLASS   SFR            

        CLASS   FARRAM         

        CLASS   CONFIG         
                config                           300000   300000        E         0

        CLASS   IDLOC          
                idloc                            200000   200000        8         0

        CLASS   EEDATA         



SEGMENTS        Name                           Load    Length   Top    Selector   Space  Class

                reset_vec                      000000  000004  000004         0       0  CODE    
                bssCOMRAM                      000001  00006C  00006D         1       1  COMRAM  
                intcode                        000008  00000A  000012         4       0  CODE    
                cstackBANK0                    000080  000018  000098        80       1  BANK0   
                smallconst                     000600  00001E  00061E       300       0  SMALLCON
                text9                          00061E  000EF4  001512       30F       0  CODE    
                idloc                          200000  000008  200008    200000       0  IDLOC   
                config                         300000  00000E  30000E    300000       0  CONFIG  


UNUSED ADDRESS RANGES

        Name                Unused          Largest block    Delta
        BANK0            000098-0000FF               68
        BANK1            000100-0001FF              100
        BANK2            000200-0002FF              100
        BANK3            000300-0003FF              100
        BANK4            000400-0004FF              100
        BANK5            000500-0005FF              100
        BIGRAM           00006D-00007F               13
                         000098-0005FF              568
        CODE             000004-000007                4
                         000012-0005FF              5EE
                         001512-007FFF             6AEE
        COMRAM           00006D-00007F               13
        CONST            000004-000007                4
                         000012-0005FF              5EE
                         001512-007FFF             6AEE
        EEDATA           F00000-F000FF              100
        MEDIUMCONST      001512-007FFF             6AEE
        RAM              000098-0005FF              100
        SFR              000F80-000FFF               80
        SMALLCONST       001512-007FFF              100
        STACK            000098-0005FF              568

                                  Symbol Table

?_GetAvgSpeed                         cstackCOMRAM 000067
?_GetDistance                         cstackCOMRAM 00004E
?_ReloadHWtimer                       cstackCOMRAM 00003B
?___lldiv                             cstackCOMRAM 00005A
?___lmul                              cstackCOMRAM 00004E
?___lwdiv                             cstackCOMRAM 00004E
?___wmul                              cstackCOMRAM 00004E
APP_MANAGE@AvgSpeedKph                cstackBANK0  000087
APP_MANAGE@TravelledDistance          cstackBANK0  000089
APP_MANAGE@bIsBlinkMode               bssCOMRAM    000023
APP_MANAGE@blinkIndex                 bssCOMRAM    000025
APP_MANAGE@keystatus                  cstackBANK0  00008B
BCDInitialize@bIsCommonAnode          cstackCOMRAM 00004E
BCDManage7segment@BCD                 cstackCOMRAM 000053
BCDManage7segment@BlinkCounter        bssCOMRAM    000030
BCDManage7segment@DigitIndex          bssCOMRAM    00003A
BCDManage7segment@Index               cstackCOMRAM 000052
BCDsendNumber@Buffer                  cstackCOMRAM 00005E
BCDsendNumber@DecimalPlace            cstackCOMRAM 000057
BCDsendNumber@Link                    cstackCOMRAM 00005A
BCDsendNumber@LoopIndex               cstackCOMRAM 000060
BCDsendNumber@Number                  cstackCOMRAM 000055
BCDsendNumber@Output                  cstackCOMRAM 00005C
BlinkDigit@Index                      cstackCOMRAM 00004F
BlinkDigit@duration                   cstackCOMRAM 00004E
CreateTask@MangeFunction              cstackCOMRAM 00004E
CreateTask@Period                     cstackCOMRAM 000051
CreateTask@TaskId                     cstackCOMRAM 000050
EepromManage@WriteIndex               bssCOMRAM    00002C
EepromManage@WriteSuccess             cstackCOMRAM 000051
Eeprom_Read_Block@BlockSize           cstackCOMRAM 000054
Eeprom_Read_Block@DataPtr             cstackCOMRAM 000052
Eeprom_Read_Block@LoopIndex           cstackCOMRAM 000057
Eeprom_Read_Block@ReadSuccess         cstackCOMRAM 000056
Eeprom_Read_Block@address             cstackCOMRAM 000055
Eeprom_Write_Block@BlockSize          cstackCOMRAM 000050
Eeprom_Write_Block@DataPtr            cstackCOMRAM 00004E
Eeprom_Write_Block@LoopIndex          cstackCOMRAM 000053
Eeprom_Write_Block@WriteGranted       cstackCOMRAM 000051
Eeprom_Write_Block@address            cstackCOMRAM 000052
GetAvgSpeed@AvgSpeedKphMph            cstackBANK0  000085
GetAvgSpeed@KphMphFactor              cstackBANK0  000081
GetAvgSpeed@bIsKph                    cstackBANK0  000080
GetKeyStatus@KeyID                    cstackCOMRAM 00004F
GetKeyStatus@KeyStatus                cstackCOMRAM 00004E
HWI_4Digit_WRITE@port                 cstackCOMRAM 00004F
HWI_4Digit_WRITE@value                cstackCOMRAM 00004E
HWI_8Digit_WRITE@port                 cstackCOMRAM 00004F
HWI_8Digit_WRITE@value                cstackCOMRAM 00004E
HWI_DIGI_READ@HWIread                 cstackCOMRAM 00004F
HWI_DIGI_READ@pin                     cstackCOMRAM 00004E
HWIeeprom_Read@Data                   cstackCOMRAM 00004E
HWIeeprom_Read@ReadSuccess            cstackCOMRAM 000051
HWIeeprom_Read@address                cstackCOMRAM 000050
HWIeeprom_Write@Data                  cstackCOMRAM 00004E
HWIeeprom_Write@WriteSuccess          cstackCOMRAM 000050
HWIeeprom_Write@address               cstackCOMRAM 00004F
ManageDrivers@LoopIndex               cstackCOMRAM 000055
MangeKeys@HWIreading                  cstackCOMRAM 000053
MangeKeys@KeyID                       cstackCOMRAM 000054
MangeKeys@KeyState                    cstackCOMRAM 000052
ReloadHWtimer@ElapsedTime             cstackCOMRAM 00003E
ReloadHWtimer@TimerId                 cstackCOMRAM 00003D
RunScheduler@TaskIndex                bssCOMRAM    000027
SchedulerTick@TaskIndex               cstackCOMRAM 00003B
SetCircumfirunce@Circum               cstackCOMRAM 00004E
SpeedCalcManage@HundredMeterReference cstackBANK0  000080
_APP_INITIALIZE                       text34       001510
_APP_ISR1                             text42       001506
_APP_ISR2                             text39       001500
_APP_ISR3                             text37       0014FA
_APP_MANAGE                           text13       000A4C
_ArrayTask                            bssCOMRAM    000001
_BCDInitialize                        text33       0014E0
_BCDManage7segment                    text27       000E42
_BCDNumber                            bssCOMRAM    000011
_BCDsendNumber                        text24       000B5A
_BlinkDigit                           text23       0014B8
_BlinkDuration                        bssCOMRAM    000032
_BlinkFlag                            bssCOMRAM    000031
_BlinkIndex                           bssCOMRAM    000033
_CircumFactor                         dataCOMRAM   000069
_CreateTask                           text32       001054
_DataArray                            bssBANK0     00008E
_DataSize                             bssCOMRAM    00002D
_DisplayAlphaNumeric                  text5        0014E8
_DistTravelCntr                       bssCOMRAM    000019
_EEADR                                (abs)        000FA9
_EECON1bits                           (abs)        000FA6
_EECON2                               (abs)        000FA7
_EEDATA                               (abs)        000FA8
_EEPROMaddr                           bssCOMRAM    00002E
_EepromManage                         text11       0011A8
_Eeprom_Read_Block                    text21       0012A0
_Eeprom_Write_Block                   text20       001102
_GetAvgSpeed                          text17       000D0C
_GetDistance                          text16       0014A6
_GetKeyStatus                         text15       001360
_HWI_4Digit_WRITE                     text29       0012D2
_HWI_8Digit_WRITE                     text28       001434
_HWI_DIGITAL_INITIALIZE               text31       001476
_HWI_DIGI_READ                        text10       001304
_HWI_INTERRUPTS_INTITALIZE            text30       001226
_HWIeeprom_Read                       text22       0013E6
_HWIeeprom_Write                      text12       001332
_HWtimerCallback                      text38       0014CE
_HWtimerCount                         bssCOMRAM    00001D
_HwTimerOVFLcount                     bssCOMRAM    000028
_INT0IF                               (abs)        007F91
_INT1IF                               (abs)        007F80
_INTCON                               (abs)        000FF2
_INTCON2bits                          (abs)        000FF1
_INTCON3                              (abs)        000FF0
_INTCONbits                           (abs)        000FF2
_ISR                                  intcode      000008
_KeyArrayConfig                       smallconst   000601
_KeyInternalData                      bssCOMRAM    000034
_LATC                                 (abs)        000F8B
_LATD                                 (abs)        000F8C
_LapCounter                           bssCOMRAM    00002A
_LapDistanceCounter                   bssCOMRAM    000021
_LapTimeTenthMilli                    bssCOMRAM    00001F
_ManageApplication                    text6        0014EE
_ManageDrivers                        text4        00145A
_ManageSpeedCalc                      text7        0014F4
_MangeKeys                            text9        00061E
_NotifyFlag                           bssCOMRAM    00002B
_PORTBbits                            (abs)        000F81
_PORTC                                (abs)        000F82
_PORTD                                (abs)        000F83
_ReloadHWtimer                        text41       001264
_RunScheduler                         text3        000EDA
_SchedulerTick                        text36       0013BC
_SensorOneNotify                      text43       001490
_SensorTwoNotify                      text40       00138E
_SetCircumfirunce                     text14       0014C4
_SevenSegmentMAP                      smallconst   000611
_SpeedCalcManage                      text8        000DAA
_SpeedCalcNotifyInitialize            text2        00150E
_Start_App                            text1        000FE8
_T0CON                                (abs)        000FD5
_T1CON                                (abs)        000FCD
_T3CON                                (abs)        000FB1
_TMR0IE                               (abs)        007F95
_TMR0IF                               (abs)        007F92
_TMR0L                                (abs)        000FD6
_TMR1                                 (abs)        000FCE
_TMR1IE                               (abs)        007CE8
_TMR1IF                               (abs)        007CF0
_TMR2IF                               (abs)        007CF1
_TMR3H                                (abs)        000FB3
_TMR3IE                               (abs)        007D01
_TMR3IF                               (abs)        007D09
_TMR3L                                (abs)        000FB2
_TRISBbits                            (abs)        000F93
_TRISC                                (abs)        000F94
_TRISD                                (abs)        000F95
_TimerOVFLcount                       bssCOMRAM    000029
_WriteRequest                         bssCOMRAM    00002F
__CFG_BOREN$SBORDIS                   (abs)        000000
__CFG_BORV$3                          (abs)        000000
__CFG_CCP2MX$PORTC                    (abs)        000000
__CFG_CP0$OFF                         (abs)        000000
__CFG_CP1$OFF                         (abs)        000000
__CFG_CP2$OFF                         (abs)        000000
__CFG_CP3$OFF                         (abs)        000000
__CFG_CPB$OFF                         (abs)        000000
__CFG_CPD$OFF                         (abs)        000000
__CFG_EBTR0$OFF                       (abs)        000000
__CFG_EBTR1$OFF                       (abs)        000000
__CFG_EBTR2$OFF                       (abs)        000000
__CFG_EBTR3$OFF                       (abs)        000000
__CFG_EBTRB$OFF                       (abs)        000000
__CFG_FCMEN$OFF                       (abs)        000000
__CFG_IESO$OFF                        (abs)        000000
__CFG_LPT1OSC$OFF                     (abs)        000000
__CFG_LVP$ON                          (abs)        000000
__CFG_MCLRE$OFF                       (abs)        000000
__CFG_OSC$XT                          (abs)        000000
__CFG_PBADEN$OFF                      (abs)        000000
__CFG_PWRT$OFF                        (abs)        000000
__CFG_STVREN$ON                       (abs)        000000
__CFG_WDT$OFF                         (abs)        000000
__CFG_WDTPS$32768                     (abs)        000000
__CFG_WRT0$OFF                        (abs)        000000
__CFG_WRT1$OFF                        (abs)        000000
__CFG_WRT2$OFF                        (abs)        000000
__CFG_WRT3$OFF                        (abs)        000000
__CFG_WRTB$OFF                        (abs)        000000
__CFG_WRTC$OFF                        (abs)        000000
__CFG_WRTD$OFF                        (abs)        000000
__CFG_XINST$OFF                       (abs)        000000
__HRAM                                (abs)        000000
__Habs1                               abs1         000000
__Hbank0                              bank0        000000
__Hbank1                              bank1        000000
__Hbank2                              bank2        000000
__Hbank3                              bank3        000000
__Hbank4                              bank4        000000
__Hbank5                              bank5        000000
__Hbigbss                             bigbss       000000
__Hbigdata                            bigdata      000000
__Hbigram                             bigram       000000
__Hbss                                bss          000000
__HbssBANK0                           bssBANK0     000000
__HbssCOMRAM                          bssCOMRAM    000000
__Hcinit                              cinit        000000
__Hclrtext                            clrtext      000000
__Hcomram                             comram       000000
__Hconfig                             config       30000E
__Hconst                              const        000000
__HcstackBANK0                        cstackBANK0  000000
__HcstackCOMRAM                       cstackCOMRAM 000000
__Hdata                               data         000000
__HdataCOMRAM                         dataCOMRAM   000000
__Heeprom_data                        eeprom_data  000000
__Hfarbss                             farbss       000000
__Hfardata                            fardata      000000
__Hibigdata                           ibigdata     000000
__Hidata                              idata        000000
__HidataCOMRAM                        idataCOMRAM  000000
__Hidloc                              idloc        200008
__Hifardata                           ifardata     000000
__Hinit                               init         000012
__Hintcode                            intcode      00000E
__Hintcode_body                       intcode_body 000000
__Hintcodelo                          intcodelo    00000E
__Hintentry                           intentry     000000
__Hintret                             intret       000000
__Hintsave_regs                       intsave_regs 000000
__Hirdata                             irdata       000000
__Hmediumconst                        mediumconst  000000
__HnvCOMRAM                           nvCOMRAM     000000
__HnvFARRAM                           nvFARRAM     000000
__Hnvbit                              nvbit        000000
__Hnvrram                             nvrram       000000
__Hparam                              rparam       000000
__Hpowerup                            powerup      00000E
__Hram                                ram          000000
__Hramtop                             ramtop       000600
__Hrbit                               rbit         000000
__Hrbss                               rbss         000000
__Hrdata                              rdata        000000
__Hreset_vec                          reset_vec    000004
__Hrparam                             rparam       000000
__Hsfr                                sfr          000000
__Hsmallconst                         smallconst   00061E
__Hspace_0                            (abs)        30000E
__Hspace_1                            (abs)        000098
__Hspace_2                            (abs)        000000
__Hstack                              stack        000000
__Hstruct                             struct       000000
__Htemp                               temp         00006D
__Htext                               text         000000
__Htext0                              text0        000000
__Htext1                              text1        000000
__Htext10                             text10       000000
__Htext11                             text11       000000
__Htext12                             text12       000000
__Htext13                             text13       000000
__Htext14                             text14       000000
__Htext15                             text15       000000
__Htext16                             text16       000000
__Htext17                             text17       000000
__Htext18                             text18       000000
__Htext19                             text19       000000
__Htext2                              text2        000000
__Htext20                             text20       000000
__Htext21                             text21       000000
__Htext22                             text22       000000
__Htext23                             text23       000000
__Htext24                             text24       000000
__Htext25                             text25       000000
__Htext26                             text26       000000
__Htext27                             text27       000000
__Htext28                             text28       000000
__Htext29                             text29       000000
__Htext3                              text3        000000
__Htext30                             text30       000000
__Htext31                             text31       000000
__Htext32                             text32       000000
__Htext33                             text33       000000
__Htext34                             text34       000000
__Htext36                             text36       000000
__Htext37                             text37       000000
__Htext38                             text38       000000
__Htext39                             text39       000000
__Htext4                              text4        000000
__Htext40                             text40       000000
__Htext41                             text41       000000
__Htext42                             text42       000000
__Htext43                             text43       000000
__Htext44                             text44       000000
__Htext5                              text5        000000
__Htext6                              text6        000000
__Htext7                              text7        000000
__Htext8                              text8        000000
__Htext9                              text9        000000
__LRAM                                (abs)        000001
__Labs1                               abs1         000000
__Lbank0                              bank0        000000
__Lbank1                              bank1        000000
__Lbank2                              bank2        000000
__Lbank3                              bank3        000000
__Lbank4                              bank4        000000
__Lbank5                              bank5        000000
__Lbigbss                             bigbss       000000
__Lbigdata                            bigdata      000000
__Lbigram                             bigram       000000
__Lbss                                bss          000000
__LbssBANK0                           bssBANK0     000000
__LbssCOMRAM                          bssCOMRAM    000000
__Lcinit                              cinit        000000
__Lclrtext                            clrtext      000000
__Lcomram                             comram       000000
__Lconfig                             config       300000
__Lconst                              const        000000
__LcstackBANK0                        cstackBANK0  000000
__LcstackCOMRAM                       cstackCOMRAM 000000
__Ldata                               data         000000
__LdataCOMRAM                         dataCOMRAM   000000
__Leeprom_data                        eeprom_data  000000
__Lfarbss                             farbss       000000
__Lfardata                            fardata      000000
__Libigdata                           ibigdata     000000
__Lidata                              idata        000000
__LidataCOMRAM                        idataCOMRAM  000000
__Lidloc                              idloc        200000
__Lifardata                           ifardata     000000
__Linit                               init         00000E
__Lintcode                            intcode      000008
__Lintcode_body                       intcode_body 000000
__Lintcodelo                          intcodelo    00000E
__Lintentry                           intentry     000000
__Lintret                             intret       000000
__Lintsave_regs                       intsave_regs 000000
__Lirdata                             irdata       000000
__Lmediumconst                        mediumconst  000000
__LnvCOMRAM                           nvCOMRAM     000000
__LnvFARRAM                           nvFARRAM     000000
__Lnvbit                              nvbit        000000
__Lnvrram                             nvrram       000000
__Lparam                              rparam       000000
__Lpowerup                            powerup      00000E
__Lram                                ram          000000
__Lramtop                             ramtop       000600
__Lrbit                               rbit         000000
__Lrbss                               rbss         000000
__Lrdata                              rdata        000000
__Lreset_vec                          reset_vec    000000
__Lrparam                             rparam       000000
__Lsfr                                sfr          000000
__Lsmallconst                         smallconst   000600
__Lspace_0                            (abs)        000000
__Lspace_1                            (abs)        000000
__Lspace_2                            (abs)        000000
__Lstack                              stack        000000
__Lstruct                             struct       000000
__Ltemp                               temp         00006C
__Ltext                               text         000000
__Ltext0                              text0        000000
__Ltext1                              text1        000000
__Ltext10                             text10       000000
__Ltext11                             text11       000000
__Ltext12                             text12       000000
__Ltext13                             text13       000000
__Ltext14                             text14       000000
__Ltext15                             text15       000000
__Ltext16                             text16       000000
__Ltext17                             text17       000000
__Ltext18                             text18       000000
__Ltext19                             text19       000000
__Ltext2                              text2        000000
__Ltext20                             text20       000000
__Ltext21                             text21       000000
__Ltext22                             text22       000000
__Ltext23                             text23       000000
__Ltext24                             text24       000000
__Ltext25                             text25       000000
__Ltext26                             text26       000000
__Ltext27                             text27       000000
__Ltext28                             text28       000000
__Ltext29                             text29       000000
__Ltext3                              text3        000000
__Ltext30                             text30       000000
__Ltext31                             text31       000000
__Ltext32                             text32       000000
__Ltext33                             text33       000000
__Ltext34                             text34       000000
__Ltext36                             text36       000000
__Ltext37                             text37       000000
__Ltext38                             text38       000000
__Ltext39                             text39       000000
__Ltext4                              text4        000000
__Ltext40                             text40       000000
__Ltext41                             text41       000000
__Ltext42                             text42       000000
__Ltext43                             text43       000000
__Ltext44                             text44       000000
__Ltext5                              text5        000000
__Ltext6                              text6        000000
__Ltext7                              text7        000000
__Ltext8                              text8        000000
__Ltext9                              text9        000000
__S0                                  (abs)        30000E
__S1                                  (abs)        000098
__S2                                  (abs)        000000
___inthi_sp                           stack        000000
___intlo_sp                           stack        000000
___lldiv                              text19       000F66
___lldiv@counter                      cstackCOMRAM 000066
___lldiv@dividend                     cstackCOMRAM 00005A
___lldiv@divisor                      cstackCOMRAM 00005E
___lldiv@quotient                     cstackCOMRAM 000062
___lmul                               text18       0010AC
___lmul@multiplicand                  cstackCOMRAM 000052
___lmul@multiplier                    cstackCOMRAM 00004E
___lmul@product                       cstackCOMRAM 000056
___lwdiv                              text26       001156
___lwdiv@counter                      cstackCOMRAM 000052
___lwdiv@dividend                     cstackCOMRAM 00004E
___lwdiv@divisor                      cstackCOMRAM 000050
___lwdiv@quotient                     cstackCOMRAM 000053
___param_bank                         (abs)        000000
___rparam_used                        (abs)        000001
___sp                                 stack        000000
___wmul                               text25       00140E
___wmul@multiplicand                  cstackCOMRAM 000050
___wmul@multiplier                    cstackCOMRAM 00004E
___wmul@product                       cstackCOMRAM 000052
__accesstop                           (abs)        000080
__activetblptr                        (abs)        000002
__end_of_APP_INITIALIZE               text34       001512
__end_of_APP_ISR1                     text42       00150C
__end_of_APP_ISR2                     text39       001506
__end_of_APP_ISR3                     text37       001500
__end_of_APP_MANAGE                   text13       000B5A
__end_of_BCDInitialize                text33       0014E8
__end_of_BCDManage7segment            text27       000EDA
__end_of_BCDsendNumber                text24       000C50
__end_of_BlinkDigit                   text23       0014C4
__end_of_CreateTask                   text32       0010AC
__end_of_DisplayAlphaNumeric          text5        0014EE
__end_of_EepromManage                 text11       0011E8
__end_of_Eeprom_Read_Block            text21       0012D2
__end_of_Eeprom_Write_Block           text20       001156
__end_of_GetAvgSpeed                  text17       000DAA
__end_of_GetDistance                  text16       0014B8
__end_of_GetKeyStatus                 text15       00138E
__end_of_HWI_4Digit_WRITE             text29       001304
__end_of_HWI_8Digit_WRITE             text28       00145A
__end_of_HWI_DIGITAL_INITIALIZE       text31       001490
__end_of_HWI_DIGI_READ                text10       001332
__end_of_HWI_INTERRUPTS_INTITALIZE    text30       001264
__end_of_HWIeeprom_Read               text22       00140E
__end_of_HWIeeprom_Write              text12       001360
__end_of_HWtimerCallback              text38       0014D8
__end_of_ISR                          intcode_body 000D0C
__end_of_KeyArrayConfig               smallconst   000611
__end_of_ManageApplication            text6        0014F4
__end_of_ManageDrivers                text4        001476
__end_of_ManageSpeedCalc              text7        0014FA
__end_of_MangeKeys                    text9        000A4C
__end_of_ReloadHWtimer                text41       0012A0
__end_of_RunScheduler                 text3        000F66
__end_of_SchedulerTick                text36       0013E6
__end_of_SensorOneNotify              text43       0014A6
__end_of_SensorTwoNotify              text40       0013BC
__end_of_SetCircumfirunce             text14       0014CE
__end_of_SevenSegmentMAP              smallconst   00061C
__end_of_SpeedCalcManage              text8        000E42
__end_of_SpeedCalcNotifyInitialize    text2        001510
__end_of_Start_App                    text1        001054
__end_of___lldiv                      text19       000FE8
__end_of___lmul                       text18       001102
__end_of___lwdiv                      text26       0011A8
__end_of___wmul                       text25       001434
__end_of__initialization              cinit        001218
__end_of_main                         text0        0014E0
__initialization                      cinit        0011E8
__mediumconst                         mediumconst  000000
__pbssBANK0                           bssBANK0     00008E
__pbssCOMRAM                          bssCOMRAM    000001
__pcinit                              cinit        0011E8
__pcstackBANK0                        cstackBANK0  000080
__pcstackCOMRAM                       cstackCOMRAM 00003B
__pdataCOMRAM                         dataCOMRAM   000069
__pidataCOMRAM                        idataCOMRAM  00150C
__pintcode                            intcode      000008
__pintcode_body                       intcode_body 000C50
__pnvCOMRAM                           nvCOMRAM     00006B
__psmallconst                         smallconst   000600
__ptext0                              text0        0014D8
__ptext1                              text1        000FE8
__ptext10                             text10       001304
__ptext11                             text11       0011A8
__ptext12                             text12       001332
__ptext13                             text13       000A4C
__ptext14                             text14       0014C4
__ptext15                             text15       001360
__ptext16                             text16       0014A6
__ptext17                             text17       000D0C
__ptext18                             text18       0010AC
__ptext19                             text19       000F66
__ptext2                              text2        00150E
__ptext20                             text20       001102
__ptext21                             text21       0012A0
__ptext22                             text22       0013E6
__ptext23                             text23       0014B8
__ptext24                             text24       000B5A
__ptext25                             text25       00140E
__ptext26                             text26       001156
__ptext27                             text27       000E42
__ptext28                             text28       001434
__ptext29                             text29       0012D2
__ptext3                              text3        000EDA
__ptext30                             text30       001226
__ptext31                             text31       001476
__ptext32                             text32       001054
__ptext33                             text33       0014E0
__ptext34                             text34       001510
__ptext36                             text36       0013BC
__ptext37                             text37       0014FA
__ptext38                             text38       0014CE
__ptext39                             text39       001500
__ptext4                              text4        00145A
__ptext40                             text40       00138E
__ptext41                             text41       001264
__ptext42                             text42       001506
__ptext43                             text43       001490
__ptext44                             text44       000000
__ptext5                              text5        0014E8
__ptext6                              text6        0014EE
__ptext7                              text7        0014F4
__ptext8                              text8        000DAA
__ptext9                              text9        00061E
__ramtop                              ramtop       000600
__size_of_APP_INITIALIZE              (abs)        000000
__size_of_APP_ISR1                    (abs)        000000
__size_of_APP_ISR2                    (abs)        000000
__size_of_APP_ISR3                    (abs)        000000
__size_of_APP_MANAGE                  (abs)        000000
__size_of_BCDInitialize               (abs)        000000
__size_of_BCDManage7segment           (abs)        000000
__size_of_BCDsendNumber               (abs)        000000
__size_of_BlinkDigit                  (abs)        000000
__size_of_CreateTask                  (abs)        000000
__size_of_DisplayAlphaNumeric         (abs)        000000
__size_of_EepromManage                (abs)        000000
__size_of_Eeprom_Read_Block           (abs)        000000
__size_of_Eeprom_Write_Block          (abs)        000000
__size_of_GetAvgSpeed                 (abs)        000000
__size_of_GetDistance                 (abs)        000000
__size_of_GetKeyStatus                (abs)        000000
__size_of_HWI_4Digit_WRITE            (abs)        000000
__size_of_HWI_8Digit_WRITE            (abs)        000000
__size_of_HWI_DIGITAL_INITIALIZE      (abs)        000000
__size_of_HWI_DIGI_READ               (abs)        000000
__size_of_HWI_INTERRUPTS_INTITALIZE   (abs)        000000
__size_of_HWIeeprom_Read              (abs)        000000
__size_of_HWIeeprom_Write             (abs)        000000
__size_of_HWtimerCallback             (abs)        000000
__size_of_ISR                         (abs)        000000
__size_of_ManageApplication           (abs)        000000
__size_of_ManageDrivers               (abs)        000000
__size_of_ManageSpeedCalc             (abs)        000000
__size_of_MangeKeys                   (abs)        000000
__size_of_ReloadHWtimer               (abs)        000000
__size_of_RunScheduler                (abs)        000000
__size_of_SchedulerTick               (abs)        000000
__size_of_SensorOneNotify             (abs)        000000
__size_of_SensorTwoNotify             (abs)        000000
__size_of_SetCircumfirunce            (abs)        000000
__size_of_SpeedCalcManage             (abs)        000000
__size_of_SpeedCalcNotifyInitialize   (abs)        000000
__size_of_Start_App                   (abs)        000000
__size_of___lldiv                     (abs)        000000
__size_of___lmul                      (abs)        000000
__size_of___lwdiv                     (abs)        000000
__size_of___wmul                      (abs)        000000
__size_of_main                        (abs)        000000
__smallconst                          smallconst   000600
_bIsAnodeUsed                         nvCOMRAM     00006B
_main                                 text0        0014D8
btemp                                 temp         00006C
end_of_initialization                 cinit        001218
int$flags                             temp         00006C
int_func                              intcode_body 000C50
intlevel0                             text         000000
intlevel1                             text         000000
intlevel2                             text         000000
intlevel3                             text         000000
stackhi                               (abs)        0005FF
stacklo                               (abs)        000098
start                                 init         00000E
start_initialization                  cinit        0011E8


FUNCTION INFORMATION:

 *************** function _main *****************
 Defined at:
		line 78 in file "main.c"
 Parameters:    Size  Location     Type
		None
 Auto vars:     Size  Location     Type
		None
 Return value:  Size  Location     Type
                  1    wreg      void 
 Registers used:
		wreg, fsr1l, fsr1h, fsr2l, fsr2h, status,2, status,0, pclath, tosl, tblptrl, tblptrh, tblptru, prodl, prodh, cstack
 Tracked objects:
		On entry : 
		On exit  : 
		Unchanged: 
 Data sizes:     COMRAM   BANK0   BANK1   BANK2   BANK3   BANK4   BANK5
      Params:         0       0       0       0       0       0       0
      Locals:         0       0       0       0       0       0       0
      Temps:          0       0       0       0       0       0       0
      Totals:         0       0       0       0       0       0       0
Total ram usage:        0 bytes
 Hardware stack levels required when called:   10
 This function calls:
		_Start_App
 This function is called by:
		Startup code after reset
 This function uses a non-reentrant model


 *************** function _Start_App *****************
 Defined at:
		line 21 in file "../../../../OS/OS_manage/OS_manage.c"
 Parameters:    Size  Location     Type
		None
 Auto vars:     Size  Location     Type
		None
 Return value:  Size  Location     Type
                  1    wreg      void 
 Registers used:
		wreg, fsr1l, fsr1h, fsr2l, fsr2h, status,2, status,0, pclath, tosl, tblptrl, tblptrh, tblptru, prodl, prodh, cstack
 Tracked objects:
		On entry : 
		On exit  : 
		Unchanged: 
 Data sizes:     COMRAM   BANK0   BANK1   BANK2   BANK3   BANK4   BANK5
      Params:         0       0       0       0       0       0       0
      Locals:         0       0       0       0       0       0       0
      Temps:          0       0       0       0       0       0       0
      Totals:         0       0       0       0       0       0       0
Total ram usage:        0 bytes
 Hardware stack levels used:    1
 Hardware stack levels required when called:    9
 This function calls:
		_APP_INITIALIZE
		_BCDInitialize
		_CreateTask
		_HWI_DIGITAL_INITIALIZE
		_HWI_INTERRUPTS_INTITALIZE
		_RunScheduler
		_SpeedCalcNotifyInitialize
 This function is called by:
		_main
 This function uses a non-reentrant model


 *************** function _SpeedCalcNotifyInitialize *****************
 Defined at:
		line 24 in file "../../../../Common/Driver/SpeedCalc/SpeedCalc.c"
 Parameters:    Size  Location     Type
		None
 Auto vars:     Size  Location     Type
		None
 Return value:  Size  Location     Type
                  1    wreg      void 
 Registers used:
		None
 Tracked objects:
		On entry : 
		On exit  : 
		Unchanged: 
 Data sizes:     COMRAM   BANK0   BANK1   BANK2   BANK3   BANK4   BANK5
      Params:         0       0       0       0       0       0       0
      Locals:         0       0       0       0       0       0       0
      Temps:          0       0       0       0       0       0       0
      Totals:         0       0       0       0       0       0       0
Total ram usage:        0 bytes
 Hardware stack levels used:    1
 Hardware stack levels required when called:    4
 This function calls:
		Nothing
 This function is called by:
		_Start_App
 This function uses a non-reentrant model


 *************** function _RunScheduler *****************
 Defined at:
		line 25 in file "../../../../OS/Scheduler/Scheduler.c"
 Parameters:    Size  Location     Type
		None
 Auto vars:     Size  Location     Type
		None
 Return value:  Size  Location     Type
                  1    wreg      void 
 Registers used:
		wreg, fsr1l, fsr1h, fsr2l, fsr2h, status,2, status,0, pclath, tosl, tblptrl, tblptrh, tblptru, prodl, prodh, cstack
 Tracked objects:
		On entry : 
		On exit  : 
		Unchanged: 
 Data sizes:     COMRAM   BANK0   BANK1   BANK2   BANK3   BANK4   BANK5
      Params:         0       0       0       0       0       0       0
      Locals:         0       0       0       0       0       0       0
      Temps:          0       2       0       0       0       0       0
      Totals:         0       2       0       0       0       0       0
Total ram usage:        2 bytes
 Hardware stack levels used:    1
 Hardware stack levels required when called:    8
 This function calls:
		_DisplayAlphaNumeric
		_ManageApplication
		_ManageDrivers
		_ManageSpeedCalc
 This function is called by:
		_Start_App
 This function uses a non-reentrant model


 *************** function _ManageDrivers *****************
 Defined at:
		line 54 in file "../../../../OS/OS_manage/OS_manage.c"
 Parameters:    Size  Location     Type
		None
 Auto vars:     Size  Location     Type
  LoopIndex       1   26[COMRAM] unsigned char 
 Return value:  Size  Location     Type
                  1    wreg      void 
 Registers used:
		wreg, fsr2l, fsr2h, status,2, status,0, tblptrl, tblptrh, tblptru, prodl, prodh, cstack
 Tracked objects:
		On entry : 
		On exit  : 
		Unchanged: 
 Data sizes:     COMRAM   BANK0   BANK1   BANK2   BANK3   BANK4   BANK5
      Params:         0       0       0       0       0       0       0
      Locals:         1       0       0       0       0       0       0
      Temps:          0       0       0       0       0       0       0
      Totals:         1       0       0       0       0       0       0
Total ram usage:        1 bytes
 Hardware stack levels used:    1
 Hardware stack levels required when called:    6
 This function calls:
		_EepromManage
		_MangeKeys
 This function is called by:
		_Start_App
		_RunScheduler
 This function uses a non-reentrant model


 *************** function _DisplayAlphaNumeric *****************
 Defined at:
		line 41 in file "../../../../OS/OS_manage/OS_manage.c"
 Parameters:    Size  Location     Type
		None
 Auto vars:     Size  Location     Type
		None
 Return value:  Size  Location     Type
                  1    wreg      void 
 Registers used:
		wreg, fsr2l, fsr2h, status,2, status,0, prodl, prodh, cstack
 Tracked objects:
		On entry : 
		On exit  : 
		Unchanged: 
 Data sizes:     COMRAM   BANK0   BANK1   BANK2   BANK3   BANK4   BANK5
      Params:         0       0       0       0       0       0       0
      Locals:         0       0       0       0       0       0       0
      Temps:          0       0       0       0       0       0       0
      Totals:         0       0       0       0       0       0       0
Total ram usage:        0 bytes
 Hardware stack levels used:    1
 Hardware stack levels required when called:    6
 This function calls:
		_BCDManage7segment
 This function is called by:
		_Start_App
		_RunScheduler
 This function uses a non-reentrant model


 *************** function _ManageApplication *****************
 Defined at:
		line 45 in file "../../../../OS/OS_manage/OS_manage.c"
 Parameters:    Size  Location     Type
		None
 Auto vars:     Size  Location     Type
		None
 Return value:  Size  Location     Type
                  1    wreg      void 
 Registers used:
		wreg, fsr1l, fsr1h, fsr2l, fsr2h, status,2, status,0, tblptrl, tblptrh, tblptru, prodl, prodh, cstack
 Tracked objects:
		On entry : 
		On exit  : 
		Unchanged: 
 Data sizes:     COMRAM   BANK0   BANK1   BANK2   BANK3   BANK4   BANK5
      Params:         0       0       0       0       0       0       0
      Locals:         0       0       0       0       0       0       0
      Temps:          0       0       0       0       0       0       0
      Totals:         0       0       0       0       0       0       0
Total ram usage:        0 bytes
 Hardware stack levels used:    1
 Hardware stack levels required when called:    7
 This function calls:
		_APP_MANAGE
 This function is called by:
		_Start_App
		_RunScheduler
 This function uses a non-reentrant model


 *************** function _ManageSpeedCalc *****************
 Defined at:
		line 49 in file "../../../../OS/OS_manage/OS_manage.c"
 Parameters:    Size  Location     Type
		None
 Auto vars:     Size  Location     Type
		None
 Return value:  Size  Location     Type
                  1    wreg      void 
 Registers used:
		wreg, status,2, status,0, prodl, prodh, cstack
 Tracked objects:
		On entry : 
		On exit  : 
		Unchanged: 
 Data sizes:     COMRAM   BANK0   BANK1   BANK2   BANK3   BANK4   BANK5
      Params:         0       0       0       0       0       0       0
      Locals:         0       0       0       0       0       0       0
      Temps:          0       0       0       0       0       0       0
      Totals:         0       0       0       0       0       0       0
Total ram usage:        0 bytes
 Hardware stack levels used:    1
 Hardware stack levels required when called:    6
 This function calls:
		_SpeedCalcManage
 This function is called by:
		_Start_App
		_RunScheduler
 This function uses a non-reentrant model


 *************** function _SpeedCalcManage *****************
 Defined at:
		line 63 in file "../../../../Common/Driver/SpeedCalc/SpeedCalc.c"
 Parameters:    Size  Location     Type
		None
 Auto vars:     Size  Location     Type
  HundredMeter    2    0[BANK0 ] unsigned short 
 Return value:  Size  Location     Type
                  1    wreg      void 
 Registers used:
		wreg, status,2, status,0, prodl, prodh, cstack
 Tracked objects:
		On entry : 
		On exit  : 
		Unchanged: 
 Data sizes:     COMRAM   BANK0   BANK1   BANK2   BANK3   BANK4   BANK5
      Params:         0       0       0       0       0       0       0
      Locals:         0       2       0       0       0       0       0
      Temps:          2       0       0       0       0       0       0
      Totals:         2       2       0       0       0       0       0
Total ram usage:        4 bytes
 Hardware stack levels used:    1
 Hardware stack levels required when called:    5
 This function calls:
		___lldiv
		___lwdiv
		___wmul
 This function is called by:
		_ManageSpeedCalc
 This function uses a non-reentrant model


 *************** function _MangeKeys *****************
 Defined at:
		line 29 in file "../../../../Common/Driver/Key/Key.c"
 Parameters:    Size  Location     Type
  KeyID           1    wreg     unsigned char 
 Auto vars:     Size  Location     Type
  KeyID           1   25[COMRAM] unsigned char 
  HWIreading      1   24[COMRAM] unsigned char 
  KeyState        1   23[COMRAM] unsigned char 
 Return value:  Size  Location     Type
                  1    wreg      void 
 Registers used:
		wreg, fsr2l, fsr2h, status,2, status,0, tblptrl, tblptrh, tblptru, prodl, prodh, cstack
 Tracked objects:
		On entry : 
		On exit  : 
		Unchanged: 
 Data sizes:     COMRAM   BANK0   BANK1   BANK2   BANK3   BANK4   BANK5
      Params:         0       0       0       0       0       0       0
      Locals:         3       0       0       0       0       0       0
      Temps:          2       0       0       0       0       0       0
      Totals:         5       0       0       0       0       0       0
Total ram usage:        5 bytes
 Hardware stack levels used:    1
 Hardware stack levels required when called:    5
 This function calls:
		_HWI_DIGI_READ
 This function is called by:
		_ManageDrivers
 This function uses a non-reentrant model


 *************** function _HWI_DIGI_READ *****************
 Defined at:
		line 91 in file "../../HWIsource/HWI_DIGITAL.c"
 Parameters:    Size  Location     Type
  pin             1    wreg     unsigned char 
 Auto vars:     Size  Location     Type
  pin             1   19[COMRAM] unsigned char 
  HWIread         1   20[COMRAM] unsigned char 
 Return value:  Size  Location     Type
                  1    wreg      unsigned char 
 Registers used:
		wreg, status,2, status,0
 Tracked objects:
		On entry : 
		On exit  : 
		Unchanged: 
 Data sizes:     COMRAM   BANK0   BANK1   BANK2   BANK3   BANK4   BANK5
      Params:         0       0       0       0       0       0       0
      Locals:         2       0       0       0       0       0       0
      Temps:          0       0       0       0       0       0       0
      Totals:         2       0       0       0       0       0       0
Total ram usage:        2 bytes
 Hardware stack levels used:    1
 Hardware stack levels required when called:    4
 This function calls:
		Nothing
 This function is called by:
		_MangeKeys
 This function uses a non-reentrant model


 *************** function _EepromManage *****************
 Defined at:
		line 60 in file "../../../../Common/Driver/EEPROM/Eeprom.c"
 Parameters:    Size  Location     Type
		None
 Auto vars:     Size  Location     Type
  WriteSuccess    1   22[COMRAM] unsigned char 
 Return value:  Size  Location     Type
                  1    wreg      void 
 Registers used:
		wreg, fsr2l, fsr2h, status,2, status,0, prodl, prodh, cstack
 Tracked objects:
		On entry : 
		On exit  : 
		Unchanged: 
 Data sizes:     COMRAM   BANK0   BANK1   BANK2   BANK3   BANK4   BANK5
      Params:         0       0       0       0       0       0       0
      Locals:         1       0       0       0       0       0       0
      Temps:          0       0       0       0       0       0       0
      Totals:         1       0       0       0       0       0       0
Total ram usage:        1 bytes
 Hardware stack levels used:    1
 Hardware stack levels required when called:    5
 This function calls:
		_HWIeeprom_Write
 This function is called by:
		_ManageDrivers
 This function uses a non-reentrant model


 *************** function _HWIeeprom_Write *****************
 Defined at:
		line 6 in file "../../HWIeeprom/HWIeeprom.c"
 Parameters:    Size  Location     Type
  address         1    wreg     unsigned char 
  Data            1   19[COMRAM] unsigned char 
 Auto vars:     Size  Location     Type
  address         1   20[COMRAM] unsigned char 
  WriteSuccess    1   21[COMRAM] unsigned char 
 Return value:  Size  Location     Type
                  1    wreg      unsigned char 
 Registers used:
		wreg, status,2
 Tracked objects:
		On entry : 
		On exit  : 
		Unchanged: 
 Data sizes:     COMRAM   BANK0   BANK1   BANK2   BANK3   BANK4   BANK5
      Params:         1       0       0       0       0       0       0
      Locals:         2       0       0       0       0       0       0
      Temps:          0       0       0       0       0       0       0
      Totals:         3       0       0       0       0       0       0
Total ram usage:        3 bytes
 Hardware stack levels used:    1
 Hardware stack levels required when called:    4
 This function calls:
		Nothing
 This function is called by:
		_EepromManage
 This function uses a non-reentrant model


 *************** function _APP_MANAGE *****************
 Defined at:
		line 18 in file "../../../../Common/App/APP.c"
 Parameters:    Size  Location     Type
		None
 Auto vars:     Size  Location     Type
  TravelledDis    2    9[BANK0 ] unsigned short 
  AvgSpeedKph     2    7[BANK0 ] unsigned short 
  keystatus       1   11[BANK0 ] unsigned char 
 Return value:  Size  Location     Type
                  1    wreg      void 
 Registers used:
		wreg, fsr1l, fsr1h, fsr2l, fsr2h, status,2, status,0, tblptrl, tblptrh, tblptru, prodl, prodh, cstack
 Tracked objects:
		On entry : 
		On exit  : 
		Unchanged: 
 Data sizes:     COMRAM   BANK0   BANK1   BANK2   BANK3   BANK4   BANK5
      Params:         0       0       0       0       0       0       0
      Locals:         0       5       0       0       0       0       0
      Temps:          0       0       0       0       0       0       0
      Totals:         0       5       0       0       0       0       0
Total ram usage:        5 bytes
 Hardware stack levels used:    1
 Hardware stack levels required when called:    6
 This function calls:
		_BCDsendNumber
		_BlinkDigit
		_Eeprom_Read_Block
		_Eeprom_Write_Block
		_GetAvgSpeed
		_GetDistance
		_GetKeyStatus
		_SetCircumfirunce
		___wmul
 This function is called by:
		_ManageApplication
 This function uses a non-reentrant model


 *************** function _SetCircumfirunce *****************
 Defined at:
		line 99 in file "../../../../Common/Driver/SpeedCalc/SpeedCalc.c"
 Parameters:    Size  Location     Type
  Circum          2   19[COMRAM] unsigned short 
 Auto vars:     Size  Location     Type
		None
 Return value:  Size  Location     Type
                  1    wreg      void 
 Registers used:
		None
 Tracked objects:
		On entry : 
		On exit  : 
		Unchanged: 
 Data sizes:     COMRAM   BANK0   BANK1   BANK2   BANK3   BANK4   BANK5
      Params:         2       0       0       0       0       0       0
      Locals:         0       0       0       0       0       0       0
      Temps:          0       0       0       0       0       0       0
      Totals:         2       0       0       0       0       0       0
Total ram usage:        2 bytes
 Hardware stack levels used:    1
 Hardware stack levels required when called:    4
 This function calls:
		Nothing
 This function is called by:
		_APP_MANAGE
 This function uses a non-reentrant model


 *************** function _GetKeyStatus *****************
 Defined at:
		line 19 in file "../../../../Common/Driver/Key/Key.c"
 Parameters:    Size  Location     Type
  KeyID           1    wreg     unsigned char 
 Auto vars:     Size  Location     Type
  KeyID           1   20[COMRAM] unsigned char 
  KeyStatus       1   19[COMRAM] unsigned char 
 Return value:  Size  Location     Type
                  1    wreg      unsigned char 
 Registers used:
		wreg, fsr2l, fsr2h, status,2, status,0, prodl, prodh
 Tracked objects:
		On entry : 
		On exit  : 
		Unchanged: 
 Data sizes:     COMRAM   BANK0   BANK1   BANK2   BANK3   BANK4   BANK5
      Params:         0       0       0       0       0       0       0
      Locals:         2       0       0       0       0       0       0
      Temps:          0       0       0       0       0       0       0
      Totals:         2       0       0       0       0       0       0
Total ram usage:        2 bytes
 Hardware stack levels used:    1
 Hardware stack levels required when called:    4
 This function calls:
		Nothing
 This function is called by:
		_APP_MANAGE
 This function uses a non-reentrant model


 *************** function _GetDistance *****************
 Defined at:
		line 93 in file "../../../../Common/Driver/SpeedCalc/SpeedCalc.c"
 Parameters:    Size  Location     Type
		None
 Auto vars:     Size  Location     Type
		None
 Return value:  Size  Location     Type
                  4   19[COMRAM] unsigned long 
 Registers used:
		None
 Tracked objects:
		On entry : 
		On exit  : 
		Unchanged: 
 Data sizes:     COMRAM   BANK0   BANK1   BANK2   BANK3   BANK4   BANK5
      Params:         4       0       0       0       0       0       0
      Locals:         0       0       0       0       0       0       0
      Temps:          0       0       0       0       0       0       0
      Totals:         4       0       0       0       0       0       0
Total ram usage:        4 bytes
 Hardware stack levels used:    1
 Hardware stack levels required when called:    4
 This function calls:
		Nothing
 This function is called by:
		_APP_MANAGE
 This function uses a non-reentrant model


 *************** function _GetAvgSpeed *****************
 Defined at:
		line 105 in file "../../../../Common/Driver/SpeedCalc/SpeedCalc.c"
 Parameters:    Size  Location     Type
  bIsKph          1    wreg     unsigned char 
 Auto vars:     Size  Location     Type
  bIsKph          1    0[BANK0 ] unsigned char 
  KphMphFactor    4    1[BANK0 ] unsigned long 
  AvgSpeedKphM    2    5[BANK0 ] unsigned short 
 Return value:  Size  Location     Type
                  2   44[COMRAM] unsigned short 
 Registers used:
		wreg, status,2, status,0, cstack
 Tracked objects:
		On entry : 
		On exit  : 
		Unchanged: 
 Data sizes:     COMRAM   BANK0   BANK1   BANK2   BANK3   BANK4   BANK5
      Params:         2       0       0       0       0       0       0
      Locals:         0       7       0       0       0       0       0
      Temps:          0       0       0       0       0       0       0
      Totals:         2       7       0       0       0       0       0
Total ram usage:        9 bytes
 Hardware stack levels used:    1
 Hardware stack levels required when called:    5
 This function calls:
		___lldiv
		___lmul
 This function is called by:
		_APP_MANAGE
 This function uses a non-reentrant model


 *************** function ___lmul *****************
 Defined at:
		line 15 in file "C:\Program Files\Microchip\xc8\v1.41\sources\common\Umul32.c"
 Parameters:    Size  Location     Type
  multiplier      4   19[COMRAM] unsigned long 
  multiplicand    4   23[COMRAM] unsigned long 
 Auto vars:     Size  Location     Type
  product         4   27[COMRAM] unsigned long 
 Return value:  Size  Location     Type
                  4   19[COMRAM] unsigned long 
 Registers used:
		wreg, status,2, status,0
 Tracked objects:
		On entry : 
		On exit  : 
		Unchanged: 
 Data sizes:     COMRAM   BANK0   BANK1   BANK2   BANK3   BANK4   BANK5
      Params:         8       0       0       0       0       0       0
      Locals:         4       0       0       0       0       0       0
      Temps:          0       0       0       0       0       0       0
      Totals:        12       0       0       0       0       0       0
Total ram usage:       12 bytes
 Hardware stack levels used:    1
 Hardware stack levels required when called:    4
 This function calls:
		Nothing
 This function is called by:
		_GetAvgSpeed
 This function uses a non-reentrant model


 *************** function ___lldiv *****************
 Defined at:
		line 8 in file "C:\Program Files\Microchip\xc8\v1.41\sources\common\lldiv.c"
 Parameters:    Size  Location     Type
  dividend        4   31[COMRAM] unsigned long 
  divisor         4   35[COMRAM] unsigned long 
 Auto vars:     Size  Location     Type
  quotient        4   39[COMRAM] unsigned long 
  counter         1   43[COMRAM] unsigned char 
 Return value:  Size  Location     Type
                  4   31[COMRAM] unsigned long 
 Registers used:
		wreg, status,2, status,0
 Tracked objects:
		On entry : 
		On exit  : 
		Unchanged: 
 Data sizes:     COMRAM   BANK0   BANK1   BANK2   BANK3   BANK4   BANK5
      Params:         8       0       0       0       0       0       0
      Locals:         5       0       0       0       0       0       0
      Temps:          0       0       0       0       0       0       0
      Totals:        13       0       0       0       0       0       0
Total ram usage:       13 bytes
 Hardware stack levels used:    1
 Hardware stack levels required when called:    4
 This function calls:
		Nothing
 This function is called by:
		_SpeedCalcManage
		_GetAvgSpeed
 This function uses a non-reentrant model


 *************** function _Eeprom_Write_Block *****************
 Defined at:
		line 12 in file "../../../../Common/Driver/EEPROM/Eeprom.c"
 Parameters:    Size  Location     Type
  address         1    wreg     unsigned char 
  DataPtr         2   19[COMRAM] PTR unsigned char 
		 -> APP_MANAGE@TravelledDistance(2), 
  BlockSize       1   21[COMRAM] unsigned char 
 Auto vars:     Size  Location     Type
  address         1   23[COMRAM] unsigned char 
  LoopIndex       1   24[COMRAM] unsigned char 
  WriteGranted    1   22[COMRAM] unsigned char 
 Return value:  Size  Location     Type
                  1    wreg      unsigned char 
 Registers used:
		wreg, fsr1l, fsr1h, fsr2l, fsr2h, status,2, status,0, prodl, prodh
 Tracked objects:
		On entry : 
		On exit  : 
		Unchanged: 
 Data sizes:     COMRAM   BANK0   BANK1   BANK2   BANK3   BANK4   BANK5
      Params:         3       0       0       0       0       0       0
      Locals:         3       0       0       0       0       0       0
      Temps:          0       0       0       0       0       0       0
      Totals:         6       0       0       0       0       0       0
Total ram usage:        6 bytes
 Hardware stack levels used:    1
 Hardware stack levels required when called:    4
 This function calls:
		Nothing
 This function is called by:
		_APP_MANAGE
 This function uses a non-reentrant model


 *************** function _Eeprom_Read_Block *****************
 Defined at:
		line 39 in file "../../../../Common/Driver/EEPROM/Eeprom.c"
 Parameters:    Size  Location     Type
  address         1    wreg     unsigned char 
  DataPtr         2   23[COMRAM] PTR unsigned char 
		 -> APP_MANAGE@AvgSpeedKph(2), 
  BlockSize       1   25[COMRAM] unsigned char 
 Auto vars:     Size  Location     Type
  address         1   26[COMRAM] unsigned char 
  LoopIndex       1   28[COMRAM] unsigned char 
  ReadSuccess     1   27[COMRAM] unsigned char 
 Return value:  Size  Location     Type
                  1    wreg      void 
 Registers used:
		wreg, fsr2l, fsr2h, status,2, status,0, prodl, prodh, cstack
 Tracked objects:
		On entry : 
		On exit  : 
		Unchanged: 
 Data sizes:     COMRAM   BANK0   BANK1   BANK2   BANK3   BANK4   BANK5
      Params:         3       0       0       0       0       0       0
      Locals:         3       0       0       0       0       0       0
      Temps:          0       0       0       0       0       0       0
      Totals:         6       0       0       0       0       0       0
Total ram usage:        6 bytes
 Hardware stack levels used:    1
 Hardware stack levels required when called:    5
 This function calls:
		_HWIeeprom_Read
 This function is called by:
		_APP_MANAGE
 This function uses a non-reentrant model


 *************** function _HWIeeprom_Read *****************
 Defined at:
		line 31 in file "../../HWIeeprom/HWIeeprom.c"
 Parameters:    Size  Location     Type
  address         1    wreg     unsigned char 
  Data            2   19[COMRAM] PTR unsigned char 
		 -> APP_MANAGE@AvgSpeedKph(2), 
 Auto vars:     Size  Location     Type
  address         1   21[COMRAM] unsigned char 
  ReadSuccess     1   22[COMRAM] unsigned char 
 Return value:  Size  Location     Type
                  1    wreg      unsigned char 
 Registers used:
		wreg, fsr2l, fsr2h, status,2
 Tracked objects:
		On entry : 
		On exit  : 
		Unchanged: 
 Data sizes:     COMRAM   BANK0   BANK1   BANK2   BANK3   BANK4   BANK5
      Params:         2       0       0       0       0       0       0
      Locals:         2       0       0       0       0       0       0
      Temps:          0       0       0       0       0       0       0
      Totals:         4       0       0       0       0       0       0
Total ram usage:        4 bytes
 Hardware stack levels used:    1
 Hardware stack levels required when called:    4
 This function calls:
		Nothing
 This function is called by:
		_Eeprom_Read_Block
 This function uses a non-reentrant model


 *************** function _BlinkDigit *****************
 Defined at:
		line 121 in file "../../../../Common/Driver/BCDdisplay/BCDdisplay.c"
 Parameters:    Size  Location     Type
  Index           1    wreg     unsigned char 
  duration        1   19[COMRAM] unsigned char 
 Auto vars:     Size  Location     Type
  Index           1   20[COMRAM] unsigned char 
 Return value:  Size  Location     Type
                  1    wreg      void 
 Registers used:
		wreg
 Tracked objects:
		On entry : 
		On exit  : 
		Unchanged: 
 Data sizes:     COMRAM   BANK0   BANK1   BANK2   BANK3   BANK4   BANK5
      Params:         1       0       0       0       0       0       0
      Locals:         1       0       0       0       0       0       0
      Temps:          0       0       0       0       0       0       0
      Totals:         2       0       0       0       0       0       0
Total ram usage:        2 bytes
 Hardware stack levels used:    1
 Hardware stack levels required when called:    4
 This function calls:
		Nothing
 This function is called by:
		_APP_MANAGE
 This function uses a non-reentrant model


 *************** function _BCDsendNumber *****************
 Defined at:
		line 34 in file "../../../../Common/Driver/BCDdisplay/BCDdisplay.c"
 Parameters:    Size  Location     Type
  Number          2   26[COMRAM] unsigned short 
  DecimalPlace    1   28[COMRAM] unsigned char 
 Auto vars:     Size  Location     Type
  Buffer          2   35[COMRAM] unsigned short 
  Output          2   33[COMRAM] unsigned short 
  Link            2   31[COMRAM] unsigned short 
  LoopIndex       1   37[COMRAM] unsigned char 
 Return value:  Size  Location     Type
                  1    wreg      void 
 Registers used:
		wreg, fsr2l, fsr2h, status,2, status,0, tblptrl, tblptrh, tblptru, prodl, prodh, cstack
 Tracked objects:
		On entry : 
		On exit  : 
		Unchanged: 
 Data sizes:     COMRAM   BANK0   BANK1   BANK2   BANK3   BANK4   BANK5
      Params:         3       0       0       0       0       0       0
      Locals:         7       0       0       0       0       0       0
      Temps:          2       0       0       0       0       0       0
      Totals:        12       0       0       0       0       0       0
Total ram usage:       12 bytes
 Hardware stack levels used:    1
 Hardware stack levels required when called:    5
 This function calls:
		___lwdiv
		___wmul
 This function is called by:
		_APP_MANAGE
 This function uses a non-reentrant model


 *************** function ___wmul *****************
 Defined at:
		line 15 in file "C:\Program Files\Microchip\xc8\v1.41\sources\common\Umul16.c"
 Parameters:    Size  Location     Type
  multiplier      2   19[COMRAM] unsigned int 
  multiplicand    2   21[COMRAM] unsigned int 
 Auto vars:     Size  Location     Type
  product         2   23[COMRAM] unsigned int 
 Return value:  Size  Location     Type
                  2   19[COMRAM] unsigned int 
 Registers used:
		wreg, status,2, status,0, prodl, prodh
 Tracked objects:
		On entry : 
		On exit  : 
		Unchanged: 
 Data sizes:     COMRAM   BANK0   BANK1   BANK2   BANK3   BANK4   BANK5
      Params:         4       0       0       0       0       0       0
      Locals:         2       0       0       0       0       0       0
      Temps:          0       0       0       0       0       0       0
      Totals:         6       0       0       0       0       0       0
Total ram usage:        6 bytes
 Hardware stack levels used:    1
 Hardware stack levels required when called:    4
 This function calls:
		Nothing
 This function is called by:
		_APP_MANAGE
		_BCDsendNumber
		_SpeedCalcManage
 This function uses a non-reentrant model


 *************** function ___lwdiv *****************
 Defined at:
		line 8 in file "C:\Program Files\Microchip\xc8\v1.41\sources\common\lwdiv.c"
 Parameters:    Size  Location     Type
  dividend        2   19[COMRAM] unsigned int 
  divisor         2   21[COMRAM] unsigned int 
 Auto vars:     Size  Location     Type
  quotient        2   24[COMRAM] unsigned int 
  counter         1   23[COMRAM] unsigned char 
 Return value:  Size  Location     Type
                  2   19[COMRAM] unsigned int 
 Registers used:
		wreg, status,2, status,0
 Tracked objects:
		On entry : 
		On exit  : 
		Unchanged: 
 Data sizes:     COMRAM   BANK0   BANK1   BANK2   BANK3   BANK4   BANK5
      Params:         4       0       0       0       0       0       0
      Locals:         3       0       0       0       0       0       0
      Temps:          0       0       0       0       0       0       0
      Totals:         7       0       0       0       0       0       0
Total ram usage:        7 bytes
 Hardware stack levels used:    1
 Hardware stack levels required when called:    4
 This function calls:
		Nothing
 This function is called by:
		_BCDsendNumber
		_SpeedCalcManage
 This function uses a non-reentrant model


 *************** function _BCDManage7segment *****************
 Defined at:
		line 65 in file "../../../../Common/Driver/BCDdisplay/BCDdisplay.c"
 Parameters:    Size  Location     Type
		None
 Auto vars:     Size  Location     Type
  BCD             1   24[COMRAM] unsigned char 
  Index           1   23[COMRAM] unsigned char 
 Return value:  Size  Location     Type
                  1    wreg      void 
 Registers used:
		wreg, fsr2l, fsr2h, status,2, status,0, prodl, prodh, cstack
 Tracked objects:
		On entry : 
		On exit  : 
		Unchanged: 
 Data sizes:     COMRAM   BANK0   BANK1   BANK2   BANK3   BANK4   BANK5
      Params:         0       0       0       0       0       0       0
      Locals:         2       0       0       0       0       0       0
      Temps:          2       0       0       0       0       0       0
      Totals:         4       0       0       0       0       0       0
Total ram usage:        4 bytes
 Hardware stack levels used:    1
 Hardware stack levels required when called:    5
 This function calls:
		_HWI_4Digit_WRITE
		_HWI_8Digit_WRITE
 This function is called by:
		_DisplayAlphaNumeric
 This function uses a non-reentrant model


 *************** function _HWI_8Digit_WRITE *****************
 Defined at:
		line 41 in file "../../HWIsource/HWI_DIGITAL.c"
 Parameters:    Size  Location     Type
  port            1    wreg     unsigned char 
  value           1   19[COMRAM] unsigned char 
 Auto vars:     Size  Location     Type
  port            1   20[COMRAM] unsigned char 
 Return value:  Size  Location     Type
                  1    wreg      void 
 Registers used:
		wreg, status,2, status,0
 Tracked objects:
		On entry : 
		On exit  : 
		Unchanged: 
 Data sizes:     COMRAM   BANK0   BANK1   BANK2   BANK3   BANK4   BANK5
      Params:         1       0       0       0       0       0       0
      Locals:         1       0       0       0       0       0       0
      Temps:          0       0       0       0       0       0       0
      Totals:         2       0       0       0       0       0       0
Total ram usage:        2 bytes
 Hardware stack levels used:    1
 Hardware stack levels required when called:    4
 This function calls:
		Nothing
 This function is called by:
		_BCDManage7segment
 This function uses a non-reentrant model


 *************** function _HWI_4Digit_WRITE *****************
 Defined at:
		line 8 in file "../../HWIsource/HWI_DIGITAL.c"
 Parameters:    Size  Location     Type
  port            1    wreg     unsigned char 
  value           1   19[COMRAM] unsigned char 
 Auto vars:     Size  Location     Type
  port            1   20[COMRAM] unsigned char 
 Return value:  Size  Location     Type
                  1    wreg      void 
 Registers used:
		wreg, status,2, status,0
 Tracked objects:
		On entry : 
		On exit  : 
		Unchanged: 
 Data sizes:     COMRAM   BANK0   BANK1   BANK2   BANK3   BANK4   BANK5
      Params:         1       0       0       0       0       0       0
      Locals:         1       0       0       0       0       0       0
      Temps:          0       0       0       0       0       0       0
      Totals:         2       0       0       0       0       0       0
Total ram usage:        2 bytes
 Hardware stack levels used:    1
 Hardware stack levels required when called:    4
 This function calls:
		Nothing
 This function is called by:
		_BCDManage7segment
 This function uses a non-reentrant model


 *************** function _HWI_INTERRUPTS_INTITALIZE *****************
 Defined at:
		line 10 in file "../../HWIsource/HWI_Interrupts.c"
 Parameters:    Size  Location     Type
		None
 Auto vars:     Size  Location     Type
		None
 Return value:  Size  Location     Type
                  1    wreg      void 
 Registers used:
		wreg, status,2
 Tracked objects:
		On entry : 
		On exit  : 
		Unchanged: 
 Data sizes:     COMRAM   BANK0   BANK1   BANK2   BANK3   BANK4   BANK5
      Params:         0       0       0       0       0       0       0
      Locals:         0       0       0       0       0       0       0
      Temps:          0       0       0       0       0       0       0
      Totals:         0       0       0       0       0       0       0
Total ram usage:        0 bytes
 Hardware stack levels used:    1
 Hardware stack levels required when called:    4
 This function calls:
		Nothing
 This function is called by:
		_Start_App
 This function uses a non-reentrant model


 *************** function _HWI_DIGITAL_INITIALIZE *****************
 Defined at:
		line 74 in file "../../HWIsource/HWI_DIGITAL.c"
 Parameters:    Size  Location     Type
		None
 Auto vars:     Size  Location     Type
		None
 Return value:  Size  Location     Type
                  1    wreg      void 
 Registers used:
		wreg, status,2
 Tracked objects:
		On entry : 
		On exit  : 
		Unchanged: 
 Data sizes:     COMRAM   BANK0   BANK1   BANK2   BANK3   BANK4   BANK5
      Params:         0       0       0       0       0       0       0
      Locals:         0       0       0       0       0       0       0
      Temps:          0       0       0       0       0       0       0
      Totals:         0       0       0       0       0       0       0
Total ram usage:        0 bytes
 Hardware stack levels used:    1
 Hardware stack levels required when called:    4
 This function calls:
		Nothing
 This function is called by:
		_Start_App
 This function uses a non-reentrant model


 *************** function _CreateTask *****************
 Defined at:
		line 6 in file "../../../../OS/Scheduler/Scheduler.c"
 Parameters:    Size  Location     Type
  MangeFunctio    2   19[COMRAM] PTR FTN()void 
		 -> ManageDrivers(1), DisplayAlphaNumeric(1), ManageApplication(1), ManageSpeedCalc(1), 
  TaskId          1   21[COMRAM] unsigned char 
  Period          1   22[COMRAM] unsigned char 
 Auto vars:     Size  Location     Type
		None
 Return value:  Size  Location     Type
                  1    wreg      void 
 Registers used:
		wreg, fsr2l, fsr2h, status,2, status,0, prodl, prodh
 Tracked objects:
		On entry : 
		On exit  : 
		Unchanged: 
 Data sizes:     COMRAM   BANK0   BANK1   BANK2   BANK3   BANK4   BANK5
      Params:         4       0       0       0       0       0       0
      Locals:         0       0       0       0       0       0       0
      Temps:          0       0       0       0       0       0       0
      Totals:         4       0       0       0       0       0       0
Total ram usage:        4 bytes
 Hardware stack levels used:    1
 Hardware stack levels required when called:    4
 This function calls:
		Nothing
 This function is called by:
		_Start_App
 This function uses a non-reentrant model


 *************** function _BCDInitialize *****************
 Defined at:
		line 29 in file "../../../../Common/Driver/BCDdisplay/BCDdisplay.c"
 Parameters:    Size  Location     Type
  bIsCommonAno    1    wreg     unsigned char 
 Auto vars:     Size  Location     Type
  bIsCommonAno    1   19[COMRAM] unsigned char 
 Return value:  Size  Location     Type
                  1    wreg      void 
 Registers used:
		wreg
 Tracked objects:
		On entry : 
		On exit  : 
		Unchanged: 
 Data sizes:     COMRAM   BANK0   BANK1   BANK2   BANK3   BANK4   BANK5
      Params:         0       0       0       0       0       0       0
      Locals:         1       0       0       0       0       0       0
      Temps:          0       0       0       0       0       0       0
      Totals:         1       0       0       0       0       0       0
Total ram usage:        1 bytes
 Hardware stack levels used:    1
 Hardware stack levels required when called:    4
 This function calls:
		Nothing
 This function is called by:
		_Start_App
 This function uses a non-reentrant model


 *************** function _APP_INITIALIZE *****************
 Defined at:
		line 13 in file "../../../../Common/App/APP.c"
 Parameters:    Size  Location     Type
		None
 Auto vars:     Size  Location     Type
		None
 Return value:  Size  Location     Type
                  1    wreg      void 
 Registers used:
		None
 Tracked objects:
		On entry : 
		On exit  : 
		Unchanged: 
 Data sizes:     COMRAM   BANK0   BANK1   BANK2   BANK3   BANK4   BANK5
      Params:         0       0       0       0       0       0       0
      Locals:         0       0       0       0       0       0       0
      Temps:          0       0       0       0       0       0       0
      Totals:         0       0       0       0       0       0       0
Total ram usage:        0 bytes
 Hardware stack levels used:    1
 Hardware stack levels required when called:    4
 This function calls:
		Nothing
 This function is called by:
		_Start_App
 This function uses a non-reentrant model


 *************** function _ISR *****************
 Defined at:
		line 52 in file "../../HWIsource/HWI_Interrupts.c"
 Parameters:    Size  Location     Type
		None
 Auto vars:     Size  Location     Type
		None
 Return value:  Size  Location     Type
                  1    wreg      void 
 Registers used:
		wreg, fsr2l, fsr2h, status,2, status,0, prodl, prodh, cstack
 Tracked objects:
		On entry : 
		On exit  : 
		Unchanged: 
 Data sizes:     COMRAM   BANK0   BANK1   BANK2   BANK3   BANK4   BANK5
      Params:         0       0       0       0       0       0       0
      Locals:         0       0       0       0       0       0       0
      Temps:         14       0       0       0       0       0       0
      Totals:        14       0       0       0       0       0       0
Total ram usage:       14 bytes
 Hardware stack levels used:    1
 Hardware stack levels required when called:    3
 This function calls:
		_APP_ISR1
		_APP_ISR2
		_APP_ISR3
		_SchedulerTick
 This function is called by:
		Interrupt level 2
 This function uses a non-reentrant model


 *************** function _SchedulerTick *****************
 Defined at:
		line 16 in file "../../../../OS/Scheduler/Scheduler.c"
 Parameters:    Size  Location     Type
		None
 Auto vars:     Size  Location     Type
  TaskIndex       1    0[COMRAM] unsigned char 
 Return value:  Size  Location     Type
                  1    wreg      void 
 Registers used:
		wreg, fsr2l, fsr2h, status,2, status,0, prodl, prodh
 Tracked objects:
		On entry : 
		On exit  : 
		Unchanged: 
 Data sizes:     COMRAM   BANK0   BANK1   BANK2   BANK3   BANK4   BANK5
      Params:         0       0       0       0       0       0       0
      Locals:         1       0       0       0       0       0       0
      Temps:          0       0       0       0       0       0       0
      Totals:         1       0       0       0       0       0       0
Total ram usage:        1 bytes
 Hardware stack levels used:    1
 This function calls:
		Nothing
 This function is called by:
		_ISR
 This function uses a non-reentrant model


 *************** function _APP_ISR3 *****************
 Defined at:
		line 18 in file "../../../../Common/Interrupts/AppInterrupts.c"
 Parameters:    Size  Location     Type
		None
 Auto vars:     Size  Location     Type
		None
 Return value:  Size  Location     Type
                  1    wreg      void 
 Registers used:
		wreg, status,2, status,0, cstack
 Tracked objects:
		On entry : 
		On exit  : 
		Unchanged: 
 Data sizes:     COMRAM   BANK0   BANK1   BANK2   BANK3   BANK4   BANK5
      Params:         0       0       0       0       0       0       0
      Locals:         0       0       0       0       0       0       0
      Temps:          0       0       0       0       0       0       0
      Totals:         0       0       0       0       0       0       0
Total ram usage:        0 bytes
 Hardware stack levels used:    1
 Hardware stack levels required when called:    1
 This function calls:
		_HWtimerCallback
 This function is called by:
		_ISR
 This function uses a non-reentrant model


 *************** function _HWtimerCallback *****************
 Defined at:
		line 133 in file "../../../../Common/Driver/SpeedCalc/SpeedCalc.c"
 Parameters:    Size  Location     Type
		None
 Auto vars:     Size  Location     Type
		None
 Return value:  Size  Location     Type
                  1    wreg      void 
 Registers used:
		wreg, status,2, status,0
 Tracked objects:
		On entry : 
		On exit  : 
		Unchanged: 
 Data sizes:     COMRAM   BANK0   BANK1   BANK2   BANK3   BANK4   BANK5
      Params:         0       0       0       0       0       0       0
      Locals:         0       0       0       0       0       0       0
      Temps:          0       0       0       0       0       0       0
      Totals:         0       0       0       0       0       0       0
Total ram usage:        0 bytes
 Hardware stack levels used:    1
 This function calls:
		Nothing
 This function is called by:
		_APP_ISR3
 This function uses a non-reentrant model


 *************** function _APP_ISR2 *****************
 Defined at:
		line 13 in file "../../../../Common/Interrupts/AppInterrupts.c"
 Parameters:    Size  Location     Type
		None
 Auto vars:     Size  Location     Type
		None
 Return value:  Size  Location     Type
                  1    wreg      void 
 Registers used:
		wreg, status,2, status,0, cstack
 Tracked objects:
		On entry : 
		On exit  : 
		Unchanged: 
 Data sizes:     COMRAM   BANK0   BANK1   BANK2   BANK3   BANK4   BANK5
      Params:         0       0       0       0       0       0       0
      Locals:         0       0       0       0       0       0       0
      Temps:          0       0       0       0       0       0       0
      Totals:         0       0       0       0       0       0       0
Total ram usage:        0 bytes
 Hardware stack levels used:    1
 Hardware stack levels required when called:    2
 This function calls:
		_SensorTwoNotify
 This function is called by:
		_ISR
 This function uses a non-reentrant model


 *************** function _SensorTwoNotify *****************
 Defined at:
		line 44 in file "../../../../Common/Driver/SpeedCalc/SpeedCalc.c"
 Parameters:    Size  Location     Type
		None
 Auto vars:     Size  Location     Type
		None
 Return value:  Size  Location     Type
                  1    wreg      void 
 Registers used:
		wreg, status,2, status,0, cstack
 Tracked objects:
		On entry : 
		On exit  : 
		Unchanged: 
 Data sizes:     COMRAM   BANK0   BANK1   BANK2   BANK3   BANK4   BANK5
      Params:         0       0       0       0       0       0       0
      Locals:         0       0       0       0       0       0       0
      Temps:          0       0       0       0       0       0       0
      Totals:         0       0       0       0       0       0       0
Total ram usage:        0 bytes
 Hardware stack levels used:    1
 Hardware stack levels required when called:    1
 This function calls:
		_ReloadHWtimer
 This function is called by:
		_APP_ISR2
 This function uses a non-reentrant model


 *************** function _ReloadHWtimer *****************
 Defined at:
		line 91 in file "../../HWIsource/HWI_Interrupts.c"
 Parameters:    Size  Location     Type
  TimerId         1    wreg     unsigned char 
 Auto vars:     Size  Location     Type
  TimerId         1    2[COMRAM] unsigned char 
  ElapsedTime     2    3[COMRAM] unsigned short 
 Return value:  Size  Location     Type
                  2    0[COMRAM] unsigned short 
 Registers used:
		wreg, status,2, status,0
 Tracked objects:
		On entry : 
		On exit  : 
		Unchanged: 
 Data sizes:     COMRAM   BANK0   BANK1   BANK2   BANK3   BANK4   BANK5
      Params:         2       0       0       0       0       0       0
      Locals:         3       0       0       0       0       0       0
      Temps:          0       0       0       0       0       0       0
      Totals:         5       0       0       0       0       0       0
Total ram usage:        5 bytes
 Hardware stack levels used:    1
 This function calls:
		Nothing
 This function is called by:
		_SensorTwoNotify
 This function uses a non-reentrant model


 *************** function _APP_ISR1 *****************
 Defined at:
		line 8 in file "../../../../Common/Interrupts/AppInterrupts.c"
 Parameters:    Size  Location     Type
		None
 Auto vars:     Size  Location     Type
		None
 Return value:  Size  Location     Type
                  1    wreg      void 
 Registers used:
		wreg, status,2, status,0, cstack
 Tracked objects:
		On entry : 
		On exit  : 
		Unchanged: 
 Data sizes:     COMRAM   BANK0   BANK1   BANK2   BANK3   BANK4   BANK5
      Params:         0       0       0       0       0       0       0
      Locals:         0       0       0       0       0       0       0
      Temps:          0       0       0       0       0       0       0
      Totals:         0       0       0       0       0       0       0
Total ram usage:        0 bytes
 Hardware stack levels used:    1
 Hardware stack levels required when called:    1
 This function calls:
		_SensorOneNotify
 This function is called by:
		_ISR
 This function uses a non-reentrant model


 *************** function _SensorOneNotify *****************
 Defined at:
		line 29 in file "../../../../Common/Driver/SpeedCalc/SpeedCalc.c"
 Parameters:    Size  Location     Type
		None
 Auto vars:     Size  Location     Type
		None
 Return value:  Size  Location     Type
                  1    wreg      void 
 Registers used:
		wreg, status,2, status,0
 Tracked objects:
		On entry : 
		On exit  : 
		Unchanged: 
 Data sizes:     COMRAM   BANK0   BANK1   BANK2   BANK3   BANK4   BANK5
      Params:         0       0       0       0       0       0       0
      Locals:         0       0       0       0       0       0       0
      Temps:          0       0       0       0       0       0       0
      Totals:         0       0       0       0       0       0       0
Total ram usage:        0 bytes
 Hardware stack levels used:    1
 This function calls:
		Nothing
 This function is called by:
		_APP_ISR1
 This function uses a non-reentrant model



MODULE INFORMATION

Module		Function		Class		Link	Load	Size
../../../../Common/Interrupts/AppInterrupts.c
		_APP_ISR1      		CODE           	1506	0000	7
		_APP_ISR2      		CODE           	1500	0000	7
		_APP_ISR3      		CODE           	14FA	0000	7

../../../../Common/Interrupts/AppInterrupts.c estimated size: 21

../../../../Common/Driver/BCDdisplay/BCDdisplay.c
		_BlinkDigit    		CODE           	14B8	0000	13
		_BCDsendNumber 		CODE           	0B5A	0000	247
		_BCDInitialize 		CODE           	14E0	0000	9
		_BCDManage7segment		CODE           	0E42	0000	153

../../../../Common/Driver/BCDdisplay/BCDdisplay.c estimated size: 422

C:\Program Files\Microchip\xc8\v1.41\sources\common\Umul32.c
		___lmul        		CODE           	10AC	0000	87

C:\Program Files\Microchip\xc8\v1.41\sources\common\Umul32.c estimated size: 87

../../../../Common/Driver/Key/Key.c
		_MangeKeys     		CODE           	061E	0000	1071
		_GetKeyStatus  		CODE           	1360	0000	47

../../../../Common/Driver/Key/Key.c estimated size: 1118

../../HWIeeprom/HWIeeprom.c
		_HWIeeprom_Read		CODE           	13E6	0000	41
		_HWIeeprom_Write		CODE           	1332	0000	47

../../HWIeeprom/HWIeeprom.c estimated size: 88

../../../../OS/OS_manage/OS_manage.c
		_ManageSpeedCalc		CODE           	14F4	0000	7
		_ManageDrivers 		CODE           	145A	0000	29
		_ManageApplication		CODE           	14EE	0000	7
		_DisplayAlphaNumeric		CODE           	14E8	0000	7
		_Start_App     		CODE           	0FE8	0000	109

../../../../OS/OS_manage/OS_manage.c estimated size: 159

../../HWIsource/HWI_Interrupts.c
		_ReloadHWtimer 		CODE           	1264	0000	61
		_ISR           		CODE           	0008	0000	195
		_HWI_INTERRUPTS_INTITALIZE		CODE           	1226	0000	63

../../HWIsource/HWI_Interrupts.c estimated size: 319

shared
		_SevenSegmentMAP		SMALLCONST     	0611	0000	12
		__initialization		CODE           	11E8	0000	49
		_KeyArrayConfig		SMALLCONST     	0601	0000	17

shared estimated size: 78

C:\Program Files\Microchip\xc8\v1.41\sources\common\lwdiv.c
		___lwdiv       		CODE           	1156	0000	83

C:\Program Files\Microchip\xc8\v1.41\sources\common\lwdiv.c estimated size: 83

C:\Program Files\Microchip\xc8\v1.41\sources\common\Umul16.c
		___wmul        		CODE           	140E	0000	39

C:\Program Files\Microchip\xc8\v1.41\sources\common\Umul16.c estimated size: 39

../../../../Common/Driver/SpeedCalc/SpeedCalc.c
		_SensorOneNotify		CODE           	1490	0000	23
		_HWtimerCallback		CODE           	14CE	0000	11
		_GetDistance   		CODE           	14A6	0000	19
		_SetCircumfirunce		CODE           	14C4	0000	11
		_GetAvgSpeed   		CODE           	0D0C	0000	159
		_SensorTwoNotify		CODE           	138E	0000	47
		_SpeedCalcNotifyInitialize		CODE           	150E	0000	3
		_SpeedCalcManage		CODE           	0DAA	0000	153

../../../../Common/Driver/SpeedCalc/SpeedCalc.c estimated size: 426

../../../../Common/Driver/EEPROM/Eeprom.c
		_Eeprom_Write_Block		CODE           	1102	0000	85
		_EepromManage  		CODE           	11A8	0000	65
		_Eeprom_Read_Block		CODE           	12A0	0000	51

../../../../Common/Driver/EEPROM/Eeprom.c estimated size: 201

C:\Program Files\Microchip\xc8\v1.41\sources\common\lldiv.c
		___lldiv       		CODE           	0F66	0000	131

C:\Program Files\Microchip\xc8\v1.41\sources\common\lldiv.c estimated size: 131

../../../../Common/App/APP.c
		_APP_MANAGE    		CODE           	0A4C	0000	271
		_APP_INITIALIZE		CODE           	1510	0000	3

../../../../Common/App/APP.c estimated size: 274

../../HWIsource/HWI_DIGITAL.c
		_HWI_8Digit_WRITE		CODE           	1434	0000	39
		_HWI_4Digit_WRITE		CODE           	12D2	0000	51
		_HWI_DIGITAL_INITIALIZE		CODE           	1476	0000	27
		_HWI_DIGI_READ 		CODE           	1304	0000	47

../../HWIsource/HWI_DIGITAL.c estimated size: 164

../../../../OS/Scheduler/Scheduler.c
		_SchedulerTick 		CODE           	13BC	0000	43
		_CreateTask    		CODE           	1054	0000	89
		_RunScheduler  		CODE           	0EDA	0000	141

../../../../OS/Scheduler/Scheduler.c estimated size: 273

main.c
		_main          		CODE           	14D8	0000	9

main.c estimated size: 9

