Microchip MPLAB XC8 Compiler V1.41 ()

Linker command line:

--edf=C:\Program Files\Microchip\xc8\v1.41\dat\en_msgs.txt -cs \
  -h+dist/default/production\BicMeter.X.production.sym \
  --cmf=dist/default/production\BicMeter.X.production.cmf -z -Q18F4520 \
  -oC:\Users\0E57~1\AppData\Local\Temp\s744.2 \
  -Mdist/default/production/BicMeter.X.production.map -E1 -ver=XC8 \
  -ASTACK=0A4h-05ffh -pstack=STACK -ACODE=00h-07FFFh -ACONST=00h-07FFFh \
  -ASMALLCONST=0600h-06FFhx122 -AMEDIUMCONST=0600h-07FFFh -ACOMRAM=01h-07Fh \
  -AABS1=00h-05FFh -ABIGRAM=01h-05FFh -ARAM=080h-0FFh,0100h-01FFhx5 \
  -ABANK0=080h-0FFh -ABANK1=0100h-01FFh -ABANK2=0200h-02FFh \
  -ABANK3=0300h-03FFh -ABANK4=0400h-04FFh -ABANK5=0500h-05FFh \
  -ASFR=0F80h-0FFFh -preset_vec=00h,intcode=08h,intcodelo,powerup,init \
  -pramtop=0600h -psmallconst=SMALLCONST -pmediumconst=MEDIUMCONST \
  -pconst=CONST -AFARRAM=00h-00h -ACONFIG=0300000h-030000Dh -pconfig=CONFIG \
  -AIDLOC=0200000h-0200007h -pidloc=IDLOC -AEEDATA=0F00000h-0F000FFh \
  -peeprom_data=EEDATA \
  -prdata=COMRAM,nvrram=COMRAM,nvbit=COMRAM,rbss=COMRAM,rbit=COMRAM \
  -pfarbss=FARRAM,fardata=FARRAM,nvFARRAM=FARRAM \
  -pintsave_regs=BIGRAM,bigbss=BIGRAM,bigdata=BIGRAM -pbss=RAM \
  -pidata=CODE,irdata=CODE,ibigdata=CODE,ifardata=CODE -prparam=COMRAM \
  C:\Users\0E57~1\AppData\Local\Temp\s744.obj \
  dist/default/production\BicMeter.X.production.obj 

Object code version is 3.11

Machine type is 18F4520

Call graph: (short form)




                Name                               Link     Load   Length Selector   Space Scale
C:\Users\0E57~1\AppData\Local\Temp\s744.obj
                init                                  E        E        4        4       0
                reset_vec                             0        0        4        0       0
                idloc                            200000   200000        8   200000       0
                config                           300000   300000        E   300000       0
dist/default/production\BicMeter.X.production.obj
                intcode                               8        8        6        4       0
                temp                                 60       60        1        1       1
                smallconst                          600      600        E      300       0
                text29                              DA2      DA2       16      307       0
                text28                              DFA      DFA        6      307       0
                text27                              D8A      D8A       18      307       0
                text26                              DF4      DF4        6      307       0
                text25                              CF6      CF6       2A      307       0
                intcode_body                        704      704       B4      307       0
                text23                              E02      E02        2      307       0
                text22                              A7C      A7C       58      307       0
                text21                              DCA      DCA        E      307       0
                text20                              C5E      C5E       3A      307       0
                text19                              C98      C98       32      307       0
                text18                              D46      D46       26      307       0
                text17                              BD0      BD0       50      307       0
                text16                              B7E      B7E       52      307       0
                text15                              D20      D20       26      307       0
                text14                              60E      60E       F6      307       0
                text13                              994      994       82      307       0
                text12                              AD4      AD4       56      307       0
                text11                              862      862       A6      307       0
                text10                              DB8      DB8       12      307       0
                text9                               DD8      DD8        A      307       0
                text8                               A16      A16       66      307       0
                text7                               7B8      7B8       AA      307       0
                text6                               DEE      DEE        6      307       0
                text5                               DE8      DE8        6      307       0
                text4                               DE2      DE2        6      307       0
                text3                               908      908       8C      307       0
                text2                               CCA      CCA       2C      307       0
                text1                               D6C      D6C       1E      307       0
                text0                               B2A      B2A       54      307       0
                cstackCOMRAM                          1        1       3B        1       1
                bssBANK0                             80       80       24       80       1
                dataCOMRAM                           5E       5E        2        1       1
                bssCOMRAM                            3C       3C       22        1       1
                cinit                               C20      C20       3E      307       0
                idataCOMRAM                         E00      E00        2      307       0

TOTAL           Name                               Link     Load   Length     Space
        CLASS   STACK          

        CLASS   CODE           
                intcode                               8        8        6         0
                init                                  E        E        4         0
                reset_vec                             0        0        4         0
                text29                              DA2      DA2       16         0
                text28                              DFA      DFA        6         0
                text27                              D8A      D8A       18         0
                text26                              DF4      DF4        6         0
                text25                              CF6      CF6       2A         0
                intcode_body                        704      704       B4         0
                text23                              E02      E02        2         0
                text22                              A7C      A7C       58         0
                text21                              DCA      DCA        E         0
                text20                              C5E      C5E       3A         0
                text19                              C98      C98       32         0
                text18                              D46      D46       26         0
                text17                              BD0      BD0       50         0
                text16                              B7E      B7E       52         0
                text15                              D20      D20       26         0
                text14                              60E      60E       F6         0
                text13                              994      994       82         0
                text12                              AD4      AD4       56         0
                text11                              862      862       A6         0
                text10                              DB8      DB8       12         0
                text9                               DD8      DD8        A         0
                text8                               A16      A16       66         0
                text7                               7B8      7B8       AA         0
                text6                               DEE      DEE        6         0
                text5                               DE8      DE8        6         0
                text4                               DE2      DE2        6         0
                text3                               908      908       8C         0
                text2                               CCA      CCA       2C         0
                text1                               D6C      D6C       1E         0
                text0                               B2A      B2A       54         0
                cinit                               C20      C20       3E         0
                idataCOMRAM                         E00      E00        2         0

        CLASS   CONST          

        CLASS   SMALLCONST     
                smallconst                          600      600        E         0

        CLASS   MEDIUMCONST    

        CLASS   COMRAM         
                temp                                 60       60        1         1
                cstackCOMRAM                          1        1       3B         1
                dataCOMRAM                           5E       5E        2         1
                bssCOMRAM                            3C       3C       22         1

        CLASS   ABS1           

        CLASS   BIGRAM         

        CLASS   RAM            

        CLASS   BANK0          
                bssBANK0                             80       80       24         1

        CLASS   BANK1          

        CLASS   BANK2          

        CLASS   BANK3          

        CLASS   BANK4          

        CLASS   BANK5          

        CLASS   SFR            

        CLASS   FARRAM         

        CLASS   CONFIG         
                config                           300000   300000        E         0

        CLASS   IDLOC          
                idloc                            200000   200000        8         0

        CLASS   EEDATA         



SEGMENTS        Name                           Load    Length   Top    Selector   Space  Class

                reset_vec                      000000  000004  000004         0       0  CODE    
                cstackCOMRAM                   000001  000060  000061         1       1  COMRAM  
                intcode                        000008  00000A  000012         4       0  CODE    
                bssBANK0                       000080  000024  0000A4        80       1  BANK0   
                smallconst                     000600  00000E  00060E       300       0  SMALLCON
                text14                         00060E  0007F6  000E04       307       0  CODE    
                idloc                          200000  000008  200008    200000       0  IDLOC   
                config                         300000  00000E  30000E    300000       0  CONFIG  


UNUSED ADDRESS RANGES

        Name                Unused          Largest block    Delta
        BANK0            0000A4-0000FF               5C
        BANK1            000100-0001FF              100
        BANK2            000200-0002FF              100
        BANK3            000300-0003FF              100
        BANK4            000400-0004FF              100
        BANK5            000500-0005FF              100
        BIGRAM           000061-00007F               1F
                         0000A4-0005FF              55C
        CODE             000004-000007                4
                         000012-0005FF              5EE
                         000E04-007FFF             71FC
        COMRAM           000061-00007F               1F
        CONST            000004-000007                4
                         000012-0005FF              5EE
                         000E04-007FFF             71FC
        EEDATA           F00000-F000FF              100
        MEDIUMCONST      000E04-007FFF             71FC
        RAM              0000A4-0005FF              100
        SFR              000F80-000FFF               80
        SMALLCONST       000E04-007FFF              100
        STACK            0000A4-0005FF              55C

                                  Symbol Table

?_GetAvgSpeed                         cstackCOMRAM 000029
?_GetDistance                         cstackCOMRAM 000010
?___lldiv                             cstackCOMRAM 00001C
?___lmul                              cstackCOMRAM 000010
?___lwdiv                             cstackCOMRAM 000010
?___wmul                              cstackCOMRAM 000010
APP_MANAGE@AvgSpeedKph                cstackCOMRAM 000036
APP_MANAGE@TravelledDistance          cstackCOMRAM 000038
BCDManage7segment@DigitIndex          bssCOMRAM    00005D
BCDsendNumber@Buffer                  cstackCOMRAM 000020
BCDsendNumber@DecimalPlace            cstackCOMRAM 000019
BCDsendNumber@Link                    cstackCOMRAM 00001C
BCDsendNumber@LoopIndex               cstackCOMRAM 000022
BCDsendNumber@Number                  cstackCOMRAM 000017
BCDsendNumber@Output                  cstackCOMRAM 00001E
CreateTask@MangeFunction              cstackCOMRAM 000010
CreateTask@Period                     cstackCOMRAM 000013
CreateTask@TaskId                     cstackCOMRAM 000012
GetAvgSpeed@AvgSpeedKphMph            cstackCOMRAM 00002F
GetAvgSpeed@KphMphFactor              cstackCOMRAM 000032
GetAvgSpeed@bIsKph                    cstackCOMRAM 000031
HWI_4Digit_WRITE@port                 cstackCOMRAM 000011
HWI_4Digit_WRITE@value                cstackCOMRAM 000010
HWI_8Digit_WRITE@port                 cstackCOMRAM 000011
HWI_8Digit_WRITE@value                cstackCOMRAM 000010
RunScheduler@TaskIndex                bssCOMRAM    000058
SchedulerTick@TaskIndex               cstackCOMRAM 000001
SetCircumfirunce@Circum               cstackCOMRAM 000010
SpeedCalcManage@HundredMeterReference cstackCOMRAM 00002A
SpeedCalcManage@LapSampleIndex        bssCOMRAM    000059
SpeedCalcManage@LapTime               bssCOMRAM    00005A
_APP_INITIALIZE                       text23       000E02
_APP_ISR1                             text28       000DFA
_APP_ISR2                             text26       000DF4
_APP_MANAGE                           text8        000A16
_ArrayTask                            bssCOMRAM    00003C
_BCDManage7segment                    text17       000BD0
_BCDNumber                            bssCOMRAM    000048
_BCDsendNumber                        text14       00060E
_CircumFactor                         dataCOMRAM   00005E
_CreateTask                           text22       000A7C
_DisplayAlphaNumeric                  text4        000DE2
_DistTravelCntr                       bssCOMRAM    000050
_GetAvgSpeed                          text11       000862
_GetAvgSpeed$870                      cstackCOMRAM 00002B
_GetDistance                          text10       000DB8
_HWI_4Digit_WRITE                     text19       000C98
_HWI_8Digit_WRITE                     text18       000D46
_HWI_DIGITAL_INITIALIZE               text21       000DCA
_HWI_INTERRUPTS_INTITALIZE            text20       000C5E
_INT0IF                               (abs)        007F91
_INT1IF                               (abs)        007F80
_INTCON                               (abs)        000FF2
_INTCON2bits                          (abs)        000FF1
_INTCON3                              (abs)        000FF0
_ISR                                  intcode      000008
_LATC                                 (abs)        000F8B
_LATD                                 (abs)        000F8C
_LapCounter                           bssCOMRAM    00005B
_LapCounterAvg                        bssCOMRAM    000056
_LapCounterBuffer                     bssBANK0     000080
_LapDistanceCounter                   bssCOMRAM    000054
_ManageApplication                    text5        000DE8
_ManageSpeedCalc                      text6        000DEE
_NotifyFlag                           bssCOMRAM    00005C
_PORTC                                (abs)        000F82
_PORTD                                (abs)        000F83
_RunScheduler                         text3        000908
_SchedulerTick                        text25       000CF6
_SensorOneNotify                      text29       000DA2
_SensorTwoNotify                      text27       000D8A
_SetCircumfirunce                     text9        000DD8
_SevenSegmentMAP                      smallconst   000601
_SpeedCalcManage                      text7        0007B8
_SpeedCalcNotifyInitialize            text1        000D6C
_T0CON                                (abs)        000FD5
_T1CON                                (abs)        000FCD
_T3CON                                (abs)        000FB1
_TMR0IF                               (abs)        007F92
_TMR0L                                (abs)        000FD6
_TMR1H                                (abs)        000FCF
_TMR1IE                               (abs)        007CE8
_TMR1IF                               (abs)        007CF0
_TMR1L                                (abs)        000FCE
_TMR3H                                (abs)        000FB3
_TMR3IE                               (abs)        007D01
_TMR3IF                               (abs)        007D09
_TMR3L                                (abs)        000FB2
_TRISBbits                            (abs)        000F93
_TRISC                                (abs)        000F94
_TRISD                                (abs)        000F95
__CFG_BOREN$SBORDIS                   (abs)        000000
__CFG_BORV$3                          (abs)        000000
__CFG_CCP2MX$PORTC                    (abs)        000000
__CFG_CP0$OFF                         (abs)        000000
__CFG_CP1$OFF                         (abs)        000000
__CFG_CP2$OFF                         (abs)        000000
__CFG_CP3$OFF                         (abs)        000000
__CFG_CPB$OFF                         (abs)        000000
__CFG_CPD$OFF                         (abs)        000000
__CFG_EBTR0$OFF                       (abs)        000000
__CFG_EBTR1$OFF                       (abs)        000000
__CFG_EBTR2$OFF                       (abs)        000000
__CFG_EBTR3$OFF                       (abs)        000000
__CFG_EBTRB$OFF                       (abs)        000000
__CFG_FCMEN$OFF                       (abs)        000000
__CFG_IESO$OFF                        (abs)        000000
__CFG_LPT1OSC$OFF                     (abs)        000000
__CFG_LVP$ON                          (abs)        000000
__CFG_MCLRE$OFF                       (abs)        000000
__CFG_OSC$XT                          (abs)        000000
__CFG_PBADEN$OFF                      (abs)        000000
__CFG_PWRT$OFF                        (abs)        000000
__CFG_STVREN$ON                       (abs)        000000
__CFG_WDT$OFF                         (abs)        000000
__CFG_WDTPS$32768                     (abs)        000000
__CFG_WRT0$OFF                        (abs)        000000
__CFG_WRT1$OFF                        (abs)        000000
__CFG_WRT2$OFF                        (abs)        000000
__CFG_WRT3$OFF                        (abs)        000000
__CFG_WRTB$OFF                        (abs)        000000
__CFG_WRTC$OFF                        (abs)        000000
__CFG_WRTD$OFF                        (abs)        000000
__CFG_XINST$OFF                       (abs)        000000
__HRAM                                (abs)        000000
__Habs1                               abs1         000000
__Hbank0                              bank0        000000
__Hbank1                              bank1        000000
__Hbank2                              bank2        000000
__Hbank3                              bank3        000000
__Hbank4                              bank4        000000
__Hbank5                              bank5        000000
__Hbigbss                             bigbss       000000
__Hbigdata                            bigdata      000000
__Hbigram                             bigram       000000
__Hbss                                bss          000000
__HbssBANK0                           bssBANK0     000000
__HbssCOMRAM                          bssCOMRAM    000000
__Hcinit                              cinit        000000
__Hclrtext                            clrtext      000000
__Hcomram                             comram       000000
__Hconfig                             config       30000E
__Hconst                              const        000000
__HcstackCOMRAM                       cstackCOMRAM 000000
__Hdata                               data         000000
__HdataCOMRAM                         dataCOMRAM   000000
__Heeprom_data                        eeprom_data  000000
__Hfarbss                             farbss       000000
__Hfardata                            fardata      000000
__Hibigdata                           ibigdata     000000
__Hidata                              idata        000000
__HidataCOMRAM                        idataCOMRAM  000000
__Hidloc                              idloc        200008
__Hifardata                           ifardata     000000
__Hinit                               init         000012
__Hintcode                            intcode      00000E
__Hintcode_body                       intcode_body 000000
__Hintcodelo                          intcodelo    00000E
__Hintentry                           intentry     000000
__Hintret                             intret       000000
__Hintsave_regs                       intsave_regs 000000
__Hirdata                             irdata       000000
__Hmediumconst                        mediumconst  000000
__HnvFARRAM                           nvFARRAM     000000
__Hnvbit                              nvbit        000000
__Hnvrram                             nvrram       000000
__Hparam                              rparam       000000
__Hpowerup                            powerup      00000E
__Hram                                ram          000000
__Hramtop                             ramtop       000600
__Hrbit                               rbit         000000
__Hrbss                               rbss         000000
__Hrdata                              rdata        000000
__Hreset_vec                          reset_vec    000004
__Hrparam                             rparam       000000
__Hsfr                                sfr          000000
__Hsmallconst                         smallconst   00060E
__Hspace_0                            (abs)        30000E
__Hspace_1                            (abs)        0000A4
__Hspace_2                            (abs)        000000
__Hstack                              stack        000000
__Hstruct                             struct       000000
__Htemp                               temp         000061
__Htext                               text         000000
__Htext0                              text0        000000
__Htext1                              text1        000000
__Htext10                             text10       000000
__Htext11                             text11       000000
__Htext12                             text12       000000
__Htext13                             text13       000000
__Htext14                             text14       000000
__Htext15                             text15       000000
__Htext16                             text16       000000
__Htext17                             text17       000000
__Htext18                             text18       000000
__Htext19                             text19       000000
__Htext2                              text2        000000
__Htext20                             text20       000000
__Htext21                             text21       000000
__Htext22                             text22       000000
__Htext23                             text23       000000
__Htext25                             text25       000000
__Htext26                             text26       000000
__Htext27                             text27       000000
__Htext28                             text28       000000
__Htext29                             text29       000000
__Htext3                              text3        000000
__Htext30                             text30       000000
__Htext4                              text4        000000
__Htext5                              text5        000000
__Htext6                              text6        000000
__Htext7                              text7        000000
__Htext8                              text8        000000
__Htext9                              text9        000000
__LRAM                                (abs)        000001
__Labs1                               abs1         000000
__Lbank0                              bank0        000000
__Lbank1                              bank1        000000
__Lbank2                              bank2        000000
__Lbank3                              bank3        000000
__Lbank4                              bank4        000000
__Lbank5                              bank5        000000
__Lbigbss                             bigbss       000000
__Lbigdata                            bigdata      000000
__Lbigram                             bigram       000000
__Lbss                                bss          000000
__LbssBANK0                           bssBANK0     000000
__LbssCOMRAM                          bssCOMRAM    000000
__Lcinit                              cinit        000000
__Lclrtext                            clrtext      000000
__Lcomram                             comram       000000
__Lconfig                             config       300000
__Lconst                              const        000000
__LcstackCOMRAM                       cstackCOMRAM 000000
__Ldata                               data         000000
__LdataCOMRAM                         dataCOMRAM   000000
__Leeprom_data                        eeprom_data  000000
__Lfarbss                             farbss       000000
__Lfardata                            fardata      000000
__Libigdata                           ibigdata     000000
__Lidata                              idata        000000
__LidataCOMRAM                        idataCOMRAM  000000
__Lidloc                              idloc        200000
__Lifardata                           ifardata     000000
__Linit                               init         00000E
__Lintcode                            intcode      000008
__Lintcode_body                       intcode_body 000000
__Lintcodelo                          intcodelo    00000E
__Lintentry                           intentry     000000
__Lintret                             intret       000000
__Lintsave_regs                       intsave_regs 000000
__Lirdata                             irdata       000000
__Lmediumconst                        mediumconst  000000
__LnvFARRAM                           nvFARRAM     000000
__Lnvbit                              nvbit        000000
__Lnvrram                             nvrram       000000
__Lparam                              rparam       000000
__Lpowerup                            powerup      00000E
__Lram                                ram          000000
__Lramtop                             ramtop       000600
__Lrbit                               rbit         000000
__Lrbss                               rbss         000000
__Lrdata                              rdata        000000
__Lreset_vec                          reset_vec    000000
__Lrparam                             rparam       000000
__Lsfr                                sfr          000000
__Lsmallconst                         smallconst   000600
__Lspace_0                            (abs)        000000
__Lspace_1                            (abs)        000000
__Lspace_2                            (abs)        000000
__Lstack                              stack        000000
__Lstruct                             struct       000000
__Ltemp                               temp         000060
__Ltext                               text         000000
__Ltext0                              text0        000000
__Ltext1                              text1        000000
__Ltext10                             text10       000000
__Ltext11                             text11       000000
__Ltext12                             text12       000000
__Ltext13                             text13       000000
__Ltext14                             text14       000000
__Ltext15                             text15       000000
__Ltext16                             text16       000000
__Ltext17                             text17       000000
__Ltext18                             text18       000000
__Ltext19                             text19       000000
__Ltext2                              text2        000000
__Ltext20                             text20       000000
__Ltext21                             text21       000000
__Ltext22                             text22       000000
__Ltext23                             text23       000000
__Ltext25                             text25       000000
__Ltext26                             text26       000000
__Ltext27                             text27       000000
__Ltext28                             text28       000000
__Ltext29                             text29       000000
__Ltext3                              text3        000000
__Ltext30                             text30       000000
__Ltext4                              text4        000000
__Ltext5                              text5        000000
__Ltext6                              text6        000000
__Ltext7                              text7        000000
__Ltext8                              text8        000000
__Ltext9                              text9        000000
__S0                                  (abs)        30000E
__S1                                  (abs)        0000A4
__S2                                  (abs)        000000
___inthi_sp                           stack        000000
___intlo_sp                           stack        000000
___lldiv                              text13       000994
___lldiv@counter                      cstackCOMRAM 000028
___lldiv@dividend                     cstackCOMRAM 00001C
___lldiv@divisor                      cstackCOMRAM 000020
___lldiv@quotient                     cstackCOMRAM 000024
___lmul                               text12       000AD4
___lmul@multiplicand                  cstackCOMRAM 000014
___lmul@multiplier                    cstackCOMRAM 000010
___lmul@product                       cstackCOMRAM 000018
___lwdiv                              text16       000B7E
___lwdiv@counter                      cstackCOMRAM 000016
___lwdiv@dividend                     cstackCOMRAM 000010
___lwdiv@divisor                      cstackCOMRAM 000012
___lwdiv@quotient                     cstackCOMRAM 000014
___param_bank                         (abs)        000000
___rparam_used                        (abs)        000001
___sp                                 stack        000000
___wmul                               text15       000D20
___wmul@multiplicand                  cstackCOMRAM 000012
___wmul@multiplier                    cstackCOMRAM 000010
___wmul@product                       cstackCOMRAM 000014
__accesstop                           (abs)        000080
__activetblptr                        (abs)        000002
__end_of_APP_INITIALIZE               text23       000E04
__end_of_APP_ISR1                     text28       000E00
__end_of_APP_ISR2                     text26       000DFA
__end_of_APP_MANAGE                   text8        000A7C
__end_of_BCDManage7segment            text17       000C20
__end_of_BCDsendNumber                text14       000704
__end_of_CreateTask                   text22       000AD4
__end_of_DisplayAlphaNumeric          text4        000DE8
__end_of_GetAvgSpeed                  text11       000908
__end_of_GetDistance                  text10       000DCA
__end_of_HWI_4Digit_WRITE             text19       000CCA
__end_of_HWI_8Digit_WRITE             text18       000D6C
__end_of_HWI_DIGITAL_INITIALIZE       text21       000DD8
__end_of_HWI_INTERRUPTS_INTITALIZE    text20       000C98
__end_of_ISR                          intcode_body 0007B8
__end_of_ManageApplication            text5        000DEE
__end_of_ManageSpeedCalc              text6        000DF4
__end_of_RunScheduler                 text3        000994
__end_of_SchedulerTick                text25       000D20
__end_of_SensorOneNotify              text29       000DB8
__end_of_SensorTwoNotify              text27       000DA2
__end_of_SetCircumfirunce             text9        000DE2
__end_of_SevenSegmentMAP              smallconst   00060C
__end_of_SpeedCalcManage              text7        000862
__end_of_SpeedCalcNotifyInitialize    text1        000D8A
__end_of___lldiv                      text13       000A16
__end_of___lmul                       text12       000B2A
__end_of___lwdiv                      text16       000BD0
__end_of___wmul                       text15       000D46
__end_of__initialization              cinit        000C50
__end_of_main                         text0        000B7E
__end_of_memset                       text2        000CF6
__initialization                      cinit        000C20
__mediumconst                         mediumconst  000000
__pbssBANK0                           bssBANK0     000080
__pbssCOMRAM                          bssCOMRAM    00003C
__pcinit                              cinit        000C20
__pcstackCOMRAM                       cstackCOMRAM 000001
__pdataCOMRAM                         dataCOMRAM   00005E
__pidataCOMRAM                        idataCOMRAM  000E00
__pintcode                            intcode      000008
__pintcode_body                       intcode_body 000704
__psmallconst                         smallconst   000600
__ptext0                              text0        000B2A
__ptext1                              text1        000D6C
__ptext10                             text10       000DB8
__ptext11                             text11       000862
__ptext12                             text12       000AD4
__ptext13                             text13       000994
__ptext14                             text14       00060E
__ptext15                             text15       000D20
__ptext16                             text16       000B7E
__ptext17                             text17       000BD0
__ptext18                             text18       000D46
__ptext19                             text19       000C98
__ptext2                              text2        000CCA
__ptext20                             text20       000C5E
__ptext21                             text21       000DCA
__ptext22                             text22       000A7C
__ptext23                             text23       000E02
__ptext25                             text25       000CF6
__ptext26                             text26       000DF4
__ptext27                             text27       000D8A
__ptext28                             text28       000DFA
__ptext29                             text29       000DA2
__ptext3                              text3        000908
__ptext30                             text30       000000
__ptext4                              text4        000DE2
__ptext5                              text5        000DE8
__ptext6                              text6        000DEE
__ptext7                              text7        0007B8
__ptext8                              text8        000A16
__ptext9                              text9        000DD8
__ramtop                              ramtop       000600
__size_of_APP_INITIALIZE              (abs)        000000
__size_of_APP_ISR1                    (abs)        000000
__size_of_APP_ISR2                    (abs)        000000
__size_of_APP_MANAGE                  (abs)        000000
__size_of_BCDManage7segment           (abs)        000000
__size_of_BCDsendNumber               (abs)        000000
__size_of_CreateTask                  (abs)        000000
__size_of_DisplayAlphaNumeric         (abs)        000000
__size_of_GetAvgSpeed                 (abs)        000000
__size_of_GetDistance                 (abs)        000000
__size_of_HWI_4Digit_WRITE            (abs)        000000
__size_of_HWI_8Digit_WRITE            (abs)        000000
__size_of_HWI_DIGITAL_INITIALIZE      (abs)        000000
__size_of_HWI_INTERRUPTS_INTITALIZE   (abs)        000000
__size_of_ISR                         (abs)        000000
__size_of_ManageApplication           (abs)        000000
__size_of_ManageSpeedCalc             (abs)        000000
__size_of_RunScheduler                (abs)        000000
__size_of_SchedulerTick               (abs)        000000
__size_of_SensorOneNotify             (abs)        000000
__size_of_SensorTwoNotify             (abs)        000000
__size_of_SetCircumfirunce            (abs)        000000
__size_of_SpeedCalcManage             (abs)        000000
__size_of_SpeedCalcNotifyInitialize   (abs)        000000
__size_of___lldiv                     (abs)        000000
__size_of___lmul                      (abs)        000000
__size_of___lwdiv                     (abs)        000000
__size_of___wmul                      (abs)        000000
__size_of_main                        (abs)        000000
__size_of_memset                      (abs)        000000
__smallconst                          smallconst   000600
_main                                 text0        000B2A
_memset                               text2        000CCA
btemp                                 temp         000060
end_of_initialization                 cinit        000C50
int$flags                             temp         000060
int_func                              intcode_body 000704
intlevel0                             text         000000
intlevel1                             text         000000
intlevel2                             text         000000
intlevel3                             text         000000
memset@c                              cstackCOMRAM 000012
memset@n                              cstackCOMRAM 000014
memset@p                              cstackCOMRAM 000016
memset@p1                             cstackCOMRAM 000010
stackhi                               (abs)        0005FF
stacklo                               (abs)        0000A4
start                                 init         00000E
start_initialization                  cinit        000C20


FUNCTION INFORMATION:

 *************** function _main *****************
 Defined at:
		line 86 in file "main.c"
 Parameters:    Size  Location     Type
		None
 Auto vars:     Size  Location     Type
		None
 Return value:  Size  Location     Type
                  1    wreg      void 
 Registers used:
		wreg, fsr1l, fsr1h, fsr2l, fsr2h, status,2, status,0, pclath, tosl, tblptrl, tblptrh, tblptru, prodl, prodh, cstack
 Tracked objects:
		On entry : 
		On exit  : 
		Unchanged: 
 Data sizes:     COMRAM   BANK0   BANK1   BANK2   BANK3   BANK4   BANK5
      Params:         0       0       0       0       0       0       0
      Locals:         0       0       0       0       0       0       0
      Temps:          0       0       0       0       0       0       0
      Totals:         0       0       0       0       0       0       0
Total ram usage:        0 bytes
 Hardware stack levels required when called:    8
 This function calls:
		_APP_INITIALIZE
		_CreateTask
		_HWI_DIGITAL_INITIALIZE
		_HWI_INTERRUPTS_INTITALIZE
		_RunScheduler
		_SpeedCalcNotifyInitialize
 This function is called by:
		Startup code after reset
 This function uses a non-reentrant model


 *************** function _SpeedCalcNotifyInitialize *****************
 Defined at:
		line 21 in file "../../../../Common/Driver/SpeedCalc/SpeedCalc.c"
 Parameters:    Size  Location     Type
		None
 Auto vars:     Size  Location     Type
		None
 Return value:  Size  Location     Type
                  1    wreg      void 
 Registers used:
		wreg, fsr2l, fsr2h, status,2, status,0, cstack
 Tracked objects:
		On entry : 
		On exit  : 
		Unchanged: 
 Data sizes:     COMRAM   BANK0   BANK1   BANK2   BANK3   BANK4   BANK5
      Params:         0       0       0       0       0       0       0
      Locals:         0       0       0       0       0       0       0
      Temps:          0       0       0       0       0       0       0
      Totals:         0       0       0       0       0       0       0
Total ram usage:        0 bytes
 Hardware stack levels used:    1
 Hardware stack levels required when called:    4
 This function calls:
		_memset
 This function is called by:
		_main
 This function uses a non-reentrant model


 *************** function _memset *****************
 Defined at:
		line 8 in file "C:\Program Files\Microchip\xc8\v1.41\sources\common\memset.c"
 Parameters:    Size  Location     Type
  p1              2   15[COMRAM] PTR void 
		 -> LapCounterBuffer(36), 
  c               2   17[COMRAM] int 
  n               2   19[COMRAM] unsigned int 
 Auto vars:     Size  Location     Type
  p               2   21[COMRAM] PTR unsigned char 
		 -> LapCounterBuffer(36), 
 Return value:  Size  Location     Type
                  2   15[COMRAM] PTR void 
 Registers used:
		wreg, fsr2l, fsr2h, status,2, status,0
 Tracked objects:
		On entry : 
		On exit  : 
		Unchanged: 
 Data sizes:     COMRAM   BANK0   BANK1   BANK2   BANK3   BANK4   BANK5
      Params:         6       0       0       0       0       0       0
      Locals:         2       0       0       0       0       0       0
      Temps:          0       0       0       0       0       0       0
      Totals:         8       0       0       0       0       0       0
Total ram usage:        8 bytes
 Hardware stack levels used:    1
 Hardware stack levels required when called:    3
 This function calls:
		Nothing
 This function is called by:
		_SpeedCalcNotifyInitialize
 This function uses a non-reentrant model


 *************** function _RunScheduler *****************
 Defined at:
		line 25 in file "../../../../OS/Scheduler/Scheduler.c"
 Parameters:    Size  Location     Type
		None
 Auto vars:     Size  Location     Type
		None
 Return value:  Size  Location     Type
                  1    wreg      void 
 Registers used:
		wreg, fsr1l, fsr1h, fsr2l, fsr2h, status,2, status,0, pclath, tosl, tblptrl, tblptrh, tblptru, prodl, prodh, cstack
 Tracked objects:
		On entry : 
		On exit  : 
		Unchanged: 
 Data sizes:     COMRAM   BANK0   BANK1   BANK2   BANK3   BANK4   BANK5
      Params:         0       0       0       0       0       0       0
      Locals:         0       0       0       0       0       0       0
      Temps:          2       0       0       0       0       0       0
      Totals:         2       0       0       0       0       0       0
Total ram usage:        2 bytes
 Hardware stack levels used:    1
 Hardware stack levels required when called:    7
 This function calls:
		_DisplayAlphaNumeric
		_ManageApplication
		_ManageSpeedCalc
 This function is called by:
		_main
 This function uses a non-reentrant model


 *************** function _DisplayAlphaNumeric *****************
 Defined at:
		line 104 in file "main.c"
 Parameters:    Size  Location     Type
		None
 Auto vars:     Size  Location     Type
		None
 Return value:  Size  Location     Type
                  1    wreg      void 
 Registers used:
		wreg, fsr2l, fsr2h, status,2, status,0, prodl, prodh, cstack
 Tracked objects:
		On entry : 
		On exit  : 
		Unchanged: 
 Data sizes:     COMRAM   BANK0   BANK1   BANK2   BANK3   BANK4   BANK5
      Params:         0       0       0       0       0       0       0
      Locals:         0       0       0       0       0       0       0
      Temps:          0       0       0       0       0       0       0
      Totals:         0       0       0       0       0       0       0
Total ram usage:        0 bytes
 Hardware stack levels used:    1
 Hardware stack levels required when called:    5
 This function calls:
		_BCDManage7segment
 This function is called by:
		_main
		_RunScheduler
 This function uses a non-reentrant model


 *************** function _ManageApplication *****************
 Defined at:
		line 108 in file "main.c"
 Parameters:    Size  Location     Type
		None
 Auto vars:     Size  Location     Type
		None
 Return value:  Size  Location     Type
                  1    wreg      void 
 Registers used:
		wreg, fsr2l, fsr2h, status,2, status,0, tblptrl, tblptrh, tblptru, prodl, prodh, cstack
 Tracked objects:
		On entry : 
		On exit  : 
		Unchanged: 
 Data sizes:     COMRAM   BANK0   BANK1   BANK2   BANK3   BANK4   BANK5
      Params:         0       0       0       0       0       0       0
      Locals:         0       0       0       0       0       0       0
      Temps:          0       0       0       0       0       0       0
      Totals:         0       0       0       0       0       0       0
Total ram usage:        0 bytes
 Hardware stack levels used:    1
 Hardware stack levels required when called:    6
 This function calls:
		_APP_MANAGE
 This function is called by:
		_main
		_RunScheduler
 This function uses a non-reentrant model


 *************** function _ManageSpeedCalc *****************
 Defined at:
		line 112 in file "main.c"
 Parameters:    Size  Location     Type
		None
 Auto vars:     Size  Location     Type
		None
 Return value:  Size  Location     Type
                  1    wreg      void 
 Registers used:
		wreg, fsr2l, fsr2h, status,2, status,0, prodl, prodh, cstack
 Tracked objects:
		On entry : 
		On exit  : 
		Unchanged: 
 Data sizes:     COMRAM   BANK0   BANK1   BANK2   BANK3   BANK4   BANK5
      Params:         0       0       0       0       0       0       0
      Locals:         0       0       0       0       0       0       0
      Temps:          0       0       0       0       0       0       0
      Totals:         0       0       0       0       0       0       0
Total ram usage:        0 bytes
 Hardware stack levels used:    1
 Hardware stack levels required when called:    5
 This function calls:
		_SpeedCalcManage
 This function is called by:
		_main
		_RunScheduler
 This function uses a non-reentrant model


 *************** function _SpeedCalcManage *****************
 Defined at:
		line 57 in file "../../../../Common/Driver/SpeedCalc/SpeedCalc.c"
 Parameters:    Size  Location     Type
		None
 Auto vars:     Size  Location     Type
  HundredMeter    2   41[COMRAM] unsigned short 
 Return value:  Size  Location     Type
                  1    wreg      void 
 Registers used:
		wreg, fsr2l, fsr2h, status,2, status,0, prodl, prodh, cstack
 Tracked objects:
		On entry : 
		On exit  : 
		Unchanged: 
 Data sizes:     COMRAM   BANK0   BANK1   BANK2   BANK3   BANK4   BANK5
      Params:         0       0       0       0       0       0       0
      Locals:         2       0       0       0       0       0       0
      Temps:          1       0       0       0       0       0       0
      Totals:         3       0       0       0       0       0       0
Total ram usage:        3 bytes
 Hardware stack levels used:    1
 Hardware stack levels required when called:    4
 This function calls:
		___lldiv
 This function is called by:
		_ManageSpeedCalc
 This function uses a non-reentrant model


 *************** function _APP_MANAGE *****************
 Defined at:
		line 15 in file "../../../../Common/App/APP.c"
 Parameters:    Size  Location     Type
		None
 Auto vars:     Size  Location     Type
  TravelledDis    2   55[COMRAM] unsigned short 
  AvgSpeedKph     2   53[COMRAM] unsigned short 
 Return value:  Size  Location     Type
                  1    wreg      void 
 Registers used:
		wreg, fsr2l, fsr2h, status,2, status,0, tblptrl, tblptrh, tblptru, prodl, prodh, cstack
 Tracked objects:
		On entry : 
		On exit  : 
		Unchanged: 
 Data sizes:     COMRAM   BANK0   BANK1   BANK2   BANK3   BANK4   BANK5
      Params:         0       0       0       0       0       0       0
      Locals:         4       0       0       0       0       0       0
      Temps:          0       0       0       0       0       0       0
      Totals:         4       0       0       0       0       0       0
Total ram usage:        4 bytes
 Hardware stack levels used:    1
 Hardware stack levels required when called:    5
 This function calls:
		_BCDsendNumber
		_GetAvgSpeed
		_GetDistance
		_SetCircumfirunce
		___wmul
 This function is called by:
		_ManageApplication
 This function uses a non-reentrant model


 *************** function _SetCircumfirunce *****************
 Defined at:
		line 116 in file "../../../../Common/Driver/SpeedCalc/SpeedCalc.c"
 Parameters:    Size  Location     Type
  Circum          2   15[COMRAM] unsigned short 
 Auto vars:     Size  Location     Type
		None
 Return value:  Size  Location     Type
                  1    wreg      void 
 Registers used:
		None
 Tracked objects:
		On entry : 
		On exit  : 
		Unchanged: 
 Data sizes:     COMRAM   BANK0   BANK1   BANK2   BANK3   BANK4   BANK5
      Params:         2       0       0       0       0       0       0
      Locals:         0       0       0       0       0       0       0
      Temps:          0       0       0       0       0       0       0
      Totals:         2       0       0       0       0       0       0
Total ram usage:        2 bytes
 Hardware stack levels used:    1
 Hardware stack levels required when called:    3
 This function calls:
		Nothing
 This function is called by:
		_APP_MANAGE
 This function uses a non-reentrant model


 *************** function _GetDistance *****************
 Defined at:
		line 110 in file "../../../../Common/Driver/SpeedCalc/SpeedCalc.c"
 Parameters:    Size  Location     Type
		None
 Auto vars:     Size  Location     Type
		None
 Return value:  Size  Location     Type
                  4   15[COMRAM] unsigned long 
 Registers used:
		None
 Tracked objects:
		On entry : 
		On exit  : 
		Unchanged: 
 Data sizes:     COMRAM   BANK0   BANK1   BANK2   BANK3   BANK4   BANK5
      Params:         4       0       0       0       0       0       0
      Locals:         0       0       0       0       0       0       0
      Temps:          0       0       0       0       0       0       0
      Totals:         4       0       0       0       0       0       0
Total ram usage:        4 bytes
 Hardware stack levels used:    1
 Hardware stack levels required when called:    3
 This function calls:
		Nothing
 This function is called by:
		_APP_MANAGE
 This function uses a non-reentrant model


 *************** function _GetAvgSpeed *****************
 Defined at:
		line 122 in file "../../../../Common/Driver/SpeedCalc/SpeedCalc.c"
 Parameters:    Size  Location     Type
  bIsKph          1    wreg     unsigned char 
 Auto vars:     Size  Location     Type
  bIsKph          1   48[COMRAM] unsigned char 
  KphMphFactor    4   49[COMRAM] unsigned long 
  AvgSpeedKphM    2   46[COMRAM] unsigned short 
 Return value:  Size  Location     Type
                  2   40[COMRAM] unsigned short 
 Registers used:
		wreg, status,2, status,0, cstack
 Tracked objects:
		On entry : 
		On exit  : 
		Unchanged: 
 Data sizes:     COMRAM   BANK0   BANK1   BANK2   BANK3   BANK4   BANK5
      Params:         2       0       0       0       0       0       0
      Locals:        11       0       0       0       0       0       0
      Temps:          0       0       0       0       0       0       0
      Totals:        13       0       0       0       0       0       0
Total ram usage:       13 bytes
 Hardware stack levels used:    1
 Hardware stack levels required when called:    4
 This function calls:
		___lldiv
		___lmul
 This function is called by:
		_APP_MANAGE
 This function uses a non-reentrant model


 *************** function ___lmul *****************
 Defined at:
		line 15 in file "C:\Program Files\Microchip\xc8\v1.41\sources\common\Umul32.c"
 Parameters:    Size  Location     Type
  multiplier      4   15[COMRAM] unsigned long 
  multiplicand    4   19[COMRAM] unsigned long 
 Auto vars:     Size  Location     Type
  product         4   23[COMRAM] unsigned long 
 Return value:  Size  Location     Type
                  4   15[COMRAM] unsigned long 
 Registers used:
		wreg, status,2, status,0
 Tracked objects:
		On entry : 
		On exit  : 
		Unchanged: 
 Data sizes:     COMRAM   BANK0   BANK1   BANK2   BANK3   BANK4   BANK5
      Params:         8       0       0       0       0       0       0
      Locals:         4       0       0       0       0       0       0
      Temps:          0       0       0       0       0       0       0
      Totals:        12       0       0       0       0       0       0
Total ram usage:       12 bytes
 Hardware stack levels used:    1
 Hardware stack levels required when called:    3
 This function calls:
		Nothing
 This function is called by:
		_GetAvgSpeed
 This function uses a non-reentrant model


 *************** function ___lldiv *****************
 Defined at:
		line 8 in file "C:\Program Files\Microchip\xc8\v1.41\sources\common\lldiv.c"
 Parameters:    Size  Location     Type
  dividend        4   27[COMRAM] unsigned long 
  divisor         4   31[COMRAM] unsigned long 
 Auto vars:     Size  Location     Type
  quotient        4   35[COMRAM] unsigned long 
  counter         1   39[COMRAM] unsigned char 
 Return value:  Size  Location     Type
                  4   27[COMRAM] unsigned long 
 Registers used:
		wreg, status,2, status,0
 Tracked objects:
		On entry : 
		On exit  : 
		Unchanged: 
 Data sizes:     COMRAM   BANK0   BANK1   BANK2   BANK3   BANK4   BANK5
      Params:         8       0       0       0       0       0       0
      Locals:         5       0       0       0       0       0       0
      Temps:          0       0       0       0       0       0       0
      Totals:        13       0       0       0       0       0       0
Total ram usage:       13 bytes
 Hardware stack levels used:    1
 Hardware stack levels required when called:    3
 This function calls:
		Nothing
 This function is called by:
		_SpeedCalcManage
		_GetAvgSpeed
 This function uses a non-reentrant model


 *************** function _BCDsendNumber *****************
 Defined at:
		line 25 in file "../../../../Common/Driver/BCDdisplay/BCDdisplay.c"
 Parameters:    Size  Location     Type
  Number          2   22[COMRAM] unsigned short 
  DecimalPlace    1   24[COMRAM] unsigned char 
 Auto vars:     Size  Location     Type
  Buffer          2   31[COMRAM] unsigned short 
  Output          2   29[COMRAM] unsigned short 
  Link            2   27[COMRAM] unsigned short 
  LoopIndex       1   33[COMRAM] unsigned char 
 Return value:  Size  Location     Type
                  1    wreg      void 
 Registers used:
		wreg, fsr2l, fsr2h, status,2, status,0, tblptrl, tblptrh, tblptru, prodl, prodh, cstack
 Tracked objects:
		On entry : 
		On exit  : 
		Unchanged: 
 Data sizes:     COMRAM   BANK0   BANK1   BANK2   BANK3   BANK4   BANK5
      Params:         3       0       0       0       0       0       0
      Locals:         7       0       0       0       0       0       0
      Temps:          2       0       0       0       0       0       0
      Totals:        12       0       0       0       0       0       0
Total ram usage:       12 bytes
 Hardware stack levels used:    1
 Hardware stack levels required when called:    4
 This function calls:
		___lwdiv
		___wmul
 This function is called by:
		_APP_MANAGE
 This function uses a non-reentrant model


 *************** function ___wmul *****************
 Defined at:
		line 15 in file "C:\Program Files\Microchip\xc8\v1.41\sources\common\Umul16.c"
 Parameters:    Size  Location     Type
  multiplier      2   15[COMRAM] unsigned int 
  multiplicand    2   17[COMRAM] unsigned int 
 Auto vars:     Size  Location     Type
  product         2   19[COMRAM] unsigned int 
 Return value:  Size  Location     Type
                  2   15[COMRAM] unsigned int 
 Registers used:
		wreg, status,2, status,0, prodl, prodh
 Tracked objects:
		On entry : 
		On exit  : 
		Unchanged: 
 Data sizes:     COMRAM   BANK0   BANK1   BANK2   BANK3   BANK4   BANK5
      Params:         4       0       0       0       0       0       0
      Locals:         2       0       0       0       0       0       0
      Temps:          0       0       0       0       0       0       0
      Totals:         6       0       0       0       0       0       0
Total ram usage:        6 bytes
 Hardware stack levels used:    1
 Hardware stack levels required when called:    3
 This function calls:
		Nothing
 This function is called by:
		_APP_MANAGE
		_BCDsendNumber
 This function uses a non-reentrant model


 *************** function ___lwdiv *****************
 Defined at:
		line 8 in file "C:\Program Files\Microchip\xc8\v1.41\sources\common\lwdiv.c"
 Parameters:    Size  Location     Type
  dividend        2   15[COMRAM] unsigned int 
  divisor         2   17[COMRAM] unsigned int 
 Auto vars:     Size  Location     Type
  quotient        2   19[COMRAM] unsigned int 
  counter         1   21[COMRAM] unsigned char 
 Return value:  Size  Location     Type
                  2   15[COMRAM] unsigned int 
 Registers used:
		wreg, status,2, status,0
 Tracked objects:
		On entry : 
		On exit  : 
		Unchanged: 
 Data sizes:     COMRAM   BANK0   BANK1   BANK2   BANK3   BANK4   BANK5
      Params:         4       0       0       0       0       0       0
      Locals:         3       0       0       0       0       0       0
      Temps:          0       0       0       0       0       0       0
      Totals:         7       0       0       0       0       0       0
Total ram usage:        7 bytes
 Hardware stack levels used:    1
 Hardware stack levels required when called:    3
 This function calls:
		Nothing
 This function is called by:
		_BCDsendNumber
 This function uses a non-reentrant model


 *************** function _BCDManage7segment *****************
 Defined at:
		line 57 in file "../../../../Common/Driver/BCDdisplay/BCDdisplay.c"
 Parameters:    Size  Location     Type
		None
 Auto vars:     Size  Location     Type
		None
 Return value:  Size  Location     Type
                  1    wreg      void 
 Registers used:
		wreg, fsr2l, fsr2h, status,2, status,0, prodl, prodh, cstack
 Tracked objects:
		On entry : 
		On exit  : 
		Unchanged: 
 Data sizes:     COMRAM   BANK0   BANK1   BANK2   BANK3   BANK4   BANK5
      Params:         0       0       0       0       0       0       0
      Locals:         0       0       0       0       0       0       0
      Temps:          3       0       0       0       0       0       0
      Totals:         3       0       0       0       0       0       0
Total ram usage:        3 bytes
 Hardware stack levels used:    1
 Hardware stack levels required when called:    4
 This function calls:
		_HWI_4Digit_WRITE
		_HWI_8Digit_WRITE
 This function is called by:
		_DisplayAlphaNumeric
 This function uses a non-reentrant model


 *************** function _HWI_8Digit_WRITE *****************
 Defined at:
		line 41 in file "../../HWIsource/HWI_DIGITAL.c"
 Parameters:    Size  Location     Type
  port            1    wreg     unsigned char 
  value           1   15[COMRAM] unsigned char 
 Auto vars:     Size  Location     Type
  port            1   16[COMRAM] unsigned char 
 Return value:  Size  Location     Type
                  1    wreg      void 
 Registers used:
		wreg, status,2, status,0
 Tracked objects:
		On entry : 
		On exit  : 
		Unchanged: 
 Data sizes:     COMRAM   BANK0   BANK1   BANK2   BANK3   BANK4   BANK5
      Params:         1       0       0       0       0       0       0
      Locals:         1       0       0       0       0       0       0
      Temps:          0       0       0       0       0       0       0
      Totals:         2       0       0       0       0       0       0
Total ram usage:        2 bytes
 Hardware stack levels used:    1
 Hardware stack levels required when called:    3
 This function calls:
		Nothing
 This function is called by:
		_BCDManage7segment
 This function uses a non-reentrant model


 *************** function _HWI_4Digit_WRITE *****************
 Defined at:
		line 8 in file "../../HWIsource/HWI_DIGITAL.c"
 Parameters:    Size  Location     Type
  port            1    wreg     unsigned char 
  value           1   15[COMRAM] unsigned char 
 Auto vars:     Size  Location     Type
  port            1   16[COMRAM] unsigned char 
 Return value:  Size  Location     Type
                  1    wreg      void 
 Registers used:
		wreg, status,2, status,0
 Tracked objects:
		On entry : 
		On exit  : 
		Unchanged: 
 Data sizes:     COMRAM   BANK0   BANK1   BANK2   BANK3   BANK4   BANK5
      Params:         1       0       0       0       0       0       0
      Locals:         1       0       0       0       0       0       0
      Temps:          0       0       0       0       0       0       0
      Totals:         2       0       0       0       0       0       0
Total ram usage:        2 bytes
 Hardware stack levels used:    1
 Hardware stack levels required when called:    3
 This function calls:
		Nothing
 This function is called by:
		_BCDManage7segment
 This function uses a non-reentrant model


 *************** function _HWI_INTERRUPTS_INTITALIZE *****************
 Defined at:
		line 10 in file "../../HWIsource/HWI_Interrupts.c"
 Parameters:    Size  Location     Type
		None
 Auto vars:     Size  Location     Type
		None
 Return value:  Size  Location     Type
                  1    wreg      void 
 Registers used:
		wreg, status,2
 Tracked objects:
		On entry : 
		On exit  : 
		Unchanged: 
 Data sizes:     COMRAM   BANK0   BANK1   BANK2   BANK3   BANK4   BANK5
      Params:         0       0       0       0       0       0       0
      Locals:         0       0       0       0       0       0       0
      Temps:          0       0       0       0       0       0       0
      Totals:         0       0       0       0       0       0       0
Total ram usage:        0 bytes
 Hardware stack levels used:    1
 Hardware stack levels required when called:    3
 This function calls:
		Nothing
 This function is called by:
		_main
 This function uses a non-reentrant model


 *************** function _HWI_DIGITAL_INITIALIZE *****************
 Defined at:
		line 74 in file "../../HWIsource/HWI_DIGITAL.c"
 Parameters:    Size  Location     Type
		None
 Auto vars:     Size  Location     Type
		None
 Return value:  Size  Location     Type
                  1    wreg      void 
 Registers used:
		wreg, status,2
 Tracked objects:
		On entry : 
		On exit  : 
		Unchanged: 
 Data sizes:     COMRAM   BANK0   BANK1   BANK2   BANK3   BANK4   BANK5
      Params:         0       0       0       0       0       0       0
      Locals:         0       0       0       0       0       0       0
      Temps:          0       0       0       0       0       0       0
      Totals:         0       0       0       0       0       0       0
Total ram usage:        0 bytes
 Hardware stack levels used:    1
 Hardware stack levels required when called:    3
 This function calls:
		Nothing
 This function is called by:
		_main
 This function uses a non-reentrant model


 *************** function _CreateTask *****************
 Defined at:
		line 6 in file "../../../../OS/Scheduler/Scheduler.c"
 Parameters:    Size  Location     Type
  MangeFunctio    2   15[COMRAM] PTR FTN()void 
		 -> DisplayAlphaNumeric(1), ManageApplication(1), ManageSpeedCalc(1), 
  TaskId          1   17[COMRAM] unsigned char 
  Period          1   18[COMRAM] unsigned char 
 Auto vars:     Size  Location     Type
		None
 Return value:  Size  Location     Type
                  1    wreg      void 
 Registers used:
		wreg, fsr2l, fsr2h, status,2, status,0, prodl, prodh
 Tracked objects:
		On entry : 
		On exit  : 
		Unchanged: 
 Data sizes:     COMRAM   BANK0   BANK1   BANK2   BANK3   BANK4   BANK5
      Params:         4       0       0       0       0       0       0
      Locals:         0       0       0       0       0       0       0
      Temps:          0       0       0       0       0       0       0
      Totals:         4       0       0       0       0       0       0
Total ram usage:        4 bytes
 Hardware stack levels used:    1
 Hardware stack levels required when called:    3
 This function calls:
		Nothing
 This function is called by:
		_main
 This function uses a non-reentrant model


 *************** function _APP_INITIALIZE *****************
 Defined at:
		line 10 in file "../../../../Common/App/APP.c"
 Parameters:    Size  Location     Type
		None
 Auto vars:     Size  Location     Type
		None
 Return value:  Size  Location     Type
                  1    wreg      void 
 Registers used:
		None
 Tracked objects:
		On entry : 
		On exit  : 
		Unchanged: 
 Data sizes:     COMRAM   BANK0   BANK1   BANK2   BANK3   BANK4   BANK5
      Params:         0       0       0       0       0       0       0
      Locals:         0       0       0       0       0       0       0
      Temps:          0       0       0       0       0       0       0
      Totals:         0       0       0       0       0       0       0
Total ram usage:        0 bytes
 Hardware stack levels used:    1
 Hardware stack levels required when called:    3
 This function calls:
		Nothing
 This function is called by:
		_main
 This function uses a non-reentrant model


 *************** function _ISR *****************
 Defined at:
		line 46 in file "../../HWIsource/HWI_Interrupts.c"
 Parameters:    Size  Location     Type
		None
 Auto vars:     Size  Location     Type
		None
 Return value:  Size  Location     Type
                  1    wreg      void 
 Registers used:
		wreg, fsr2l, fsr2h, status,2, status,0, prodl, prodh, cstack
 Tracked objects:
		On entry : 
		On exit  : 
		Unchanged: 
 Data sizes:     COMRAM   BANK0   BANK1   BANK2   BANK3   BANK4   BANK5
      Params:         0       0       0       0       0       0       0
      Locals:         0       0       0       0       0       0       0
      Temps:         14       0       0       0       0       0       0
      Totals:        14       0       0       0       0       0       0
Total ram usage:       14 bytes
 Hardware stack levels used:    1
 Hardware stack levels required when called:    2
 This function calls:
		_APP_ISR1
		_APP_ISR2
		_SchedulerTick
 This function is called by:
		Interrupt level 2
 This function uses a non-reentrant model


 *************** function _SchedulerTick *****************
 Defined at:
		line 16 in file "../../../../OS/Scheduler/Scheduler.c"
 Parameters:    Size  Location     Type
		None
 Auto vars:     Size  Location     Type
  TaskIndex       1    0[COMRAM] unsigned char 
 Return value:  Size  Location     Type
                  1    wreg      void 
 Registers used:
		wreg, fsr2l, fsr2h, status,2, status,0, prodl, prodh
 Tracked objects:
		On entry : 
		On exit  : 
		Unchanged: 
 Data sizes:     COMRAM   BANK0   BANK1   BANK2   BANK3   BANK4   BANK5
      Params:         0       0       0       0       0       0       0
      Locals:         1       0       0       0       0       0       0
      Temps:          0       0       0       0       0       0       0
      Totals:         1       0       0       0       0       0       0
Total ram usage:        1 bytes
 Hardware stack levels used:    1
 This function calls:
		Nothing
 This function is called by:
		_ISR
 This function uses a non-reentrant model


 *************** function _APP_ISR2 *****************
 Defined at:
		line 13 in file "../../../../Common/Interrupts/AppInterrupts.c"
 Parameters:    Size  Location     Type
		None
 Auto vars:     Size  Location     Type
		None
 Return value:  Size  Location     Type
                  1    wreg      void 
 Registers used:
		wreg, status,2, status,0, cstack
 Tracked objects:
		On entry : 
		On exit  : 
		Unchanged: 
 Data sizes:     COMRAM   BANK0   BANK1   BANK2   BANK3   BANK4   BANK5
      Params:         0       0       0       0       0       0       0
      Locals:         0       0       0       0       0       0       0
      Temps:          0       0       0       0       0       0       0
      Totals:         0       0       0       0       0       0       0
Total ram usage:        0 bytes
 Hardware stack levels used:    1
 Hardware stack levels required when called:    1
 This function calls:
		_SensorTwoNotify
 This function is called by:
		_ISR
 This function uses a non-reentrant model


 *************** function _SensorTwoNotify *****************
 Defined at:
		line 41 in file "../../../../Common/Driver/SpeedCalc/SpeedCalc.c"
 Parameters:    Size  Location     Type
		None
 Auto vars:     Size  Location     Type
		None
 Return value:  Size  Location     Type
                  1    wreg      void 
 Registers used:
		wreg, status,2, status,0
 Tracked objects:
		On entry : 
		On exit  : 
		Unchanged: 
 Data sizes:     COMRAM   BANK0   BANK1   BANK2   BANK3   BANK4   BANK5
      Params:         0       0       0       0       0       0       0
      Locals:         0       0       0       0       0       0       0
      Temps:          0       0       0       0       0       0       0
      Totals:         0       0       0       0       0       0       0
Total ram usage:        0 bytes
 Hardware stack levels used:    1
 This function calls:
		Nothing
 This function is called by:
		_APP_ISR2
 This function uses a non-reentrant model


 *************** function _APP_ISR1 *****************
 Defined at:
		line 8 in file "../../../../Common/Interrupts/AppInterrupts.c"
 Parameters:    Size  Location     Type
		None
 Auto vars:     Size  Location     Type
		None
 Return value:  Size  Location     Type
                  1    wreg      void 
 Registers used:
		wreg, status,2, status,0, cstack
 Tracked objects:
		On entry : 
		On exit  : 
		Unchanged: 
 Data sizes:     COMRAM   BANK0   BANK1   BANK2   BANK3   BANK4   BANK5
      Params:         0       0       0       0       0       0       0
      Locals:         0       0       0       0       0       0       0
      Temps:          0       0       0       0       0       0       0
      Totals:         0       0       0       0       0       0       0
Total ram usage:        0 bytes
 Hardware stack levels used:    1
 Hardware stack levels required when called:    1
 This function calls:
		_SensorOneNotify
 This function is called by:
		_ISR
 This function uses a non-reentrant model


 *************** function _SensorOneNotify *****************
 Defined at:
		line 26 in file "../../../../Common/Driver/SpeedCalc/SpeedCalc.c"
 Parameters:    Size  Location     Type
		None
 Auto vars:     Size  Location     Type
		None
 Return value:  Size  Location     Type
                  1    wreg      void 
 Registers used:
		wreg, status,2, status,0
 Tracked objects:
		On entry : 
		On exit  : 
		Unchanged: 
 Data sizes:     COMRAM   BANK0   BANK1   BANK2   BANK3   BANK4   BANK5
      Params:         0       0       0       0       0       0       0
      Locals:         0       0       0       0       0       0       0
      Temps:          0       0       0       0       0       0       0
      Totals:         0       0       0       0       0       0       0
Total ram usage:        0 bytes
 Hardware stack levels used:    1
 This function calls:
		Nothing
 This function is called by:
		_APP_ISR1
 This function uses a non-reentrant model



MODULE INFORMATION

Module		Function		Class		Link	Load	Size
../../../../Common/Interrupts/AppInterrupts.c
		_APP_ISR1      		CODE           	0DFA	0000	7
		_APP_ISR2      		CODE           	0DF4	0000	7

../../../../Common/Interrupts/AppInterrupts.c estimated size: 14

../../../../Common/Driver/BCDdisplay/BCDdisplay.c
		_BCDsendNumber 		CODE           	060E	0000	247
		_BCDManage7segment		CODE           	0BD0	0000	81

../../../../Common/Driver/BCDdisplay/BCDdisplay.c estimated size: 328

C:\Program Files\Microchip\xc8\v1.41\sources\common\Umul32.c
		___lmul        		CODE           	0AD4	0000	87

C:\Program Files\Microchip\xc8\v1.41\sources\common\Umul32.c estimated size: 87

../../HWIsource/HWI_Interrupts.c
		_ISR           		CODE           	0008	0000	187
		_HWI_INTERRUPTS_INTITALIZE		CODE           	0C5E	0000	59

../../HWIsource/HWI_Interrupts.c estimated size: 246

C:\Program Files\Microchip\xc8\v1.41\sources\common\memset.c
		_memset        		CODE           	0CCA	0000	45

C:\Program Files\Microchip\xc8\v1.41\sources\common\memset.c estimated size: 45

shared
		_SevenSegmentMAP		SMALLCONST     	0601	0000	12
		__initialization		CODE           	0C20	0000	49

shared estimated size: 61

C:\Program Files\Microchip\xc8\v1.41\sources\common\lwdiv.c
		___lwdiv       		CODE           	0B7E	0000	83

C:\Program Files\Microchip\xc8\v1.41\sources\common\lwdiv.c estimated size: 83

C:\Program Files\Microchip\xc8\v1.41\sources\common\Umul16.c
		___wmul        		CODE           	0D20	0000	39

C:\Program Files\Microchip\xc8\v1.41\sources\common\Umul16.c estimated size: 39

../../../../Common/Driver/SpeedCalc/SpeedCalc.c
		_SensorOneNotify		CODE           	0DA2	0000	23
		_GetDistance   		CODE           	0DB8	0000	19
		_SetCircumfirunce		CODE           	0DD8	0000	11
		_GetAvgSpeed   		CODE           	0862	0000	167
		_SensorTwoNotify		CODE           	0D8A	0000	25
		_SpeedCalcNotifyInitialize		CODE           	0D6C	0000	31
		_SpeedCalcManage		CODE           	07B8	0000	171

../../../../Common/Driver/SpeedCalc/SpeedCalc.c estimated size: 447

C:\Program Files\Microchip\xc8\v1.41\sources\common\lldiv.c
		___lldiv       		CODE           	0994	0000	131

C:\Program Files\Microchip\xc8\v1.41\sources\common\lldiv.c estimated size: 131

../../../../Common/App/APP.c
		_APP_MANAGE    		CODE           	0A16	0000	103
		_APP_INITIALIZE		CODE           	0E02	0000	3

../../../../Common/App/APP.c estimated size: 106

../../HWIsource/HWI_DIGITAL.c
		_HWI_8Digit_WRITE		CODE           	0D46	0000	39
		_HWI_4Digit_WRITE		CODE           	0C98	0000	51
		_HWI_DIGITAL_INITIALIZE		CODE           	0DCA	0000	15

../../HWIsource/HWI_DIGITAL.c estimated size: 105

../../../../OS/Scheduler/Scheduler.c
		_SchedulerTick 		CODE           	0CF6	0000	43
		_CreateTask    		CODE           	0A7C	0000	89
		_RunScheduler  		CODE           	0908	0000	141

../../../../OS/Scheduler/Scheduler.c estimated size: 273

main.c
		_ManageSpeedCalc		CODE           	0DEE	0000	7
		_main          		CODE           	0B2A	0000	85
		_ManageApplication		CODE           	0DE8	0000	7
		_DisplayAlphaNumeric		CODE           	0DE2	0000	7

main.c estimated size: 106

