Microchip MPLAB XC8 Compiler V1.41 ()

Linker command line:

--edf=C:\Program Files\Microchip\xc8\v1.41\dat\en_msgs.txt -cs \
  -h+dist/default/production\BicMeter.X.production.sym \
  --cmf=dist/default/production\BicMeter.X.production.cmf -z -Q18F4520 \
  -oC:\Users\0E57~1\AppData\Local\Temp\s4do.2 \
  -Mdist/default/production/BicMeter.X.production.map -E1 -ver=XC8 \
  -ASTACK=0CFh-05ffh -pstack=STACK -ACODE=00h-07FFFh -ACONST=00h-07FFFh \
  -ASMALLCONST=0600h-06FFhx122 -AMEDIUMCONST=0600h-07FFFh -ACOMRAM=01h-07Fh \
  -AABS1=00h-05FFh -ABIGRAM=01h-05FFh -ARAM=080h-0FFh,0100h-01FFhx5 \
  -ABANK0=080h-0FFh -ABANK1=0100h-01FFh -ABANK2=0200h-02FFh \
  -ABANK3=0300h-03FFh -ABANK4=0400h-04FFh -ABANK5=0500h-05FFh \
  -ASFR=0F80h-0FFFh -preset_vec=00h,intcode=08h,intcodelo,powerup,init \
  -pramtop=0600h -psmallconst=SMALLCONST -pmediumconst=MEDIUMCONST \
  -pconst=CONST -AFARRAM=00h-00h -ACONFIG=0300000h-030000Dh -pconfig=CONFIG \
  -AIDLOC=0200000h-0200007h -pidloc=IDLOC -AEEDATA=0F00000h-0F000FFh \
  -peeprom_data=EEDATA \
  -prdata=COMRAM,nvrram=COMRAM,nvbit=COMRAM,rbss=COMRAM,rbit=COMRAM \
  -pfarbss=FARRAM,fardata=FARRAM,nvFARRAM=FARRAM \
  -pintsave_regs=BIGRAM,bigbss=BIGRAM,bigdata=BIGRAM -pbss=RAM \
  -pidata=CODE,irdata=CODE,ibigdata=CODE,ifardata=CODE -prparam=COMRAM \
  C:\Users\0E57~1\AppData\Local\Temp\s4do.obj \
  dist/default/production\BicMeter.X.production.obj 

Object code version is 3.11

Machine type is 18F4520

Call graph: (short form)




                Name                               Link     Load   Length Selector   Space Scale
C:\Users\0E57~1\AppData\Local\Temp\s4do.obj
                init                                  E        E        4        4       0
                reset_vec                             0        0        4        0       0
                idloc                            200000   200000        8   200000       0
                config                           300000   300000        E   300000       0
dist/default/production\BicMeter.X.production.obj
                intcode                               8        8        6        4       0
                temp                                 6C       6C        1        1       1
                smallconst                          600      600       3A      300       0
                text43                             1512     1512       16      31D       0
                text42                             1588     1588        6      31D       0
                text41                             12EC     12EC       3C      31D       0
                text40                             13E4     13E4       2E      31D       0
                text39                             1582     1582        6      31D       0
                text38                             1550     1550        A      31D       0
                text37                             157C     157C        6      31D       0
                text36                             143E     143E       2A      31D       0
                intcode_body                        C90      C90       BC      31D       0
                text34                             1094     1094       5A      31D       0
                text33                             1412     1412       2C      31D       0
                text32                             1562     1562        8      31D       0
                text31                             10EE     10EE       58      31D       0
                text30                             14F8     14F8       1A      31D       0
                text29                             12AE     12AE       3E      31D       0
                text28                             1328     1328       32      31D       0
                text27                             14B6     14B6       26      31D       0
                text26                              E82      E82       98      31D       0
                text25                             119C     119C       52      31D       0
                text24                             1490     1490       26      31D       0
                text23                              B9A      B9A       F6      31D       0
                text22                             153A     153A        C      31D       0
                text21                             1468     1468       28      31D       0
                text20                             11EE     11EE       42      31D       0
                text19                              FA6      FA6       82      31D       0
                text18                             1146     1146       56      31D       0
                text17                              D4C      D4C       9E      31D       0
                text16                             1528     1528       12      31D       0
                text15                             13B6     13B6       2E      31D       0
                text14                             1546     1546        A      31D       0
                text13                              A68      A68      132      31D       0
                text12                             1388     1388       2E      31D       0
                text11                             1230     1230       40      31D       0
                text10                             135A     135A       2E      31D       0
                text9                               63A      63A      42E      31D       0
                text8                               DEA      DEA       98      31D       0
                text7                              1576     1576        6      31D       0
                text6                              1570     1570        6      31D       0
                text5                              156A     156A        6      31D       0
                text4                              14DC     14DC       1C      31D       0
                text3                               F1A      F1A       8C      31D       0
                text2                              1590     1590        2      31D       0
                text1                              1028     1028       6C      31D       0
                text0                              155A     155A        8      31D       0
                cstackCOMRAM                         3C       3C       2E        1       1
                cstackBANK0                          B2       B2       1D       80       1
                bssBANK0                             80       80       32       80       1
                dataCOMRAM                           6A       6A        2        1       1
                bssCOMRAM                             1        1       3B        1       1
                cinit                              1270     1270       3E      31D       0
                idataCOMRAM                        158E     158E        2      31D       0

TOTAL           Name                               Link     Load   Length     Space
        CLASS   STACK          

        CLASS   CODE           
                intcode                               8        8        6         0
                init                                  E        E        4         0
                reset_vec                             0        0        4         0
                text43                             1512     1512       16         0
                text42                             1588     1588        6         0
                text41                             12EC     12EC       3C         0
                text40                             13E4     13E4       2E         0
                text39                             1582     1582        6         0
                text38                             1550     1550        A         0
                text37                             157C     157C        6         0
                text36                             143E     143E       2A         0
                intcode_body                        C90      C90       BC         0
                text34                             1094     1094       5A         0
                text33                             1412     1412       2C         0
                text32                             1562     1562        8         0
                text31                             10EE     10EE       58         0
                text30                             14F8     14F8       1A         0
                text29                             12AE     12AE       3E         0
                text28                             1328     1328       32         0
                text27                             14B6     14B6       26         0
                text26                              E82      E82       98         0
                text25                             119C     119C       52         0
                text24                             1490     1490       26         0
                text23                              B9A      B9A       F6         0
                text22                             153A     153A        C         0
                text21                             1468     1468       28         0
                text20                             11EE     11EE       42         0
                text19                              FA6      FA6       82         0
                text18                             1146     1146       56         0
                text17                              D4C      D4C       9E         0
                text16                             1528     1528       12         0
                text15                             13B6     13B6       2E         0
                text14                             1546     1546        A         0
                text13                              A68      A68      132         0
                text12                             1388     1388       2E         0
                text11                             1230     1230       40         0
                text10                             135A     135A       2E         0
                text9                               63A      63A      42E         0
                text8                               DEA      DEA       98         0
                text7                              1576     1576        6         0
                text6                              1570     1570        6         0
                text5                              156A     156A        6         0
                text4                              14DC     14DC       1C         0
                text3                               F1A      F1A       8C         0
                text2                              1590     1590        2         0
                text1                              1028     1028       6C         0
                text0                              155A     155A        8         0
                cinit                              1270     1270       3E         0
                idataCOMRAM                        158E     158E        2         0

        CLASS   CONST          

        CLASS   SMALLCONST     
                smallconst                          600      600       3A         0

        CLASS   MEDIUMCONST    

        CLASS   COMRAM         
                temp                                 6C       6C        1         1
                cstackCOMRAM                         3C       3C       2E         1
                dataCOMRAM                           6A       6A        2         1
                bssCOMRAM                             1        1       3B         1

        CLASS   ABS1           

        CLASS   BIGRAM         

        CLASS   RAM            

        CLASS   BANK0          
                cstackBANK0                          B2       B2       1D         1
                bssBANK0                             80       80       32         1

        CLASS   BANK1          

        CLASS   BANK2          

        CLASS   BANK3          

        CLASS   BANK4          

        CLASS   BANK5          

        CLASS   SFR            

        CLASS   FARRAM         

        CLASS   CONFIG         
                config                           300000   300000        E         0

        CLASS   IDLOC          
                idloc                            200000   200000        8         0

        CLASS   EEDATA         



SEGMENTS        Name                           Load    Length   Top    Selector   Space  Class

                reset_vec                      000000  000004  000004         0       0  CODE    
                bssCOMRAM                      000001  00006C  00006D         1       1  COMRAM  
                intcode                        000008  00000A  000012         4       0  CODE    
                bssBANK0                       000080  00004F  0000CF        80       1  BANK0   
                smallconst                     000600  00003A  00063A       300       0  SMALLCON
                text9                          00063A  000F58  001592       31D       0  CODE    
                idloc                          200000  000008  200008    200000       0  IDLOC   
                config                         300000  00000E  30000E    300000       0  CONFIG  


UNUSED ADDRESS RANGES

        Name                Unused          Largest block    Delta
        BANK0            0000CF-0000FF               31
        BANK1            000100-0001FF              100
        BANK2            000200-0002FF              100
        BANK3            000300-0003FF              100
        BANK4            000400-0004FF              100
        BANK5            000500-0005FF              100
        BIGRAM           00006D-00007F               13
                         0000CF-0005FF              531
        CODE             000004-000007                4
                         000012-0005FF              5EE
                         001592-007FFF             6A6E
        COMRAM           00006D-00007F               13
        CONST            000004-000007                4
                         000012-0005FF              5EE
                         001592-007FFF             6A6E
        EEDATA           F00000-F000FF              100
        MEDIUMCONST      001592-007FFF             6A6E
        RAM              0000CF-0005FF              100
        SFR              000F80-000FFF               80
        SMALLCONST       001592-007FFF              100
        STACK            0000CF-0005FF              531

                                  Symbol Table

?_GetAvgSpeed                         cstackCOMRAM 000068
?_GetDistance                         cstackCOMRAM 00004F
?_ReloadHWtimer                       cstackCOMRAM 00003C
?___lldiv                             cstackCOMRAM 00005B
?___lmul                              cstackCOMRAM 00004F
?___lwdiv                             cstackCOMRAM 00004F
?___wmul                              cstackCOMRAM 00004F
APP_INITIALIZE@F3085                  smallconst   000601
APP_INITIALIZE@stringX                cstackBANK0  0000B2
APP_MANAGE@AvgSpeedKph                cstackBANK0  0000BF
APP_MANAGE@TravelledDistance          cstackBANK0  0000BA
APP_MANAGE@bIsBlinkMode               bssCOMRAM    000023
APP_MANAGE@blinkIndex                 bssCOMRAM    000025
APP_MANAGE@keystatus                  cstackBANK0  0000BE
BCDInitialize@bIsCommonAnode          cstackCOMRAM 00004F
BCDManage7segment@BCD                 cstackCOMRAM 000054
BCDManage7segment@BlinkCounter        bssCOMRAM    000030
BCDManage7segment@DigitIndex          bssCOMRAM    00003B
BCDManage7segment@Index               cstackCOMRAM 000053
BCDsendNumber@Buffer                  cstackCOMRAM 00005F
BCDsendNumber@DecimalPlace            cstackCOMRAM 000058
BCDsendNumber@Link                    cstackCOMRAM 00005B
BCDsendNumber@LoopIndex               cstackCOMRAM 000061
BCDsendNumber@Number                  cstackCOMRAM 000056
BCDsendNumber@Output                  cstackCOMRAM 00005D
BlinkDigit@Index                      cstackCOMRAM 000050
BlinkDigit@duration                   cstackCOMRAM 00004F
CreateTask@MangeFunction              cstackCOMRAM 00004F
CreateTask@Period                     cstackCOMRAM 000052
CreateTask@TaskId                     cstackCOMRAM 000051
EepromManage@WriteIndex               bssCOMRAM    00002C
EepromManage@WriteSuccess             cstackCOMRAM 000052
Eeprom_Read_Block@BlockSize           cstackCOMRAM 000055
Eeprom_Read_Block@DataPtr             cstackCOMRAM 000053
Eeprom_Read_Block@LoopIndex           cstackCOMRAM 000059
Eeprom_Read_Block@ReadGranted         cstackCOMRAM 000056
Eeprom_Read_Block@ReadSuccess         cstackCOMRAM 000058
Eeprom_Read_Block@address             cstackCOMRAM 000057
Eeprom_Write_Block@BlockSize          cstackCOMRAM 000051
Eeprom_Write_Block@DataPtr            cstackCOMRAM 00004F
Eeprom_Write_Block@LoopIndex          cstackCOMRAM 000054
Eeprom_Write_Block@WriteGranted       cstackCOMRAM 000052
Eeprom_Write_Block@address            cstackCOMRAM 000053
GetAvgSpeed@AvgSpeedKphMph            cstackBANK0  0000B7
GetAvgSpeed@KphMphFactor              cstackBANK0  0000B3
GetAvgSpeed@bIsKph                    cstackBANK0  0000B2
GetKeyStatus@KeyID                    cstackCOMRAM 000050
GetKeyStatus@KeyStatus                cstackCOMRAM 00004F
HWI_4Digit_WRITE@port                 cstackCOMRAM 000050
HWI_4Digit_WRITE@value                cstackCOMRAM 00004F
HWI_8Digit_WRITE@port                 cstackCOMRAM 000050
HWI_8Digit_WRITE@value                cstackCOMRAM 00004F
HWI_DIGI_READ@HWIread                 cstackCOMRAM 000050
HWI_DIGI_READ@pin                     cstackCOMRAM 00004F
HWIeeprom_Read@Data                   cstackCOMRAM 00004F
HWIeeprom_Read@ReadSuccess            cstackCOMRAM 000052
HWIeeprom_Read@address                cstackCOMRAM 000051
HWIeeprom_Write@Data                  cstackCOMRAM 00004F
HWIeeprom_Write@WriteSuccess          cstackCOMRAM 000051
HWIeeprom_Write@address               cstackCOMRAM 000050
ManageDrivers@LoopIndex               cstackCOMRAM 000056
MangeKeys@HWIreading                  cstackCOMRAM 000054
MangeKeys@KeyID                       cstackCOMRAM 000055
MangeKeys@KeyState                    cstackCOMRAM 000053
ReloadHWtimer@ElapsedTime             cstackCOMRAM 00003F
ReloadHWtimer@TimerId                 cstackCOMRAM 00003E
RunScheduler@TaskIndex                bssCOMRAM    000027
SchedulerTick@TaskIndex               cstackCOMRAM 00003C
SetCircumfirunce@Circum               cstackCOMRAM 00004F
SpeedCalcManage@HundredMeterReference cstackBANK0  0000B2
_APP_INITIALIZE                       text33       001412
_APP_ISR1                             text42       001588
_APP_ISR2                             text39       001582
_APP_ISR3                             text37       00157C
_APP_MANAGE                           text13       000A68
_ArrayTask                            bssCOMRAM    000001
_BCDInitialize                        text32       001562
_BCDManage7segment                    text26       000E82
_BCDNumber                            bssCOMRAM    000011
_BCDsendNumber                        text23       000B9A
_BlinkDigit                           text22       00153A
_BlinkDuration                        bssCOMRAM    000032
_BlinkFlag                            bssCOMRAM    000031
_BlinkIndex                           bssCOMRAM    000033
_CircumFactor                         dataCOMRAM   00006A
_CreateTask                           text31       0010EE
_DataArray                            bssBANK0     000080
_DataSize                             bssCOMRAM    00002D
_DisplayAlphaNumeric                  text5        00156A
_DistTravelCntr                       bssCOMRAM    000019
_EEADR                                (abs)        000FA9
_EECON1bits                           (abs)        000FA6
_EECON2                               (abs)        000FA7
_EEDATA                               (abs)        000FA8
_EEPROMaddr                           bssCOMRAM    00002E
_EepromManage                         text11       001230
_Eeprom_Read_Block                    text20       0011EE
_Eeprom_Write_Block                   text34       001094
_GetAvgSpeed                          text17       000D4C
_GetDistance                          text16       001528
_GetKeyStatus                         text15       0013B6
_HWI_4Digit_WRITE                     text28       001328
_HWI_8Digit_WRITE                     text27       0014B6
_HWI_DIGITAL_INITIALIZE               text30       0014F8
_HWI_DIGI_READ                        text10       00135A
_HWI_INTERRUPTS_INTITALIZE            text29       0012AE
_HWIeeprom_Read                       text21       001468
_HWIeeprom_Write                      text12       001388
_HWtimerCallback                      text38       001550
_HWtimerCount                         bssCOMRAM    00001D
_HwTimerOVFLcount                     bssCOMRAM    000028
_INT0IF                               (abs)        007F91
_INT1IF                               (abs)        007F80
_INTCON                               (abs)        000FF2
_INTCON2bits                          (abs)        000FF1
_INTCON3                              (abs)        000FF0
_INTCONbits                           (abs)        000FF2
_ISR                                  intcode      000008
_KeyArrayConfig                       smallconst   00061E
_KeyInternalData                      bssCOMRAM    000035
_LATC                                 (abs)        000F8B
_LATD                                 (abs)        000F8C
_LapCounter                           bssCOMRAM    00002A
_LapDistanceCounter                   bssCOMRAM    000021
_LapTimeTenthMilli                    bssCOMRAM    00001F
_ManageApplication                    text6        001570
_ManageDrivers                        text4        0014DC
_ManageSpeedCalc                      text7        001576
_MangeKeys                            text9        00063A
_NotifyFlag                           bssCOMRAM    00002B
_PORTBbits                            (abs)        000F81
_PORTC                                (abs)        000F82
_PORTD                                (abs)        000F83
_ReloadHWtimer                        text41       0012EC
_RunScheduler                         text3        000F1A
_SchedulerTick                        text36       00143E
_SensorOneNotify                      text43       001512
_SensorTwoNotify                      text40       0013E4
_SetCircumfirunce                     text14       001546
_SevenSegmentMAP                      smallconst   00062E
_SpeedCalcManage                      text8        000DEA
_SpeedCalcNotifyInitialize            text2        001590
_Start_App                            text1        001028
_T0CON                                (abs)        000FD5
_T1CON                                (abs)        000FCD
_T3CON                                (abs)        000FB1
_TMR0IE                               (abs)        007F95
_TMR0IF                               (abs)        007F92
_TMR0L                                (abs)        000FD6
_TMR1                                 (abs)        000FCE
_TMR1IE                               (abs)        007CE8
_TMR1IF                               (abs)        007CF0
_TMR2IF                               (abs)        007CF1
_TMR3H                                (abs)        000FB3
_TMR3IE                               (abs)        007D01
_TMR3IF                               (abs)        007D09
_TMR3L                                (abs)        000FB2
_TRISBbits                            (abs)        000F93
_TRISC                                (abs)        000F94
_TRISD                                (abs)        000F95
_TimerOVFLcount                       bssCOMRAM    000029
_WriteRequest                         bssCOMRAM    00002F
__CFG_BOREN$SBORDIS                   (abs)        000000
__CFG_BORV$3                          (abs)        000000
__CFG_CCP2MX$PORTC                    (abs)        000000
__CFG_CP0$OFF                         (abs)        000000
__CFG_CP1$OFF                         (abs)        000000
__CFG_CP2$OFF                         (abs)        000000
__CFG_CP3$OFF                         (abs)        000000
__CFG_CPB$OFF                         (abs)        000000
__CFG_CPD$OFF                         (abs)        000000
__CFG_EBTR0$OFF                       (abs)        000000
__CFG_EBTR1$OFF                       (abs)        000000
__CFG_EBTR2$OFF                       (abs)        000000
__CFG_EBTR3$OFF                       (abs)        000000
__CFG_EBTRB$OFF                       (abs)        000000
__CFG_FCMEN$OFF                       (abs)        000000
__CFG_IESO$OFF                        (abs)        000000
__CFG_LPT1OSC$OFF                     (abs)        000000
__CFG_LVP$ON                          (abs)        000000
__CFG_MCLRE$OFF                       (abs)        000000
__CFG_OSC$XT                          (abs)        000000
__CFG_PBADEN$OFF                      (abs)        000000
__CFG_PWRT$OFF                        (abs)        000000
__CFG_STVREN$ON                       (abs)        000000
__CFG_WDT$OFF                         (abs)        000000
__CFG_WDTPS$32768                     (abs)        000000
__CFG_WRT0$OFF                        (abs)        000000
__CFG_WRT1$OFF                        (abs)        000000
__CFG_WRT2$OFF                        (abs)        000000
__CFG_WRT3$OFF                        (abs)        000000
__CFG_WRTB$OFF                        (abs)        000000
__CFG_WRTC$OFF                        (abs)        000000
__CFG_WRTD$OFF                        (abs)        000000
__CFG_XINST$OFF                       (abs)        000000
__HRAM                                (abs)        000000
__Habs1                               abs1         000000
__Hbank0                              bank0        000000
__Hbank1                              bank1        000000
__Hbank2                              bank2        000000
__Hbank3                              bank3        000000
__Hbank4                              bank4        000000
__Hbank5                              bank5        000000
__Hbigbss                             bigbss       000000
__Hbigdata                            bigdata      000000
__Hbigram                             bigram       000000
__Hbss                                bss          000000
__HbssBANK0                           bssBANK0     000000
__HbssCOMRAM                          bssCOMRAM    000000
__Hcinit                              cinit        000000
__Hclrtext                            clrtext      000000
__Hcomram                             comram       000000
__Hconfig                             config       30000E
__Hconst                              const        000000
__HcstackBANK0                        cstackBANK0  000000
__HcstackCOMRAM                       cstackCOMRAM 000000
__Hdata                               data         000000
__HdataCOMRAM                         dataCOMRAM   000000
__Heeprom_data                        eeprom_data  000000
__Hfarbss                             farbss       000000
__Hfardata                            fardata      000000
__Hibigdata                           ibigdata     000000
__Hidata                              idata        000000
__HidataCOMRAM                        idataCOMRAM  000000
__Hidloc                              idloc        200008
__Hifardata                           ifardata     000000
__Hinit                               init         000012
__Hintcode                            intcode      00000E
__Hintcode_body                       intcode_body 000000
__Hintcodelo                          intcodelo    00000E
__Hintentry                           intentry     000000
__Hintret                             intret       000000
__Hintsave_regs                       intsave_regs 000000
__Hirdata                             irdata       000000
__Hmediumconst                        mediumconst  000000
__HnvFARRAM                           nvFARRAM     000000
__Hnvbit                              nvbit        000000
__Hnvrram                             nvrram       000000
__Hparam                              rparam       000000
__Hpowerup                            powerup      00000E
__Hram                                ram          000000
__Hramtop                             ramtop       000600
__Hrbit                               rbit         000000
__Hrbss                               rbss         000000
__Hrdata                              rdata        000000
__Hreset_vec                          reset_vec    000004
__Hrparam                             rparam       000000
__Hsfr                                sfr          000000
__Hsmallconst                         smallconst   00063A
__Hspace_0                            (abs)        30000E
__Hspace_1                            (abs)        0000CF
__Hspace_2                            (abs)        000000
__Hstack                              stack        000000
__Hstruct                             struct       000000
__Htemp                               temp         00006D
__Htext                               text         000000
__Htext0                              text0        000000
__Htext1                              text1        000000
__Htext10                             text10       000000
__Htext11                             text11       000000
__Htext12                             text12       000000
__Htext13                             text13       000000
__Htext14                             text14       000000
__Htext15                             text15       000000
__Htext16                             text16       000000
__Htext17                             text17       000000
__Htext18                             text18       000000
__Htext19                             text19       000000
__Htext2                              text2        000000
__Htext20                             text20       000000
__Htext21                             text21       000000
__Htext22                             text22       000000
__Htext23                             text23       000000
__Htext24                             text24       000000
__Htext25                             text25       000000
__Htext26                             text26       000000
__Htext27                             text27       000000
__Htext28                             text28       000000
__Htext29                             text29       000000
__Htext3                              text3        000000
__Htext30                             text30       000000
__Htext31                             text31       000000
__Htext32                             text32       000000
__Htext33                             text33       000000
__Htext34                             text34       000000
__Htext36                             text36       000000
__Htext37                             text37       000000
__Htext38                             text38       000000
__Htext39                             text39       000000
__Htext4                              text4        000000
__Htext40                             text40       000000
__Htext41                             text41       000000
__Htext42                             text42       000000
__Htext43                             text43       000000
__Htext44                             text44       000000
__Htext5                              text5        000000
__Htext6                              text6        000000
__Htext7                              text7        000000
__Htext8                              text8        000000
__Htext9                              text9        000000
__LRAM                                (abs)        000001
__Labs1                               abs1         000000
__Lbank0                              bank0        000000
__Lbank1                              bank1        000000
__Lbank2                              bank2        000000
__Lbank3                              bank3        000000
__Lbank4                              bank4        000000
__Lbank5                              bank5        000000
__Lbigbss                             bigbss       000000
__Lbigdata                            bigdata      000000
__Lbigram                             bigram       000000
__Lbss                                bss          000000
__LbssBANK0                           bssBANK0     000000
__LbssCOMRAM                          bssCOMRAM    000000
__Lcinit                              cinit        000000
__Lclrtext                            clrtext      000000
__Lcomram                             comram       000000
__Lconfig                             config       300000
__Lconst                              const        000000
__LcstackBANK0                        cstackBANK0  000000
__LcstackCOMRAM                       cstackCOMRAM 000000
__Ldata                               data         000000
__LdataCOMRAM                         dataCOMRAM   000000
__Leeprom_data                        eeprom_data  000000
__Lfarbss                             farbss       000000
__Lfardata                            fardata      000000
__Libigdata                           ibigdata     000000
__Lidata                              idata        000000
__LidataCOMRAM                        idataCOMRAM  000000
__Lidloc                              idloc        200000
__Lifardata                           ifardata     000000
__Linit                               init         00000E
__Lintcode                            intcode      000008
__Lintcode_body                       intcode_body 000000
__Lintcodelo                          intcodelo    00000E
__Lintentry                           intentry     000000
__Lintret                             intret       000000
__Lintsave_regs                       intsave_regs 000000
__Lirdata                             irdata       000000
__Lmediumconst                        mediumconst  000000
__LnvFARRAM                           nvFARRAM     000000
__Lnvbit                              nvbit        000000
__Lnvrram                             nvrram       000000
__Lparam                              rparam       000000
__Lpowerup                            powerup      00000E
__Lram                                ram          000000
__Lramtop                             ramtop       000600
__Lrbit                               rbit         000000
__Lrbss                               rbss         000000
__Lrdata                              rdata        000000
__Lreset_vec                          reset_vec    000000
__Lrparam                             rparam       000000
__Lsfr                                sfr          000000
__Lsmallconst                         smallconst   000600
__Lspace_0                            (abs)        000000
__Lspace_1                            (abs)        000000
__Lspace_2                            (abs)        000000
__Lstack                              stack        000000
__Lstruct                             struct       000000
__Ltemp                               temp         00006C
__Ltext                               text         000000
__Ltext0                              text0        000000
__Ltext1                              text1        000000
__Ltext10                             text10       000000
__Ltext11                             text11       000000
__Ltext12                             text12       000000
__Ltext13                             text13       000000
__Ltext14                             text14       000000
__Ltext15                             text15       000000
__Ltext16                             text16       000000
__Ltext17                             text17       000000
__Ltext18                             text18       000000
__Ltext19                             text19       000000
__Ltext2                              text2        000000
__Ltext20                             text20       000000
__Ltext21                             text21       000000
__Ltext22                             text22       000000
__Ltext23                             text23       000000
__Ltext24                             text24       000000
__Ltext25                             text25       000000
__Ltext26                             text26       000000
__Ltext27                             text27       000000
__Ltext28                             text28       000000
__Ltext29                             text29       000000
__Ltext3                              text3        000000
__Ltext30                             text30       000000
__Ltext31                             text31       000000
__Ltext32                             text32       000000
__Ltext33                             text33       000000
__Ltext34                             text34       000000
__Ltext36                             text36       000000
__Ltext37                             text37       000000
__Ltext38                             text38       000000
__Ltext39                             text39       000000
__Ltext4                              text4        000000
__Ltext40                             text40       000000
__Ltext41                             text41       000000
__Ltext42                             text42       000000
__Ltext43                             text43       000000
__Ltext44                             text44       000000
__Ltext5                              text5        000000
__Ltext6                              text6        000000
__Ltext7                              text7        000000
__Ltext8                              text8        000000
__Ltext9                              text9        000000
__S0                                  (abs)        30000E
__S1                                  (abs)        0000CF
__S2                                  (abs)        000000
___inthi_sp                           stack        000000
___intlo_sp                           stack        000000
___lldiv                              text19       000FA6
___lldiv@counter                      cstackCOMRAM 000067
___lldiv@dividend                     cstackCOMRAM 00005B
___lldiv@divisor                      cstackCOMRAM 00005F
___lldiv@quotient                     cstackCOMRAM 000063
___lmul                               text18       001146
___lmul@multiplicand                  cstackCOMRAM 000053
___lmul@multiplier                    cstackCOMRAM 00004F
___lmul@product                       cstackCOMRAM 000057
___lwdiv                              text25       00119C
___lwdiv@counter                      cstackCOMRAM 000053
___lwdiv@dividend                     cstackCOMRAM 00004F
___lwdiv@divisor                      cstackCOMRAM 000051
___lwdiv@quotient                     cstackCOMRAM 000054
___param_bank                         (abs)        000000
___rparam_used                        (abs)        000001
___sp                                 stack        000000
___wmul                               text24       001490
___wmul@multiplicand                  cstackCOMRAM 000051
___wmul@multiplier                    cstackCOMRAM 00004F
___wmul@product                       cstackCOMRAM 000053
__accesstop                           (abs)        000080
__activetblptr                        (abs)        000002
__end_ofAPP_INITIALIZE@F3085          smallconst   00061E
__end_of_APP_INITIALIZE               text33       00143E
__end_of_APP_ISR1                     text42       00158E
__end_of_APP_ISR2                     text39       001588
__end_of_APP_ISR3                     text37       001582
__end_of_APP_MANAGE                   text13       000B9A
__end_of_BCDInitialize                text32       00156A
__end_of_BCDManage7segment            text26       000F1A
__end_of_BCDsendNumber                text23       000C90
__end_of_BlinkDigit                   text22       001546
__end_of_CreateTask                   text31       001146
__end_of_DisplayAlphaNumeric          text5        001570
__end_of_EepromManage                 text11       001270
__end_of_Eeprom_Read_Block            text20       001230
__end_of_Eeprom_Write_Block           text34       0010EE
__end_of_GetAvgSpeed                  text17       000DEA
__end_of_GetDistance                  text16       00153A
__end_of_GetKeyStatus                 text15       0013E4
__end_of_HWI_4Digit_WRITE             text28       00135A
__end_of_HWI_8Digit_WRITE             text27       0014DC
__end_of_HWI_DIGITAL_INITIALIZE       text30       001512
__end_of_HWI_DIGI_READ                text10       001388
__end_of_HWI_INTERRUPTS_INTITALIZE    text29       0012EC
__end_of_HWIeeprom_Read               text21       001490
__end_of_HWIeeprom_Write              text12       0013B6
__end_of_HWtimerCallback              text38       00155A
__end_of_ISR                          intcode_body 000D4C
__end_of_KeyArrayConfig               smallconst   00062E
__end_of_ManageApplication            text6        001576
__end_of_ManageDrivers                text4        0014F8
__end_of_ManageSpeedCalc              text7        00157C
__end_of_MangeKeys                    text9        000A68
__end_of_ReloadHWtimer                text41       001328
__end_of_RunScheduler                 text3        000FA6
__end_of_SchedulerTick                text36       001468
__end_of_SensorOneNotify              text43       001528
__end_of_SensorTwoNotify              text40       001412
__end_of_SetCircumfirunce             text14       001550
__end_of_SevenSegmentMAP              smallconst   000639
__end_of_SpeedCalcManage              text8        000E82
__end_of_SpeedCalcNotifyInitialize    text2        001592
__end_of_Start_App                    text1        001094
__end_of___lldiv                      text19       001028
__end_of___lmul                       text18       00119C
__end_of___lwdiv                      text25       0011EE
__end_of___wmul                       text24       0014B6
__end_of__initialization              cinit        0012A0
__end_of_main                         text0        001562
__initialization                      cinit        001270
__mediumconst                         mediumconst  000000
__pbssBANK0                           bssBANK0     000080
__pbssCOMRAM                          bssCOMRAM    000001
__pcinit                              cinit        001270
__pcstackBANK0                        cstackBANK0  0000B2
__pcstackCOMRAM                       cstackCOMRAM 00003C
__pdataCOMRAM                         dataCOMRAM   00006A
__pidataCOMRAM                        idataCOMRAM  00158E
__pintcode                            intcode      000008
__pintcode_body                       intcode_body 000C90
__psmallconst                         smallconst   000600
__ptext0                              text0        00155A
__ptext1                              text1        001028
__ptext10                             text10       00135A
__ptext11                             text11       001230
__ptext12                             text12       001388
__ptext13                             text13       000A68
__ptext14                             text14       001546
__ptext15                             text15       0013B6
__ptext16                             text16       001528
__ptext17                             text17       000D4C
__ptext18                             text18       001146
__ptext19                             text19       000FA6
__ptext2                              text2        001590
__ptext20                             text20       0011EE
__ptext21                             text21       001468
__ptext22                             text22       00153A
__ptext23                             text23       000B9A
__ptext24                             text24       001490
__ptext25                             text25       00119C
__ptext26                             text26       000E82
__ptext27                             text27       0014B6
__ptext28                             text28       001328
__ptext29                             text29       0012AE
__ptext3                              text3        000F1A
__ptext30                             text30       0014F8
__ptext31                             text31       0010EE
__ptext32                             text32       001562
__ptext33                             text33       001412
__ptext34                             text34       001094
__ptext36                             text36       00143E
__ptext37                             text37       00157C
__ptext38                             text38       001550
__ptext39                             text39       001582
__ptext4                              text4        0014DC
__ptext40                             text40       0013E4
__ptext41                             text41       0012EC
__ptext42                             text42       001588
__ptext43                             text43       001512
__ptext44                             text44       000000
__ptext5                              text5        00156A
__ptext6                              text6        001570
__ptext7                              text7        001576
__ptext8                              text8        000DEA
__ptext9                              text9        00063A
__ramtop                              ramtop       000600
__size_of_APP_INITIALIZE              (abs)        000000
__size_of_APP_ISR1                    (abs)        000000
__size_of_APP_ISR2                    (abs)        000000
__size_of_APP_ISR3                    (abs)        000000
__size_of_APP_MANAGE                  (abs)        000000
__size_of_BCDInitialize               (abs)        000000
__size_of_BCDManage7segment           (abs)        000000
__size_of_BCDsendNumber               (abs)        000000
__size_of_BlinkDigit                  (abs)        000000
__size_of_CreateTask                  (abs)        000000
__size_of_DisplayAlphaNumeric         (abs)        000000
__size_of_EepromManage                (abs)        000000
__size_of_Eeprom_Read_Block           (abs)        000000
__size_of_Eeprom_Write_Block          (abs)        000000
__size_of_GetAvgSpeed                 (abs)        000000
__size_of_GetDistance                 (abs)        000000
__size_of_GetKeyStatus                (abs)        000000
__size_of_HWI_4Digit_WRITE            (abs)        000000
__size_of_HWI_8Digit_WRITE            (abs)        000000
__size_of_HWI_DIGITAL_INITIALIZE      (abs)        000000
__size_of_HWI_DIGI_READ               (abs)        000000
__size_of_HWI_INTERRUPTS_INTITALIZE   (abs)        000000
__size_of_HWIeeprom_Read              (abs)        000000
__size_of_HWIeeprom_Write             (abs)        000000
__size_of_HWtimerCallback             (abs)        000000
__size_of_ISR                         (abs)        000000
__size_of_ManageApplication           (abs)        000000
__size_of_ManageDrivers               (abs)        000000
__size_of_ManageSpeedCalc             (abs)        000000
__size_of_MangeKeys                   (abs)        000000
__size_of_ReloadHWtimer               (abs)        000000
__size_of_RunScheduler                (abs)        000000
__size_of_SchedulerTick               (abs)        000000
__size_of_SensorOneNotify             (abs)        000000
__size_of_SensorTwoNotify             (abs)        000000
__size_of_SetCircumfirunce            (abs)        000000
__size_of_SpeedCalcManage             (abs)        000000
__size_of_SpeedCalcNotifyInitialize   (abs)        000000
__size_of_Start_App                   (abs)        000000
__size_of___lldiv                     (abs)        000000
__size_of___lmul                      (abs)        000000
__size_of___lwdiv                     (abs)        000000
__size_of___wmul                      (abs)        000000
__size_of_main                        (abs)        000000
__smallconst                          smallconst   000600
_bIsAnodeUsed                         bssCOMRAM    000034
_main                                 text0        00155A
btemp                                 temp         00006C
end_of_initialization                 cinit        0012A0
int$flags                             temp         00006C
int_func                              intcode_body 000C90
intlevel0                             text         000000
intlevel1                             text         000000
intlevel2                             text         000000
intlevel3                             text         000000
stackhi                               (abs)        0005FF
stacklo                               (abs)        0000CF
start                                 init         00000E
start_initialization                  cinit        001270


FUNCTION INFORMATION:

 *************** function _main *****************
 Defined at:
		line 78 in file "main.c"
 Parameters:    Size  Location     Type
		None
 Auto vars:     Size  Location     Type
		None
 Return value:  Size  Location     Type
                  1    wreg      void 
 Registers used:
		wreg, fsr1l, fsr1h, fsr2l, fsr2h, status,2, status,0, pclath, tosl, tblptrl, tblptrh, tblptru, prodl, prodh, cstack
 Tracked objects:
		On entry : 
		On exit  : 
		Unchanged: 
 Data sizes:     COMRAM   BANK0   BANK1   BANK2   BANK3   BANK4   BANK5
      Params:         0       0       0       0       0       0       0
      Locals:         0       0       0       0       0       0       0
      Temps:          0       0       0       0       0       0       0
      Totals:         0       0       0       0       0       0       0
Total ram usage:        0 bytes
 Hardware stack levels required when called:   10
 This function calls:
		_Start_App
 This function is called by:
		Startup code after reset
 This function uses a non-reentrant model


 *************** function _Start_App *****************
 Defined at:
		line 21 in file "../../../../OS/OS_manage/OS_manage.c"
 Parameters:    Size  Location     Type
		None
 Auto vars:     Size  Location     Type
		None
 Return value:  Size  Location     Type
                  1    wreg      void 
 Registers used:
		wreg, fsr1l, fsr1h, fsr2l, fsr2h, status,2, status,0, pclath, tosl, tblptrl, tblptrh, tblptru, prodl, prodh, cstack
 Tracked objects:
		On entry : 
		On exit  : 
		Unchanged: 
 Data sizes:     COMRAM   BANK0   BANK1   BANK2   BANK3   BANK4   BANK5
      Params:         0       0       0       0       0       0       0
      Locals:         0       0       0       0       0       0       0
      Temps:          0       0       0       0       0       0       0
      Totals:         0       0       0       0       0       0       0
Total ram usage:        0 bytes
 Hardware stack levels used:    1
 Hardware stack levels required when called:    9
 This function calls:
		_APP_INITIALIZE
		_BCDInitialize
		_CreateTask
		_HWI_DIGITAL_INITIALIZE
		_HWI_INTERRUPTS_INTITALIZE
		_RunScheduler
		_SpeedCalcNotifyInitialize
 This function is called by:
		_main
 This function uses a non-reentrant model


 *************** function _SpeedCalcNotifyInitialize *****************
 Defined at:
		line 24 in file "../../../../Common/Driver/SpeedCalc/SpeedCalc.c"
 Parameters:    Size  Location     Type
		None
 Auto vars:     Size  Location     Type
		None
 Return value:  Size  Location     Type
                  1    wreg      void 
 Registers used:
		None
 Tracked objects:
		On entry : 
		On exit  : 
		Unchanged: 
 Data sizes:     COMRAM   BANK0   BANK1   BANK2   BANK3   BANK4   BANK5
      Params:         0       0       0       0       0       0       0
      Locals:         0       0       0       0       0       0       0
      Temps:          0       0       0       0       0       0       0
      Totals:         0       0       0       0       0       0       0
Total ram usage:        0 bytes
 Hardware stack levels used:    1
 Hardware stack levels required when called:    4
 This function calls:
		Nothing
 This function is called by:
		_Start_App
 This function uses a non-reentrant model


 *************** function _RunScheduler *****************
 Defined at:
		line 25 in file "../../../../OS/Scheduler/Scheduler.c"
 Parameters:    Size  Location     Type
		None
 Auto vars:     Size  Location     Type
		None
 Return value:  Size  Location     Type
                  1    wreg      void 
 Registers used:
		wreg, fsr1l, fsr1h, fsr2l, fsr2h, status,2, status,0, pclath, tosl, tblptrl, tblptrh, tblptru, prodl, prodh, cstack
 Tracked objects:
		On entry : 
		On exit  : 
		Unchanged: 
 Data sizes:     COMRAM   BANK0   BANK1   BANK2   BANK3   BANK4   BANK5
      Params:         0       0       0       0       0       0       0
      Locals:         0       0       0       0       0       0       0
      Temps:          0       2       0       0       0       0       0
      Totals:         0       2       0       0       0       0       0
Total ram usage:        2 bytes
 Hardware stack levels used:    1
 Hardware stack levels required when called:    8
 This function calls:
		_DisplayAlphaNumeric
		_ManageApplication
		_ManageDrivers
		_ManageSpeedCalc
 This function is called by:
		_Start_App
 This function uses a non-reentrant model


 *************** function _ManageDrivers *****************
 Defined at:
		line 54 in file "../../../../OS/OS_manage/OS_manage.c"
 Parameters:    Size  Location     Type
		None
 Auto vars:     Size  Location     Type
  LoopIndex       1   26[COMRAM] unsigned char 
 Return value:  Size  Location     Type
                  1    wreg      void 
 Registers used:
		wreg, fsr2l, fsr2h, status,2, status,0, tblptrl, tblptrh, tblptru, prodl, prodh, cstack
 Tracked objects:
		On entry : 
		On exit  : 
		Unchanged: 
 Data sizes:     COMRAM   BANK0   BANK1   BANK2   BANK3   BANK4   BANK5
      Params:         0       0       0       0       0       0       0
      Locals:         1       0       0       0       0       0       0
      Temps:          0       0       0       0       0       0       0
      Totals:         1       0       0       0       0       0       0
Total ram usage:        1 bytes
 Hardware stack levels used:    1
 Hardware stack levels required when called:    6
 This function calls:
		_EepromManage
		_MangeKeys
 This function is called by:
		_Start_App
		_RunScheduler
 This function uses a non-reentrant model


 *************** function _DisplayAlphaNumeric *****************
 Defined at:
		line 41 in file "../../../../OS/OS_manage/OS_manage.c"
 Parameters:    Size  Location     Type
		None
 Auto vars:     Size  Location     Type
		None
 Return value:  Size  Location     Type
                  1    wreg      void 
 Registers used:
		wreg, fsr2l, fsr2h, status,2, status,0, prodl, prodh, cstack
 Tracked objects:
		On entry : 
		On exit  : 
		Unchanged: 
 Data sizes:     COMRAM   BANK0   BANK1   BANK2   BANK3   BANK4   BANK5
      Params:         0       0       0       0       0       0       0
      Locals:         0       0       0       0       0       0       0
      Temps:          0       0       0       0       0       0       0
      Totals:         0       0       0       0       0       0       0
Total ram usage:        0 bytes
 Hardware stack levels used:    1
 Hardware stack levels required when called:    6
 This function calls:
		_BCDManage7segment
 This function is called by:
		_Start_App
		_RunScheduler
 This function uses a non-reentrant model


 *************** function _ManageApplication *****************
 Defined at:
		line 45 in file "../../../../OS/OS_manage/OS_manage.c"
 Parameters:    Size  Location     Type
		None
 Auto vars:     Size  Location     Type
		None
 Return value:  Size  Location     Type
                  1    wreg      void 
 Registers used:
		wreg, fsr1l, fsr1h, fsr2l, fsr2h, status,2, status,0, tblptrl, tblptrh, tblptru, prodl, prodh, cstack
 Tracked objects:
		On entry : 
		On exit  : 
		Unchanged: 
 Data sizes:     COMRAM   BANK0   BANK1   BANK2   BANK3   BANK4   BANK5
      Params:         0       0       0       0       0       0       0
      Locals:         0       0       0       0       0       0       0
      Temps:          0       0       0       0       0       0       0
      Totals:         0       0       0       0       0       0       0
Total ram usage:        0 bytes
 Hardware stack levels used:    1
 Hardware stack levels required when called:    7
 This function calls:
		_APP_MANAGE
 This function is called by:
		_Start_App
		_RunScheduler
 This function uses a non-reentrant model


 *************** function _ManageSpeedCalc *****************
 Defined at:
		line 49 in file "../../../../OS/OS_manage/OS_manage.c"
 Parameters:    Size  Location     Type
		None
 Auto vars:     Size  Location     Type
		None
 Return value:  Size  Location     Type
                  1    wreg      void 
 Registers used:
		wreg, status,2, status,0, prodl, prodh, cstack
 Tracked objects:
		On entry : 
		On exit  : 
		Unchanged: 
 Data sizes:     COMRAM   BANK0   BANK1   BANK2   BANK3   BANK4   BANK5
      Params:         0       0       0       0       0       0       0
      Locals:         0       0       0       0       0       0       0
      Temps:          0       0       0       0       0       0       0
      Totals:         0       0       0       0       0       0       0
Total ram usage:        0 bytes
 Hardware stack levels used:    1
 Hardware stack levels required when called:    6
 This function calls:
		_SpeedCalcManage
 This function is called by:
		_Start_App
		_RunScheduler
 This function uses a non-reentrant model


 *************** function _SpeedCalcManage *****************
 Defined at:
		line 63 in file "../../../../Common/Driver/SpeedCalc/SpeedCalc.c"
 Parameters:    Size  Location     Type
		None
 Auto vars:     Size  Location     Type
  HundredMeter    2    0[BANK0 ] unsigned short 
 Return value:  Size  Location     Type
                  1    wreg      void 
 Registers used:
		wreg, status,2, status,0, prodl, prodh, cstack
 Tracked objects:
		On entry : 
		On exit  : 
		Unchanged: 
 Data sizes:     COMRAM   BANK0   BANK1   BANK2   BANK3   BANK4   BANK5
      Params:         0       0       0       0       0       0       0
      Locals:         0       2       0       0       0       0       0
      Temps:          2       0       0       0       0       0       0
      Totals:         2       2       0       0       0       0       0
Total ram usage:        4 bytes
 Hardware stack levels used:    1
 Hardware stack levels required when called:    5
 This function calls:
		___lldiv
		___lwdiv
		___wmul
 This function is called by:
		_ManageSpeedCalc
 This function uses a non-reentrant model


 *************** function _MangeKeys *****************
 Defined at:
		line 29 in file "../../../../Common/Driver/Key/Key.c"
 Parameters:    Size  Location     Type
  KeyID           1    wreg     unsigned char 
 Auto vars:     Size  Location     Type
  KeyID           1   25[COMRAM] unsigned char 
  HWIreading      1   24[COMRAM] unsigned char 
  KeyState        1   23[COMRAM] unsigned char 
 Return value:  Size  Location     Type
                  1    wreg      void 
 Registers used:
		wreg, fsr2l, fsr2h, status,2, status,0, tblptrl, tblptrh, tblptru, prodl, prodh, cstack
 Tracked objects:
		On entry : 
		On exit  : 
		Unchanged: 
 Data sizes:     COMRAM   BANK0   BANK1   BANK2   BANK3   BANK4   BANK5
      Params:         0       0       0       0       0       0       0
      Locals:         3       0       0       0       0       0       0
      Temps:          2       0       0       0       0       0       0
      Totals:         5       0       0       0       0       0       0
Total ram usage:        5 bytes
 Hardware stack levels used:    1
 Hardware stack levels required when called:    5
 This function calls:
		_HWI_DIGI_READ
 This function is called by:
		_ManageDrivers
 This function uses a non-reentrant model


 *************** function _HWI_DIGI_READ *****************
 Defined at:
		line 91 in file "../../HWIsource/HWI_DIGITAL.c"
 Parameters:    Size  Location     Type
  pin             1    wreg     unsigned char 
 Auto vars:     Size  Location     Type
  pin             1   19[COMRAM] unsigned char 
  HWIread         1   20[COMRAM] unsigned char 
 Return value:  Size  Location     Type
                  1    wreg      unsigned char 
 Registers used:
		wreg, status,2, status,0
 Tracked objects:
		On entry : 
		On exit  : 
		Unchanged: 
 Data sizes:     COMRAM   BANK0   BANK1   BANK2   BANK3   BANK4   BANK5
      Params:         0       0       0       0       0       0       0
      Locals:         2       0       0       0       0       0       0
      Temps:          0       0       0       0       0       0       0
      Totals:         2       0       0       0       0       0       0
Total ram usage:        2 bytes
 Hardware stack levels used:    1
 Hardware stack levels required when called:    4
 This function calls:
		Nothing
 This function is called by:
		_MangeKeys
 This function uses a non-reentrant model


 *************** function _EepromManage *****************
 Defined at:
		line 71 in file "../../../../Common/Driver/EEPROM/Eeprom.c"
 Parameters:    Size  Location     Type
		None
 Auto vars:     Size  Location     Type
  WriteSuccess    1   22[COMRAM] unsigned char 
 Return value:  Size  Location     Type
                  1    wreg      void 
 Registers used:
		wreg, fsr2l, fsr2h, status,2, status,0, prodl, prodh, cstack
 Tracked objects:
		On entry : 
		On exit  : 
		Unchanged: 
 Data sizes:     COMRAM   BANK0   BANK1   BANK2   BANK3   BANK4   BANK5
      Params:         0       0       0       0       0       0       0
      Locals:         1       0       0       0       0       0       0
      Temps:          0       0       0       0       0       0       0
      Totals:         1       0       0       0       0       0       0
Total ram usage:        1 bytes
 Hardware stack levels used:    1
 Hardware stack levels required when called:    5
 This function calls:
		_HWIeeprom_Write
 This function is called by:
		_ManageDrivers
 This function uses a non-reentrant model


 *************** function _HWIeeprom_Write *****************
 Defined at:
		line 6 in file "../../HWIeeprom/HWIeeprom.c"
 Parameters:    Size  Location     Type
  address         1    wreg     unsigned char 
  Data            1   19[COMRAM] unsigned char 
 Auto vars:     Size  Location     Type
  address         1   20[COMRAM] unsigned char 
  WriteSuccess    1   21[COMRAM] unsigned char 
 Return value:  Size  Location     Type
                  1    wreg      unsigned char 
 Registers used:
		wreg, status,2
 Tracked objects:
		On entry : 
		On exit  : 
		Unchanged: 
 Data sizes:     COMRAM   BANK0   BANK1   BANK2   BANK3   BANK4   BANK5
      Params:         1       0       0       0       0       0       0
      Locals:         2       0       0       0       0       0       0
      Temps:          0       0       0       0       0       0       0
      Totals:         3       0       0       0       0       0       0
Total ram usage:        3 bytes
 Hardware stack levels used:    1
 Hardware stack levels required when called:    4
 This function calls:
		Nothing
 This function is called by:
		_EepromManage
 This function uses a non-reentrant model


 *************** function _APP_MANAGE *****************
 Defined at:
		line 19 in file "../../../../Common/App/APP.c"
 Parameters:    Size  Location     Type
		None
 Auto vars:     Size  Location     Type
  TravelledDis    4    8[BANK0 ] unsigned long 
  AvgSpeedKph     2   13[BANK0 ] unsigned short 
  keystatus       1   12[BANK0 ] unsigned char 
 Return value:  Size  Location     Type
                  1    wreg      void 
 Registers used:
		wreg, fsr1l, fsr1h, fsr2l, fsr2h, status,2, status,0, tblptrl, tblptrh, tblptru, prodl, prodh, cstack
 Tracked objects:
		On entry : 
		On exit  : 
		Unchanged: 
 Data sizes:     COMRAM   BANK0   BANK1   BANK2   BANK3   BANK4   BANK5
      Params:         0       0       0       0       0       0       0
      Locals:         0       7       0       0       0       0       0
      Temps:          0       1       0       0       0       0       0
      Totals:         0       8       0       0       0       0       0
Total ram usage:        8 bytes
 Hardware stack levels used:    1
 Hardware stack levels required when called:    6
 This function calls:
		_BCDsendNumber
		_BlinkDigit
		_Eeprom_Read_Block
		_Eeprom_Write_Block
		_GetAvgSpeed
		_GetDistance
		_GetKeyStatus
		_SetCircumfirunce
		___lmul
 This function is called by:
		_ManageApplication
 This function uses a non-reentrant model


 *************** function _SetCircumfirunce *****************
 Defined at:
		line 99 in file "../../../../Common/Driver/SpeedCalc/SpeedCalc.c"
 Parameters:    Size  Location     Type
  Circum          2   19[COMRAM] unsigned short 
 Auto vars:     Size  Location     Type
		None
 Return value:  Size  Location     Type
                  1    wreg      void 
 Registers used:
		None
 Tracked objects:
		On entry : 
		On exit  : 
		Unchanged: 
 Data sizes:     COMRAM   BANK0   BANK1   BANK2   BANK3   BANK4   BANK5
      Params:         2       0       0       0       0       0       0
      Locals:         0       0       0       0       0       0       0
      Temps:          0       0       0       0       0       0       0
      Totals:         2       0       0       0       0       0       0
Total ram usage:        2 bytes
 Hardware stack levels used:    1
 Hardware stack levels required when called:    4
 This function calls:
		Nothing
 This function is called by:
		_APP_MANAGE
 This function uses a non-reentrant model


 *************** function _GetKeyStatus *****************
 Defined at:
		line 19 in file "../../../../Common/Driver/Key/Key.c"
 Parameters:    Size  Location     Type
  KeyID           1    wreg     unsigned char 
 Auto vars:     Size  Location     Type
  KeyID           1   20[COMRAM] unsigned char 
  KeyStatus       1   19[COMRAM] unsigned char 
 Return value:  Size  Location     Type
                  1    wreg      unsigned char 
 Registers used:
		wreg, fsr2l, fsr2h, status,2, status,0, prodl, prodh
 Tracked objects:
		On entry : 
		On exit  : 
		Unchanged: 
 Data sizes:     COMRAM   BANK0   BANK1   BANK2   BANK3   BANK4   BANK5
      Params:         0       0       0       0       0       0       0
      Locals:         2       0       0       0       0       0       0
      Temps:          0       0       0       0       0       0       0
      Totals:         2       0       0       0       0       0       0
Total ram usage:        2 bytes
 Hardware stack levels used:    1
 Hardware stack levels required when called:    4
 This function calls:
		Nothing
 This function is called by:
		_APP_MANAGE
 This function uses a non-reentrant model


 *************** function _GetDistance *****************
 Defined at:
		line 93 in file "../../../../Common/Driver/SpeedCalc/SpeedCalc.c"
 Parameters:    Size  Location     Type
		None
 Auto vars:     Size  Location     Type
		None
 Return value:  Size  Location     Type
                  4   19[COMRAM] unsigned long 
 Registers used:
		None
 Tracked objects:
		On entry : 
		On exit  : 
		Unchanged: 
 Data sizes:     COMRAM   BANK0   BANK1   BANK2   BANK3   BANK4   BANK5
      Params:         4       0       0       0       0       0       0
      Locals:         0       0       0       0       0       0       0
      Temps:          0       0       0       0       0       0       0
      Totals:         4       0       0       0       0       0       0
Total ram usage:        4 bytes
 Hardware stack levels used:    1
 Hardware stack levels required when called:    4
 This function calls:
		Nothing
 This function is called by:
		_APP_MANAGE
 This function uses a non-reentrant model


 *************** function _GetAvgSpeed *****************
 Defined at:
		line 105 in file "../../../../Common/Driver/SpeedCalc/SpeedCalc.c"
 Parameters:    Size  Location     Type
  bIsKph          1    wreg     unsigned char 
 Auto vars:     Size  Location     Type
  bIsKph          1    0[BANK0 ] unsigned char 
  KphMphFactor    4    1[BANK0 ] unsigned long 
  AvgSpeedKphM    2    5[BANK0 ] unsigned short 
 Return value:  Size  Location     Type
                  2   44[COMRAM] unsigned short 
 Registers used:
		wreg, status,2, status,0, cstack
 Tracked objects:
		On entry : 
		On exit  : 
		Unchanged: 
 Data sizes:     COMRAM   BANK0   BANK1   BANK2   BANK3   BANK4   BANK5
      Params:         2       0       0       0       0       0       0
      Locals:         0       7       0       0       0       0       0
      Temps:          0       0       0       0       0       0       0
      Totals:         2       7       0       0       0       0       0
Total ram usage:        9 bytes
 Hardware stack levels used:    1
 Hardware stack levels required when called:    5
 This function calls:
		___lldiv
		___lmul
 This function is called by:
		_APP_MANAGE
 This function uses a non-reentrant model


 *************** function ___lmul *****************
 Defined at:
		line 15 in file "C:\Program Files\Microchip\xc8\v1.41\sources\common\Umul32.c"
 Parameters:    Size  Location     Type
  multiplier      4   19[COMRAM] unsigned long 
  multiplicand    4   23[COMRAM] unsigned long 
 Auto vars:     Size  Location     Type
  product         4   27[COMRAM] unsigned long 
 Return value:  Size  Location     Type
                  4   19[COMRAM] unsigned long 
 Registers used:
		wreg, status,2, status,0
 Tracked objects:
		On entry : 
		On exit  : 
		Unchanged: 
 Data sizes:     COMRAM   BANK0   BANK1   BANK2   BANK3   BANK4   BANK5
      Params:         8       0       0       0       0       0       0
      Locals:         4       0       0       0       0       0       0
      Temps:          0       0       0       0       0       0       0
      Totals:        12       0       0       0       0       0       0
Total ram usage:       12 bytes
 Hardware stack levels used:    1
 Hardware stack levels required when called:    4
 This function calls:
		Nothing
 This function is called by:
		_APP_MANAGE
		_GetAvgSpeed
 This function uses a non-reentrant model


 *************** function ___lldiv *****************
 Defined at:
		line 8 in file "C:\Program Files\Microchip\xc8\v1.41\sources\common\lldiv.c"
 Parameters:    Size  Location     Type
  dividend        4   31[COMRAM] unsigned long 
  divisor         4   35[COMRAM] unsigned long 
 Auto vars:     Size  Location     Type
  quotient        4   39[COMRAM] unsigned long 
  counter         1   43[COMRAM] unsigned char 
 Return value:  Size  Location     Type
                  4   31[COMRAM] unsigned long 
 Registers used:
		wreg, status,2, status,0
 Tracked objects:
		On entry : 
		On exit  : 
		Unchanged: 
 Data sizes:     COMRAM   BANK0   BANK1   BANK2   BANK3   BANK4   BANK5
      Params:         8       0       0       0       0       0       0
      Locals:         5       0       0       0       0       0       0
      Temps:          0       0       0       0       0       0       0
      Totals:        13       0       0       0       0       0       0
Total ram usage:       13 bytes
 Hardware stack levels used:    1
 Hardware stack levels required when called:    4
 This function calls:
		Nothing
 This function is called by:
		_SpeedCalcManage
		_GetAvgSpeed
 This function uses a non-reentrant model


 *************** function _Eeprom_Read_Block *****************
 Defined at:
		line 39 in file "../../../../Common/Driver/EEPROM/Eeprom.c"
 Parameters:    Size  Location     Type
  address         1    wreg     unsigned char 
  DataPtr         2   23[COMRAM] PTR unsigned char 
		 -> APP_MANAGE@AvgSpeedKph(2), 
  BlockSize       1   25[COMRAM] unsigned char 
 Auto vars:     Size  Location     Type
  address         1   27[COMRAM] unsigned char 
  LoopIndex       1   29[COMRAM] unsigned char 
  ReadSuccess     1   28[COMRAM] unsigned char 
  ReadGranted     1   26[COMRAM] unsigned char 
 Return value:  Size  Location     Type
                  1    wreg      unsigned char 
 Registers used:
		wreg, fsr2l, fsr2h, status,2, status,0, prodl, prodh, cstack
 Tracked objects:
		On entry : 
		On exit  : 
		Unchanged: 
 Data sizes:     COMRAM   BANK0   BANK1   BANK2   BANK3   BANK4   BANK5
      Params:         3       0       0       0       0       0       0
      Locals:         4       0       0       0       0       0       0
      Temps:          0       0       0       0       0       0       0
      Totals:         7       0       0       0       0       0       0
Total ram usage:        7 bytes
 Hardware stack levels used:    1
 Hardware stack levels required when called:    5
 This function calls:
		_HWIeeprom_Read
 This function is called by:
		_APP_MANAGE
 This function uses a non-reentrant model


 *************** function _HWIeeprom_Read *****************
 Defined at:
		line 31 in file "../../HWIeeprom/HWIeeprom.c"
 Parameters:    Size  Location     Type
  address         1    wreg     unsigned char 
  Data            2   19[COMRAM] PTR unsigned char 
		 -> APP_MANAGE@AvgSpeedKph(2), 
 Auto vars:     Size  Location     Type
  address         1   21[COMRAM] unsigned char 
  ReadSuccess     1   22[COMRAM] unsigned char 
 Return value:  Size  Location     Type
                  1    wreg      unsigned char 
 Registers used:
		wreg, fsr2l, fsr2h, status,2
 Tracked objects:
		On entry : 
		On exit  : 
		Unchanged: 
 Data sizes:     COMRAM   BANK0   BANK1   BANK2   BANK3   BANK4   BANK5
      Params:         2       0       0       0       0       0       0
      Locals:         2       0       0       0       0       0       0
      Temps:          0       0       0       0       0       0       0
      Totals:         4       0       0       0       0       0       0
Total ram usage:        4 bytes
 Hardware stack levels used:    1
 Hardware stack levels required when called:    4
 This function calls:
		Nothing
 This function is called by:
		_Eeprom_Read_Block
 This function uses a non-reentrant model


 *************** function _BlinkDigit *****************
 Defined at:
		line 121 in file "../../../../Common/Driver/BCDdisplay/BCDdisplay.c"
 Parameters:    Size  Location     Type
  Index           1    wreg     unsigned char 
  duration        1   19[COMRAM] unsigned char 
 Auto vars:     Size  Location     Type
  Index           1   20[COMRAM] unsigned char 
 Return value:  Size  Location     Type
                  1    wreg      void 
 Registers used:
		wreg
 Tracked objects:
		On entry : 
		On exit  : 
		Unchanged: 
 Data sizes:     COMRAM   BANK0   BANK1   BANK2   BANK3   BANK4   BANK5
      Params:         1       0       0       0       0       0       0
      Locals:         1       0       0       0       0       0       0
      Temps:          0       0       0       0       0       0       0
      Totals:         2       0       0       0       0       0       0
Total ram usage:        2 bytes
 Hardware stack levels used:    1
 Hardware stack levels required when called:    4
 This function calls:
		Nothing
 This function is called by:
		_APP_MANAGE
 This function uses a non-reentrant model


 *************** function _BCDsendNumber *****************
 Defined at:
		line 34 in file "../../../../Common/Driver/BCDdisplay/BCDdisplay.c"
 Parameters:    Size  Location     Type
  Number          2   26[COMRAM] unsigned short 
  DecimalPlace    1   28[COMRAM] unsigned char 
 Auto vars:     Size  Location     Type
  Buffer          2   35[COMRAM] unsigned short 
  Output          2   33[COMRAM] unsigned short 
  Link            2   31[COMRAM] unsigned short 
  LoopIndex       1   37[COMRAM] unsigned char 
 Return value:  Size  Location     Type
                  1    wreg      void 
 Registers used:
		wreg, fsr2l, fsr2h, status,2, status,0, tblptrl, tblptrh, tblptru, prodl, prodh, cstack
 Tracked objects:
		On entry : 
		On exit  : 
		Unchanged: 
 Data sizes:     COMRAM   BANK0   BANK1   BANK2   BANK3   BANK4   BANK5
      Params:         3       0       0       0       0       0       0
      Locals:         7       0       0       0       0       0       0
      Temps:          2       0       0       0       0       0       0
      Totals:        12       0       0       0       0       0       0
Total ram usage:       12 bytes
 Hardware stack levels used:    1
 Hardware stack levels required when called:    5
 This function calls:
		___lwdiv
		___wmul
 This function is called by:
		_APP_MANAGE
 This function uses a non-reentrant model


 *************** function ___wmul *****************
 Defined at:
		line 15 in file "C:\Program Files\Microchip\xc8\v1.41\sources\common\Umul16.c"
 Parameters:    Size  Location     Type
  multiplier      2   19[COMRAM] unsigned int 
  multiplicand    2   21[COMRAM] unsigned int 
 Auto vars:     Size  Location     Type
  product         2   23[COMRAM] unsigned int 
 Return value:  Size  Location     Type
                  2   19[COMRAM] unsigned int 
 Registers used:
		wreg, status,2, status,0, prodl, prodh
 Tracked objects:
		On entry : 
		On exit  : 
		Unchanged: 
 Data sizes:     COMRAM   BANK0   BANK1   BANK2   BANK3   BANK4   BANK5
      Params:         4       0       0       0       0       0       0
      Locals:         2       0       0       0       0       0       0
      Temps:          0       0       0       0       0       0       0
      Totals:         6       0       0       0       0       0       0
Total ram usage:        6 bytes
 Hardware stack levels used:    1
 Hardware stack levels required when called:    4
 This function calls:
		Nothing
 This function is called by:
		_BCDsendNumber
		_SpeedCalcManage
 This function uses a non-reentrant model


 *************** function ___lwdiv *****************
 Defined at:
		line 8 in file "C:\Program Files\Microchip\xc8\v1.41\sources\common\lwdiv.c"
 Parameters:    Size  Location     Type
  dividend        2   19[COMRAM] unsigned int 
  divisor         2   21[COMRAM] unsigned int 
 Auto vars:     Size  Location     Type
  quotient        2   24[COMRAM] unsigned int 
  counter         1   23[COMRAM] unsigned char 
 Return value:  Size  Location     Type
                  2   19[COMRAM] unsigned int 
 Registers used:
		wreg, status,2, status,0
 Tracked objects:
		On entry : 
		On exit  : 
		Unchanged: 
 Data sizes:     COMRAM   BANK0   BANK1   BANK2   BANK3   BANK4   BANK5
      Params:         4       0       0       0       0       0       0
      Locals:         3       0       0       0       0       0       0
      Temps:          0       0       0       0       0       0       0
      Totals:         7       0       0       0       0       0       0
Total ram usage:        7 bytes
 Hardware stack levels used:    1
 Hardware stack levels required when called:    4
 This function calls:
		Nothing
 This function is called by:
		_BCDsendNumber
		_SpeedCalcManage
 This function uses a non-reentrant model


 *************** function _BCDManage7segment *****************
 Defined at:
		line 65 in file "../../../../Common/Driver/BCDdisplay/BCDdisplay.c"
 Parameters:    Size  Location     Type
		None
 Auto vars:     Size  Location     Type
  BCD             1   24[COMRAM] unsigned char 
  Index           1   23[COMRAM] unsigned char 
 Return value:  Size  Location     Type
                  1    wreg      void 
 Registers used:
		wreg, fsr2l, fsr2h, status,2, status,0, prodl, prodh, cstack
 Tracked objects:
		On entry : 
		On exit  : 
		Unchanged: 
 Data sizes:     COMRAM   BANK0   BANK1   BANK2   BANK3   BANK4   BANK5
      Params:         0       0       0       0       0       0       0
      Locals:         2       0       0       0       0       0       0
      Temps:          2       0       0       0       0       0       0
      Totals:         4       0       0       0       0       0       0
Total ram usage:        4 bytes
 Hardware stack levels used:    1
 Hardware stack levels required when called:    5
 This function calls:
		_HWI_4Digit_WRITE
		_HWI_8Digit_WRITE
 This function is called by:
		_DisplayAlphaNumeric
 This function uses a non-reentrant model


 *************** function _HWI_8Digit_WRITE *****************
 Defined at:
		line 41 in file "../../HWIsource/HWI_DIGITAL.c"
 Parameters:    Size  Location     Type
  port            1    wreg     unsigned char 
  value           1   19[COMRAM] unsigned char 
 Auto vars:     Size  Location     Type
  port            1   20[COMRAM] unsigned char 
 Return value:  Size  Location     Type
                  1    wreg      void 
 Registers used:
		wreg, status,2, status,0
 Tracked objects:
		On entry : 
		On exit  : 
		Unchanged: 
 Data sizes:     COMRAM   BANK0   BANK1   BANK2   BANK3   BANK4   BANK5
      Params:         1       0       0       0       0       0       0
      Locals:         1       0       0       0       0       0       0
      Temps:          0       0       0       0       0       0       0
      Totals:         2       0       0       0       0       0       0
Total ram usage:        2 bytes
 Hardware stack levels used:    1
 Hardware stack levels required when called:    4
 This function calls:
		Nothing
 This function is called by:
		_BCDManage7segment
 This function uses a non-reentrant model


 *************** function _HWI_4Digit_WRITE *****************
 Defined at:
		line 8 in file "../../HWIsource/HWI_DIGITAL.c"
 Parameters:    Size  Location     Type
  port            1    wreg     unsigned char 
  value           1   19[COMRAM] unsigned char 
 Auto vars:     Size  Location     Type
  port            1   20[COMRAM] unsigned char 
 Return value:  Size  Location     Type
                  1    wreg      void 
 Registers used:
		wreg, status,2, status,0
 Tracked objects:
		On entry : 
		On exit  : 
		Unchanged: 
 Data sizes:     COMRAM   BANK0   BANK1   BANK2   BANK3   BANK4   BANK5
      Params:         1       0       0       0       0       0       0
      Locals:         1       0       0       0       0       0       0
      Temps:          0       0       0       0       0       0       0
      Totals:         2       0       0       0       0       0       0
Total ram usage:        2 bytes
 Hardware stack levels used:    1
 Hardware stack levels required when called:    4
 This function calls:
		Nothing
 This function is called by:
		_BCDManage7segment
 This function uses a non-reentrant model


 *************** function _HWI_INTERRUPTS_INTITALIZE *****************
 Defined at:
		line 10 in file "../../HWIsource/HWI_Interrupts.c"
 Parameters:    Size  Location     Type
		None
 Auto vars:     Size  Location     Type
		None
 Return value:  Size  Location     Type
                  1    wreg      void 
 Registers used:
		wreg, status,2
 Tracked objects:
		On entry : 
		On exit  : 
		Unchanged: 
 Data sizes:     COMRAM   BANK0   BANK1   BANK2   BANK3   BANK4   BANK5
      Params:         0       0       0       0       0       0       0
      Locals:         0       0       0       0       0       0       0
      Temps:          0       0       0       0       0       0       0
      Totals:         0       0       0       0       0       0       0
Total ram usage:        0 bytes
 Hardware stack levels used:    1
 Hardware stack levels required when called:    4
 This function calls:
		Nothing
 This function is called by:
		_Start_App
 This function uses a non-reentrant model


 *************** function _HWI_DIGITAL_INITIALIZE *****************
 Defined at:
		line 74 in file "../../HWIsource/HWI_DIGITAL.c"
 Parameters:    Size  Location     Type
		None
 Auto vars:     Size  Location     Type
		None
 Return value:  Size  Location     Type
                  1    wreg      void 
 Registers used:
		wreg, status,2
 Tracked objects:
		On entry : 
		On exit  : 
		Unchanged: 
 Data sizes:     COMRAM   BANK0   BANK1   BANK2   BANK3   BANK4   BANK5
      Params:         0       0       0       0       0       0       0
      Locals:         0       0       0       0       0       0       0
      Temps:          0       0       0       0       0       0       0
      Totals:         0       0       0       0       0       0       0
Total ram usage:        0 bytes
 Hardware stack levels used:    1
 Hardware stack levels required when called:    4
 This function calls:
		Nothing
 This function is called by:
		_Start_App
 This function uses a non-reentrant model


 *************** function _CreateTask *****************
 Defined at:
		line 6 in file "../../../../OS/Scheduler/Scheduler.c"
 Parameters:    Size  Location     Type
  MangeFunctio    2   19[COMRAM] PTR FTN()void 
		 -> ManageDrivers(1), DisplayAlphaNumeric(1), ManageApplication(1), ManageSpeedCalc(1), 
  TaskId          1   21[COMRAM] unsigned char 
  Period          1   22[COMRAM] unsigned char 
 Auto vars:     Size  Location     Type
		None
 Return value:  Size  Location     Type
                  1    wreg      void 
 Registers used:
		wreg, fsr2l, fsr2h, status,2, status,0, prodl, prodh
 Tracked objects:
		On entry : 
		On exit  : 
		Unchanged: 
 Data sizes:     COMRAM   BANK0   BANK1   BANK2   BANK3   BANK4   BANK5
      Params:         4       0       0       0       0       0       0
      Locals:         0       0       0       0       0       0       0
      Temps:          0       0       0       0       0       0       0
      Totals:         4       0       0       0       0       0       0
Total ram usage:        4 bytes
 Hardware stack levels used:    1
 Hardware stack levels required when called:    4
 This function calls:
		Nothing
 This function is called by:
		_Start_App
 This function uses a non-reentrant model


 *************** function _BCDInitialize *****************
 Defined at:
		line 29 in file "../../../../Common/Driver/BCDdisplay/BCDdisplay.c"
 Parameters:    Size  Location     Type
  bIsCommonAno    1    wreg     unsigned char 
 Auto vars:     Size  Location     Type
  bIsCommonAno    1   19[COMRAM] unsigned char 
 Return value:  Size  Location     Type
                  1    wreg      void 
 Registers used:
		wreg
 Tracked objects:
		On entry : 
		On exit  : 
		Unchanged: 
 Data sizes:     COMRAM   BANK0   BANK1   BANK2   BANK3   BANK4   BANK5
      Params:         0       0       0       0       0       0       0
      Locals:         1       0       0       0       0       0       0
      Temps:          0       0       0       0       0       0       0
      Totals:         1       0       0       0       0       0       0
Total ram usage:        1 bytes
 Hardware stack levels used:    1
 Hardware stack levels required when called:    4
 This function calls:
		Nothing
 This function is called by:
		_Start_App
 This function uses a non-reentrant model


 *************** function _APP_INITIALIZE *****************
 Defined at:
		line 13 in file "../../../../Common/App/APP.c"
 Parameters:    Size  Location     Type
		None
 Auto vars:     Size  Location     Type
  stringX        29    0[BANK0 ] const unsigned char [29]
 Return value:  Size  Location     Type
                  1    wreg      void 
 Registers used:
		wreg, fsr1l, fsr1h, fsr2l, fsr2h, status,2, status,0, tblptrl, tblptrh, tblptru, prodl, prodh, cstack
 Tracked objects:
		On entry : 
		On exit  : 
		Unchanged: 
 Data sizes:     COMRAM   BANK0   BANK1   BANK2   BANK3   BANK4   BANK5
      Params:         0       0       0       0       0       0       0
      Locals:         0      29       0       0       0       0       0
      Temps:          0       0       0       0       0       0       0
      Totals:         0      29       0       0       0       0       0
Total ram usage:       29 bytes
 Hardware stack levels used:    1
 Hardware stack levels required when called:    5
 This function calls:
		_Eeprom_Write_Block
 This function is called by:
		_Start_App
 This function uses a non-reentrant model


 *************** function _Eeprom_Write_Block *****************
 Defined at:
		line 12 in file "../../../../Common/Driver/EEPROM/Eeprom.c"
 Parameters:    Size  Location     Type
  address         1    wreg     unsigned char 
  DataPtr         2   19[COMRAM] PTR unsigned char 
		 -> APP_MANAGE@AvgSpeedKph(2), APP_INITIALIZE@stringX(29), 
  BlockSize       1   21[COMRAM] unsigned char 
 Auto vars:     Size  Location     Type
  address         1   23[COMRAM] unsigned char 
  LoopIndex       1   24[COMRAM] unsigned char 
  WriteGranted    1   22[COMRAM] unsigned char 
 Return value:  Size  Location     Type
                  1    wreg      unsigned char 
 Registers used:
		wreg, fsr1l, fsr1h, fsr2l, fsr2h, status,2, status,0, prodl, prodh
 Tracked objects:
		On entry : 
		On exit  : 
		Unchanged: 
 Data sizes:     COMRAM   BANK0   BANK1   BANK2   BANK3   BANK4   BANK5
      Params:         3       0       0       0       0       0       0
      Locals:         3       0       0       0       0       0       0
      Temps:          0       0       0       0       0       0       0
      Totals:         6       0       0       0       0       0       0
Total ram usage:        6 bytes
 Hardware stack levels used:    1
 Hardware stack levels required when called:    4
 This function calls:
		Nothing
 This function is called by:
		_APP_INITIALIZE
		_APP_MANAGE
 This function uses a non-reentrant model


 *************** function _ISR *****************
 Defined at:
		line 52 in file "../../HWIsource/HWI_Interrupts.c"
 Parameters:    Size  Location     Type
		None
 Auto vars:     Size  Location     Type
		None
 Return value:  Size  Location     Type
                  1    wreg      void 
 Registers used:
		wreg, fsr2l, fsr2h, status,2, status,0, prodl, prodh, cstack
 Tracked objects:
		On entry : 
		On exit  : 
		Unchanged: 
 Data sizes:     COMRAM   BANK0   BANK1   BANK2   BANK3   BANK4   BANK5
      Params:         0       0       0       0       0       0       0
      Locals:         0       0       0       0       0       0       0
      Temps:         14       0       0       0       0       0       0
      Totals:        14       0       0       0       0       0       0
Total ram usage:       14 bytes
 Hardware stack levels used:    1
 Hardware stack levels required when called:    3
 This function calls:
		_APP_ISR1
		_APP_ISR2
		_APP_ISR3
		_SchedulerTick
 This function is called by:
		Interrupt level 2
 This function uses a non-reentrant model


 *************** function _SchedulerTick *****************
 Defined at:
		line 16 in file "../../../../OS/Scheduler/Scheduler.c"
 Parameters:    Size  Location     Type
		None
 Auto vars:     Size  Location     Type
  TaskIndex       1    0[COMRAM] unsigned char 
 Return value:  Size  Location     Type
                  1    wreg      void 
 Registers used:
		wreg, fsr2l, fsr2h, status,2, status,0, prodl, prodh
 Tracked objects:
		On entry : 
		On exit  : 
		Unchanged: 
 Data sizes:     COMRAM   BANK0   BANK1   BANK2   BANK3   BANK4   BANK5
      Params:         0       0       0       0       0       0       0
      Locals:         1       0       0       0       0       0       0
      Temps:          0       0       0       0       0       0       0
      Totals:         1       0       0       0       0       0       0
Total ram usage:        1 bytes
 Hardware stack levels used:    1
 This function calls:
		Nothing
 This function is called by:
		_ISR
 This function uses a non-reentrant model


 *************** function _APP_ISR3 *****************
 Defined at:
		line 18 in file "../../../../Common/Interrupts/AppInterrupts.c"
 Parameters:    Size  Location     Type
		None
 Auto vars:     Size  Location     Type
		None
 Return value:  Size  Location     Type
                  1    wreg      void 
 Registers used:
		wreg, status,2, status,0, cstack
 Tracked objects:
		On entry : 
		On exit  : 
		Unchanged: 
 Data sizes:     COMRAM   BANK0   BANK1   BANK2   BANK3   BANK4   BANK5
      Params:         0       0       0       0       0       0       0
      Locals:         0       0       0       0       0       0       0
      Temps:          0       0       0       0       0       0       0
      Totals:         0       0       0       0       0       0       0
Total ram usage:        0 bytes
 Hardware stack levels used:    1
 Hardware stack levels required when called:    1
 This function calls:
		_HWtimerCallback
 This function is called by:
		_ISR
 This function uses a non-reentrant model


 *************** function _HWtimerCallback *****************
 Defined at:
		line 133 in file "../../../../Common/Driver/SpeedCalc/SpeedCalc.c"
 Parameters:    Size  Location     Type
		None
 Auto vars:     Size  Location     Type
		None
 Return value:  Size  Location     Type
                  1    wreg      void 
 Registers used:
		wreg, status,2, status,0
 Tracked objects:
		On entry : 
		On exit  : 
		Unchanged: 
 Data sizes:     COMRAM   BANK0   BANK1   BANK2   BANK3   BANK4   BANK5
      Params:         0       0       0       0       0       0       0
      Locals:         0       0       0       0       0       0       0
      Temps:          0       0       0       0       0       0       0
      Totals:         0       0       0       0       0       0       0
Total ram usage:        0 bytes
 Hardware stack levels used:    1
 This function calls:
		Nothing
 This function is called by:
		_APP_ISR3
 This function uses a non-reentrant model


 *************** function _APP_ISR2 *****************
 Defined at:
		line 13 in file "../../../../Common/Interrupts/AppInterrupts.c"
 Parameters:    Size  Location     Type
		None
 Auto vars:     Size  Location     Type
		None
 Return value:  Size  Location     Type
                  1    wreg      void 
 Registers used:
		wreg, status,2, status,0, cstack
 Tracked objects:
		On entry : 
		On exit  : 
		Unchanged: 
 Data sizes:     COMRAM   BANK0   BANK1   BANK2   BANK3   BANK4   BANK5
      Params:         0       0       0       0       0       0       0
      Locals:         0       0       0       0       0       0       0
      Temps:          0       0       0       0       0       0       0
      Totals:         0       0       0       0       0       0       0
Total ram usage:        0 bytes
 Hardware stack levels used:    1
 Hardware stack levels required when called:    2
 This function calls:
		_SensorTwoNotify
 This function is called by:
		_ISR
 This function uses a non-reentrant model


 *************** function _SensorTwoNotify *****************
 Defined at:
		line 44 in file "../../../../Common/Driver/SpeedCalc/SpeedCalc.c"
 Parameters:    Size  Location     Type
		None
 Auto vars:     Size  Location     Type
		None
 Return value:  Size  Location     Type
                  1    wreg      void 
 Registers used:
		wreg, status,2, status,0, cstack
 Tracked objects:
		On entry : 
		On exit  : 
		Unchanged: 
 Data sizes:     COMRAM   BANK0   BANK1   BANK2   BANK3   BANK4   BANK5
      Params:         0       0       0       0       0       0       0
      Locals:         0       0       0       0       0       0       0
      Temps:          0       0       0       0       0       0       0
      Totals:         0       0       0       0       0       0       0
Total ram usage:        0 bytes
 Hardware stack levels used:    1
 Hardware stack levels required when called:    1
 This function calls:
		_ReloadHWtimer
 This function is called by:
		_APP_ISR2
 This function uses a non-reentrant model


 *************** function _ReloadHWtimer *****************
 Defined at:
		line 91 in file "../../HWIsource/HWI_Interrupts.c"
 Parameters:    Size  Location     Type
  TimerId         1    wreg     unsigned char 
 Auto vars:     Size  Location     Type
  TimerId         1    2[COMRAM] unsigned char 
  ElapsedTime     2    3[COMRAM] unsigned short 
 Return value:  Size  Location     Type
                  2    0[COMRAM] unsigned short 
 Registers used:
		wreg, status,2, status,0
 Tracked objects:
		On entry : 
		On exit  : 
		Unchanged: 
 Data sizes:     COMRAM   BANK0   BANK1   BANK2   BANK3   BANK4   BANK5
      Params:         2       0       0       0       0       0       0
      Locals:         3       0       0       0       0       0       0
      Temps:          0       0       0       0       0       0       0
      Totals:         5       0       0       0       0       0       0
Total ram usage:        5 bytes
 Hardware stack levels used:    1
 This function calls:
		Nothing
 This function is called by:
		_SensorTwoNotify
 This function uses a non-reentrant model


 *************** function _APP_ISR1 *****************
 Defined at:
		line 8 in file "../../../../Common/Interrupts/AppInterrupts.c"
 Parameters:    Size  Location     Type
		None
 Auto vars:     Size  Location     Type
		None
 Return value:  Size  Location     Type
                  1    wreg      void 
 Registers used:
		wreg, status,2, status,0, cstack
 Tracked objects:
		On entry : 
		On exit  : 
		Unchanged: 
 Data sizes:     COMRAM   BANK0   BANK1   BANK2   BANK3   BANK4   BANK5
      Params:         0       0       0       0       0       0       0
      Locals:         0       0       0       0       0       0       0
      Temps:          0       0       0       0       0       0       0
      Totals:         0       0       0       0       0       0       0
Total ram usage:        0 bytes
 Hardware stack levels used:    1
 Hardware stack levels required when called:    1
 This function calls:
		_SensorOneNotify
 This function is called by:
		_ISR
 This function uses a non-reentrant model


 *************** function _SensorOneNotify *****************
 Defined at:
		line 29 in file "../../../../Common/Driver/SpeedCalc/SpeedCalc.c"
 Parameters:    Size  Location     Type
		None
 Auto vars:     Size  Location     Type
		None
 Return value:  Size  Location     Type
                  1    wreg      void 
 Registers used:
		wreg, status,2, status,0
 Tracked objects:
		On entry : 
		On exit  : 
		Unchanged: 
 Data sizes:     COMRAM   BANK0   BANK1   BANK2   BANK3   BANK4   BANK5
      Params:         0       0       0       0       0       0       0
      Locals:         0       0       0       0       0       0       0
      Temps:          0       0       0       0       0       0       0
      Totals:         0       0       0       0       0       0       0
Total ram usage:        0 bytes
 Hardware stack levels used:    1
 This function calls:
		Nothing
 This function is called by:
		_APP_ISR1
 This function uses a non-reentrant model



MODULE INFORMATION

Module		Function		Class		Link	Load	Size
../../../../Common/Interrupts/AppInterrupts.c
		_APP_ISR1      		CODE           	1588	0000	7
		_APP_ISR2      		CODE           	1582	0000	7
		_APP_ISR3      		CODE           	157C	0000	7

../../../../Common/Interrupts/AppInterrupts.c estimated size: 21

../../../../Common/Driver/BCDdisplay/BCDdisplay.c
		_BlinkDigit    		CODE           	153A	0000	13
		_BCDsendNumber 		CODE           	0B9A	0000	247
		_BCDInitialize 		CODE           	1562	0000	9
		_BCDManage7segment		CODE           	0E82	0000	153

../../../../Common/Driver/BCDdisplay/BCDdisplay.c estimated size: 422

C:\Program Files\Microchip\xc8\v1.41\sources\common\Umul32.c
		___lmul        		CODE           	1146	0000	87

C:\Program Files\Microchip\xc8\v1.41\sources\common\Umul32.c estimated size: 87

../../../../Common/Driver/Key/Key.c
		_MangeKeys     		CODE           	063A	0000	1071
		_GetKeyStatus  		CODE           	13B6	0000	47

../../../../Common/Driver/Key/Key.c estimated size: 1118

../../HWIeeprom/HWIeeprom.c
		_HWIeeprom_Read		CODE           	1468	0000	41
		_HWIeeprom_Write		CODE           	1388	0000	47

../../HWIeeprom/HWIeeprom.c estimated size: 88

../../../../OS/OS_manage/OS_manage.c
		_ManageSpeedCalc		CODE           	1576	0000	7
		_ManageDrivers 		CODE           	14DC	0000	29
		_ManageApplication		CODE           	1570	0000	7
		_DisplayAlphaNumeric		CODE           	156A	0000	7
		_Start_App     		CODE           	1028	0000	109

../../../../OS/OS_manage/OS_manage.c estimated size: 159

../../HWIsource/HWI_Interrupts.c
		_ReloadHWtimer 		CODE           	12EC	0000	61
		_ISR           		CODE           	0008	0000	195
		_HWI_INTERRUPTS_INTITALIZE		CODE           	12AE	0000	63

../../HWIsource/HWI_Interrupts.c estimated size: 319

shared
		_SevenSegmentMAP		SMALLCONST     	062E	0000	12
		__initialization		CODE           	1270	0000	49
		_KeyArrayConfig		SMALLCONST     	061E	0000	17
		APP_INITIALIZE@F3085		SMALLCONST     	0601	0000	30

shared estimated size: 108

C:\Program Files\Microchip\xc8\v1.41\sources\common\lwdiv.c
		___lwdiv       		CODE           	119C	0000	83

C:\Program Files\Microchip\xc8\v1.41\sources\common\lwdiv.c estimated size: 83

C:\Program Files\Microchip\xc8\v1.41\sources\common\Umul16.c
		___wmul        		CODE           	1490	0000	39

C:\Program Files\Microchip\xc8\v1.41\sources\common\Umul16.c estimated size: 39

../../../../Common/Driver/SpeedCalc/SpeedCalc.c
		_SensorOneNotify		CODE           	1512	0000	23
		_HWtimerCallback		CODE           	1550	0000	11
		_GetDistance   		CODE           	1528	0000	19
		_SetCircumfirunce		CODE           	1546	0000	11
		_GetAvgSpeed   		CODE           	0D4C	0000	159
		_SensorTwoNotify		CODE           	13E4	0000	47
		_SpeedCalcNotifyInitialize		CODE           	1590	0000	3
		_SpeedCalcManage		CODE           	0DEA	0000	153

../../../../Common/Driver/SpeedCalc/SpeedCalc.c estimated size: 426

../../../../Common/Driver/EEPROM/Eeprom.c
		_Eeprom_Write_Block		CODE           	1094	0000	91
		_EepromManage  		CODE           	1230	0000	65
		_Eeprom_Read_Block		CODE           	11EE	0000	67

../../../../Common/Driver/EEPROM/Eeprom.c estimated size: 223

C:\Program Files\Microchip\xc8\v1.41\sources\common\lldiv.c
		___lldiv       		CODE           	0FA6	0000	131

C:\Program Files\Microchip\xc8\v1.41\sources\common\lldiv.c estimated size: 131

../../../../Common/App/APP.c
		_APP_MANAGE    		CODE           	0A68	0000	307
		_APP_INITIALIZE		CODE           	1412	0000	45

../../../../Common/App/APP.c estimated size: 352

../../HWIsource/HWI_DIGITAL.c
		_HWI_8Digit_WRITE		CODE           	14B6	0000	39
		_HWI_4Digit_WRITE		CODE           	1328	0000	51
		_HWI_DIGITAL_INITIALIZE		CODE           	14F8	0000	27
		_HWI_DIGI_READ 		CODE           	135A	0000	47

../../HWIsource/HWI_DIGITAL.c estimated size: 164

../../../../OS/Scheduler/Scheduler.c
		_SchedulerTick 		CODE           	143E	0000	43
		_CreateTask    		CODE           	10EE	0000	89
		_RunScheduler  		CODE           	0F1A	0000	141

../../../../OS/Scheduler/Scheduler.c estimated size: 273

main.c
		_main          		CODE           	155A	0000	9

main.c estimated size: 9

