Microchip MPLAB XC8 Compiler V1.41 ()

Linker command line:

--edf=C:\Program Files\Microchip\xc8\v1.41\dat\en_msgs.txt -cs \
  -h+dist/default/production\BicMeter.X.production.sym \
  --cmf=dist/default/production\BicMeter.X.production.cmf -z -Q18F4520 \
  -oC:\Users\0E57~1\AppData\Local\Temp\s7e8.2 \
  -Mdist/default/production/BicMeter.X.production.map -E1 -ver=XC8 \
  -ASTACK=088h-05ffh -pstack=STACK -ACODE=00h-07FFFh -ACONST=00h-07FFFh \
  -ASMALLCONST=0600h-06FFhx122 -AMEDIUMCONST=0600h-07FFFh -ACOMRAM=01h-07Fh \
  -AABS1=00h-05FFh -ABIGRAM=01h-05FFh -ARAM=080h-0FFh,0100h-01FFhx5 \
  -ABANK0=080h-0FFh -ABANK1=0100h-01FFh -ABANK2=0200h-02FFh \
  -ABANK3=0300h-03FFh -ABANK4=0400h-04FFh -ABANK5=0500h-05FFh \
  -ASFR=0F80h-0FFFh -preset_vec=00h,intcode=08h,intcodelo,powerup,init \
  -pramtop=0600h -psmallconst=SMALLCONST -pmediumconst=MEDIUMCONST \
  -pconst=CONST -AFARRAM=00h-00h -ACONFIG=0300000h-030000Dh -pconfig=CONFIG \
  -AIDLOC=0200000h-0200007h -pidloc=IDLOC -AEEDATA=0F00000h-0F000FFh \
  -peeprom_data=EEDATA \
  -prdata=COMRAM,nvrram=COMRAM,nvbit=COMRAM,rbss=COMRAM,rbit=COMRAM \
  -pfarbss=FARRAM,fardata=FARRAM,nvFARRAM=FARRAM \
  -pintsave_regs=BIGRAM,bigbss=BIGRAM,bigdata=BIGRAM -pbss=RAM \
  -pidata=CODE,irdata=CODE,ibigdata=CODE,ifardata=CODE -prparam=COMRAM \
  C:\Users\0E57~1\AppData\Local\Temp\s7e8.obj \
  dist/default/production\BicMeter.X.production.obj 

Object code version is 3.11

Machine type is 18F4520

Call graph: (short form)




                Name                               Link     Load   Length Selector   Space Scale
C:\Users\0E57~1\AppData\Local\Temp\s7e8.obj
                init                                  E        E        4        4       0
                reset_vec                             0        0        4        0       0
                idloc                            200000   200000        8   200000       0
                config                           300000   300000        E   300000       0
dist/default/production\BicMeter.X.production.obj
                intcode                               8        8        6        4       0
                temp                                 70       70        1        1       1
                smallconst                          600      600        E      300       0
                text28                              D2E      D2E       16      307       0
                text27                              D6A      D6A        6      307       0
                text26                              D16      D16       18      307       0
                text25                              D64      D64        6      307       0
                text24                              C82      C82       2A      307       0
                intcode_body                        704      704       B4      307       0
                text22                              D72      D72        2      307       0
                text21                              92C      92C       58      307       0
                text20                              D44      D44        E      307       0
                text19                              BB8      BB8       3A      307       0
                text18                              C24      C24       32      307       0
                text17                              CD2      CD2       26      307       0
                text16                              AD2      AD2       50      307       0
                text15                              A80      A80       52      307       0
                text14                              CAC      CAC       26      307       0
                text13                              60E      60E       F6      307       0
                text12                              844      844       82      307       0
                text11                              984      984       56      307       0
                text10                              A2E      A2E       52      307       0
                text9                               B22      B22       4E      307       0
                text8                               B70      B70       48      307       0
                text7                               8C6      8C6       66      307       0
                text6                               D5E      D5E        6      307       0
                text5                               D58      D58        6      307       0
                text4                               D52      D52        6      307       0
                text3                               7B8      7B8       8C      307       0
                text2                               C56      C56       2C      307       0
                text1                               CF8      CF8       1E      307       0
                text0                               9DA      9DA       54      307       0
                cstackCOMRAM                         45       45       29        1       1
                cstackBANK0                          80       80        8       80       1
                dataCOMRAM                           6E       6E        2        1       1
                bssCOMRAM                             1        1       44        1       1
                cinit                               BF2      BF2       32      307       0
                idataCOMRAM                         D70      D70        2      307       0

TOTAL           Name                               Link     Load   Length     Space
        CLASS   STACK          

        CLASS   CODE           
                intcode                               8        8        6         0
                init                                  E        E        4         0
                reset_vec                             0        0        4         0
                text28                              D2E      D2E       16         0
                text27                              D6A      D6A        6         0
                text26                              D16      D16       18         0
                text25                              D64      D64        6         0
                text24                              C82      C82       2A         0
                intcode_body                        704      704       B4         0
                text22                              D72      D72        2         0
                text21                              92C      92C       58         0
                text20                              D44      D44        E         0
                text19                              BB8      BB8       3A         0
                text18                              C24      C24       32         0
                text17                              CD2      CD2       26         0
                text16                              AD2      AD2       50         0
                text15                              A80      A80       52         0
                text14                              CAC      CAC       26         0
                text13                              60E      60E       F6         0
                text12                              844      844       82         0
                text11                              984      984       56         0
                text10                              A2E      A2E       52         0
                text9                               B22      B22       4E         0
                text8                               B70      B70       48         0
                text7                               8C6      8C6       66         0
                text6                               D5E      D5E        6         0
                text5                               D58      D58        6         0
                text4                               D52      D52        6         0
                text3                               7B8      7B8       8C         0
                text2                               C56      C56       2C         0
                text1                               CF8      CF8       1E         0
                text0                               9DA      9DA       54         0
                cinit                               BF2      BF2       32         0
                idataCOMRAM                         D70      D70        2         0

        CLASS   CONST          

        CLASS   SMALLCONST     
                smallconst                          600      600        E         0

        CLASS   MEDIUMCONST    

        CLASS   COMRAM         
                temp                                 70       70        1         1
                cstackCOMRAM                         45       45       29         1
                dataCOMRAM                           6E       6E        2         1
                bssCOMRAM                             1        1       44         1

        CLASS   ABS1           

        CLASS   BIGRAM         

        CLASS   RAM            

        CLASS   BANK0          
                cstackBANK0                          80       80        8         1

        CLASS   BANK1          

        CLASS   BANK2          

        CLASS   BANK3          

        CLASS   BANK4          

        CLASS   BANK5          

        CLASS   SFR            

        CLASS   FARRAM         

        CLASS   CONFIG         
                config                           300000   300000        E         0

        CLASS   IDLOC          
                idloc                            200000   200000        8         0

        CLASS   EEDATA         



SEGMENTS        Name                           Load    Length   Top    Selector   Space  Class

                reset_vec                      000000  000004  000004         0       0  CODE    
                bssCOMRAM                      000001  000070  000071         1       1  COMRAM  
                intcode                        000008  00000A  000012         4       0  CODE    
                cstackBANK0                    000080  000008  000088        80       1  BANK0   
                smallconst                     000600  00000E  00060E       300       0  SMALLCON
                text13                         00060E  000766  000D74       307       0  CODE    
                idloc                          200000  000008  200008    200000       0  IDLOC   
                config                         300000  00000E  30000E    300000       0  CONFIG  


UNUSED ADDRESS RANGES

        Name                Unused          Largest block    Delta
        BANK0            000088-0000FF               78
        BANK1            000100-0001FF              100
        BANK2            000200-0002FF              100
        BANK3            000300-0003FF              100
        BANK4            000400-0004FF              100
        BANK5            000500-0005FF              100
        BIGRAM           000071-00007F                F
                         000088-0005FF              578
        CODE             000004-000007                4
                         000012-0005FF              5EE
                         000D74-007FFF             728C
        COMRAM           000071-00007F                F
        CONST            000004-000007                4
                         000012-0005FF              5EE
                         000D74-007FFF             728C
        EEDATA           F00000-F000FF              100
        MEDIUMCONST      000D74-007FFF             728C
        RAM              000088-0005FF              100
        SFR              000F80-000FFF               80
        SMALLCONST       000D74-007FFF              100
        STACK            000088-0005FF              578

                                  Symbol Table

?_GetAvgSpeed                       cstackBANK0  000080
?___lldiv                           cstackCOMRAM 000060
?___lmul                            cstackCOMRAM 000054
?___lwdiv                           cstackCOMRAM 000054
?___wmul                            cstackCOMRAM 000054
APP_MANAGE@AvgSpeedKph              cstackBANK0  000084
BCDManage7segment@DigitIndex        bssCOMRAM    000044
BCDsendNumber@Buffer                cstackCOMRAM 000064
BCDsendNumber@DecimalPlace          cstackCOMRAM 00005D
BCDsendNumber@Link                  cstackCOMRAM 000060
BCDsendNumber@LoopIndex             cstackCOMRAM 000066
BCDsendNumber@Number                cstackCOMRAM 00005B
BCDsendNumber@Output                cstackCOMRAM 000062
CreateTask@MangeFunction            cstackCOMRAM 000054
CreateTask@Period                   cstackCOMRAM 000057
CreateTask@TaskId                   cstackCOMRAM 000056
GetAvgSpeed@AvgSpeedKph             cstackBANK0  000082
HWI_4Digit_WRITE@port               cstackCOMRAM 000055
HWI_4Digit_WRITE@value              cstackCOMRAM 000054
HWI_8Digit_WRITE@port               cstackCOMRAM 000055
HWI_8Digit_WRITE@value              cstackCOMRAM 000054
RunScheduler@TaskIndex              bssCOMRAM    00001B
SchedulerTick@TaskIndex             cstackCOMRAM 000045
SetCircumfirunce@Circum             cstackCOMRAM 00006D
SpeedCalcManage@LapSampleIndex      bssCOMRAM    00001C
SpeedCalcManage@LapTime             bssCOMRAM    00001D
_APP_INITIALIZE                     text22       000D72
_APP_ISR1                           text27       000D6A
_APP_ISR2                           text25       000D64
_APP_MANAGE                         text8        000B70
_ArrayTask                          bssCOMRAM    000001
_BCDManage7segment                  text16       000AD2
_BCDNumber                          bssCOMRAM    00000D
_BCDsendNumber                      text13       00060E
_CreateTask                         text21       00092C
_DisplayAlphaNumeric                text4        000D52
_DistTravelCntr                     bssCOMRAM    000015
_GetAvgSpeed                        text10       000A2E
_HWI_4Digit_WRITE                   text18       000C24
_HWI_8Digit_WRITE                   text17       000CD2
_HWI_DIGITAL_INITIALIZE             text20       000D44
_HWI_TIMERS_INTITALIZE              text19       000BB8
_INT0IF                             (abs)        007F91
_INT1IF                             (abs)        007F80
_INTCON                             (abs)        000FF2
_INTCON2bits                        (abs)        000FF1
_INTCON3                            (abs)        000FF0
_ISR                                intcode      000008
_KMfactor                           dataCOMRAM   00006E
_LATC                               (abs)        000F8B
_LATD                               (abs)        000F8C
_LapCounter                         bssCOMRAM    00001E
_LapCounterAvg                      bssCOMRAM    000019
_LapCounterBuffer                   bssCOMRAM    000020
_ManageApplication                  text5        000D58
_ManageSpeedCalc                    text6        000D5E
_NotifyFlag                         bssCOMRAM    00001F
_PORTC                              (abs)        000F82
_PORTD                              (abs)        000F83
_RunScheduler                       text3        0007B8
_SchedulerTick                      text24       000C82
_SensorOneNotify                    text28       000D2E
_SensorTwoNotify                    text26       000D16
_SetCircumfirunce                   text9        000B22
_SevenSegmentMAP                    smallconst   000601
_SpeedCalcManage                    text7        0008C6
_SpeedCalcNotifyInitialize          text1        000CF8
_T0CON                              (abs)        000FD5
_T1CON                              (abs)        000FCD
_T3CON                              (abs)        000FB1
_TMR0IF                             (abs)        007F92
_TMR0L                              (abs)        000FD6
_TMR1H                              (abs)        000FCF
_TMR1IE                             (abs)        007CE8
_TMR1IF                             (abs)        007CF0
_TMR1L                              (abs)        000FCE
_TMR3H                              (abs)        000FB3
_TMR3IE                             (abs)        007D01
_TMR3IF                             (abs)        007D09
_TMR3L                              (abs)        000FB2
_TRISBbits                          (abs)        000F93
_TRISC                              (abs)        000F94
_TRISD                              (abs)        000F95
__CFG_BOREN$SBORDIS                 (abs)        000000
__CFG_BORV$3                        (abs)        000000
__CFG_CCP2MX$PORTC                  (abs)        000000
__CFG_CP0$OFF                       (abs)        000000
__CFG_CP1$OFF                       (abs)        000000
__CFG_CP2$OFF                       (abs)        000000
__CFG_CP3$OFF                       (abs)        000000
__CFG_CPB$OFF                       (abs)        000000
__CFG_CPD$OFF                       (abs)        000000
__CFG_EBTR0$OFF                     (abs)        000000
__CFG_EBTR1$OFF                     (abs)        000000
__CFG_EBTR2$OFF                     (abs)        000000
__CFG_EBTR3$OFF                     (abs)        000000
__CFG_EBTRB$OFF                     (abs)        000000
__CFG_FCMEN$OFF                     (abs)        000000
__CFG_IESO$OFF                      (abs)        000000
__CFG_LPT1OSC$OFF                   (abs)        000000
__CFG_LVP$ON                        (abs)        000000
__CFG_MCLRE$OFF                     (abs)        000000
__CFG_OSC$XT                        (abs)        000000
__CFG_PBADEN$OFF                    (abs)        000000
__CFG_PWRT$OFF                      (abs)        000000
__CFG_STVREN$ON                     (abs)        000000
__CFG_WDT$OFF                       (abs)        000000
__CFG_WDTPS$32768                   (abs)        000000
__CFG_WRT0$OFF                      (abs)        000000
__CFG_WRT1$OFF                      (abs)        000000
__CFG_WRT2$OFF                      (abs)        000000
__CFG_WRT3$OFF                      (abs)        000000
__CFG_WRTB$OFF                      (abs)        000000
__CFG_WRTC$OFF                      (abs)        000000
__CFG_WRTD$OFF                      (abs)        000000
__CFG_XINST$OFF                     (abs)        000000
__HRAM                              (abs)        000000
__Habs1                             abs1         000000
__Hbank0                            bank0        000000
__Hbank1                            bank1        000000
__Hbank2                            bank2        000000
__Hbank3                            bank3        000000
__Hbank4                            bank4        000000
__Hbank5                            bank5        000000
__Hbigbss                           bigbss       000000
__Hbigdata                          bigdata      000000
__Hbigram                           bigram       000000
__Hbss                              bss          000000
__HbssCOMRAM                        bssCOMRAM    000000
__Hcinit                            cinit        000000
__Hclrtext                          clrtext      000000
__Hcomram                           comram       000000
__Hconfig                           config       30000E
__Hconst                            const        000000
__HcstackBANK0                      cstackBANK0  000000
__HcstackCOMRAM                     cstackCOMRAM 000000
__Hdata                             data         000000
__HdataCOMRAM                       dataCOMRAM   000000
__Heeprom_data                      eeprom_data  000000
__Hfarbss                           farbss       000000
__Hfardata                          fardata      000000
__Hibigdata                         ibigdata     000000
__Hidata                            idata        000000
__HidataCOMRAM                      idataCOMRAM  000000
__Hidloc                            idloc        200008
__Hifardata                         ifardata     000000
__Hinit                             init         000012
__Hintcode                          intcode      00000E
__Hintcode_body                     intcode_body 000000
__Hintcodelo                        intcodelo    00000E
__Hintentry                         intentry     000000
__Hintret                           intret       000000
__Hintsave_regs                     intsave_regs 000000
__Hirdata                           irdata       000000
__Hmediumconst                      mediumconst  000000
__HnvFARRAM                         nvFARRAM     000000
__Hnvbit                            nvbit        000000
__Hnvrram                           nvrram       000000
__Hparam                            rparam       000000
__Hpowerup                          powerup      00000E
__Hram                              ram          000000
__Hramtop                           ramtop       000600
__Hrbit                             rbit         000000
__Hrbss                             rbss         000000
__Hrdata                            rdata        000000
__Hreset_vec                        reset_vec    000004
__Hrparam                           rparam       000000
__Hsfr                              sfr          000000
__Hsmallconst                       smallconst   00060E
__Hspace_0                          (abs)        30000E
__Hspace_1                          (abs)        000088
__Hspace_2                          (abs)        000000
__Hstack                            stack        000000
__Hstruct                           struct       000000
__Htemp                             temp         000071
__Htext                             text         000000
__Htext0                            text0        000000
__Htext1                            text1        000000
__Htext10                           text10       000000
__Htext11                           text11       000000
__Htext12                           text12       000000
__Htext13                           text13       000000
__Htext14                           text14       000000
__Htext15                           text15       000000
__Htext16                           text16       000000
__Htext17                           text17       000000
__Htext18                           text18       000000
__Htext19                           text19       000000
__Htext2                            text2        000000
__Htext20                           text20       000000
__Htext21                           text21       000000
__Htext22                           text22       000000
__Htext24                           text24       000000
__Htext25                           text25       000000
__Htext26                           text26       000000
__Htext27                           text27       000000
__Htext28                           text28       000000
__Htext29                           text29       000000
__Htext3                            text3        000000
__Htext4                            text4        000000
__Htext5                            text5        000000
__Htext6                            text6        000000
__Htext7                            text7        000000
__Htext8                            text8        000000
__Htext9                            text9        000000
__LRAM                              (abs)        000001
__Labs1                             abs1         000000
__Lbank0                            bank0        000000
__Lbank1                            bank1        000000
__Lbank2                            bank2        000000
__Lbank3                            bank3        000000
__Lbank4                            bank4        000000
__Lbank5                            bank5        000000
__Lbigbss                           bigbss       000000
__Lbigdata                          bigdata      000000
__Lbigram                           bigram       000000
__Lbss                              bss          000000
__LbssCOMRAM                        bssCOMRAM    000000
__Lcinit                            cinit        000000
__Lclrtext                          clrtext      000000
__Lcomram                           comram       000000
__Lconfig                           config       300000
__Lconst                            const        000000
__LcstackBANK0                      cstackBANK0  000000
__LcstackCOMRAM                     cstackCOMRAM 000000
__Ldata                             data         000000
__LdataCOMRAM                       dataCOMRAM   000000
__Leeprom_data                      eeprom_data  000000
__Lfarbss                           farbss       000000
__Lfardata                          fardata      000000
__Libigdata                         ibigdata     000000
__Lidata                            idata        000000
__LidataCOMRAM                      idataCOMRAM  000000
__Lidloc                            idloc        200000
__Lifardata                         ifardata     000000
__Linit                             init         00000E
__Lintcode                          intcode      000008
__Lintcode_body                     intcode_body 000000
__Lintcodelo                        intcodelo    00000E
__Lintentry                         intentry     000000
__Lintret                           intret       000000
__Lintsave_regs                     intsave_regs 000000
__Lirdata                           irdata       000000
__Lmediumconst                      mediumconst  000000
__LnvFARRAM                         nvFARRAM     000000
__Lnvbit                            nvbit        000000
__Lnvrram                           nvrram       000000
__Lparam                            rparam       000000
__Lpowerup                          powerup      00000E
__Lram                              ram          000000
__Lramtop                           ramtop       000600
__Lrbit                             rbit         000000
__Lrbss                             rbss         000000
__Lrdata                            rdata        000000
__Lreset_vec                        reset_vec    000000
__Lrparam                           rparam       000000
__Lsfr                              sfr          000000
__Lsmallconst                       smallconst   000600
__Lspace_0                          (abs)        000000
__Lspace_1                          (abs)        000000
__Lspace_2                          (abs)        000000
__Lstack                            stack        000000
__Lstruct                           struct       000000
__Ltemp                             temp         000070
__Ltext                             text         000000
__Ltext0                            text0        000000
__Ltext1                            text1        000000
__Ltext10                           text10       000000
__Ltext11                           text11       000000
__Ltext12                           text12       000000
__Ltext13                           text13       000000
__Ltext14                           text14       000000
__Ltext15                           text15       000000
__Ltext16                           text16       000000
__Ltext17                           text17       000000
__Ltext18                           text18       000000
__Ltext19                           text19       000000
__Ltext2                            text2        000000
__Ltext20                           text20       000000
__Ltext21                           text21       000000
__Ltext22                           text22       000000
__Ltext24                           text24       000000
__Ltext25                           text25       000000
__Ltext26                           text26       000000
__Ltext27                           text27       000000
__Ltext28                           text28       000000
__Ltext29                           text29       000000
__Ltext3                            text3        000000
__Ltext4                            text4        000000
__Ltext5                            text5        000000
__Ltext6                            text6        000000
__Ltext7                            text7        000000
__Ltext8                            text8        000000
__Ltext9                            text9        000000
__S0                                (abs)        30000E
__S1                                (abs)        000088
__S2                                (abs)        000000
___inthi_sp                         stack        000000
___intlo_sp                         stack        000000
___lldiv                            text12       000844
___lldiv@counter                    cstackCOMRAM 00006C
___lldiv@dividend                   cstackCOMRAM 000060
___lldiv@divisor                    cstackCOMRAM 000064
___lldiv@quotient                   cstackCOMRAM 000068
___lmul                             text11       000984
___lmul@multiplicand                cstackCOMRAM 000058
___lmul@multiplier                  cstackCOMRAM 000054
___lmul@product                     cstackCOMRAM 00005C
___lwdiv                            text15       000A80
___lwdiv@counter                    cstackCOMRAM 000058
___lwdiv@dividend                   cstackCOMRAM 000054
___lwdiv@divisor                    cstackCOMRAM 000056
___lwdiv@quotient                   cstackCOMRAM 000059
___param_bank                       (abs)        000000
___rparam_used                      (abs)        000001
___sp                               stack        000000
___wmul                             text14       000CAC
___wmul@multiplicand                cstackCOMRAM 000056
___wmul@multiplier                  cstackCOMRAM 000054
___wmul@product                     cstackCOMRAM 000058
__accesstop                         (abs)        000080
__activetblptr                      (abs)        000002
__end_of_APP_INITIALIZE             text22       000D74
__end_of_APP_ISR1                   text27       000D70
__end_of_APP_ISR2                   text25       000D6A
__end_of_APP_MANAGE                 text8        000BB8
__end_of_BCDManage7segment          text16       000B22
__end_of_BCDsendNumber              text13       000704
__end_of_CreateTask                 text21       000984
__end_of_DisplayAlphaNumeric        text4        000D58
__end_of_GetAvgSpeed                text10       000A80
__end_of_HWI_4Digit_WRITE           text18       000C56
__end_of_HWI_8Digit_WRITE           text17       000CF8
__end_of_HWI_DIGITAL_INITIALIZE     text20       000D52
__end_of_HWI_TIMERS_INTITALIZE      text19       000BF2
__end_of_ISR                        intcode_body 0007B8
__end_of_ManageApplication          text5        000D5E
__end_of_ManageSpeedCalc            text6        000D64
__end_of_RunScheduler               text3        000844
__end_of_SchedulerTick              text24       000CAC
__end_of_SensorOneNotify            text28       000D44
__end_of_SensorTwoNotify            text26       000D2E
__end_of_SetCircumfirunce           text9        000B70
__end_of_SevenSegmentMAP            smallconst   00060C
__end_of_SpeedCalcManage            text7        00092C
__end_of_SpeedCalcNotifyInitialize  text1        000D16
__end_of___lldiv                    text12       0008C6
__end_of___lmul                     text11       0009DA
__end_of___lwdiv                    text15       000AD2
__end_of___wmul                     text14       000CD2
__end_of__initialization            cinit        000C16
__end_of_main                       text0        000A2E
__end_of_memset                     text2        000C82
__initialization                    cinit        000BF2
__mediumconst                       mediumconst  000000
__pbssCOMRAM                        bssCOMRAM    000001
__pcinit                            cinit        000BF2
__pcstackBANK0                      cstackBANK0  000080
__pcstackCOMRAM                     cstackCOMRAM 000045
__pdataCOMRAM                       dataCOMRAM   00006E
__pidataCOMRAM                      idataCOMRAM  000D70
__pintcode                          intcode      000008
__pintcode_body                     intcode_body 000704
__psmallconst                       smallconst   000600
__ptext0                            text0        0009DA
__ptext1                            text1        000CF8
__ptext10                           text10       000A2E
__ptext11                           text11       000984
__ptext12                           text12       000844
__ptext13                           text13       00060E
__ptext14                           text14       000CAC
__ptext15                           text15       000A80
__ptext16                           text16       000AD2
__ptext17                           text17       000CD2
__ptext18                           text18       000C24
__ptext19                           text19       000BB8
__ptext2                            text2        000C56
__ptext20                           text20       000D44
__ptext21                           text21       00092C
__ptext22                           text22       000D72
__ptext24                           text24       000C82
__ptext25                           text25       000D64
__ptext26                           text26       000D16
__ptext27                           text27       000D6A
__ptext28                           text28       000D2E
__ptext29                           text29       000000
__ptext3                            text3        0007B8
__ptext4                            text4        000D52
__ptext5                            text5        000D58
__ptext6                            text6        000D5E
__ptext7                            text7        0008C6
__ptext8                            text8        000B70
__ptext9                            text9        000B22
__ramtop                            ramtop       000600
__size_of_APP_INITIALIZE            (abs)        000000
__size_of_APP_ISR1                  (abs)        000000
__size_of_APP_ISR2                  (abs)        000000
__size_of_APP_MANAGE                (abs)        000000
__size_of_BCDManage7segment         (abs)        000000
__size_of_BCDsendNumber             (abs)        000000
__size_of_CreateTask                (abs)        000000
__size_of_DisplayAlphaNumeric       (abs)        000000
__size_of_GetAvgSpeed               (abs)        000000
__size_of_HWI_4Digit_WRITE          (abs)        000000
__size_of_HWI_8Digit_WRITE          (abs)        000000
__size_of_HWI_DIGITAL_INITIALIZE    (abs)        000000
__size_of_HWI_TIMERS_INTITALIZE     (abs)        000000
__size_of_ISR                       (abs)        000000
__size_of_ManageApplication         (abs)        000000
__size_of_ManageSpeedCalc           (abs)        000000
__size_of_RunScheduler              (abs)        000000
__size_of_SchedulerTick             (abs)        000000
__size_of_SensorOneNotify           (abs)        000000
__size_of_SensorTwoNotify           (abs)        000000
__size_of_SetCircumfirunce          (abs)        000000
__size_of_SpeedCalcManage           (abs)        000000
__size_of_SpeedCalcNotifyInitialize (abs)        000000
__size_of___lldiv                   (abs)        000000
__size_of___lmul                    (abs)        000000
__size_of___lwdiv                   (abs)        000000
__size_of___wmul                    (abs)        000000
__size_of_main                      (abs)        000000
__size_of_memset                    (abs)        000000
__smallconst                        smallconst   000600
_main                               text0        0009DA
_memset                             text2        000C56
btemp                               temp         000070
end_of_initialization               cinit        000C16
int$flags                           temp         000070
int_func                            intcode_body 000704
intlevel0                           text         000000
intlevel1                           text         000000
intlevel2                           text         000000
intlevel3                           text         000000
memset@c                            cstackCOMRAM 000056
memset@n                            cstackCOMRAM 000058
memset@p                            cstackCOMRAM 00005A
memset@p1                           cstackCOMRAM 000054
stackhi                             (abs)        0005FF
stacklo                             (abs)        000088
start                               init         00000E
start_initialization                cinit        000BF2


FUNCTION INFORMATION:

 *************** function _main *****************
 Defined at:
		line 86 in file "main.c"
 Parameters:    Size  Location     Type
		None
 Auto vars:     Size  Location     Type
		None
 Return value:  Size  Location     Type
                  1    wreg      void 
 Registers used:
		wreg, fsr1l, fsr1h, fsr2l, fsr2h, status,2, status,0, pclath, tosl, tblptrl, tblptrh, tblptru, prodl, prodh, cstack
 Tracked objects:
		On entry : 
		On exit  : 
		Unchanged: 
 Data sizes:     COMRAM   BANK0   BANK1   BANK2   BANK3   BANK4   BANK5
      Params:         0       0       0       0       0       0       0
      Locals:         0       0       0       0       0       0       0
      Temps:          0       0       0       0       0       0       0
      Totals:         0       0       0       0       0       0       0
Total ram usage:        0 bytes
 Hardware stack levels required when called:    8
 This function calls:
		_APP_INITIALIZE
		_CreateTask
		_HWI_DIGITAL_INITIALIZE
		_HWI_TIMERS_INTITALIZE
		_RunScheduler
		_SpeedCalcNotifyInitialize
 This function is called by:
		Startup code after reset
 This function uses a non-reentrant model


 *************** function _SpeedCalcNotifyInitialize *****************
 Defined at:
		line 19 in file "../../../../Common/Driver/SpeedCalc/SpeedCalc.c"
 Parameters:    Size  Location     Type
		None
 Auto vars:     Size  Location     Type
		None
 Return value:  Size  Location     Type
                  1    wreg      void 
 Registers used:
		wreg, fsr2l, fsr2h, status,2, status,0, cstack
 Tracked objects:
		On entry : 
		On exit  : 
		Unchanged: 
 Data sizes:     COMRAM   BANK0   BANK1   BANK2   BANK3   BANK4   BANK5
      Params:         0       0       0       0       0       0       0
      Locals:         0       0       0       0       0       0       0
      Temps:          0       0       0       0       0       0       0
      Totals:         0       0       0       0       0       0       0
Total ram usage:        0 bytes
 Hardware stack levels used:    1
 Hardware stack levels required when called:    4
 This function calls:
		_memset
 This function is called by:
		_main
 This function uses a non-reentrant model


 *************** function _memset *****************
 Defined at:
		line 8 in file "C:\Program Files\Microchip\xc8\v1.41\sources\common\memset.c"
 Parameters:    Size  Location     Type
  p1              2   15[COMRAM] PTR void 
		 -> LapCounterBuffer(36), 
  c               2   17[COMRAM] int 
  n               2   19[COMRAM] unsigned int 
 Auto vars:     Size  Location     Type
  p               2   21[COMRAM] PTR unsigned char 
		 -> LapCounterBuffer(36), 
 Return value:  Size  Location     Type
                  2   15[COMRAM] PTR void 
 Registers used:
		wreg, fsr2l, fsr2h, status,2, status,0
 Tracked objects:
		On entry : 
		On exit  : 
		Unchanged: 
 Data sizes:     COMRAM   BANK0   BANK1   BANK2   BANK3   BANK4   BANK5
      Params:         6       0       0       0       0       0       0
      Locals:         2       0       0       0       0       0       0
      Temps:          0       0       0       0       0       0       0
      Totals:         8       0       0       0       0       0       0
Total ram usage:        8 bytes
 Hardware stack levels used:    1
 Hardware stack levels required when called:    3
 This function calls:
		Nothing
 This function is called by:
		_SpeedCalcNotifyInitialize
 This function uses a non-reentrant model


 *************** function _RunScheduler *****************
 Defined at:
		line 25 in file "../../../../OS/Scheduler/Scheduler.c"
 Parameters:    Size  Location     Type
		None
 Auto vars:     Size  Location     Type
		None
 Return value:  Size  Location     Type
                  1    wreg      void 
 Registers used:
		wreg, fsr1l, fsr1h, fsr2l, fsr2h, status,2, status,0, pclath, tosl, tblptrl, tblptrh, tblptru, prodl, prodh, cstack
 Tracked objects:
		On entry : 
		On exit  : 
		Unchanged: 
 Data sizes:     COMRAM   BANK0   BANK1   BANK2   BANK3   BANK4   BANK5
      Params:         0       0       0       0       0       0       0
      Locals:         0       0       0       0       0       0       0
      Temps:          0       2       0       0       0       0       0
      Totals:         0       2       0       0       0       0       0
Total ram usage:        2 bytes
 Hardware stack levels used:    1
 Hardware stack levels required when called:    7
 This function calls:
		_DisplayAlphaNumeric
		_ManageApplication
		_ManageSpeedCalc
 This function is called by:
		_main
 This function uses a non-reentrant model


 *************** function _DisplayAlphaNumeric *****************
 Defined at:
		line 104 in file "main.c"
 Parameters:    Size  Location     Type
		None
 Auto vars:     Size  Location     Type
		None
 Return value:  Size  Location     Type
                  1    wreg      void 
 Registers used:
		wreg, fsr2l, fsr2h, status,2, status,0, prodl, prodh, cstack
 Tracked objects:
		On entry : 
		On exit  : 
		Unchanged: 
 Data sizes:     COMRAM   BANK0   BANK1   BANK2   BANK3   BANK4   BANK5
      Params:         0       0       0       0       0       0       0
      Locals:         0       0       0       0       0       0       0
      Temps:          0       0       0       0       0       0       0
      Totals:         0       0       0       0       0       0       0
Total ram usage:        0 bytes
 Hardware stack levels used:    1
 Hardware stack levels required when called:    5
 This function calls:
		_BCDManage7segment
 This function is called by:
		_main
		_RunScheduler
 This function uses a non-reentrant model


 *************** function _ManageApplication *****************
 Defined at:
		line 108 in file "main.c"
 Parameters:    Size  Location     Type
		None
 Auto vars:     Size  Location     Type
		None
 Return value:  Size  Location     Type
                  1    wreg      void 
 Registers used:
		wreg, fsr2l, fsr2h, status,2, status,0, tblptrl, tblptrh, tblptru, prodl, prodh, cstack
 Tracked objects:
		On entry : 
		On exit  : 
		Unchanged: 
 Data sizes:     COMRAM   BANK0   BANK1   BANK2   BANK3   BANK4   BANK5
      Params:         0       0       0       0       0       0       0
      Locals:         0       0       0       0       0       0       0
      Temps:          0       0       0       0       0       0       0
      Totals:         0       0       0       0       0       0       0
Total ram usage:        0 bytes
 Hardware stack levels used:    1
 Hardware stack levels required when called:    6
 This function calls:
		_APP_MANAGE
 This function is called by:
		_main
		_RunScheduler
 This function uses a non-reentrant model


 *************** function _ManageSpeedCalc *****************
 Defined at:
		line 112 in file "main.c"
 Parameters:    Size  Location     Type
		None
 Auto vars:     Size  Location     Type
		None
 Return value:  Size  Location     Type
                  1    wreg      void 
 Registers used:
		wreg, fsr2l, fsr2h, status,2, status,0, prodl, prodh, cstack
 Tracked objects:
		On entry : 
		On exit  : 
		Unchanged: 
 Data sizes:     COMRAM   BANK0   BANK1   BANK2   BANK3   BANK4   BANK5
      Params:         0       0       0       0       0       0       0
      Locals:         0       0       0       0       0       0       0
      Temps:          0       0       0       0       0       0       0
      Totals:         0       0       0       0       0       0       0
Total ram usage:        0 bytes
 Hardware stack levels used:    1
 Hardware stack levels required when called:    4
 This function calls:
		_SpeedCalcManage
 This function is called by:
		_main
		_RunScheduler
 This function uses a non-reentrant model


 *************** function _SpeedCalcManage *****************
 Defined at:
		line 55 in file "../../../../Common/Driver/SpeedCalc/SpeedCalc.c"
 Parameters:    Size  Location     Type
		None
 Auto vars:     Size  Location     Type
		None
 Return value:  Size  Location     Type
                  1    wreg      void 
 Registers used:
		wreg, fsr2l, fsr2h, status,2, status,0, prodl, prodh
 Tracked objects:
		On entry : 
		On exit  : 
		Unchanged: 
 Data sizes:     COMRAM   BANK0   BANK1   BANK2   BANK3   BANK4   BANK5
      Params:         0       0       0       0       0       0       0
      Locals:         0       0       0       0       0       0       0
      Temps:          1       0       0       0       0       0       0
      Totals:         1       0       0       0       0       0       0
Total ram usage:        1 bytes
 Hardware stack levels used:    1
 Hardware stack levels required when called:    3
 This function calls:
		Nothing
 This function is called by:
		_ManageSpeedCalc
 This function uses a non-reentrant model


 *************** function _APP_MANAGE *****************
 Defined at:
		line 15 in file "../../../../Common/App/APP.c"
 Parameters:    Size  Location     Type
		None
 Auto vars:     Size  Location     Type
  AvgSpeedKph     2    4[BANK0 ] unsigned short 
 Return value:  Size  Location     Type
                  1    wreg      void 
 Registers used:
		wreg, fsr2l, fsr2h, status,2, status,0, tblptrl, tblptrh, tblptru, prodl, prodh, cstack
 Tracked objects:
		On entry : 
		On exit  : 
		Unchanged: 
 Data sizes:     COMRAM   BANK0   BANK1   BANK2   BANK3   BANK4   BANK5
      Params:         0       0       0       0       0       0       0
      Locals:         0       2       0       0       0       0       0
      Temps:          0       0       0       0       0       0       0
      Totals:         0       2       0       0       0       0       0
Total ram usage:        2 bytes
 Hardware stack levels used:    1
 Hardware stack levels required when called:    5
 This function calls:
		_BCDsendNumber
		_GetAvgSpeed
		_SetCircumfirunce
		___lwdiv
 This function is called by:
		_ManageApplication
 This function uses a non-reentrant model


 *************** function _SetCircumfirunce *****************
 Defined at:
		line 98 in file "../../../../Common/Driver/SpeedCalc/SpeedCalc.c"
 Parameters:    Size  Location     Type
  Circum          1    wreg     unsigned char 
 Auto vars:     Size  Location     Type
  Circum          1   40[COMRAM] unsigned char 
 Return value:  Size  Location     Type
                  1    wreg      void 
 Registers used:
		wreg, status,2, status,0, cstack
 Tracked objects:
		On entry : 
		On exit  : 
		Unchanged: 
 Data sizes:     COMRAM   BANK0   BANK1   BANK2   BANK3   BANK4   BANK5
      Params:         0       0       0       0       0       0       0
      Locals:         1       0       0       0       0       0       0
      Temps:          0       0       0       0       0       0       0
      Totals:         1       0       0       0       0       0       0
Total ram usage:        1 bytes
 Hardware stack levels used:    1
 Hardware stack levels required when called:    4
 This function calls:
		___lldiv
		___lmul
 This function is called by:
		_APP_MANAGE
 This function uses a non-reentrant model


 *************** function _GetAvgSpeed *****************
 Defined at:
		line 107 in file "../../../../Common/Driver/SpeedCalc/SpeedCalc.c"
 Parameters:    Size  Location     Type
		None
 Auto vars:     Size  Location     Type
  AvgSpeedKph     2    2[BANK0 ] unsigned short 
 Return value:  Size  Location     Type
                  2    0[BANK0 ] unsigned short 
 Registers used:
		wreg, status,2, status,0, cstack
 Tracked objects:
		On entry : 
		On exit  : 
		Unchanged: 
 Data sizes:     COMRAM   BANK0   BANK1   BANK2   BANK3   BANK4   BANK5
      Params:         0       2       0       0       0       0       0
      Locals:         0       2       0       0       0       0       0
      Temps:          0       0       0       0       0       0       0
      Totals:         0       4       0       0       0       0       0
Total ram usage:        4 bytes
 Hardware stack levels used:    1
 Hardware stack levels required when called:    4
 This function calls:
		___lldiv
		___lmul
 This function is called by:
		_APP_MANAGE
 This function uses a non-reentrant model


 *************** function ___lmul *****************
 Defined at:
		line 15 in file "C:\Program Files\Microchip\xc8\v1.41\sources\common\Umul32.c"
 Parameters:    Size  Location     Type
  multiplier      4   15[COMRAM] unsigned long 
  multiplicand    4   19[COMRAM] unsigned long 
 Auto vars:     Size  Location     Type
  product         4   23[COMRAM] unsigned long 
 Return value:  Size  Location     Type
                  4   15[COMRAM] unsigned long 
 Registers used:
		wreg, status,2, status,0
 Tracked objects:
		On entry : 
		On exit  : 
		Unchanged: 
 Data sizes:     COMRAM   BANK0   BANK1   BANK2   BANK3   BANK4   BANK5
      Params:         8       0       0       0       0       0       0
      Locals:         4       0       0       0       0       0       0
      Temps:          0       0       0       0       0       0       0
      Totals:        12       0       0       0       0       0       0
Total ram usage:       12 bytes
 Hardware stack levels used:    1
 Hardware stack levels required when called:    3
 This function calls:
		Nothing
 This function is called by:
		_SetCircumfirunce
		_GetAvgSpeed
 This function uses a non-reentrant model


 *************** function ___lldiv *****************
 Defined at:
		line 8 in file "C:\Program Files\Microchip\xc8\v1.41\sources\common\lldiv.c"
 Parameters:    Size  Location     Type
  dividend        4   27[COMRAM] unsigned long 
  divisor         4   31[COMRAM] unsigned long 
 Auto vars:     Size  Location     Type
  quotient        4   35[COMRAM] unsigned long 
  counter         1   39[COMRAM] unsigned char 
 Return value:  Size  Location     Type
                  4   27[COMRAM] unsigned long 
 Registers used:
		wreg, status,2, status,0
 Tracked objects:
		On entry : 
		On exit  : 
		Unchanged: 
 Data sizes:     COMRAM   BANK0   BANK1   BANK2   BANK3   BANK4   BANK5
      Params:         8       0       0       0       0       0       0
      Locals:         5       0       0       0       0       0       0
      Temps:          0       0       0       0       0       0       0
      Totals:        13       0       0       0       0       0       0
Total ram usage:       13 bytes
 Hardware stack levels used:    1
 Hardware stack levels required when called:    3
 This function calls:
		Nothing
 This function is called by:
		_SetCircumfirunce
		_GetAvgSpeed
 This function uses a non-reentrant model


 *************** function _BCDsendNumber *****************
 Defined at:
		line 25 in file "../../../../Common/Driver/BCDdisplay/BCDdisplay.c"
 Parameters:    Size  Location     Type
  Number          2   22[COMRAM] unsigned short 
  DecimalPlace    1   24[COMRAM] unsigned char 
 Auto vars:     Size  Location     Type
  Buffer          2   31[COMRAM] unsigned short 
  Output          2   29[COMRAM] unsigned short 
  Link            2   27[COMRAM] unsigned short 
  LoopIndex       1   33[COMRAM] unsigned char 
 Return value:  Size  Location     Type
                  1    wreg      void 
 Registers used:
		wreg, fsr2l, fsr2h, status,2, status,0, tblptrl, tblptrh, tblptru, prodl, prodh, cstack
 Tracked objects:
		On entry : 
		On exit  : 
		Unchanged: 
 Data sizes:     COMRAM   BANK0   BANK1   BANK2   BANK3   BANK4   BANK5
      Params:         3       0       0       0       0       0       0
      Locals:         7       0       0       0       0       0       0
      Temps:          2       0       0       0       0       0       0
      Totals:        12       0       0       0       0       0       0
Total ram usage:       12 bytes
 Hardware stack levels used:    1
 Hardware stack levels required when called:    4
 This function calls:
		___lwdiv
		___wmul
 This function is called by:
		_APP_MANAGE
 This function uses a non-reentrant model


 *************** function ___wmul *****************
 Defined at:
		line 15 in file "C:\Program Files\Microchip\xc8\v1.41\sources\common\Umul16.c"
 Parameters:    Size  Location     Type
  multiplier      2   15[COMRAM] unsigned int 
  multiplicand    2   17[COMRAM] unsigned int 
 Auto vars:     Size  Location     Type
  product         2   19[COMRAM] unsigned int 
 Return value:  Size  Location     Type
                  2   15[COMRAM] unsigned int 
 Registers used:
		wreg, status,2, status,0, prodl, prodh
 Tracked objects:
		On entry : 
		On exit  : 
		Unchanged: 
 Data sizes:     COMRAM   BANK0   BANK1   BANK2   BANK3   BANK4   BANK5
      Params:         4       0       0       0       0       0       0
      Locals:         2       0       0       0       0       0       0
      Temps:          0       0       0       0       0       0       0
      Totals:         6       0       0       0       0       0       0
Total ram usage:        6 bytes
 Hardware stack levels used:    1
 Hardware stack levels required when called:    3
 This function calls:
		Nothing
 This function is called by:
		_BCDsendNumber
 This function uses a non-reentrant model


 *************** function ___lwdiv *****************
 Defined at:
		line 8 in file "C:\Program Files\Microchip\xc8\v1.41\sources\common\lwdiv.c"
 Parameters:    Size  Location     Type
  dividend        2   15[COMRAM] unsigned int 
  divisor         2   17[COMRAM] unsigned int 
 Auto vars:     Size  Location     Type
  quotient        2   20[COMRAM] unsigned int 
  counter         1   19[COMRAM] unsigned char 
 Return value:  Size  Location     Type
                  2   15[COMRAM] unsigned int 
 Registers used:
		wreg, status,2, status,0
 Tracked objects:
		On entry : 
		On exit  : 
		Unchanged: 
 Data sizes:     COMRAM   BANK0   BANK1   BANK2   BANK3   BANK4   BANK5
      Params:         4       0       0       0       0       0       0
      Locals:         3       0       0       0       0       0       0
      Temps:          0       0       0       0       0       0       0
      Totals:         7       0       0       0       0       0       0
Total ram usage:        7 bytes
 Hardware stack levels used:    1
 Hardware stack levels required when called:    3
 This function calls:
		Nothing
 This function is called by:
		_APP_MANAGE
		_BCDsendNumber
 This function uses a non-reentrant model


 *************** function _BCDManage7segment *****************
 Defined at:
		line 57 in file "../../../../Common/Driver/BCDdisplay/BCDdisplay.c"
 Parameters:    Size  Location     Type
		None
 Auto vars:     Size  Location     Type
		None
 Return value:  Size  Location     Type
                  1    wreg      void 
 Registers used:
		wreg, fsr2l, fsr2h, status,2, status,0, prodl, prodh, cstack
 Tracked objects:
		On entry : 
		On exit  : 
		Unchanged: 
 Data sizes:     COMRAM   BANK0   BANK1   BANK2   BANK3   BANK4   BANK5
      Params:         0       0       0       0       0       0       0
      Locals:         0       0       0       0       0       0       0
      Temps:          3       0       0       0       0       0       0
      Totals:         3       0       0       0       0       0       0
Total ram usage:        3 bytes
 Hardware stack levels used:    1
 Hardware stack levels required when called:    4
 This function calls:
		_HWI_4Digit_WRITE
		_HWI_8Digit_WRITE
 This function is called by:
		_DisplayAlphaNumeric
 This function uses a non-reentrant model


 *************** function _HWI_8Digit_WRITE *****************
 Defined at:
		line 41 in file "../../HWIsource/HWI_DIGITAL.c"
 Parameters:    Size  Location     Type
  port            1    wreg     unsigned char 
  value           1   15[COMRAM] unsigned char 
 Auto vars:     Size  Location     Type
  port            1   16[COMRAM] unsigned char 
 Return value:  Size  Location     Type
                  1    wreg      void 
 Registers used:
		wreg, status,2, status,0
 Tracked objects:
		On entry : 
		On exit  : 
		Unchanged: 
 Data sizes:     COMRAM   BANK0   BANK1   BANK2   BANK3   BANK4   BANK5
      Params:         1       0       0       0       0       0       0
      Locals:         1       0       0       0       0       0       0
      Temps:          0       0       0       0       0       0       0
      Totals:         2       0       0       0       0       0       0
Total ram usage:        2 bytes
 Hardware stack levels used:    1
 Hardware stack levels required when called:    3
 This function calls:
		Nothing
 This function is called by:
		_BCDManage7segment
 This function uses a non-reentrant model


 *************** function _HWI_4Digit_WRITE *****************
 Defined at:
		line 8 in file "../../HWIsource/HWI_DIGITAL.c"
 Parameters:    Size  Location     Type
  port            1    wreg     unsigned char 
  value           1   15[COMRAM] unsigned char 
 Auto vars:     Size  Location     Type
  port            1   16[COMRAM] unsigned char 
 Return value:  Size  Location     Type
                  1    wreg      void 
 Registers used:
		wreg, status,2, status,0
 Tracked objects:
		On entry : 
		On exit  : 
		Unchanged: 
 Data sizes:     COMRAM   BANK0   BANK1   BANK2   BANK3   BANK4   BANK5
      Params:         1       0       0       0       0       0       0
      Locals:         1       0       0       0       0       0       0
      Temps:          0       0       0       0       0       0       0
      Totals:         2       0       0       0       0       0       0
Total ram usage:        2 bytes
 Hardware stack levels used:    1
 Hardware stack levels required when called:    3
 This function calls:
		Nothing
 This function is called by:
		_BCDManage7segment
 This function uses a non-reentrant model


 *************** function _HWI_TIMERS_INTITALIZE *****************
 Defined at:
		line 10 in file "../../HWIsource/HWI_Interrupts.c"
 Parameters:    Size  Location     Type
		None
 Auto vars:     Size  Location     Type
		None
 Return value:  Size  Location     Type
                  1    wreg      void 
 Registers used:
		wreg, status,2
 Tracked objects:
		On entry : 
		On exit  : 
		Unchanged: 
 Data sizes:     COMRAM   BANK0   BANK1   BANK2   BANK3   BANK4   BANK5
      Params:         0       0       0       0       0       0       0
      Locals:         0       0       0       0       0       0       0
      Temps:          0       0       0       0       0       0       0
      Totals:         0       0       0       0       0       0       0
Total ram usage:        0 bytes
 Hardware stack levels used:    1
 Hardware stack levels required when called:    3
 This function calls:
		Nothing
 This function is called by:
		_main
 This function uses a non-reentrant model


 *************** function _HWI_DIGITAL_INITIALIZE *****************
 Defined at:
		line 74 in file "../../HWIsource/HWI_DIGITAL.c"
 Parameters:    Size  Location     Type
		None
 Auto vars:     Size  Location     Type
		None
 Return value:  Size  Location     Type
                  1    wreg      void 
 Registers used:
		wreg, status,2
 Tracked objects:
		On entry : 
		On exit  : 
		Unchanged: 
 Data sizes:     COMRAM   BANK0   BANK1   BANK2   BANK3   BANK4   BANK5
      Params:         0       0       0       0       0       0       0
      Locals:         0       0       0       0       0       0       0
      Temps:          0       0       0       0       0       0       0
      Totals:         0       0       0       0       0       0       0
Total ram usage:        0 bytes
 Hardware stack levels used:    1
 Hardware stack levels required when called:    3
 This function calls:
		Nothing
 This function is called by:
		_main
 This function uses a non-reentrant model


 *************** function _CreateTask *****************
 Defined at:
		line 6 in file "../../../../OS/Scheduler/Scheduler.c"
 Parameters:    Size  Location     Type
  MangeFunctio    2   15[COMRAM] PTR FTN()void 
		 -> DisplayAlphaNumeric(1), ManageApplication(1), ManageSpeedCalc(1), 
  TaskId          1   17[COMRAM] unsigned char 
  Period          1   18[COMRAM] unsigned char 
 Auto vars:     Size  Location     Type
		None
 Return value:  Size  Location     Type
                  1    wreg      void 
 Registers used:
		wreg, fsr2l, fsr2h, status,2, status,0, prodl, prodh
 Tracked objects:
		On entry : 
		On exit  : 
		Unchanged: 
 Data sizes:     COMRAM   BANK0   BANK1   BANK2   BANK3   BANK4   BANK5
      Params:         4       0       0       0       0       0       0
      Locals:         0       0       0       0       0       0       0
      Temps:          0       0       0       0       0       0       0
      Totals:         4       0       0       0       0       0       0
Total ram usage:        4 bytes
 Hardware stack levels used:    1
 Hardware stack levels required when called:    3
 This function calls:
		Nothing
 This function is called by:
		_main
 This function uses a non-reentrant model


 *************** function _APP_INITIALIZE *****************
 Defined at:
		line 10 in file "../../../../Common/App/APP.c"
 Parameters:    Size  Location     Type
		None
 Auto vars:     Size  Location     Type
		None
 Return value:  Size  Location     Type
                  1    wreg      void 
 Registers used:
		None
 Tracked objects:
		On entry : 
		On exit  : 
		Unchanged: 
 Data sizes:     COMRAM   BANK0   BANK1   BANK2   BANK3   BANK4   BANK5
      Params:         0       0       0       0       0       0       0
      Locals:         0       0       0       0       0       0       0
      Temps:          0       0       0       0       0       0       0
      Totals:         0       0       0       0       0       0       0
Total ram usage:        0 bytes
 Hardware stack levels used:    1
 Hardware stack levels required when called:    3
 This function calls:
		Nothing
 This function is called by:
		_main
 This function uses a non-reentrant model


 *************** function _ISR *****************
 Defined at:
		line 46 in file "../../HWIsource/HWI_Interrupts.c"
 Parameters:    Size  Location     Type
		None
 Auto vars:     Size  Location     Type
		None
 Return value:  Size  Location     Type
                  1    wreg      void 
 Registers used:
		wreg, fsr2l, fsr2h, status,2, status,0, prodl, prodh, cstack
 Tracked objects:
		On entry : 
		On exit  : 
		Unchanged: 
 Data sizes:     COMRAM   BANK0   BANK1   BANK2   BANK3   BANK4   BANK5
      Params:         0       0       0       0       0       0       0
      Locals:         0       0       0       0       0       0       0
      Temps:         14       0       0       0       0       0       0
      Totals:        14       0       0       0       0       0       0
Total ram usage:       14 bytes
 Hardware stack levels used:    1
 Hardware stack levels required when called:    2
 This function calls:
		_APP_ISR1
		_APP_ISR2
		_SchedulerTick
 This function is called by:
		Interrupt level 2
 This function uses a non-reentrant model


 *************** function _SchedulerTick *****************
 Defined at:
		line 16 in file "../../../../OS/Scheduler/Scheduler.c"
 Parameters:    Size  Location     Type
		None
 Auto vars:     Size  Location     Type
  TaskIndex       1    0[COMRAM] unsigned char 
 Return value:  Size  Location     Type
                  1    wreg      void 
 Registers used:
		wreg, fsr2l, fsr2h, status,2, status,0, prodl, prodh
 Tracked objects:
		On entry : 
		On exit  : 
		Unchanged: 
 Data sizes:     COMRAM   BANK0   BANK1   BANK2   BANK3   BANK4   BANK5
      Params:         0       0       0       0       0       0       0
      Locals:         1       0       0       0       0       0       0
      Temps:          0       0       0       0       0       0       0
      Totals:         1       0       0       0       0       0       0
Total ram usage:        1 bytes
 Hardware stack levels used:    1
 This function calls:
		Nothing
 This function is called by:
		_ISR
 This function uses a non-reentrant model


 *************** function _APP_ISR2 *****************
 Defined at:
		line 13 in file "../../../../Common/Interrupts/AppInterrupts.c"
 Parameters:    Size  Location     Type
		None
 Auto vars:     Size  Location     Type
		None
 Return value:  Size  Location     Type
                  1    wreg      void 
 Registers used:
		wreg, status,2, status,0, cstack
 Tracked objects:
		On entry : 
		On exit  : 
		Unchanged: 
 Data sizes:     COMRAM   BANK0   BANK1   BANK2   BANK3   BANK4   BANK5
      Params:         0       0       0       0       0       0       0
      Locals:         0       0       0       0       0       0       0
      Temps:          0       0       0       0       0       0       0
      Totals:         0       0       0       0       0       0       0
Total ram usage:        0 bytes
 Hardware stack levels used:    1
 Hardware stack levels required when called:    1
 This function calls:
		_SensorTwoNotify
 This function is called by:
		_ISR
 This function uses a non-reentrant model


 *************** function _SensorTwoNotify *****************
 Defined at:
		line 39 in file "../../../../Common/Driver/SpeedCalc/SpeedCalc.c"
 Parameters:    Size  Location     Type
		None
 Auto vars:     Size  Location     Type
		None
 Return value:  Size  Location     Type
                  1    wreg      void 
 Registers used:
		wreg, status,2, status,0
 Tracked objects:
		On entry : 
		On exit  : 
		Unchanged: 
 Data sizes:     COMRAM   BANK0   BANK1   BANK2   BANK3   BANK4   BANK5
      Params:         0       0       0       0       0       0       0
      Locals:         0       0       0       0       0       0       0
      Temps:          0       0       0       0       0       0       0
      Totals:         0       0       0       0       0       0       0
Total ram usage:        0 bytes
 Hardware stack levels used:    1
 This function calls:
		Nothing
 This function is called by:
		_APP_ISR2
 This function uses a non-reentrant model


 *************** function _APP_ISR1 *****************
 Defined at:
		line 8 in file "../../../../Common/Interrupts/AppInterrupts.c"
 Parameters:    Size  Location     Type
		None
 Auto vars:     Size  Location     Type
		None
 Return value:  Size  Location     Type
                  1    wreg      void 
 Registers used:
		wreg, status,2, status,0, cstack
 Tracked objects:
		On entry : 
		On exit  : 
		Unchanged: 
 Data sizes:     COMRAM   BANK0   BANK1   BANK2   BANK3   BANK4   BANK5
      Params:         0       0       0       0       0       0       0
      Locals:         0       0       0       0       0       0       0
      Temps:          0       0       0       0       0       0       0
      Totals:         0       0       0       0       0       0       0
Total ram usage:        0 bytes
 Hardware stack levels used:    1
 Hardware stack levels required when called:    1
 This function calls:
		_SensorOneNotify
 This function is called by:
		_ISR
 This function uses a non-reentrant model


 *************** function _SensorOneNotify *****************
 Defined at:
		line 24 in file "../../../../Common/Driver/SpeedCalc/SpeedCalc.c"
 Parameters:    Size  Location     Type
		None
 Auto vars:     Size  Location     Type
		None
 Return value:  Size  Location     Type
                  1    wreg      void 
 Registers used:
		wreg, status,2, status,0
 Tracked objects:
		On entry : 
		On exit  : 
		Unchanged: 
 Data sizes:     COMRAM   BANK0   BANK1   BANK2   BANK3   BANK4   BANK5
      Params:         0       0       0       0       0       0       0
      Locals:         0       0       0       0       0       0       0
      Temps:          0       0       0       0       0       0       0
      Totals:         0       0       0       0       0       0       0
Total ram usage:        0 bytes
 Hardware stack levels used:    1
 This function calls:
		Nothing
 This function is called by:
		_APP_ISR1
 This function uses a non-reentrant model



MODULE INFORMATION

Module		Function		Class		Link	Load	Size
../../../../Common/Interrupts/AppInterrupts.c
		_APP_ISR1      		CODE           	0D6A	0000	7
		_APP_ISR2      		CODE           	0D64	0000	7

../../../../Common/Interrupts/AppInterrupts.c estimated size: 14

../../../../Common/Driver/BCDdisplay/BCDdisplay.c
		_BCDsendNumber 		CODE           	060E	0000	247
		_BCDManage7segment		CODE           	0AD2	0000	81

../../../../Common/Driver/BCDdisplay/BCDdisplay.c estimated size: 328

C:\Program Files\Microchip\xc8\v1.41\sources\common\Umul32.c
		___lmul        		CODE           	0984	0000	87

C:\Program Files\Microchip\xc8\v1.41\sources\common\Umul32.c estimated size: 87

../../HWIsource/HWI_Interrupts.c
		_ISR           		CODE           	0008	0000	187
		_HWI_TIMERS_INTITALIZE		CODE           	0BB8	0000	59

../../HWIsource/HWI_Interrupts.c estimated size: 246

C:\Program Files\Microchip\xc8\v1.41\sources\common\memset.c
		_memset        		CODE           	0C56	0000	45

C:\Program Files\Microchip\xc8\v1.41\sources\common\memset.c estimated size: 45

shared
		_SevenSegmentMAP		SMALLCONST     	0601	0000	12
		__initialization		CODE           	0BF2	0000	37

shared estimated size: 49

C:\Program Files\Microchip\xc8\v1.41\sources\common\lwdiv.c
		___lwdiv       		CODE           	0A80	0000	83

C:\Program Files\Microchip\xc8\v1.41\sources\common\lwdiv.c estimated size: 83

C:\Program Files\Microchip\xc8\v1.41\sources\common\Umul16.c
		___wmul        		CODE           	0CAC	0000	39

C:\Program Files\Microchip\xc8\v1.41\sources\common\Umul16.c estimated size: 39

../../../../Common/Driver/SpeedCalc/SpeedCalc.c
		_SensorOneNotify		CODE           	0D2E	0000	23
		_SetCircumfirunce		CODE           	0B22	0000	79
		_GetAvgSpeed   		CODE           	0A2E	0000	83
		_SensorTwoNotify		CODE           	0D16	0000	25
		_SpeedCalcNotifyInitialize		CODE           	0CF8	0000	31
		_SpeedCalcManage		CODE           	08C6	0000	103

../../../../Common/Driver/SpeedCalc/SpeedCalc.c estimated size: 344

C:\Program Files\Microchip\xc8\v1.41\sources\common\lldiv.c
		___lldiv       		CODE           	0844	0000	131

C:\Program Files\Microchip\xc8\v1.41\sources\common\lldiv.c estimated size: 131

../../../../Common/App/APP.c
		_APP_MANAGE    		CODE           	0B70	0000	73
		_APP_INITIALIZE		CODE           	0D72	0000	3

../../../../Common/App/APP.c estimated size: 76

../../HWIsource/HWI_DIGITAL.c
		_HWI_8Digit_WRITE		CODE           	0CD2	0000	39
		_HWI_4Digit_WRITE		CODE           	0C24	0000	51
		_HWI_DIGITAL_INITIALIZE		CODE           	0D44	0000	15

../../HWIsource/HWI_DIGITAL.c estimated size: 105

../../../../OS/Scheduler/Scheduler.c
		_SchedulerTick 		CODE           	0C82	0000	43
		_CreateTask    		CODE           	092C	0000	89
		_RunScheduler  		CODE           	07B8	0000	141

../../../../OS/Scheduler/Scheduler.c estimated size: 273

main.c
		_ManageSpeedCalc		CODE           	0D5E	0000	7
		_main          		CODE           	09DA	0000	85
		_ManageApplication		CODE           	0D58	0000	7
		_DisplayAlphaNumeric		CODE           	0D52	0000	7

main.c estimated size: 106

